((dp0
S'arm_dbg_args'
p1
S'-via:"c:\\Marmalade\\7.5\\examples\\GameTutorial\\CPP\\marm1\\build_stage4_vc12\\Stage4_vc12_arm_debug.via" -qemu'
p2
sS'game-icf'
p3
S''
p4
sS'dist'
p5
NsS'csproj'
p6
g4
sS'module_path_append'
p7
NsS'global_path'
p8
S'c:\\marmalade\\7.5\\examples\\gametutorial\\cpp'
p9
sS'system_path'
p10
S'c:\\marmalade\\7.5\\s3e\\makefile_builder'
p11
sS'android_x86_dbg_args'
p12
S'../../tools/DeployTool/DeployTool.exe --dir "c:\\Marmalade\\7.5\\examples\\GameTutorial\\CPP\\marm1\\build_stage4_vc12"'
p13
sS'aarch64-arch-mod'
p14
g4
sS'no-emit'
p15
NsS'arm-float-abi'
p16
g4
sS'arm_rel_rtsm_args'
p17
S'-via:"c:\\Marmalade\\7.5\\examples\\GameTutorial\\CPP\\marm1\\build_stage4_vc12\\Stage4_vc12_arm_release.via" -qemu'
p18
sS'amd64'
p19
NsS'line-width'
p20
I80
sS'gcc_dbg_args'
p21
S'-via:"c:\\Marmalade\\7.5\\examples\\GameTutorial\\CPP\\marm1\\build_stage4_vc12\\Stage4_vc12_gcc_debug.via" -qemu'
p22
sS'android-x86'
p23
NsS'x86_dbg_exe'
p24
S'c:/marmalade/7.5/s3e\\win32\\s3e_simulator_debug.exe'
p25
sS'disable-runtime-checks'
p26
NsS'release'
p27
NsS'no-make'
p28
NsS'xcode-x86-build-settings'
p29
g4
sS'optimise-size'
p30
NsS'fat'
p31
NsS'output-name-debug'
p32
g4
sS'arm-fpu'
p33
g4
sS'proj_name'
p34
S'Stage4_vc12'
p35
sS'rvct-version'
p36
S'none'
p37
sS'compiler'
p38
g4
sS'execute'
p39
NsS'compile-static'
p40
NsS'msvc-project'
p41
I01
sS'buildenv'
p42
S'VC12'
p43
sS'quick'
p44
NsS'module_path'
p45
(lp46
S'c:/Marmalade/7.5/examples/GameTutorial/CPP/modules'
p47
asS'mkf_default'
p48
S's3e-default.mkf'
p49
sS'use-release-std-libs'
p50
NsS'using_perforce'
p51
I00
sS'tizen-x86'
p52
NsS'mips-s3e'
p53
NsS's3e-api-lib-name'
p54
S's3e_api_iwgl'
p55
sS'ios-no-pic'
p56
NsS'shared-arm-lib'
p57
NsS'arm-cpu'
p58
g4
sS'compile-thumb'
p59
NsS'no-ide'
p60
NsS'msvc-version'
p61
S'6.0'
p62
sS'arm'
p63
NsS'builddir'
p64
g4
sS'compile-debug-as-release'
p65
I0
sS'arm-arch'
p66
g4
sS'brief'
p67
NsS'dll'
p68
NsS'buildenv-toolset'
p69
g4
sS'version'
p70
NsS'aarch64-arch'
p71
g4
sS'ccache'
p72
I0
sS'offline'
p73
NsS'ios-version'
p74
g4
sS'hub_data'
p75
g4
sS'fake_vc_call'
p76
NsS'jobs'
p77
I0
sS'linkflags'
p78
NsS'gcc_aarch64_dbg_args'
p79
g13
sS'debug'
p80
NsS'xcode-build-order'
p81
g4
sS'gcc_aarch64_rel_rtsm_args'
p82
S'-via:"c:\\Marmalade\\7.5\\examples\\GameTutorial\\CPP\\marm1\\build_stage4_vc12\\Stage4_vc12_gcc_aarch64_release.via" -qemu'
p83
sS'gcc_rel_rtsm_args'
p84
S'-via:"c:\\Marmalade\\7.5\\examples\\GameTutorial\\CPP\\marm1\\build_stage4_vc12\\Stage4_vc12_gcc_release.via" -qemu'
p85
sS'done_defaults'
p86
I1
sS'path'
p87
NsS's3e-data-dir'
p88
S'c:/Marmalade/7.5/examples/GameTutorial/CPP/marm1\\data'
p89
sS'enable-exceptions'
p90
NsS'osx-dll'
p91
NsS'extension'
p92
g4
sS'no-vc6'
p93
NsS'aarch64'
p94
NsS'win32-console'
p95
NsS'dist-format'
p96
g4
sS's3e-force-arch'
p97
NsS'dump_defines'
p98
NsS'use-shared-std-libs'
p99
NsS'gcc-version'
p100
g4
sS'x86_dbg_args'
p101
S'-via:"c:\\Marmalade\\7.5\\examples\\GameTutorial\\CPP\\marm1\\build_stage4_vc12\\Stage4_vc12_debug.via"'
p102
sS'tizen_x86_dbg_args'
p103
g13
sS'arm-debugger'
p104
g4
sS'use_temp_extension'
p105
NsS'verbose'
p106
I0
sS'log'
p107
NsS'no-strip'
p108
NsS'rebuild'
p109
NsS'mips_dbg_args'
p110
g13
sS'win32-simulator-dll'
p111
NsS'strict'
p112
NsS'xcode-aarch64-build-settings'
p113
g4
sS'enable-global-path'
p114
NsS'gcc_aarch64_rel_args'
p115
g13
sS'cflags'
p116
(lp117
S'-std=gnu++0x'
p118
asS'dist-dir'
p119
g4
sS'xcode-arm-build-settings'
p120
g4
sS'jflags'
p121
NsS'csprojSDKRefs'
p122
g4
sS'tizen_x86_rel_exe'
p123
S'c:\\marmalade\\7.5\\s3e\\makefile_builder\\tool_launcher.exe'
p124
sS'test-assets'
p125
g4
sS'distcc'
p126
NsS'external-compiler'
p127
NsS'no-distcc'
p128
NsS'preinclude'
p129
NsS'using_sdk'
p130
I01
sS'nologo'
p131
NsS'warn-level'
p132
I2
sS'mips_dbg_exe'
p133
g124
sS'mkb_in'
p134
S'c:/Marmalade/7.5/examples/GameTutorial/CPP/marm1/Stage4.mkb'
p135
sS'tizen_x86_dbg_exe'
p136
g124
sS'arm_dbg_exe'
p137
S'c:/marmalade/7.5/s3e\\bin\\armdebug.exe'
p138
sS'mdev-first'
p139
NsS'csprojDLLRef'
p140
NsS'tizen_x86_rel_args'
p141
g13
sS'android_x86_dbg_exe'
p142
g124
sS'test-config'
p143
g4
sS'list-targets'
p144
NsS'arm_rel_exe'
p145
g124
sS'arm_rel_args'
p146
g13
sS'makedeps'
p147
NsS'android_x86_rel_exe'
p148
g124
sS'default-buildenv'
p149
S'vc12'
p150
sS'x86_rel_exe'
p151
g25
sS'preprocess-java'
p152
NsS'mips_rel_args'
p153
g13
sS'defines'
p154
NsS'lib'
p155
NsS'non-interactive'
p156
NsS'global_argv'
p157
(lp158
S'C:\\Marmalade\\7.5\\s3e\\makefile_builder\\mkb.py'
p159
aS'c:/Marmalade/7.5/examples/GameTutorial/CPP/marm1/Stage4.mkb'
p160
aS'--buildenv=VC12'
p161
aS'--default-buildenv=vc12'
p162
aS'--msvc-project'
p163
asS'make'
p164
NsS'optimise-speed'
p165
NsS'internal'
p166
NsS'enable-stdinc'
p167
NsS'deploy-only'
p168
NsS'x86'
p169
NsS'deploy'
p170
g4
sS'x86_run_exe'
p171
S'c:/marmalade/7.5/s3e\\win32\\s3e_console.exe'
p172
sS'cxxflags'
p173
NsS'x86_rel_args'
p174
S'-via:"c:\\Marmalade\\7.5\\examples\\GameTutorial\\CPP\\marm1\\build_stage4_vc12\\Stage4_vc12_release.via"'
p175
sS'gcc_rel_args'
p176
g13
sS'mips'
p177
NsS'xcode-build-settings'
p178
g4
sS'incredibuild'
p179
NsS'strict-compile'
p180
NsS'use-auto-subdirs'
p181
NsS'mips_rel_exe'
p182
g124
sS'android_x86_rel_args'
p183
g13
sS'app-icf'
p184
g4
sS'deployargs'
p185
NsS'iosnativedebug'
p186
NsS'use_prebuilt'
p187
NsS'mkf_in'
p188
(lp189
S'c:\\marmalade\\7.5\\s3e\\s3e-default.mkf'
p190
aS'c:\\marmalade\\7.5\\modules\\iw2d\\iw2d.mkf'
p191
aS'c:\\marmalade\\7.5\\modules\\iwgx\\iwgx.mkf'
p192
aS'c:\\marmalade\\7.5\\modules\\iwgl\\iwgl.mkf'
p193
aS'c:\\marmalade\\7.5\\modules\\iwutil\\iwutil.mkf'
p194
aS'c:\\marmalade\\7.5\\modules\\third_party\\libjpeg\\libjpeg.mkf'
p195
aS'c:\\marmalade\\7.5\\modules\\third_party\\libpng\\libpng.mkf'
p196
aS'c:\\marmalade\\7.5\\modules\\third_party\\zlib\\zlib.mkf'
p197
aS'c:\\marmalade\\7.5\\modules\\iwgeom\\iwgeom.mkf'
p198
aS'c:\\marmalade\\7.5\\modules\\iwresmanager\\iwresmanager.mkf'
p199
aS'c:\\marmalade\\7.5\\extensions\\pvrtextool\\pvrtextool.mkf'
p200
aS'c:\\marmalade\\7.5\\modules\\iwgxfont\\iwgxfont.mkf'
p201
aS'c:\\marmalade\\7.5\\modules\\third_party\\tiniconv\\tiniconv.mkf'
p202
aS'c:\\marmalade\\7.5\\modules\\iw2dscenegraph\\iw2dscenegraph.mkf'
p203
aS'c:\\marmalade\\7.5\\modules\\iw2dscenegraphcore\\iw2dscenegraphcore.mkf'
p204
aS'c:\\marmalade\\7.5\\modules\\iwtween\\iwtween.mkf'
p205
aS'c:\\marmalade\\7.5\\examples\\gametutorial\\cpp\\modules\\soundengine\\soundengine.mkf'
p206
aS'c:\\marmalade\\7.5\\examples\\marmaladeexampleresources\\marmaladeexampleresources.mkf'
p207
asS'strict-mkb'
p208
NsS'executeargs'
p209
NsS'clean'
p210
NsS'no-asm'
p211
NsS'output-name'
p212
g4
sS'no-modules'
p213
NsS'find_define'
p214
g4
s(dp215
S'c:\\marmalade\\7.5\\s3e\\makefile_builder\\templates\\vc7_suo.pyc'
p216
F1424160376.0
sS'c:\\marmalade\\7.5\\s3e\\makefile_builder\\templates\\ws81_vcxproj.pyc'
p217
F1424160380.0
sS'c:\\marmalade\\7.5\\s3e\\makefile_builder\\plugins\\s3e_ws8.pyc'
p218
F1424160376.0
sS'c:\\marmalade\\7.5\\s3e\\makefile_builder\\templates'
p219
F1424630747.758857
sS'c:\\marmalade\\7.5\\s3e\\makefile_builder\\templates\\qmake.py'
p220
F1424159312.0
sS'c:\\marmalade\\7.5\\s3e\\makefile_builder\\templates\\vc10_user.pyc'
p221
F1424160378.0
sS'c:\\marmalade\\7.5\\s3e\\makefile_builder\\plugins'
p222
F1424631019.086376
sS'c:\\marmalade\\7.5\\s3e\\makefile_builder\\mkb_main.pyc'
p223
F1424160376.0
sS'c:\\marmalade\\7.5\\s3e\\makefile_builder\\templates\\mips_linker_script'
p224
F1424159312.0
sS'c:\\marmalade\\7.5\\s3e\\makefile_builder\\plugins\\XcodeEmitter.py'
p225
F1424159310.0
sS'c:\\marmalade\\7.5\\s3e\\makefile_builder\\mkb.py'
p226
F1424159310.0
sS'c:\\marmalade\\7.5\\s3e\\makefile_builder\\templates\\ws81_ext_sln.pyc'
p227
F1424160380.0
sS'c:\\marmalade\\7.5\\s3e\\makefile_builder\\templates\\win32_dsp.pyc'
p228
F1424160376.0
sS'c:\\marmalade\\7.5\\s3e\\makefile_builder\\templates\\ws8_csproj.pyc'
p229
F1424160380.0
sS'c:\\marmalade\\7.5\\s3e\\makefile_builder\\deployment.pyc'
p230
F1424160376.0
sS'c:\\marmalade\\7.5\\s3e\\makefile_builder\\plugins\\win32_vc6.pyc'
p231
F1424160376.0
sS'c:\\marmalade\\7.5\\s3e\\makefile_builder\\plugins\\osx_xcode.pyc'
p232
F1424160376.0
sS'c:\\marmalade\\7.5\\s3e\\makefile_builder\\plugins\\null.pyc'
p233
F1424160376.0
sS'c:\\marmalade\\7.5\\s3e\\makefile_builder\\templates\\wp81_csproj.pyc'
p234
F1424160380.0
sS'c:\\marmalade\\7.5\\s3e\\makefile_builder\\templates\\qmake_user.py'
p235
F1424159312.0
sS'c:\\marmalade\\7.5\\s3e\\makefile_builder\\templates\\vc6_opt.pyc'
p236
F1424160376.0
sS'c:\\marmalade\\7.5\\s3e\\makefile_builder\\plugins\\vc7_utils.pyc'
p237
F1424160376.0
sS'c:\\marmalade\\7.5\\s3e\\makefile_builder\\templates\\wp81_vcxproj.pyc'
p238
F1424160380.0
sS'c:\\marmalade\\7.5\\s3e\\makefile_builder\\templates\\win32_vcxproj.pyc'
p239
F1424160378.0
sS'c:\\marmalade\\7.5\\s3e\\makefile_builder\\templates\\ws8_ext_sln.pyc'
p240
F1424160380.0
sS'c:\\marmalade\\7.5\\s3e\\makefile_builder\\templates\\ws8_ext_csproj.pyc'
p241
F1424160380.0
sS'c:\\marmalade\\7.5\\s3e\\makefile_builder\\templates\\wp8_ext_csproj.pyc'
p242
F1424160378.0
sS'c:\\marmalade\\7.5\\s3e\\makefile_builder\\plugins\\s3e_wp8.pyc'
p243
F1424160376.0
sS'c:\\marmalade\\7.5\\s3e\\makefile_builder\\templates\\ws81_csproj.pyc'
p244
F1424160380.0
sS'c:\\marmalade\\7.5\\s3e\\makefile_builder\\docs\\deprecated.options.txt'
p245
F1424159310.0
sS'c:\\marmalade\\7.5\\s3e\\makefile_builder\\plugins\\s3e_make.pyc'
p246
F1424160376.0
sS'c:\\marmalade\\7.5\\s3e\\makefile_builder\\templates\\win8_ext_csproj.pyc'
p247
F1424160378.0
sS'c:\\marmalade\\7.5\\s3e\\makefile_builder\\mkb_parser.pyc'
p248
F1424160376.0
sS'c:\\marmalade\\7.5\\s3e\\makefile_builder\\plugins\\s3e_web.pyc'
p249
F1424160376.0
sS'c:\\marmalade\\7.5\\s3e\\makefile_builder\\docs\\mkb.defines.txt'
p250
F1424159310.0
sS'c:\\marmalade\\7.5\\s3e\\makefile_builder\\plugins\\osx_scons.pyc'
p251
F1424160376.0
sS'c:\\marmalade\\7.5\\s3e\\makefile_builder\\plugins\\ws81_ws81.pyc'
p252
F1424160376.0
sS'c:\\marmalade\\7.5\\s3e\\makefile_builder\\plugins\\s3e_qmake.py'
p253
F1424159312.0
sS'c:\\marmalade\\7.5\\s3e\\makefile_builder\\templates\\win8_csproj.pyc'
p254
F1424160378.0
sS'c:\\marmalade\\7.5\\s3e\\makefile_builder\\plugins\\s3e_vc6.pyc'
p255
F1424160376.0
sS'c:\\marmalade\\7.5\\s3e\\makefile_builder\\plugins\\wp81_wp81.pyc'
p256
F1424160376.0
sS'c:\\marmalade\\7.5\\s3e\\makefile_builder\\templates\\wp81_csproj_user.pyc'
p257
F1424160380.0
sS'c:\\marmalade\\7.5\\s3e\\makefile_builder\\templates\\win32_dsw.pyc'
p258
F1424160376.0
sS'c:\\marmalade\\7.5\\s3e\\makefile_builder\\templates\\xcode4.xcscheme'
p259
F1424159312.0
sS'c:\\marmalade\\7.5\\s3e\\makefile_builder\\templates\\template.opt'
p260
F1424159312.0
sS'c:\\marmalade\\7.5\\s3e\\makefile_builder\\templates\\template.suo'
p261
F1424159312.0
sS'c:\\marmalade\\7.5\\s3e\\makefile_builder\\templates\\linker_script'
p262
F1424159312.0
sS'c:\\marmalade\\7.5\\s3e\\makefile_builder\\templates\\gdb_start.txt'
p263
F1424159312.0
sS'c:\\marmalade\\7.5\\s3e\\makefile_builder\\mkb_launcher.exe'
p264
F1424159548.0
sS'c:\\marmalade\\7.5\\s3e\\makefile_builder\\templates\\scons.pyc'
p265
F1424160376.0
sS'c:\\marmalade\\7.5\\s3e\\makefile_builder\\docs\\parse_options.pyc'
p266
F1424160380.0
sS'c:\\marmalade\\7.5\\s3e\\makefile_builder\\templates\\xcode4_arm.xcscheme'
p267
F1424159312.0
sS'c:\\marmalade\\7.5\\s3e\\makefile_builder\\plugins\\VisualStudioEmitter.pyc'
p268
F1424160376.0
sS'c:\\marmalade\\7.5\\s3e\\makefile_builder\\plugins\\s3e_xcode.pyc'
p269
F1424631019.087376
sS'c:\\marmalade\\7.5\\s3e\\makefile_builder\\plugins\\Emitter.pyc'
p270
F1424160376.0
sS'c:\\marmalade\\7.5\\s3e\\makefile_builder\\templates\\ws8_sln.pyc'
p271
F1424160380.0
sS'c:\\marmalade\\7.5\\s3e\\makefile_builder\\tool_launcher.exe'
p272
F1424159548.0
sS'c:\\marmalade\\7.5\\s3e\\makefile_builder\\templates\\wp8_sln.pyc'
p273
F1424160378.0
sS'c:\\marmalade\\7.5\\s3e\\makefile_builder\\mkb_upstream.pyc'
p274
F1424160376.0
sS'c:\\marmalade\\7.5\\s3e\\makefile_builder\\templates\\ws81_csproj_user.pyc'
p275
F1424160380.0
sS'c:\\marmalade\\7.5\\s3e\\makefile_builder\\templates\\win32_sln.pyc'
p276
F1424160376.0
sS'c:\\marmalade\\7.5\\s3e\\makefile_builder\\templates\\xcode4_DeployTool.xcscheme'
p277
F1424159312.0
sS'c:\\marmalade\\7.5\\s3e\\makefile_builder\\plugins\\deploy.pyc'
p278
F1424160376.0
sS'c:\\marmalade\\7.5\\s3e\\makefile_builder\\plugins\\s3e_win8.pyc'
p279
F1424160376.0
sS'c:\\marmalade\\7.5\\s3e\\makefile_builder\\plugins\\iphone.pyc'
p280
F1424160376.0
sS'c:\\marmalade\\7.5\\s3e\\makefile_builder\\plugins\\Win8Emitter.pyc'
p281
F1424160376.0
sS'c:\\marmalade\\7.5\\s3e\\makefile_builder\\plugins\\s3e_qmake.pyc'
p282
F1424631018.9523683
sS'c:\\marmalade\\7.5\\s3e\\makefile_builder\\docs'
p283
F1424630747.7758577
sS'c:\\marmalade\\7.5\\s3e\\makefile_builder\\mkb_globals.pyc'
p284
F1424160376.0
sS'c:\\marmalade\\7.5\\s3e\\makefile_builder\\plugins\\win8_utils.pyc'
p285
F1424160376.0
sS'c:\\marmalade\\7.5\\s3e\\makefile_builder\\plugins\\xcode4_schememanagement.py'
p286
F1424159312.0
sS'c:\\marmalade\\7.5\\s3e\\makefile_builder\\templates\\wp81_ext_sln.pyc'
p287
F1424160380.0
sS'c:\\marmalade\\7.5\\s3e\\makefile_builder\\templates\\make.py'
p288
F1424159312.0
sS'c:\\marmalade\\7.5\\s3e\\makefile_builder\\templates\\ws81_ext_csproj.pyc'
p289
F1424160380.0
sS'c:\\marmalade\\7.5\\s3e\\makefile_builder\\plugins\\s3e_xcode.py'
p290
F1424159312.0
sS'c:\\marmalade\\7.5\\s3e\\makefile_builder\\plugins\\XcodeEmitter.pyc'
p291
F1424631018.8013597
sS'c:\\marmalade\\7.5\\s3e\\makefile_builder\\docs\\deployment_options.txt'
p292
F1424159310.0
sS'c:\\marmalade\\7.5\\s3e\\makefile_builder\\templates\\win8_sln.pyc'
p293
F1424160378.0
sS'c:\\marmalade\\7.5\\s3e\\makefile_builder\\plugins\\java.pyc'
p294
F1424160376.0
sS'c:\\marmalade\\7.5\\s3e\\makefile_builder\\plugins\\xcode4_schememanagement.pyc'
p295
F1424631018.80836
sS'c:\\marmalade\\7.5\\s3e\\makefile_builder\\plugins\\SConsEmitter.pyc'
p296
F1424160376.0
sS'c:\\marmalade\\7.5\\s3e\\makefile_builder\\templates\\win32_vcproj.pyc'
p297
F1424160378.0
sS'c:\\marmalade\\7.5\\s3e\\makefile_builder\\plugins\\wp8_wp8.pyc'
p298
F1424160376.0
sS'c:\\marmalade\\7.5\\s3e\\makefile_builder\\templates\\MainWindow.xib'
p299
F1424159312.0
sS'c:\\marmalade\\7.5\\s3e\\makefile_builder\\mkb_util.pyc'
p300
F1424160376.0
sS'c:\\marmalade\\7.5\\s3e\\makefile_builder\\templates\\vc8_user.pyc'
p301
F1424160378.0
sS'c:\\marmalade\\7.5\\s3e\\makefile_builder\\templates\\Info.plist'
p302
F1424159312.0
sS'c:\\marmalade\\7.5\\s3e\\makefile_builder\\templates\\wp8_csproj_user.pyc'
p303
F1424160378.0
sS'c:\\marmalade\\7.5\\s3e\\makefile_builder\\docs\\deprecated.defines.txt'
p304
F1424159310.0
sS'c:\\marmalade\\7.5\\s3e\\makefile_builder\\templates\\ws8_csproj_user.pyc'
p305
F1424160380.0
sS'c:\\marmalade\\7.5\\s3e\\makefile_builder\\plugins\\S3EEmitter.pyc'
p306
F1424160376.0
sS'c:\\marmalade\\7.5\\s3e\\makefile_builder\\templates\\rvct_linker_script'
p307
F1424159312.0
sS'c:\\marmalade\\7.5\\s3e\\makefile_builder\\templates\\xcode_pbxuser.py'
p308
F1424159312.0
sS'c:\\marmalade\\7.5\\s3e\\makefile_builder\\docs\\options.txt'
p309
F1424159310.0
sS'c:\\marmalade\\7.5\\s3e\\makefile_builder\\templates\\wp81_sln.pyc'
p310
F1424160380.0
sS'c:\\marmalade\\7.5\\s3e\\makefile_builder\\templates\\ws81_sln.pyc'
p311
F1424160380.0
sS'c:\\marmalade\\7.5\\s3e\\makefile_builder\\plugins\\vc6_utils.pyc'
p312
F1424160376.0
sS'c:\\marmalade\\7.5\\s3e\\makefile_builder\\templates\\wp81_ext_csproj.pyc'
p313
F1424160380.0
sS'c:\\marmalade\\7.5\\s3e\\makefile_builder\\plugins\\s3e_wp81.pyc'
p314
F1424160376.0
sS'c:\\marmalade\\7.5\\s3e\\makefile_builder\\templates\\aarch64_linker_script'
p315
F1424159312.0
sS'c:\\marmalade\\7.5\\s3e\\makefile_builder\\templates\\ws8_vcxproj.pyc'
p316
F1424160380.0
sS'c:\\marmalade\\7.5\\s3e\\makefile_builder\\plugins\\MakeEmitter.pyc'
p317
F1424160376.0
sS'c:\\marmalade\\7.5\\s3e\\makefile_builder\\templates\\win32_vcxproj_filters.pyc'
p318
F1424160378.0
sS'c:\\marmalade\\7.5\\s3e\\makefile_builder\\templates\\xcode.py'
p319
F1424159312.0
sS'c:\\marmalade\\7.5\\s3e\\makefile_builder\\plugins\\s3e_ws81.pyc'
p320
F1424160376.0
sS'c:\\marmalade\\7.5\\s3e\\makefile_builder\\plugins\\linux_scons.pyc'
p321
F1424160376.0
sS'c:\\marmalade\\7.5\\s3e\\makefile_builder\\templates\\win8_vcxproj.pyc'
p322
F1424160378.0
sS'c:\\marmalade\\7.5\\s3e\\makefile_builder\\plugins\\s3e_scons.pyc'
p323
F1424160376.0
sS'c:\\marmalade\\7.5\\s3e\\makefile_builder\\templates\\wp8_csproj.pyc'
p324
F1424160378.0
sS'c:\\marmalade\\7.5\\s3e\\makefile_builder\\templates\\win8_csproj_user.pyc'
p325
F1424160378.0
sS'c:\\marmalade\\7.5\\s3e\\makefile_builder\\plugins\\ws8_ws8.pyc'
p326
F1424160376.0
sS'c:\\marmalade\\7.5\\s3e\\makefile_builder\\templates\\wp8_vcxproj.pyc'
p327
F1424160378.0
sS'c:\\marmalade\\7.5\\s3e\\makefile_builder\\mkb_option.pyc'
p328
F1424160376.0
sccopy_reg
_reconstructor
p329
(cmkb_main
MkbFile
p330
c__builtin__
object
p331
Ntp332
Rp333
(dp334
g5
(lp335
sS'target_name'
p336
S'Stage4'
p337
sS'current_file'
p338
g135
sS'package_path'
p339
(lp340
sS'post_build'
p341
(lp342
(lp343
S'c:/marmalade/7.5/s3e/tools'
p344
aS'C:\\Marmalade\\7.5\\s3e\\python\\python.exe .\\process_map.py "$(TargetPath)"'
p345
aa(S'c:\\marmalade\\7.5\\s3e\\bin'
p346
S'"s3e_plink" -l "$(TargetPath)" '
p347
g169
tp348
asS'librarys'
p349
(lp350
g329
(cmkb_main
Library
p351
g331
Ntp352
Rp353
(dp354
S'name'
p355
S'vc6_compat.lib'
p356
sS'expand_name'
p357
I00
sS'include_spec_rvct_objs'
p358
(lp359
sS'include_all_objs'
p360
I00
sS'share_arm'
p361
I00
sS'arch'
p362
S'x86'
p363
sS'nodebug'
p364
I00
sg38
Nsbag329
(g351
g331
Ntp365
Rp366
(dp367
g355
S'iw2d'
p368
sg357
I01
sg358
(lp369
sg360
Nsg361
Nsg362
Nsg364
I00
sg38
Nsbag329
(g351
g331
Ntp370
Rp371
(dp372
g355
S'ATI_Compress_MT_VC7.lib'
p373
sg357
I00
sg358
g369
sg360
Nsg361
Nsg362
S'x86'
p374
sg364
I00
sg38
Nsbag329
(g351
g331
Ntp375
Rp376
(dp377
g355
S'iwgx'
p378
sg357
I01
sg358
g369
sg360
Nsg361
Nsg362
Nsg364
I00
sg38
Nsbag329
(g351
g331
Ntp379
Rp380
(dp381
g355
S'iwgl'
p382
sg357
I01
sg358
g369
sg360
Nsg361
Nsg362
Nsg364
I00
sg38
Nsbag329
(g351
g331
Ntp383
Rp384
(dp385
g355
S'iwutil'
p386
sg357
I01
sg358
g369
sg360
Nsg361
Nsg362
Nsg364
I00
sg38
Nsbag329
(g351
g331
Ntp387
Rp388
(dp389
g355
S'jpeg'
p390
sg357
I01
sg358
g369
sg360
Nsg361
Nsg362
Nsg364
I00
sg38
Nsbag329
(g351
g331
Ntp391
Rp392
(dp393
g355
S'z'
p394
sg357
I01
sg358
g369
sg360
Nsg361
Nsg362
Nsg364
I00
sg38
Nsbag329
(g351
g331
Ntp395
Rp396
(dp397
g355
S'png'
p398
sg357
I01
sg358
g369
sg360
Nsg361
Nsg362
Nsg364
I00
sg38
Nsbag329
(g351
g331
Ntp399
Rp400
(dp401
g355
S'iwgeom'
p402
sg357
I01
sg358
g369
sg360
Nsg361
Nsg362
Nsg364
I00
sg38
Nsbag329
(g351
g331
Ntp403
Rp404
(dp405
g355
S'iwresmanager'
p406
sg357
I01
sg358
g369
sg360
Nsg361
Nsg362
Nsg364
I00
sg38
Nsbag329
(g351
g331
Ntp407
Rp408
(dp409
g355
S'iwgxfont'
p410
sg357
I01
sg358
g369
sg360
Nsg361
Nsg362
Nsg364
I00
sg38
Nsbag329
(g351
g331
Ntp411
Rp412
(dp413
g355
S'tiniconv'
p414
sg357
I01
sg358
g369
sg360
Nsg361
Nsg362
Nsg364
I00
sg38
Nsbag329
(g351
g331
Ntp415
Rp416
(dp417
g355
S's3e_cpp'
p418
sg357
I01
sg358
g359
sg360
I00
sg361
I00
sg362
Nsg364
I00
sg38
Nsbag329
(g351
g331
Ntp419
Rp420
(dp421
g355
S's3e'
p422
sg357
I01
sg358
(lp423
S'iwcrt.o'
p424
asg360
I00
sg361
I00
sg362
Nsg364
I00
sg38
Nsbag329
(g351
g331
Ntp425
Rp426
(dp427
g355
g55
sg357
I01
sg358
g359
sg360
I00
sg361
I00
sg362
S'x86'
p428
sg364
I01
sg38
Nsbag329
(g351
g331
Ntp429
Rp430
(dp431
g355
g55
sg357
I01
sg358
g359
sg360
I00
sg361
I00
sg362
S'!x86'
p432
sg364
I01
sg38
Nsbag329
(g351
g331
Ntp433
Rp434
(dp435
g355
S'stdc++'
p436
sg357
I00
sg358
g359
sg360
I00
sg361
I00
sg362
S'mips'
p437
sg364
I00
sg38
Nsbag329
(g351
g331
Ntp438
Rp439
(dp440
g355
S'c'
p441
sg357
I00
sg358
g359
sg360
I00
sg361
I00
sg362
S'mips'
p442
sg364
I00
sg38
Nsbag329
(g351
g331
Ntp443
Rp444
(dp445
g355
S'm'
p446
sg357
I00
sg358
g359
sg360
I00
sg361
I00
sg362
S'mips'
p447
sg364
I00
sg38
Nsbag329
(g351
g331
Ntp448
Rp449
(dp450
g355
S'gcc'
p451
sg357
I00
sg358
g359
sg360
I00
sg361
I00
sg362
S'mips'
p452
sg364
I00
sg38
Nsbag329
(g351
g331
Ntp453
Rp454
(dp455
g355
S'stdc++'
p456
sg357
I00
sg358
g359
sg360
I00
sg361
I00
sg362
S'gcc_x86_android'
p457
sg364
I00
sg38
Nsbag329
(g351
g331
Ntp458
Rp459
(dp460
g355
g441
sg357
I00
sg358
g359
sg360
I00
sg361
I00
sg362
S'gcc_x86_android'
p461
sg364
I00
sg38
Nsbag329
(g351
g331
Ntp462
Rp463
(dp464
g355
g446
sg357
I00
sg358
g359
sg360
I00
sg361
I00
sg362
S'gcc_x86_android'
p465
sg364
I00
sg38
Nsbag329
(g351
g331
Ntp466
Rp467
(dp468
g355
g451
sg357
I00
sg358
g359
sg360
I00
sg361
I00
sg362
S'gcc_x86_android'
p469
sg364
I00
sg38
NsbasS'library_paths'
p470
(lp471
g329
(cmkb_main
LibraryPath
p472
g331
Ntp473
Rp474
(dp475
S'expand_path'
p476
I01
sg355
S'c:/marmalade/7.5/modules/iw2d'
p477
sbag329
(g472
g331
Ntp478
Rp479
(dp480
g476
I00
sg355
S'c:/marmalade/7.5/modules/iwgx/atitools'
p481
sbag329
(g472
g331
Ntp482
Rp483
(dp484
g476
I01
sg355
S'c:/marmalade/7.5/modules/iwgx'
p485
sbag329
(g472
g331
Ntp486
Rp487
(dp488
g476
I01
sg355
S'c:/marmalade/7.5/modules/iwgl'
p489
sbag329
(g472
g331
Ntp490
Rp491
(dp492
g476
I01
sg355
S'c:/marmalade/7.5/modules/iwutil'
p493
sbag329
(g472
g331
Ntp494
Rp495
(dp496
g476
I01
sg355
S'c:/marmalade/7.5/modules/third_party/libjpeg'
p497
sbag329
(g472
g331
Ntp498
Rp499
(dp500
g476
I01
sg355
S'c:/marmalade/7.5/modules/third_party/zlib'
p501
sbag329
(g472
g331
Ntp502
Rp503
(dp504
g476
I01
sg355
S'c:/marmalade/7.5/modules/third_party/libpng'
p505
sbag329
(g472
g331
Ntp506
Rp507
(dp508
g476
I01
sg355
S'c:/marmalade/7.5/modules/iwgeom'
p509
sbag329
(g472
g331
Ntp510
Rp511
(dp512
g476
I01
sg355
S'c:/marmalade/7.5/modules/iwresmanager'
p513
sbag329
(g472
g331
Ntp514
Rp515
(dp516
g476
I01
sg355
S'c:/marmalade/7.5/modules/iwgxfont'
p517
sbag329
(g472
g331
Ntp518
Rp519
(dp520
g476
I01
sg355
S'c:/marmalade/7.5/modules/third_party/tiniconv'
p521
sbag329
(g472
g331
Ntp522
Rp523
(dp524
g476
I01
sg355
S'c:/marmalade/7.5/s3e'
p525
sbasS'macros'
p526
(dp527
S'IW_USE_CALLSTACK'
p528
NsS'IW_MKF_IWGEOM'
p529
NsS'I3D_PLATFORM_S3E'
p530
NsS'IW_TRACE_CHANNEL_PVRTEXTOOL_VERBOSE'
p531
S'2'
p532
sS'IW_MKF_LIBJPEG'
p533
NsS'I3D_OS_S3E'
p534
NsS'IW_MKF_PVRTEXTOOL'
p535
NsS'IW_MKF_TINICONV'
p536
NsS'IW_APP_VERSION'
p537
S'"1.0"'
p538
sS'__S3E__'
p539
NsS'IW_MKF_IWRESMANAGER'
p540
NsS'IW_MKF_IWUTIL'
p541
NsS'IW_PLATFORM_S3E'
p542
NsS'IW_ASSERTION_CHANNEL_2D'
p543
S'1'
p544
sS'IW_APP_NAME'
p545
S'"Stage4"'
p546
sS'IW_MKF_MARMALADEEXAMPLERESOURCES'
p547
NsS'IW_MKF_IWGXFONT'
p548
NsS'IW_MKF_IWTWEEN'
p549
NsS'IW_MKF_ZLIB'
p550
NsS'IW_MKF_S3E_DEFAULT'
p551
NsS'IW_MKF_IWGX'
p552
NsS'IW_MKF_IW2DSCENEGRAPH'
p553
NsS'IW_MKF_SOUNDENGINE'
p554
NsS'IW_USE_ASSERTIONS'
p555
NsS'_CRT_SECURE_NO_DEPRECATE'
p556
NsS'IW_MKF_IWGL'
p557
NsS'IW_MKF_LIBPNG'
p558
NsS'IW_TRACE_CHANNEL_IW_2DSCENEGRAPH'
p559
g544
sS'IW_DEBUG'
p560
NsS'IW_USE_TRACING'
p561
NsS'IW_ASSERTION_CHANNEL_IW_2DSCENEGRAPH'
p562
g544
sS'IW_TRACE_CHANNEL_PVRTEXTOOL'
p563
g544
sS'IW_SDK'
p564
NsS'S3E_INCLUDE_LEGACY'
p565
NsS'IW_MKF_IW2DSCENEGRAPHCORE'
p566
NsS'IW_MKF_IW2D'
p567
NsS'IW_ASSERTION_CHANNEL_PVRTEXTOOL'
p568
g544
ssS'done_warnings'
p569
(dp570
sS'subprojects'
p571
(dp572
g192
S'iwgx'
p573
sg201
S'iwgxfont'
p574
sg190
S's3e-default.mkf'
p575
sg204
S'../iw2dscenegraphcore'
p576
sg197
S'zlib'
p577
sg199
S'iwresmanager'
p578
sg202
S'tiniconv'
p579
sg195
S'libjpeg'
p580
sg191
S'iw2d'
p581
sg207
S'../../../MarmaladeExampleResources'
p582
sg194
S'iwutil'
p583
sg205
S'iwtween'
p584
sg196
S'libpng'
p585
sg203
S'iw2dscenegraph'
p586
sg206
S'SoundEngine'
p587
sg193
S'iwgl'
p588
sg198
S'iwgeom'
p589
sg200
S'PVRTexTool'
p590
ssS'deployments'
p591
(dp592
S'Default'
p593
g329
(cdeployment
Deployment
p594
g331
Ntp595
Rp596
(dp597
S'got_version'
p598
I0
sS'assets'
p599
g593
sS'mkb'
p600
g333
sS'target'
p601
Nsg362
(lp602
sS'options'
p603
(dp604
S'iphone-link-lib'
p605
(lp606
sS'game-icf'
p607
NsS'android-tm'
p608
NsS'winmobile-icon32'
p609
NsS'ws8-logo-image150x150'
p610
NsS'wp81-logo-image150x150'
p611
NsS'android-keystore'
p612
NsS'osx-ext-dll'
p613
(lp614
S'c:/marmalade/7.5/extensions/pvrtextool/lib/osx/libPVRTexTool.dylib'
p615
asS'iphone-provisioning-profile'
p616
NsS'ws8-splash-screen-image620x300'
p617
NsS'wp81-extra-pri'
p618
(lp619
sS'ws8-ext-capabilities'
p620
(lp621
sS'android-icon-hdpi'
p622
NsS'iphone-ipad-only'
p623
NsS'iphone-splash-full-orient'
p624
NsS'wp8-tile-fliptemplate-supports-large'
p625
NsS'iphone-show-status-bar'
p626
NsS'roku-requires-mkv'
p627
NsS'long-caption'
p628
NsS'android-pkgname'
p629
NsS'wp81-publisher-display-name'
p630
NsS'blackberry-permissions-read-device-identifying-information'
p631
NsS'ws81-certificate-end-date'
p632
NsS'psp-dlgcontentid'
p633
NsS'iphone-minimum-ios-version'
p634
NsS'target-folder'
p635
NsS'tizen-dist1-CA-path'
p636
NsS'symbian-icon2-format'
p637
NsS'tizen-author-key'
p638
NsS'firefoxos-icon-128X128'
p639
NsS'iphone-region'
p640
NsS'uiq3-icon3-mask'
p641
NsS'brew-encoding'
p642
NsS'android-x86'
p643
NsS'nds-initialcode'
p644
NsS'iphone-persistent-wifi'
p645
NsS'psp-snd0'
p646
NsS'roku-icon-focus-hd'
p647
NsS'osx-appid'
p648
NsS'winmobile-install-folder'
p649
NsS'android-external-res'
p650
(lp651
sS'ws8-product-version'
p652
NsS'brew-priviledges'
p653
NsS'iphone-info-plist-override'
p654
NsS'iphone-icon-ipad'
p655
NsS'iphone-skip-icon-generation'
p656
NsS'roku-hidden'
p657
NsS'psp-titlename'
p658
NsS'wp81-product-version'
p659
NsS'symbian-icon1-mask'
p660
NsS'psp-parentallevel'
p661
NsS'iphone-launch-storyboard'
p662
NsS'splashscreen-use-all'
p663
NsS'wp8-author'
p664
NsS'symbian-disable-ecompxl'
p665
NsS'splashscreen-auto-onblack'
p666
NsS'iphone-icon-dir'
p667
NsS'iphone-icon-extra'
p668
NsS'win32-ext-dll'
p669
(lp670
S'c:/marmalade/7.5/extensions/pvrtextool/lib/win32/PVRTexTool.dll'
p671
asS'iphone-development-key'
p672
NsS'winmobile-icon48'
p673
NsS'android-unsigned'
p674
NsS'osx-appstore-category'
p675
NsS'version-revision'
p676
NsS'roku-icon-focus-sd'
p677
NsS'ws81-product-version'
p678
NsS'winmobile-png90'
p679
NsS'iphone-icon-ipad-high-res'
p680
NsS'iphone-disable-ipad'
p681
NsS'ws81-splash-screen-background'
p682
NsS'wp8-ext-capabilities'
p683
(lp684
sS'brew-icon-large'
p685
NsS'symbian-icon1-mask-black'
p686
NsS'ws8-extra-res'
p687
(lp688
sS'iphone-bundle-localisations'
p689
NsS'winmobile-png60'
p690
NsS'blackberry-permissions-access-shared'
p691
NsS'blackberry-author'
p692
NsS'android-icon-xxxhdpi'
p693
NsS'olddeploytoolstyle'
p694
NsS'android_icon_gallery'
p695
NsS'wp81-splash-screen-background'
p696
NsS'winmobile-cab-compress'
p697
NsS'iphone-info-plist'
p698
NsS'ws81-ext-managed-dll'
p699
(lp700
sS'playbook-cskpass'
p701
NsS'win32-icon'
p702
NsS'symbian-key'
p703
NsS'app-icf'
p704
NsS'blackberry-storepass'
p705
NsS'wp8-tile-fliptemplate-back-title'
p706
NsS'brew-compress-loader'
p707
NsS'iphone-testflight'
p708
NsS'win32-pref-windowposy'
p709
NsS'win32-pref-windowposx'
p710
NsS'roku-requires-audiometadata'
p711
NsS'wp8-exclude-low-mem'
p712
NsS'iphone-icon-ipad-search-high-res'
p713
NsS'iphone-link-libdir'
p714
(lp715
sS'wp81-ext-capabilities'
p716
(lp717
sS'blackberry-permissions-read-geolocation'
p718
NsS'ws81-ext-device-capabilities'
p719
(lp720
sS'tizen-signed'
p721
NsS'android-extra-application-manifest'
p722
(lp723
sS'ws8-ext-native-dll'
p724
(lp725
sS'symbian-icon2-mask'
p726
NsS'iphone-launch-extra'
p727
NsS'webos-memory'
p728
NsS'android-keypass'
p729
NsS'name'
p730
NsS'uiq3-icon2-format'
p731
NsS'roku-splash-screen-sd'
p732
NsS'auto-derbh'
p733
NsS'roku-icon-side-sd'
p734
NsS'android-external-assets'
p735
(lp736
sS'nds-publicsavedatasize'
p737
NsS'splashscreen'
p738
S'c:/marmalade/7.5/examples/marmaladeexampleresources/resources/splashscreens'
p739
sS'brew-mif'
p740
NsS'iphone-icon-settings-high-res'
p741
NsS'android-manifest'
p742
NsS'ws81-splash-screen-image620x300'
p743
NsS'wp81-product-name'
p744
NsS's3e-compression'
p745
NsS'tizen-author-password'
p746
NsS'wp8-tile-fliptemplate-back-content'
p747
NsS'blackberry-extra-descriptor'
p748
(lp749
sS'symbian-icon1'
p750
NsS'symbian-icon2'
p751
NsS'nds-makercode'
p752
NsS'android-extra-styles-file'
p753
NsS'wp81-publisher-id'
p754
NsS'nds-bannertitle-jp'
p755
NsS'wp81-logo-image44x44'
p756
NsS'osx-sign-for-store'
p757
NsS'symbian7-uid'
p758
NsS'wp8-tile-fliptemplate-large-back-content'
p759
NsS'wp81-phone-publisher-id'
p760
NsS'nds-bannertitle-cn'
p761
NsS'iphone-distribution-key'
p762
NsS'android-icon-gallery'
p763
NsS'blackberry-keystore'
p764
NsS'iphone-nosign'
p765
NsS'caption'
p766
NsS'android-extra-manifest'
p767
(lp768
sS'wp81-ext-sdk-ref'
p769
(lp770
sS'android-icon-xxhdpi'
p771
NsS'version-minor'
p772
NsS'iphone-skip-launch-generation'
p773
NsS'iphone-link-libdirs'
p774
(lp775
sS'iphone-icon-large'
p776
NsS'symbian-keypwd'
p777
NsS'symbian8-uid'
p778
NsS'symbian-cert-key'
p779
NsS'winmobile-ampd-part-number'
p780
NsS'arch'
p781
NsS'nds-romheadertemplate'
p782
NsS'webos-icon'
p783
NsS'wp81-ext-device-capabilities'
p784
(lp785
sS'psp-dlgprotectdocument'
p786
NsS'ws8-splash-screen-background'
p787
NsS'android-icon-mdpi'
p788
NsS'nds-icon'
p789
NsS'ws8-custom-manifest-fill'
p790
NsS'iphone-development-cert'
p791
NsS'and'
p792
NsS'symbian-icon2-mask-black'
p793
NsS'blackberry-phone-icon'
p794
NsS'iphone-enable-4inch-retina'
p795
NsS'ws8-custom-manifest'
p796
NsS'version-major'
p797
NsS'wp8-genre-isgame'
p798
NsS'uiq3-uid'
p799
NsS'iphone-splash-retina-generate'
p800
NsS'tizen-hw-acceleration'
p801
NsS'iphone_bundle_localisations'
p802
NsS'tizen-dist1-key'
p803
NsS'wp81-custom-manifest-fill'
p804
NsS'wp8-custom-manifest'
p805
NsS'nds-bannertitle-ge'
p806
NsS'iphone-sign-for-distribution'
p807
NsS'wp8-tile-fliptemplate-medium-back-image'
p808
NsS'wp8-publisher-id'
p809
NsS'icon'
p810
S'c:/marmalade/7.5/examples/marmaladeexampleresources/resources/icons'
p811
sS'wp8-exclude-wxga'
p812
NsS'wp81-identity-name'
p813
NsS'uiq3-icon2-mask'
p814
NsS'iphone-splashscreen-portrait'
p815
NsS'iphone-icon-high-res'
p816
NsS'ws81-distribution-pfx-password'
p817
NsS'playbook-author'
p818
NsS'android-icon-xhdpi'
p819
NsS'linux-ext-lib'
p820
(lp821
sS'blackberry-permissions-access-internet'
p822
NsS'wp8-exclude-720p'
p823
NsS'lgtv-use-drm'
p824
NsS'symbian-platsecflags'
p825
NsS'ws8-description'
p826
NsS'blackberry-playbook-icon'
p827
NsS'copyright'
p828
NsS'ws8-distribution-pfx-password'
p829
NsS'win32-gles-directory'
p830
NsS'version'
p831
NsS'iphone-uiviewcontroller-based-status-bar'
p832
NsS'ws81-logo-image150x150'
p833
NsS'osx-signing-identity-app'
p834
NsS'tizen-project-url'
p835
NsS'symbian-icon-svg'
p836
NsS'android-aliasname'
p837
NsS'psp-dlgmanual'
p838
NsS'brew-uid'
p839
NsS'symbian-locationsupport'
p840
NsS'wp81-logo-image50x50'
p841
NsS'ws8-ext-managed-dll'
p842
(lp843
sS'nds-bannertitle-it'
p844
NsS'ws81-custom-manifest-fill'
p845
NsS'ws8-ext-sdk-manifest-part'
p846
(lp847
sS'uiq3-icon1-mask'
p848
NsS'winmobile-icon16'
p849
NsS'ws8-product-name'
p850
NsS'blackberry-cskpass'
p851
NsS'winmobile-start-menu-folder'
p852
NsS'brew-clsid'
p853
NsS'roku-requires-bluetooth'
p854
NsS'iphone-default-development-profile'
p855
NsS'ws8-ext-device-capabilities'
p856
(lp857
sS'blackberry-permissions-use-camera'
p858
NsS'ws81-extra-pri'
p859
(lp860
sS'iphone-prerendered-icon'
p861
NsS'iphone-appid'
p862
NsS'ws8-identity-name'
p863
NsS'tizen-dist2-CA-path'
p864
NsS'android-external-jars'
p865
(lp866
sS'winmobile-icon64'
p867
NsS'blackberry-permissions-post-notification'
p868
NsS'winmobile-setup-dll'
p869
NsS'firefoxos-manifest'
p870
NsS'win8-winrt-extra-res'
p871
(lp872
sS'wp81-ext-sdk-manifest-part'
p873
(lp874
sS'symbian9-uid'
p875
NsS'iphone-icon-ipad-ios7'
p876
NsS'winmobile-trace-file'
p877
NsS'roku-splash-color'
p878
NsS'psp-appversion'
p879
NsS'ws8-publisher-id'
p880
NsS'android-supports-gl-texture'
p881
(lp882
sS'winmobile-png45'
p883
NsS'wp81-extra-res'
p884
(lp885
sS'android-storepass'
p886
NsS'osx-signing-identity-inst'
p887
NsS'android-custom-activity'
p888
NsS'psp-discversion'
p889
NsS'wp81-ext-managed-dll'
p890
(lp891
sS'psp-copyright'
p892
NsS'embed-icf'
p893
NsS'tizen-manifest'
p894
NsS'osx-icon'
p895
NsS'webos-appinfo'
p896
NsS'psp-dlghealthwarning'
p897
NsS'webos-appid'
p898
NsS'roku-icon-side-hd'
p899
NsS'iphone-icon-ipad-search-high-res-ios7'
p900
NsS'iphone-extra-plist'
p901
(lp902
sS'ws81-ext-sdk-manifest-part'
p903
(lp904
sS'loader_name_prefix'
p905
NsS'iphone-launch-dir'
p906
NsS'nds-titlename'
p907
NsS'ws81-logo-image50x50'
p908
NsS'wp81-custom-manifest'
p909
NsS'osx-entitlements-plist'
p910
NsS'psp-dlgicon0'
p911
NsS'winmobile-nouninstall'
p912
NsS'psp-discid'
p913
NsS'tizen-dist2-password'
p914
NsS'ws8-ext-sdk-ref'
p915
(lp916
sS'iphone-extra-string'
p917
(lp918
sS'version-string'
p919
NsS'iphone-icon-high-res-ios7'
p920
NsS'blackberry-permissions-record-audio'
p921
NsS'ws8-certificate-end-date'
p922
NsS'tizen-so'
p923
(lp924
sS'wp8-tile-fliptemplate-small-image'
p925
NsS'playbook-authorid'
p926
NsS'iphone-signing-identity'
p927
NsS'roku-persist-quota'
p928
NsS'nds-bannertitle-fr'
p929
NsS'ws8-distribution-pfx'
p930
NsS'ws8-publisher-display-name'
p931
NsS'brew-icon-small'
p932
NsS'psp-dlgpic2'
p933
NsS'psp-dlgpic0'
p934
NsS'psp-pic0'
p935
NsS'psp-pic1'
p936
NsS'win32-pref-windowtitle'
p937
NsS'psp-icon0'
p938
NsS'psp-icon1'
p939
NsS'ws81-identity-name'
p940
NsS'winmobile-icon'
p941
NsS'iphone-no-splash'
p942
NsS'iphone-splash'
p943
NsS'iphone-app-fonts'
p944
NsS'wp8-ext-native-dll'
p945
(lp946
sS'wp81-splash-screen-image480x800'
p947
NsS'ws81-distribution-cer'
p948
NsS'iphone-backgroundmode-audio'
p949
NsS'uiq3-icon2'
p950
NsS'uiq3-icon3'
p951
NsS'uiq3-icon1'
p952
NsS'uiq3-icon1-format'
p953
NsS'ws8-logo-image50x50'
p954
NsS'iphone-icon-ipad-search'
p955
NsS'symbian-run-on-install'
p956
NsS'wp81-description'
p957
NsS'ws81-publisher-display-name'
p958
NsS'firefoxos-xulrunner'
p959
NsS'symbian-soundrecordsupport'
p960
NsS'nds-bannertitle-sp'
p961
NsS'psp-producer'
p962
NsS'iphone-apple-wwdr-cert'
p963
NsS'android-icon-nonstandard'
p964
NsS'win32-pref-processtitle'
p965
NsS'nds-bannertitle-hn'
p966
NsS'tizen-dist2-key'
p967
NsS'brew-depends'
p968
NsS'ws81-custom-manifest'
p969
NsS'iphone-allow-launch-rotation'
p970
NsS'iphone-icon-ipad-search-ios7'
p971
NsS'brew-icon-medium'
p972
NsS'iphone-bundle-url-name'
p973
NsS'wp8-tile-fliptemplate-large-front-image'
p974
NsS'tizen-dist2-CA-root-path'
p975
NsS'ws81-description'
p976
NsS'uiq3-icon3-format'
p977
NsS'ws81-logo-image30x30'
p978
NsS'win8-phone-extra-res'
p979
(lp980
sS'iphone-signing-host'
p981
NsS'tizen-icon'
p982
NsS'osx-info-plist'
p983
NsS'symbian-icon1-format'
p984
NsS'ws81-distribution-pfx'
p985
NsS'blackberry-authorid'
p986
NsS'ws81-publisher-id'
p987
NsS'win8-store-extra-res'
p988
(lp989
sS'wp8-description'
p990
NsS'iphone-link-opts'
p991
(lp992
sS'ws81-ext-sdk-ref'
p993
(lp994
sS'roku-splash-min-time'
p995
NsS'wp8-tile-fliptemplate-medium-front-image'
p996
NsS'iphone-disable-launch-images'
p997
NsS'provider'
p998
NsS'playbook-keystore'
p999
NsS'tizen-appid'
p1000
NsS'wp8-extra-res'
p1001
(lp1002
sS'symbian-osexecsupport'
p1003
NsS'android-install-location'
p1004
NsS'nds-privatesavedatasize'
p1005
NsS'iphone-disable-testflight'
p1006
NsS'playbook-storepass'
p1007
NsS'android-icon-ldpi'
p1008
NsS'manufacturer'
p1009
NsS'itunes-artwork'
p1010
NsS'iphone-extra-sections'
p1011
NsS'ws81-product-name'
p1012
NsS'ws81-ext-native-dll'
p1013
(lp1014
sS'ws8-extra-pri'
p1015
(lp1016
sS'wp8-product-id'
p1017
NsS'ws8-logo-image30x30'
p1018
NsS'wp8-ext-managed-dll'
p1019
(lp1020
sS'iphone-splashscreen-landscape'
p1021
NsS'symbian-maxheapsize'
p1022
NsS'android-extra-packages'
p1023
(lp1024
sS'priv-sign-key'
p1025
NsS'networking'
p1026
NsS'android-icon'
p1027
NsS'iphone-icon-settings'
p1028
NsS'wp81-phone-product-id'
p1029
NsS'firefoxos-icon-60X60'
p1030
NsS'iphone-distribution-cert'
p1031
NsS'android_extra_strings'
p1032
NsS'nds-bannertitle-en'
p1033
NsS'wp8-tile-fliptemplate-title'
p1034
NsS'android-so'
p1035
(lp1036
sS'wp8-higher-mem'
p1037
NsS'wp8-ext-sdk-ref'
p1038
(lp1039
sS'wp8-fast-resume-mode'
p1040
NsS'roku-splash-screen-hd'
p1041
NsS'iphone-bundle-url-schemes'
p1042
NsS'roku-screensaver-private'
p1043
NsS'osx-extra-res'
p1044
(lp1045
sS'ws81-extra-res'
p1046
(lp1047
sS'playbook-icon'
p1048
NsS'uid'
p1049
NsS'pkguid-as-uid'
p1050
NsS'wp81-ext-native-dll'
p1051
(lp1052
sS'tizen-dist1-password'
p1053
NsS'roku-screensaver-title'
p1054
NsS'osx-minimum-osx-version'
p1055
NsS'symbian-cert'
p1056
NsS'iphone-icon'
p1057
NsS'ws81-ext-capabilities'
p1058
(lp1059
sS'ws8-distribution-cer'
p1060
NsS'playbook-access-shared'
p1061
NsS'iphone-icon-ipad-high-res-ios7'
p1062
NsS'iphone-link-libs'
p1063
(lp1064
sS'wp8-exclude-wvga'
p1065
NsS'assets'
p1066
NsS'wp8-tile-fliptemplate-large-back-image'
p1067
NsS'wp8-custom-manifest-fill'
p1068
NsS'pub-sign-key'
p1069
NsS'android-extra-strings'
p1070
NsS'tizen-author-CA-path'
p1071
Nssg355
g593
sbssS'platform'
p1072
S'S3E'
p1073
sg70
S'1.0'
p1074
sS'arcade_platform'
p1075
g4
sS'extensions'
p1076
(dp1077
sS'source_groups_tree'
p1078
(dp1079
S'(libpng)'
p1080
(dp1081
S'h'
p1082
(dp1083
S'c:/marmalade/7.5/modules/third_party/libpng/h/png.h'
p1084
(lp1085
I1
a(dp1086
asS'c:/marmalade/7.5/modules/third_party/libpng/h/pngconf.h'
p1087
(lp1088
I1
ag1086
assS'c:/marmalade/7.5/modules/third_party/libpng/libpng.mkf'
p1089
(lp1090
I1
a(dp1091
assS'(libjpeg)'
p1092
(dp1093
S'c:/marmalade/7.5/modules/third_party/libjpeg/libjpeg.mkf'
p1094
(lp1095
I1
a(dp1096
asg1082
(dp1097
S'c:/marmalade/7.5/modules/third_party/libjpeg/h/jerror.h'
p1098
(lp1099
I1
a(dp1100
asS'c:/marmalade/7.5/modules/third_party/libjpeg/h/jdhuff.h'
p1101
(lp1102
I1
ag1100
asS'c:/marmalade/7.5/modules/third_party/libjpeg/h/cderror.h'
p1103
(lp1104
I1
ag1100
asS'c:/marmalade/7.5/modules/third_party/libjpeg/h/transupp.h'
p1105
(lp1106
I1
ag1100
asS'c:/marmalade/7.5/modules/third_party/libjpeg/h/jinclude.h'
p1107
(lp1108
I1
ag1100
asS'c:/marmalade/7.5/modules/third_party/libjpeg/h/jmorecfg.h'
p1109
(lp1110
I1
ag1100
asS'c:/marmalade/7.5/modules/third_party/libjpeg/h/jdct.h'
p1111
(lp1112
I1
ag1100
asS'c:/marmalade/7.5/modules/third_party/libjpeg/h/jmemsys.h'
p1113
(lp1114
I1
ag1100
asS'c:/marmalade/7.5/modules/third_party/libjpeg/h/jpegint.h'
p1115
(lp1116
I1
ag1100
asS'c:/marmalade/7.5/modules/third_party/libjpeg/h/jchuff.h'
p1117
(lp1118
I1
ag1100
asS'c:/marmalade/7.5/modules/third_party/libjpeg/h/cdjpeg.h'
p1119
(lp1120
I1
ag1100
asS'c:/marmalade/7.5/modules/third_party/libjpeg/h/jversion.h'
p1121
(lp1122
I1
ag1100
asS'c:/marmalade/7.5/modules/third_party/libjpeg/h/jconfig.h'
p1123
(lp1124
I1
ag1100
asS'c:/marmalade/7.5/modules/third_party/libjpeg/h/jpeglib.h'
p1125
(lp1126
I1
ag1100
asssS'(tiniconv)'
p1127
(dp1128
S'c:/marmalade/7.5/modules/third_party/tiniconv/tiniconv.mkf'
p1129
(lp1130
I1
a(dp1131
asS'c:/marmalade/7.5/modules/third_party/tiniconv/source/tiniconv_int.h'
p1132
(lp1133
I1
a(dp1134
asS'c:/marmalade/7.5/modules/third_party/tiniconv/source/tiniconv.h'
p1135
(lp1136
I1
ag1134
assS'(SoundEngine)'
p1137
(dp1138
S'c:/marmalade/7.5/examples/gametutorial/cpp/modules/soundengine/source/IwSoundGroup.cpp'
p1139
(lp1140
I1
a(dp1141
asS'c:/marmalade/7.5/examples/gametutorial/cpp/modules/soundengine/h/IwSoundADPCM.h'
p1142
(lp1143
I1
ag1141
asS'c:/marmalade/7.5/examples/gametutorial/cpp/modules/soundengine/source/IwResHandlerWAV.cpp'
p1144
(lp1145
I1
ag1141
asS'c:/marmalade/7.5/examples/gametutorial/cpp/modules/soundengine/h/IwResHandlerWAV.h'
p1146
(lp1147
I1
ag1141
asS'Docs'
p1148
(dp1149
S'c:/marmalade/7.5/examples/gametutorial/cpp/modules/soundengine/docs/iwsound.config.txt'
p1150
(lp1151
I1
ag1141
assS'c:/marmalade/7.5/examples/gametutorial/cpp/modules/soundengine/h/IwSoundInst.h'
p1152
(lp1153
I1
ag1141
asS'c:/marmalade/7.5/examples/gametutorial/cpp/modules/soundengine/source/IwSoundManager.cpp'
p1154
(lp1155
I1
ag1141
asS'c:/marmalade/7.5/examples/gametutorial/cpp/modules/soundengine/h/IwSoundSpec.h'
p1156
(lp1157
I1
ag1141
asS'c:/marmalade/7.5/examples/gametutorial/cpp/modules/soundengine/source/IwSoundParams.cpp'
p1158
(lp1159
I1
ag1141
asS'c:/marmalade/7.5/examples/gametutorial/cpp/modules/soundengine/h/IwSoundManager.h'
p1160
(lp1161
I1
ag1141
asS'c:/marmalade/7.5/examples/gametutorial/cpp/modules/soundengine/source/IwSoundPCM.cpp'
p1162
(lp1163
I1
ag1141
asS'c:/marmalade/7.5/examples/gametutorial/cpp/modules/soundengine/source/IwSoundWAV.cpp'
p1164
(lp1165
I1
ag1141
asS'c:/marmalade/7.5/examples/gametutorial/cpp/modules/soundengine/source/IwSoundInst.cpp'
p1166
(lp1167
I1
ag1141
asS'c:/marmalade/7.5/examples/gametutorial/cpp/modules/soundengine/h/IwSoundWAV.h'
p1168
(lp1169
I1
ag1141
asS'c:/marmalade/7.5/examples/gametutorial/cpp/modules/soundengine/source/IwSoundSpec.cpp'
p1170
(lp1171
I1
ag1141
asS'c:/marmalade/7.5/examples/gametutorial/cpp/modules/soundengine/h/IwSoundParams.h'
p1172
(lp1173
I1
ag1141
asS'c:/marmalade/7.5/examples/gametutorial/cpp/modules/soundengine/source/IwSoundADPCM.cpp'
p1174
(lp1175
I1
ag1141
asS'c:/marmalade/7.5/examples/gametutorial/cpp/modules/soundengine/h/IwSound.h'
p1176
(lp1177
I1
ag1141
asS'c:/marmalade/7.5/examples/gametutorial/cpp/modules/soundengine/source/IwSoundData.cpp'
p1178
(lp1179
I1
ag1141
asS'c:/marmalade/7.5/examples/gametutorial/cpp/modules/soundengine/h/IwSoundData.h'
p1180
(lp1181
I1
ag1141
asS'c:/marmalade/7.5/examples/gametutorial/cpp/modules/soundengine/h/IwSoundPCM.h'
p1182
(lp1183
I1
ag1141
asS'c:/marmalade/7.5/examples/gametutorial/cpp/modules/soundengine/soundengine.mkf'
p1184
(lp1185
I1
a(dp1186
asS'c:/marmalade/7.5/examples/gametutorial/cpp/modules/soundengine/h/IwSoundGroup.h'
p1187
(lp1188
I1
ag1141
assS'(MarmaladeExampleResources)'
p1189
(dp1190
S'c:/marmalade/7.5/examples/marmaladeexampleresources/marmaladeexampleresources.mkf'
p1191
(lp1192
I1
a(dp1193
assS'source'
p1194
(dp1195
S'c:/Marmalade/7.5/examples/GameTutorial/CPP/marm1/source/Layer.cpp'
p1196
(lp1197
I1
a(dp1198
asS'c:/Marmalade/7.5/examples/GameTutorial/CPP/marm1/source/mainMenu.h'
p1199
(lp1200
I1
ag1198
asS'c:/Marmalade/7.5/examples/GameTutorial/CPP/marm1/source/main.h'
p1201
(lp1202
I1
ag1198
asS'c:/Marmalade/7.5/examples/GameTutorial/CPP/marm1/source/Entity.h'
p1203
(lp1204
I1
ag1198
asS'c:/Marmalade/7.5/examples/GameTutorial/CPP/marm1/source/hero.h'
p1205
(lp1206
I1
ag1198
asS'c:/Marmalade/7.5/examples/GameTutorial/CPP/marm1/source/scene.cpp'
p1207
(lp1208
I1
ag1198
asS'c:/Marmalade/7.5/examples/GameTutorial/CPP/marm1/source/Enemymanager.cpp'
p1209
(lp1210
I1
ag1198
asS'c:/Marmalade/7.5/examples/GameTutorial/CPP/marm1/source/Level.h'
p1211
(lp1212
I1
ag1198
asS'c:/Marmalade/7.5/examples/GameTutorial/CPP/marm1/source/input.h'
p1213
(lp1214
I1
ag1198
asS'c:/Marmalade/7.5/examples/GameTutorial/CPP/marm1/source/audio.h'
p1215
(lp1216
I1
ag1198
asS'c:/Marmalade/7.5/examples/GameTutorial/CPP/marm1/source/resources.h'
p1217
(lp1218
I1
ag1198
asS'c:/Marmalade/7.5/examples/GameTutorial/CPP/marm1/source/mainMenu.cpp'
p1219
(lp1220
I1
ag1198
asS'c:/Marmalade/7.5/examples/GameTutorial/CPP/marm1/source/input.cpp'
p1221
(lp1222
I1
ag1198
asS'c:/Marmalade/7.5/examples/GameTutorial/CPP/marm1/source/Shark.h'
p1223
(lp1224
I1
ag1198
asS'c:/Marmalade/7.5/examples/GameTutorial/CPP/marm1/source/main.cpp'
p1225
(lp1226
I1
ag1198
asS'c:/Marmalade/7.5/examples/GameTutorial/CPP/marm1/source/Shark.cpp'
p1227
(lp1228
I1
ag1198
asS'c:/Marmalade/7.5/examples/GameTutorial/CPP/marm1/source/resources.cpp'
p1229
(lp1230
I1
ag1198
asS'c:/Marmalade/7.5/examples/GameTutorial/CPP/marm1/source/Entity.cpp'
p1231
(lp1232
I1
ag1198
asS'c:/Marmalade/7.5/examples/GameTutorial/CPP/marm1/source/Levelmanager.h'
p1233
(lp1234
I1
ag1198
asS'c:/Marmalade/7.5/examples/GameTutorial/CPP/marm1/source/Enemymanager.h'
p1235
(lp1236
I1
ag1198
asS'c:/Marmalade/7.5/examples/GameTutorial/CPP/marm1/source/Levelmanager.cpp'
p1237
(lp1238
I1
ag1198
asS'c:/Marmalade/7.5/examples/GameTutorial/CPP/marm1/source/GameScene.cpp'
p1239
(lp1240
I1
ag1198
asS'c:/Marmalade/7.5/examples/GameTutorial/CPP/marm1/source/BackgroundEntity.h'
p1241
(lp1242
I1
ag1198
asS'c:/Marmalade/7.5/examples/GameTutorial/CPP/marm1/source/pauseMenu.h'
p1243
(lp1244
I1
ag1198
asS'c:/Marmalade/7.5/examples/GameTutorial/CPP/marm1/source/BackgroundEntity.cpp'
p1245
(lp1246
I1
ag1198
asS'c:/Marmalade/7.5/examples/GameTutorial/CPP/marm1/source/Layer.h'
p1247
(lp1248
I1
ag1198
asS'c:/Marmalade/7.5/examples/GameTutorial/CPP/marm1/source/pauseMenu.cpp'
p1249
(lp1250
I1
ag1198
asS'c:/Marmalade/7.5/examples/GameTutorial/CPP/marm1/source/scene.h'
p1251
(lp1252
I1
ag1198
asS'c:/Marmalade/7.5/examples/GameTutorial/CPP/marm1/source/audio.cpp'
p1253
(lp1254
I1
ag1198
asS'c:/Marmalade/7.5/examples/GameTutorial/CPP/marm1/source/hero.cpp'
p1255
(lp1256
I1
ag1198
asS'c:/Marmalade/7.5/examples/GameTutorial/CPP/marm1/source/GameScene.h'
p1257
(lp1258
I1
ag1198
assS'Extensions'
p1259
(dp1260
S'PVRTexTool'
p1261
(dp1262
S'interface'
p1263
(dp1264
S'c:/marmalade/7.5/extensions/pvrtextool/interface/PVRTexTool.defines.txt'
p1265
(lp1266
I1
a(dp1267
asS'c:/marmalade/7.5/extensions/pvrtextool/interface/PVRTexTool_interface.cpp'
p1268
(lp1269
I1
ag1267
assS'c:/marmalade/7.5/extensions/pvrtextool/h/PVRTexTool.h'
p1270
(lp1271
I1
ag1267
asS'c:/marmalade/7.5/extensions/pvrtextool/pvrtextool.mkf'
p1272
(lp1273
I1
a(dp1274
asssS"'Marmalade Studio'"
p1275
(dp1276
S'iw2dscenegraph'
p1277
(dp1278
S'c:/marmalade/7.5/modules/iw2dscenegraph/source/Iw2DSceneGraph.cpp'
p1279
(lp1280
I1
a(dp1281
asS'c:/marmalade/7.5/modules/iw2dscenegraph/docs/iw2dscenegraph.defines.txt'
p1282
(lp1283
I1
ag1281
asS'c:/marmalade/7.5/modules/iw2dscenegraph/h/Iw2DSceneGraph.h'
p1284
(lp1285
I1
ag1281
asS'c:/marmalade/7.5/modules/iw2dscenegraph/iw2dscenegraph.mkf'
p1286
(lp1287
I1
a(dp1288
assS'iwgl'
p1289
(dp1290
S'c:/marmalade/7.5/modules/iwgl/iwgl.mkf'
p1291
(lp1292
I1
a(dp1293
asS'c:/marmalade/7.5/modules/iwgl/h/IwGL.h'
p1294
(lp1295
I1
a(dp1296
asS'c:/marmalade/7.5/modules/iwgl/docs/iwgl.config.txt'
p1297
(lp1298
I1
ag1296
asS'c:/marmalade/7.5/modules/iwgl/h/IwGLExt.h'
p1299
(lp1300
I1
ag1296
assS'iw2d'
p1301
(dp1302
S'c:/marmalade/7.5/modules/iw2d/docs/iw2d_public.defines.txt'
p1303
(lp1304
I1
a(dp1305
asS'c:/marmalade/7.5/modules/iw2d/docs/iw2d.config.txt'
p1306
(lp1307
I1
ag1305
asS'c:/marmalade/7.5/modules/iw2d/h/Iw2D.h'
p1308
(lp1309
I1
ag1305
asS'c:/marmalade/7.5/modules/iw2d/iw2d.mkf'
p1310
(lp1311
I1
a(dp1312
assS'iwgxfont'
p1313
(dp1314
S'c:/marmalade/7.5/modules/iwgxfont/h/IwGxFontGlyph.h'
p1315
(lp1316
I1
a(dp1317
asS'c:/marmalade/7.5/modules/iwgxfont/h/IwGxFontTypes.h'
p1318
(lp1319
I1
ag1317
asS'c:/marmalade/7.5/modules/iwgxfont/docs/iwgxfont.config.txt'
p1320
(lp1321
I1
ag1317
asS'c:/marmalade/7.5/modules/iwgxfont/h/IwGxFontState.h'
p1322
(lp1323
I1
ag1317
asS'c:/marmalade/7.5/modules/iwgxfont/h/IwGxFontContainer.h'
p1324
(lp1325
I1
ag1317
asS'c:/marmalade/7.5/modules/iwgxfont/iwgxfont.mkf'
p1326
(lp1327
I1
a(dp1328
asS'c:/marmalade/7.5/modules/iwgxfont/h/IwGxFontPreparedData.h'
p1329
(lp1330
I1
ag1317
asS'c:/marmalade/7.5/modules/iwgxfont/h/IwGxFont.h'
p1331
(lp1332
I1
ag1317
asS'c:/marmalade/7.5/modules/iwgxfont/docs/iwgxfont_public.defines.txt'
p1333
(lp1334
I1
ag1317
assS'iwgeom'
p1335
(dp1336
S'c:/marmalade/7.5/modules/iwgeom/h/IwGeomSVec2.h'
p1337
(lp1338
I1
a(dp1339
asS'c:/marmalade/7.5/modules/iwgeom/h/IwGeomSphere.h'
p1340
(lp1341
I1
ag1339
asS'c:/marmalade/7.5/modules/iwgeom/h/IwGeomSVec3.h'
p1342
(lp1343
I1
ag1339
asS'c:/marmalade/7.5/modules/iwgeom/iwgeom.mkf'
p1344
(lp1345
I1
a(dp1346
asS'c:/marmalade/7.5/modules/iwgeom/h/IwGeomSqrt.h'
p1347
(lp1348
I1
ag1339
asS'c:/marmalade/7.5/modules/iwgeom/h/IwGeomFQuat.h'
p1349
(lp1350
I1
ag1339
asS'c:/marmalade/7.5/modules/iwgeom/h/IwGeomQuat.h.tpl'
p1351
(lp1352
I1
ag1339
asS'c:/marmalade/7.5/modules/iwgeom/h/IwGeomVec2.h'
p1353
(lp1354
I1
ag1339
asS'c:/marmalade/7.5/modules/iwgeom/h/IwGeomMat.h'
p1355
(lp1356
I1
ag1339
asS'c:/marmalade/7.5/modules/iwgeom/h/IwGeomVec3.h'
p1357
(lp1358
I1
ag1339
asS'c:/marmalade/7.5/modules/iwgeom/h/IwGeomLegacy.h'
p1359
(lp1360
I1
ag1339
asS'c:/marmalade/7.5/modules/iwgeom/h/IwGeom.h'
p1361
(lp1362
I1
ag1339
asS'c:/marmalade/7.5/modules/iwgeom/h/IwGeomSQuat.h'
p1363
(lp1364
I1
ag1339
asS'c:/marmalade/7.5/modules/iwgeom/h/IwGeomFBBox.h'
p1365
(lp1366
I1
ag1339
asS'c:/marmalade/7.5/modules/iwgeom/h/IwGeomFMat.h'
p1367
(lp1368
I1
ag1339
asS'c:/marmalade/7.5/modules/iwgeom/h/IwGeomPlane.h'
p1369
(lp1370
I1
ag1339
asS'c:/marmalade/7.5/modules/iwgeom/h/IwGeomMat2D.h'
p1371
(lp1372
I1
ag1339
asS'c:/marmalade/7.5/modules/iwgeom/h/IwGeomFVec2.h'
p1373
(lp1374
I1
ag1339
asS'c:/marmalade/7.5/modules/iwgeom/h/IwGeomSVec4.h'
p1375
(lp1376
I1
ag1339
asS'c:/marmalade/7.5/modules/iwgeom/h/IwGeomVec4.h'
p1377
(lp1378
I1
ag1339
asS'c:/marmalade/7.5/modules/iwgeom/h/IwGeomCore.h'
p1379
(lp1380
I1
ag1339
asS'c:/marmalade/7.5/modules/iwgeom/h/IwGeomVec.h.tpl'
p1381
(lp1382
I1
ag1339
asS'c:/marmalade/7.5/modules/iwgeom/h/IwGeomVec.h'
p1383
(lp1384
I1
ag1339
asS'c:/marmalade/7.5/modules/iwgeom/h/IwGeomIntersect.h'
p1385
(lp1386
I1
ag1339
asS'c:/marmalade/7.5/modules/iwgeom/h/IwGeomFVec4.h'
p1387
(lp1388
I1
ag1339
asS'c:/marmalade/7.5/modules/iwgeom/h/IwGeomMat.h.tpl'
p1389
(lp1390
I1
ag1339
asS'c:/marmalade/7.5/modules/iwgeom/h/IwGeomMat2D.h.tpl'
p1391
(lp1392
I1
ag1339
asS'c:/marmalade/7.5/modules/iwgeom/h/IwGeomFMat2D.h'
p1393
(lp1394
I1
ag1339
asS'c:/marmalade/7.5/modules/iwgeom/h/IwGeomMenu.h'
p1395
(lp1396
I1
ag1339
asS'c:/marmalade/7.5/modules/iwgeom/h/IwGeomBBox.h'
p1397
(lp1398
I1
ag1339
asS'c:/marmalade/7.5/modules/iwgeom/h/IwGeomFSphere.h'
p1399
(lp1400
I1
ag1339
asS'c:/marmalade/7.5/modules/iwgeom/h/IwGeomFVec3.h'
p1401
(lp1402
I1
ag1339
asS'c:/marmalade/7.5/modules/iwgeom/h/IwGeomFPlane.h'
p1403
(lp1404
I1
ag1339
asS'c:/marmalade/7.5/modules/iwgeom/docs/iwgeom.config.txt'
p1405
(lp1406
I1
ag1339
asS'c:/marmalade/7.5/modules/iwgeom/h/IwGeomQuat.h'
p1407
(lp1408
I1
ag1339
asS'c:/marmalade/7.5/modules/iwgeom/h/IwGeomFIntersect.h'
p1409
(lp1410
I1
ag1339
assS'iwresmanager'
p1411
(dp1412
S'c:/marmalade/7.5/modules/iwresmanager/h/IwResHandlerITX.h'
p1413
(lp1414
I1
a(dp1415
asS'c:/marmalade/7.5/modules/iwresmanager/h/IwResSerialise.h'
p1416
(lp1417
I1
ag1415
asS'c:/marmalade/7.5/modules/iwresmanager/h/IwResManagerClass.h'
p1418
(lp1419
I1
ag1415
asS'c:/marmalade/7.5/modules/iwresmanager/h/IwResHandlerGROUP.h'
p1420
(lp1421
I1
ag1415
asS'c:/marmalade/7.5/modules/iwresmanager/h/IwResManager.h'
p1422
(lp1423
I1
ag1415
asS'c:/marmalade/7.5/modules/iwresmanager/iwresmanager.mkf'
p1424
(lp1425
I1
a(dp1426
asS'c:/marmalade/7.5/modules/iwresmanager/docs/iwresmanager.config.txt'
p1427
(lp1428
I1
ag1415
asS'c:/marmalade/7.5/modules/iwresmanager/h/IwResGroup.h'
p1429
(lp1430
I1
ag1415
asS'c:/marmalade/7.5/modules/iwresmanager/h/IwResHandler.h'
p1431
(lp1432
I1
ag1415
asS'c:/marmalade/7.5/modules/iwresmanager/h/IwResHandlerImage.h'
p1433
(lp1434
I1
ag1415
assS'iwgx'
p1435
(dp1436
S'c:/marmalade/7.5/modules/iwgx/h/IwDebugPrim.h'
p1437
(lp1438
I1
a(dp1439
asS'c:/marmalade/7.5/modules/iwgx/h/IwMatAnim.h'
p1440
(lp1441
I1
ag1439
asS'c:/marmalade/7.5/modules/iwgx/h/IwTexture.h'
p1442
(lp1443
I1
ag1439
asS'c:/marmalade/7.5/modules/iwgx/h/IwGxFuncTable.h'
p1444
(lp1445
I1
ag1439
asS'c:/marmalade/7.5/modules/iwgx/h/IwResHandlerMTL.h'
p1446
(lp1447
I1
ag1439
asS'c:/marmalade/7.5/modules/iwgx/h/IwGxPrint.h'
p1448
(lp1449
I1
ag1439
asS'c:/marmalade/7.5/modules/iwgx/h/IwGxStream.h'
p1450
(lp1451
I1
ag1439
asS'c:/marmalade/7.5/modules/iwgx/h/IwClip.h'
p1452
(lp1453
I1
ag1439
asS'c:/marmalade/7.5/modules/iwgx/h/IwGxSurface.h'
p1454
(lp1455
I1
ag1439
asS'c:/marmalade/7.5/modules/iwgx/h/IwGxError.h'
p1456
(lp1457
I1
ag1439
asS'c:/marmalade/7.5/modules/iwgx/h/IwGx.h'
p1458
(lp1459
I1
ag1439
asS'c:/marmalade/7.5/modules/iwgx/docs/iwgx_public.defines.txt'
p1460
(lp1461
I1
ag1439
asS'c:/marmalade/7.5/modules/iwgx/h/IwGxDebug.h'
p1462
(lp1463
I1
ag1439
asS'c:/marmalade/7.5/modules/iwgx/h/IwGxShaderTechnique.h'
p1464
(lp1465
I1
ag1439
asS'c:/marmalade/7.5/modules/iwgx/h/IwGxTransformSW.h'
p1466
(lp1467
I1
ag1439
asS'c:/marmalade/7.5/modules/iwgx/h/IwMaterial.h'
p1468
(lp1469
I1
ag1439
asS'c:/marmalade/7.5/modules/iwgx/h/IwGxMetrics.h'
p1470
(lp1471
I1
ag1439
asS'c:/marmalade/7.5/modules/iwgx/h/IwClip.inl'
p1472
(lp1473
I1
ag1439
asS'c:/marmalade/7.5/modules/iwgx/h/IwFColour.h'
p1474
(lp1475
I1
ag1439
asS'c:/marmalade/7.5/modules/iwgx/h/IwGxTypes.h'
p1476
(lp1477
I1
ag1439
asS'c:/marmalade/7.5/modules/iwgx/iwgx.mkf'
p1478
(lp1479
I1
a(dp1480
asS'c:/marmalade/7.5/modules/iwgx/docs/iwgx.config.txt'
p1481
(lp1482
I1
ag1439
asS'c:/marmalade/7.5/modules/iwgx/h/IwColour.h'
p1483
(lp1484
I1
ag1439
asS'c:/marmalade/7.5/modules/iwgx/h/IwGxState.h'
p1485
(lp1486
I1
ag1439
asS'c:/marmalade/7.5/modules/iwgx/h/IwTPage.h'
p1487
(lp1488
I1
ag1439
assS'iw2dscenegraphcore'
p1489
(dp1490
S'c:/marmalade/7.5/modules/iw2dscenegraphcore/iw2dscenegraphcore.mkf'
p1491
(lp1492
I1
a(dp1493
asS'c:/marmalade/7.5/modules/iw2dscenegraphcore/h/Iw2DSceneGraphCore.h'
p1494
(lp1495
I1
a(dp1496
asS'c:/marmalade/7.5/modules/iw2dscenegraphcore/source/Iw2DSceneGraphCore.cpp'
p1497
(lp1498
I1
ag1496
assS'iwutil'
p1499
(dp1500
S'c:/marmalade/7.5/modules/iwutil/h/IwSingleton.h'
p1501
(lp1502
I1
a(dp1503
asS'c:/marmalade/7.5/modules/iwutil/h/IwMath.h'
p1504
(lp1505
I1
ag1503
asS'c:/marmalade/7.5/modules/iwutil/h/IwBuffer.h'
p1506
(lp1507
I1
ag1503
asS'c:/marmalade/7.5/modules/iwutil/h/IwCore.h'
p1508
(lp1509
I1
ag1503
asS'c:/marmalade/7.5/modules/iwutil/h/IwDivide.h'
p1510
(lp1511
I1
ag1503
asS'c:/marmalade/7.5/modules/iwutil/h/IwMemory.h'
p1512
(lp1513
I1
ag1503
asS'c:/marmalade/7.5/modules/iwutil/h/IwImageHelper.h'
p1514
(lp1515
I1
ag1503
asS'c:/marmalade/7.5/modules/iwutil/h/IwManagedList.h'
p1516
(lp1517
I1
ag1503
asS'c:/marmalade/7.5/modules/iwutil/h/IwProfileMenu.h'
p1518
(lp1519
I1
ag1503
asS'c:/marmalade/7.5/modules/iwutil/h/IwClassFactory.h'
p1520
(lp1521
I1
ag1503
asS'c:/marmalade/7.5/modules/iwutil/h/IwDivTable.h'
p1522
(lp1523
I1
ag1503
asS'c:/marmalade/7.5/modules/iwutil/h/IwManaged.h'
p1524
(lp1525
I1
ag1503
asS'c:/marmalade/7.5/modules/iwutil/h/IwTextParseable.h'
p1526
(lp1527
I1
ag1503
asS'c:/marmalade/7.5/modules/iwutil/h/IwChar.h'
p1528
(lp1529
I1
ag1503
asS'c:/marmalade/7.5/modules/iwutil/h/IwRandom.h'
p1530
(lp1531
I1
ag1503
asS'c:/marmalade/7.5/modules/iwutil/h/IwDebug.h'
p1532
(lp1533
I1
ag1503
asS'c:/marmalade/7.5/modules/iwutil/h/IwUTF8.h'
p1534
(lp1535
I1
ag1503
asS'c:/marmalade/7.5/modules/iwutil/docs/iwutil.config.txt'
p1536
(lp1537
I1
ag1503
asS'c:/marmalade/7.5/modules/iwutil/h/IwAllocator.h'
p1538
(lp1539
I1
ag1503
asS'c:/marmalade/7.5/modules/iwutil/h/IwMemBucketHelpers.h'
p1540
(lp1541
I1
ag1503
asS'c:/marmalade/7.5/modules/iwutil/h/IwTextParserITX.h'
p1542
(lp1543
I1
ag1503
asS'c:/marmalade/7.5/modules/iwutil/h/IwKeymap.h'
p1544
(lp1545
I1
ag1503
asS'c:/marmalade/7.5/modules/iwutil/h/IwImage.h'
p1546
(lp1547
I1
ag1503
asS'c:/marmalade/7.5/modules/iwutil/h/IwOptimiseARM.h'
p1548
(lp1549
I1
ag1503
asS'c:/marmalade/7.5/modules/iwutil/h/IwMemBucket.h'
p1550
(lp1551
I1
ag1503
asS'c:/marmalade/7.5/modules/iwutil/h/IwOptimiseSize.h'
p1552
(lp1553
I1
ag1503
asS'c:/marmalade/7.5/modules/iwutil/h/IwRuntime.h'
p1554
(lp1555
I1
ag1503
asS'c:/marmalade/7.5/modules/iwutil/h/IwMemManagerDL.h'
p1556
(lp1557
I1
ag1503
asS'c:/marmalade/7.5/modules/iwutil/h/IwPath.h'
p1558
(lp1559
I1
ag1503
asS'c:/marmalade/7.5/modules/iwutil/h/IwOptimiseSpeed.h'
p1560
(lp1561
I1
ag1503
asS'c:/marmalade/7.5/modules/iwutil/h/IwList.h'
p1562
(lp1563
I1
ag1503
asS'c:/marmalade/7.5/modules/iwutil/h/IwAutoFile.h'
p1564
(lp1565
I1
ag1503
asS'c:/marmalade/7.5/modules/iwutil/h/IwVariableBitField.h'
p1566
(lp1567
I1
ag1503
asS'c:/marmalade/7.5/modules/iwutil/h/IwHashString.h'
p1568
(lp1569
I1
ag1503
asS'c:/marmalade/7.5/modules/iwutil/h/IwOptimiseThumb.h'
p1570
(lp1571
I1
ag1503
asS'c:/marmalade/7.5/modules/iwutil/iwutil.mkf'
p1572
(lp1573
I1
a(dp1574
asS'c:/marmalade/7.5/modules/iwutil/h/IwUtil.h'
p1575
(lp1576
I1
ag1503
asS'c:/marmalade/7.5/modules/iwutil/h/IwString.h'
p1577
(lp1578
I1
ag1503
asS'c:/marmalade/7.5/modules/iwutil/h/IwFile.h'
p1579
(lp1580
I1
ag1503
asS'c:/marmalade/7.5/modules/iwutil/h/IwUncopyable.h'
p1581
(lp1582
I1
ag1503
asS'c:/marmalade/7.5/modules/iwutil/h/IwTextParser.h'
p1583
(lp1584
I1
ag1503
asS'c:/marmalade/7.5/modules/iwutil/h/IwCopyingPtr.h'
p1585
(lp1586
I1
ag1503
asS'c:/marmalade/7.5/modules/iwutil/h/IwEvent.h'
p1587
(lp1588
I1
ag1503
asS'c:/marmalade/7.5/modules/iwutil/h/IwFibre.h'
p1589
(lp1590
I1
ag1503
asS'c:/marmalade/7.5/modules/iwutil/h/IwArray.h'
p1591
(lp1592
I1
ag1503
asS'c:/marmalade/7.5/modules/iwutil/h/IwMenu.h'
p1593
(lp1594
I1
ag1503
asS'c:/marmalade/7.5/modules/iwutil/h/IwTypes.h'
p1595
(lp1596
I1
ag1503
asS'c:/marmalade/7.5/modules/iwutil/h/IwUtilInitTerm.h'
p1597
(lp1598
I1
ag1503
asS'c:/marmalade/7.5/modules/iwutil/h/IwResource.h'
p1599
(lp1600
I1
ag1503
asS'c:/marmalade/7.5/modules/iwutil/h/IwSerialise.h'
p1601
(lp1602
I1
ag1503
asssS'(zlib)'
p1603
(dp1604
g1082
(dp1605
S'c:/marmalade/7.5/modules/third_party/zlib/h/zconf.h'
p1606
(lp1607
I1
a(dp1608
asS'c:/marmalade/7.5/modules/third_party/zlib/h/zlib.h'
p1609
(lp1610
I1
ag1608
assS'c:/marmalade/7.5/modules/third_party/zlib/zlib.mkf'
p1611
(lp1612
I1
a(dp1613
assS'(iwtween)'
p1614
(dp1615
S'c:/marmalade/7.5/modules/iwtween/h/IwTween.h'
p1616
(lp1617
I1
a(dp1618
asS'c:/marmalade/7.5/modules/iwtween/source/IwTween.cpp'
p1619
(lp1620
I1
ag1618
asS'c:/marmalade/7.5/modules/iwtween/iwtween.mkf'
p1621
(lp1622
I1
a(dp1623
assS'(s3e-default)'
p1624
(dp1625
S'c:/marmalade/7.5/s3e/s3e-default.mkf'
p1626
(lp1627
I1
a(dp1628
asssS'files'
p1629
(dp1630
S'IwGxFontPreparedData.h'
p1631
g329
(cmkb_main
File
p1632
g331
Ntp1633
Rp1634
(dp1635
S'flags'
p1636
g1317
sS'group'
p1637
(lp1638
S"'Marmalade Studio'"
p1639
ag1313
asg355
g1329
sbsS'iterator'
p1640
g329
(g1632
g331
Ntp1641
Rp1642
(dp1643
g1636
(dp1644
sg1637
(lp1645
S"'Marmalade System (S3E)'"
p1646
aS'stdc headers'
p1647
aS'c++'
p1648
asg355
S'c:/marmalade/7.5/s3e/h/std/c++/iterator'
p1649
sbsS'IwGL.h'
p1650
g329
(g1632
g331
Ntp1651
Rp1652
(dp1653
g1636
g1296
sg1637
(lp1654
S"'Marmalade Studio'"
p1655
ag1289
asg355
g1294
sbsS's3e.h'
p1656
g329
(g1632
g331
Ntp1657
Rp1658
(dp1659
g1636
g1644
sg1637
(lp1660
g1646
asg355
S'c:/marmalade/7.5/s3e/h/s3e.h'
p1661
sbsS'errno.h'
p1662
g329
(g1632
g331
Ntp1663
Rp1664
(dp1665
g1636
g1644
sg1637
(lp1666
g1646
aS'stdc headers'
p1667
asg355
S'c:/marmalade/7.5/s3e/h/std/errno.h'
p1668
sbsS'IwSingleton.h'
p1669
g329
(g1632
g331
Ntp1670
Rp1671
(dp1672
g1636
g1503
sg1637
(lp1673
S"'Marmalade Studio'"
p1674
ag1499
asg355
g1501
sbsS'dlfcn.h'
p1675
g329
(g1632
g331
Ntp1676
Rp1677
(dp1678
g1636
g1644
sg1637
g1666
sg355
S'c:/marmalade/7.5/s3e/h/std/dlfcn.h'
p1679
sbsS'IwSoundWAV.cpp'
p1680
g329
(g1632
g331
Ntp1681
Rp1682
(dp1683
g1636
g1141
sg1637
(lp1684
g1137
asg355
g1164
sbsS'sched.h'
p1685
g329
(g1632
g331
Ntp1686
Rp1687
(dp1688
g1636
g1644
sg1637
g1666
sg355
S'c:/marmalade/7.5/s3e/h/std/sched.h'
p1689
sbsS'IwSoundPCM.h'
p1690
g329
(g1632
g331
Ntp1691
Rp1692
(dp1693
g1636
g1141
sg1637
g1684
sg355
g1182
sbsS'IwGeomFMat2D.h'
p1694
g329
(g1632
g331
Ntp1695
Rp1696
(dp1697
g1636
g1339
sg1637
(lp1698
S"'Marmalade Studio'"
p1699
ag1335
asg355
g1393
sbsS'cassert'
p1700
g329
(g1632
g331
Ntp1701
Rp1702
(dp1703
g1636
g1644
sg1637
g1645
sg355
S'c:/marmalade/7.5/s3e/h/std/c++/cassert'
p1704
sbsS'grp.h'
p1705
g329
(g1632
g331
Ntp1706
Rp1707
(dp1708
g1636
g1644
sg1637
g1666
sg355
S'c:/marmalade/7.5/s3e/h/std/grp.h'
p1709
sbsS'list'
p1710
g329
(g1632
g331
Ntp1711
Rp1712
(dp1713
g1636
g1644
sg1637
g1645
sg355
S'c:/marmalade/7.5/s3e/h/std/c++/list'
p1714
sbsS'IwSoundSpec.cpp'
p1715
g329
(g1632
g331
Ntp1716
Rp1717
(dp1718
g1636
g1141
sg1637
g1684
sg355
g1170
sbsS'IwGeomMat.h.tpl'
p1719
g329
(g1632
g331
Ntp1720
Rp1721
(dp1722
g1636
g1339
sg1637
g1698
sg355
g1389
sbsS'istream'
p1723
g329
(g1632
g331
Ntp1724
Rp1725
(dp1726
g1636
g1644
sg1637
g1645
sg355
S'c:/marmalade/7.5/s3e/h/std/c++/istream'
p1727
sbsS'jpeglib.h'
p1728
g329
(g1632
g331
Ntp1729
Rp1730
(dp1731
g1636
g1100
sg1637
(lp1732
g1092
ag1082
asg355
g1125
sbsS'iw2d_public.defines.txt'
p1733
g329
(g1632
g331
Ntp1734
Rp1735
(dp1736
g1636
g1305
sg1637
(lp1737
S"'Marmalade Studio'"
p1738
ag1301
asg355
g1303
sbsS'iostream.h'
p1739
g329
(g1632
g331
Ntp1740
Rp1741
(dp1742
g1636
g1644
sg1637
g1645
sg355
S'c:/marmalade/7.5/s3e/h/std/c++/iostream.h'
p1743
sbsS'IwSoundADPCM.h'
p1744
g329
(g1632
g331
Ntp1745
Rp1746
(dp1747
g1636
g1141
sg1637
g1684
sg355
g1142
sbsS'string'
p1748
g329
(g1632
g331
Ntp1749
Rp1750
(dp1751
g1636
g1644
sg1637
g1645
sg355
S'c:/marmalade/7.5/s3e/h/std/c++/string'
p1752
sbsS'IwMemory.h'
p1753
g329
(g1632
g331
Ntp1754
Rp1755
(dp1756
g1636
g1503
sg1637
g1673
sg355
g1512
sbsS'IwGeomPlane.h'
p1757
g329
(g1632
g331
Ntp1758
Rp1759
(dp1760
g1636
g1339
sg1637
g1698
sg355
g1369
sbsS'iw2d.config.txt'
p1761
g329
(g1632
g331
Ntp1762
Rp1763
(dp1764
g1636
g1305
sg1637
g1737
sg355
g1306
sbsS'iomanip'
p1765
g329
(g1632
g331
Ntp1766
Rp1767
(dp1768
g1636
g1644
sg1637
g1645
sg355
S'c:/marmalade/7.5/s3e/h/std/c++/iomanip'
p1769
sbsS'iwgeom.mkf'
p1770
g329
(g1632
g331
Ntp1771
Rp1772
(dp1773
g1636
g1346
sg1637
g1698
sg355
g1344
sbsS'IwGxError.h'
p1774
g329
(g1632
g331
Ntp1775
Rp1776
(dp1777
g1636
g1439
sg1637
(lp1778
S"'Marmalade Studio'"
p1779
ag1435
asg355
g1456
sbsS'IwGeom.h'
p1780
g329
(g1632
g331
Ntp1781
Rp1782
(dp1783
g1636
g1339
sg1637
g1698
sg355
g1361
sbsS'scene.cpp'
p1784
g329
(g1632
g331
Ntp1785
Rp1786
(dp1787
g1636
g1198
sg1637
(lp1788
g1194
asg355
g1207
sbsS'IwGeomVec4.h'
p1789
g329
(g1632
g331
Ntp1790
Rp1791
(dp1792
g1636
g1339
sg1637
g1698
sg355
g1377
sbsS'dir.h'
p1793
g329
(g1632
g331
Ntp1794
Rp1795
(dp1796
g1636
g1644
sg1637
(lp1797
g1646
aS'stdc headers'
p1798
aS'sys'
p1799
asg355
S'c:/marmalade/7.5/s3e/h/std/sys/dir.h'
p1800
sbsS'locale.h'
p1801
g329
(g1632
g331
Ntp1802
Rp1803
(dp1804
g1636
g1644
sg1637
g1666
sg355
S'c:/marmalade/7.5/s3e/h/std/locale.h'
p1805
sbsS'vector'
p1806
g329
(g1632
g331
Ntp1807
Rp1808
(dp1809
g1636
g1644
sg1637
g1645
sg355
S'c:/marmalade/7.5/s3e/h/std/c++/vector'
p1810
sbsS'IwManaged.h'
p1811
g329
(g1632
g331
Ntp1812
Rp1813
(dp1814
g1636
g1503
sg1637
g1673
sg355
g1524
sbsS's3eCompass.h'
p1815
g329
(g1632
g331
Ntp1816
Rp1817
(dp1818
g1636
g1644
sg1637
g1660
sg355
S'c:/marmalade/7.5/s3e/h/s3eCompass.h'
p1819
sbsS'cderror.h'
p1820
g329
(g1632
g331
Ntp1821
Rp1822
(dp1823
g1636
g1100
sg1637
g1732
sg355
g1103
sbsS'climits'
p1824
g329
(g1632
g331
Ntp1825
Rp1826
(dp1827
g1636
g1644
sg1637
g1645
sg355
S'c:/marmalade/7.5/s3e/h/std/c++/climits'
p1828
sbsS's3eVibra.h'
p1829
g329
(g1632
g331
Ntp1830
Rp1831
(dp1832
g1636
g1644
sg1637
g1660
sg355
S'c:/marmalade/7.5/s3e/h/s3eVibra.h'
p1833
sbsS'jversion.h'
p1834
g329
(g1632
g331
Ntp1835
Rp1836
(dp1837
g1636
g1100
sg1637
g1732
sg355
g1121
sbsS'fnmatch.h'
p1838
g329
(g1632
g331
Ntp1839
Rp1840
(dp1841
g1636
g1644
sg1637
g1666
sg355
S'c:/marmalade/7.5/s3e/h/std/fnmatch.h'
p1842
sbsS'IwGxState.h'
p1843
g329
(g1632
g331
Ntp1844
Rp1845
(dp1846
g1636
g1439
sg1637
g1778
sg355
g1485
sbsS'rope'
p1847
g329
(g1632
g331
Ntp1848
Rp1849
(dp1850
g1636
g1644
sg1637
g1645
sg355
S'c:/marmalade/7.5/s3e/h/std/c++/rope'
p1851
sbsS's3eAudio.h'
p1852
g329
(g1632
g331
Ntp1853
Rp1854
(dp1855
g1636
g1644
sg1637
g1660
sg355
S'c:/marmalade/7.5/s3e/h/s3eAudio.h'
p1856
sbsS's3eSurface.h'
p1857
g329
(g1632
g331
Ntp1858
Rp1859
(dp1860
g1636
g1644
sg1637
g1660
sg355
S'c:/marmalade/7.5/s3e/h/s3eSurface.h'
p1861
sbsS'new'
p1862
g329
(g1632
g331
Ntp1863
Rp1864
(dp1865
g1636
g1644
sg1637
g1645
sg355
S'c:/marmalade/7.5/s3e/h/std/c++/new'
p1866
sbsS's3eWindow.h'
p1867
g329
(g1632
g331
Ntp1868
Rp1869
(dp1870
g1636
g1644
sg1637
(lp1871
g1646
aS'Extensions'
p1872
asg355
S'c:/marmalade/7.5/s3e/h/ext/s3eWindow.h'
p1873
sbsS'IwBuffer.h'
p1874
g329
(g1632
g331
Ntp1875
Rp1876
(dp1877
g1636
g1503
sg1637
g1673
sg355
g1506
sbsS'stdio_streambuf'
p1878
g329
(g1632
g331
Ntp1879
Rp1880
(dp1881
g1636
g1644
sg1637
g1645
sg355
S'c:/marmalade/7.5/s3e/h/std/c++/stdio_streambuf'
p1882
sbsS'IwGeomQuat.h.tpl'
p1883
g329
(g1632
g331
Ntp1884
Rp1885
(dp1886
g1636
g1339
sg1637
g1698
sg355
g1351
sbsS's3eOSExec.h'
p1887
g329
(g1632
g331
Ntp1888
Rp1889
(dp1890
g1636
g1644
sg1637
g1871
sg355
S'c:/marmalade/7.5/s3e/h/ext/s3eOSExec.h'
p1891
sbsS'IwGxTransformSW.h'
p1892
g329
(g1632
g331
Ntp1893
Rp1894
(dp1895
g1636
g1439
sg1637
g1778
sg355
g1466
sbsS'unistd.h'
p1896
g329
(g1632
g331
Ntp1897
Rp1898
(dp1899
g1636
g1644
sg1637
g1666
sg355
S'c:/marmalade/7.5/s3e/h/std/unistd.h'
p1900
sbsS'iwgxfont.config.txt'
p1901
g329
(g1632
g331
Ntp1902
Rp1903
(dp1904
g1636
g1317
sg1637
g1638
sg355
g1320
sbsS'gl2platform.h'
p1905
g329
(g1632
g331
Ntp1906
Rp1907
(dp1908
g1636
g1644
sg1637
(lp1909
g1646
aS'GL'
p1910
aS'GLES 2.0'
p1911
asg355
S'c:/marmalade/7.5/s3e/h/GLES2/gl2platform.h'
p1912
sbsS'IwResManagerClass.h'
p1913
g329
(g1632
g331
Ntp1914
Rp1915
(dp1916
g1636
g1415
sg1637
(lp1917
g1275
ag1411
asg355
g1418
sbsS'queue'
p1918
g329
(g1632
g331
Ntp1919
Rp1920
(dp1921
g1636
g1644
sg1637
g1645
sg355
S'c:/marmalade/7.5/s3e/h/std/c++/queue'
p1922
sbsS'time_1.h'
p1923
g329
(g1632
g331
Ntp1924
Rp1925
(dp1926
g1636
g1644
sg1637
g1797
sg355
S'c:/marmalade/7.5/s3e/h/std/sys/time.h'
p1927
sbsS'Iw2D.h'
p1928
g329
(g1632
g331
Ntp1929
Rp1930
(dp1931
g1636
g1305
sg1637
g1737
sg355
g1308
sbsS'IwGeomVec2.h'
p1932
g329
(g1632
g331
Ntp1933
Rp1934
(dp1935
g1636
g1339
sg1637
g1698
sg355
g1353
sbsS'sendfile.h'
p1936
g329
(g1632
g331
Ntp1937
Rp1938
(dp1939
g1636
g1644
sg1637
g1797
sg355
S'c:/marmalade/7.5/s3e/h/std/sys/sendfile.h'
p1940
sbsS'malloc.h'
p1941
g329
(g1632
g331
Ntp1942
Rp1943
(dp1944
g1636
g1644
sg1637
g1666
sg355
S'c:/marmalade/7.5/s3e/h/std/malloc.h'
p1945
sbsS'stdarg.h'
p1946
g329
(g1632
g331
Ntp1947
Rp1948
(dp1949
g1636
g1644
sg1637
g1666
sg355
S'c:/marmalade/7.5/s3e/h/std/stdarg.h'
p1950
sbsS'IwGeomCore.h'
p1951
g329
(g1632
g331
Ntp1952
Rp1953
(dp1954
g1636
g1339
sg1637
g1698
sg355
g1379
sbsS'Iw2DSceneGraph.h'
p1955
g329
(g1632
g331
Ntp1956
Rp1957
(dp1958
g1636
g1281
sg1637
(lp1959
S"'Marmalade Studio'"
p1960
ag1277
asg355
g1284
sbsS'endian.h'
p1961
g329
(g1632
g331
Ntp1962
Rp1963
(dp1964
g1636
g1644
sg1637
g1666
sg355
S'c:/marmalade/7.5/s3e/h/std/endian.h'
p1965
sbsS'gl3ext.h'
p1966
g329
(g1632
g331
Ntp1967
Rp1968
(dp1969
g1636
g1644
sg1637
(lp1970
g1646
aS'GL'
p1971
aS'GLES 3.0'
p1972
asg355
S'c:/marmalade/7.5/s3e/h/GLES3/gl3ext.h'
p1973
sbsS'glob.h'
p1974
g329
(g1632
g331
Ntp1975
Rp1976
(dp1977
g1636
g1644
sg1637
g1666
sg355
S'c:/marmalade/7.5/s3e/h/std/glob.h'
p1978
sbsS'fstream'
p1979
g329
(g1632
g331
Ntp1980
Rp1981
(dp1982
g1636
g1644
sg1637
g1645
sg355
S'c:/marmalade/7.5/s3e/h/std/c++/fstream'
p1983
sbsS's3eCamera.h'
p1984
g329
(g1632
g331
Ntp1985
Rp1986
(dp1987
g1636
g1644
sg1637
g1660
sg355
S'c:/marmalade/7.5/s3e/h/s3eCamera.h'
p1988
sbsS'jconfig.h'
p1989
g329
(g1632
g331
Ntp1990
Rp1991
(dp1992
g1636
g1100
sg1637
g1732
sg355
g1123
sbsS'memory'
p1993
g329
(g1632
g331
Ntp1994
Rp1995
(dp1996
g1636
g1644
sg1637
g1645
sg355
S'c:/marmalade/7.5/s3e/h/std/c++/memory'
p1997
sbsS'egl.h'
p1998
g329
(g1632
g331
Ntp1999
Rp2000
(dp2001
g1636
g1644
sg1637
(lp2002
g1646
aS'GL'
p2003
aS'EGL'
p2004
asg355
S'c:/marmalade/7.5/s3e/h/EGL/egl.h'
p2005
sbsS'egl_1.h'
p2006
g329
(g1632
g331
Ntp2007
Rp2008
(dp2009
g1636
g1644
sg1637
(lp2010
g1646
aS'GL'
p2011
aS'GLES 1.x'
p2012
asg355
S'c:/marmalade/7.5/s3e/h/GLES/egl.h'
p2013
sbsS'IwMemManagerDL.h'
p2014
g329
(g1632
g331
Ntp2015
Rp2016
(dp2017
g1636
g1503
sg1637
g1673
sg355
g1556
sbsS'deque'
p2018
g329
(g1632
g331
Ntp2019
Rp2020
(dp2021
g1636
g1644
sg1637
g1645
sg355
S'c:/marmalade/7.5/s3e/h/std/c++/deque'
p2022
sbsS'IwString.h'
p2023
g329
(g1632
g331
Ntp2024
Rp2025
(dp2026
g1636
g1503
sg1637
g1673
sg355
g1577
sbsS'GameScene.h'
p2027
g329
(g1632
g331
Ntp2028
Rp2029
(dp2030
g1636
g1198
sg1637
g1788
sg355
g1257
sbsS'cwchar'
p2031
g329
(g1632
g331
Ntp2032
Rp2033
(dp2034
g1636
g1644
sg1637
g1645
sg355
S'c:/marmalade/7.5/s3e/h/std/c++/cwchar'
p2035
sbsS'iwutil.mkf'
p2036
g329
(g1632
g331
Ntp2037
Rp2038
(dp2039
g1636
g1574
sg1637
g1673
sg355
g1572
sbsS'csignal'
p2040
g329
(g1632
g331
Ntp2041
Rp2042
(dp2043
g1636
g1644
sg1637
g1645
sg355
S'c:/marmalade/7.5/s3e/h/std/c++/csignal'
p2044
sbsS'pthread_types.h'
p2045
g329
(g1632
g331
Ntp2046
Rp2047
(dp2048
g1636
g1644
sg1637
g1666
sg355
S'c:/marmalade/7.5/s3e/h/std/pthread_types.h'
p2049
sbsS'Entity.cpp'
p2050
g329
(g1632
g331
Ntp2051
Rp2052
(dp2053
g1636
g1198
sg1637
g1788
sg355
g1231
sbsS'pthread_alloc'
p2054
g329
(g1632
g331
Ntp2055
Rp2056
(dp2057
g1636
g1644
sg1637
g1645
sg355
S'c:/marmalade/7.5/s3e/h/std/c++/pthread_alloc'
p2058
sbsS'getopt.h'
p2059
g329
(g1632
g331
Ntp2060
Rp2061
(dp2062
g1636
g1644
sg1637
g1666
sg355
S'c:/marmalade/7.5/s3e/h/std/getopt.h'
p2063
sbsS'IwOptimiseARM.h'
p2064
g329
(g1632
g331
Ntp2065
Rp2066
(dp2067
g1636
g1503
sg1637
g1673
sg355
g1548
sbsS'times.h'
p2068
g329
(g1632
g331
Ntp2069
Rp2070
(dp2071
g1636
g1644
sg1637
g1797
sg355
S'c:/marmalade/7.5/s3e/h/std/sys/times.h'
p2072
sbsS'IwGeomFSphere.h'
p2073
g329
(g1632
g331
Ntp2074
Rp2075
(dp2076
g1636
g1339
sg1637
g1698
sg355
g1399
sbsS'functional'
p2077
g329
(g1632
g331
Ntp2078
Rp2079
(dp2080
g1636
g1644
sg1637
g1645
sg355
S'c:/marmalade/7.5/s3e/h/std/c++/functional'
p2081
sbsS'IwTypes.h'
p2082
g329
(g1632
g331
Ntp2083
Rp2084
(dp2085
g1636
g1503
sg1637
g1673
sg355
g1595
sbsS'IwGxMetrics.h'
p2086
g329
(g1632
g331
Ntp2087
Rp2088
(dp2089
g1636
g1439
sg1637
g1778
sg355
g1470
sbsS'audio.cpp'
p2090
g329
(g1632
g331
Ntp2091
Rp2092
(dp2093
g1636
g1198
sg1637
g1788
sg355
g1253
sbsS's3eCompression.h'
p2094
g329
(g1632
g331
Ntp2095
Rp2096
(dp2097
g1636
g1644
sg1637
g1660
sg355
S'c:/marmalade/7.5/s3e/h/s3eCompression.h'
p2098
sbsS'langinfo.h'
p2099
g329
(g1632
g331
Ntp2100
Rp2101
(dp2102
g1636
g1644
sg1637
g1666
sg355
S'c:/marmalade/7.5/s3e/h/std/langinfo.h'
p2103
sbsS's3edebugHeap.h'
p2104
g329
(g1632
g331
Ntp2105
Rp2106
(dp2107
g1636
g1644
sg1637
g1871
sg355
S'c:/marmalade/7.5/s3e/h/ext/s3edebugHeap.h'
p2108
sbsS'AirplayVersion.h'
p2109
g329
(g1632
g331
Ntp2110
Rp2111
(dp2112
g1636
g1644
sg1637
g1660
sg355
S'c:/marmalade/7.5/s3e/h/AirplayVersion.h'
p2113
sbsS'gl2extimg.h'
p2114
g329
(g1632
g331
Ntp2115
Rp2116
(dp2117
g1636
g1644
sg1637
g1909
sg355
S'c:/marmalade/7.5/s3e/h/GLES2/gl2extimg.h'
p2118
sbsS'IwGeomSqrt.h'
p2119
g329
(g1632
g331
Ntp2120
Rp2121
(dp2122
g1636
g1339
sg1637
g1698
sg355
g1347
sbsS'tiniconv_int.h'
p2123
g329
(g1632
g331
Ntp2124
Rp2125
(dp2126
g1636
g1134
sg1637
(lp2127
g1127
asg355
g1132
sbsS'syslog.h'
p2128
g329
(g1632
g331
Ntp2129
Rp2130
(dp2131
g1636
g1644
sg1637
g1666
sg355
S'c:/marmalade/7.5/s3e/h/std/syslog.h'
p2132
sbsS'IwGxFontTypes.h'
p2133
g329
(g1632
g331
Ntp2134
Rp2135
(dp2136
g1636
g1317
sg1637
g1638
sg355
g1318
sbsS'IwGeomFIntersect.h'
p2137
g329
(g1632
g331
Ntp2138
Rp2139
(dp2140
g1636
g1339
sg1637
g1698
sg355
g1409
sbsS'hash_map'
p2141
g329
(g1632
g331
Ntp2142
Rp2143
(dp2144
g1636
g1644
sg1637
g1645
sg355
S'c:/marmalade/7.5/s3e/h/std/c++/hash_map'
p2145
sbsS's3e.mkf'
p2146
g329
(g1632
g331
Ntp2147
Rp2148
(dp2149
g1636
(dp2150
sg1637
g1660
sg355
S'c:/marmalade/7.5/s3e/s3e.mkf'
p2151
sbsS'IwGeomMat2D.h.tpl'
p2152
g329
(g1632
g331
Ntp2153
Rp2154
(dp2155
g1636
g1339
sg1637
g1698
sg355
g1391
sbsS's3eOSReadString.h'
p2156
g329
(g1632
g331
Ntp2157
Rp2158
(dp2159
g1636
g1644
sg1637
g1871
sg355
S'c:/marmalade/7.5/s3e/h/ext/s3eOSReadString.h'
p2160
sbsS'IwSound.h'
p2161
g329
(g1632
g331
Ntp2162
Rp2163
(dp2164
g1636
g1141
sg1637
g1684
sg355
g1176
sbsS'map'
p2165
g329
(g1632
g331
Ntp2166
Rp2167
(dp2168
g1636
g1644
sg1637
g1645
sg355
S'c:/marmalade/7.5/s3e/h/std/c++/map'
p2169
sbsS'iwtween.mkf'
p2170
g329
(g1632
g331
Ntp2171
Rp2172
(dp2173
g1636
g1623
sg1637
(lp2174
g1614
asg355
g1621
sbsS'IwOptimiseSpeed.h'
p2175
g329
(g1632
g331
Ntp2176
Rp2177
(dp2178
g1636
g1503
sg1637
g1673
sg355
g1560
sbsS'ostream'
p2179
g329
(g1632
g331
Ntp2180
Rp2181
(dp2182
g1636
g1644
sg1637
g1645
sg355
S'c:/marmalade/7.5/s3e/h/std/c++/ostream'
p2183
sbsS'msl_string.h'
p2184
g329
(g1632
g331
Ntp2185
Rp2186
(dp2187
g1636
g1644
sg1637
g1645
sg355
S'c:/marmalade/7.5/s3e/h/std/c++/msl_string.h'
p2188
sbsS'select.h'
p2189
g329
(g1632
g331
Ntp2190
Rp2191
(dp2192
g1636
g1644
sg1637
g1797
sg355
S'c:/marmalade/7.5/s3e/h/std/sys/select.h'
p2193
sbsS'hero.cpp'
p2194
g329
(g1632
g331
Ntp2195
Rp2196
(dp2197
g1636
g1198
sg1637
g1788
sg355
g1255
sbsS'zlib.mkf'
p2198
g329
(g1632
g331
Ntp2199
Rp2200
(dp2201
g1636
g1613
sg1637
(lp2202
g1603
asg355
g1611
sbsS'signal.h'
p2203
g329
(g1632
g331
Ntp2204
Rp2205
(dp2206
g1636
g1644
sg1637
g1666
sg355
S'c:/marmalade/7.5/s3e/h/std/signal.h'
p2207
sbsS'sigcontext.h'
p2208
g329
(g1632
g331
Ntp2209
Rp2210
(dp2211
g1636
g1644
sg1637
g1666
sg355
S'c:/marmalade/7.5/s3e/h/std/sigcontext.h'
p2212
sbsS'libpng.mkf'
p2213
g329
(g1632
g331
Ntp2214
Rp2215
(dp2216
g1636
g1091
sg1637
(lp2217
g1080
asg355
g1089
sbsS's3eClipboard.h'
p2218
g329
(g1632
g331
Ntp2219
Rp2220
(dp2221
g1636
g1644
sg1637
g1660
sg355
S'c:/marmalade/7.5/s3e/h/s3eClipboard.h'
p2222
sbsS'IwGxFuncTable.h'
p2223
g329
(g1632
g331
Ntp2224
Rp2225
(dp2226
g1636
g1439
sg1637
g1778
sg355
g1444
sbsS'IwResHandlerGROUP.h'
p2227
g329
(g1632
g331
Ntp2228
Rp2229
(dp2230
g1636
g1415
sg1637
g1917
sg355
g1420
sbsS's3eDebug.h'
p2231
g329
(g1632
g331
Ntp2232
Rp2233
(dp2234
g1636
g1644
sg1637
g1660
sg355
S'c:/marmalade/7.5/s3e/h/s3eDebug.h'
p2235
sbsS'socket.h'
p2236
g329
(g1632
g331
Ntp2237
Rp2238
(dp2239
g1636
g1644
sg1637
g1797
sg355
S'c:/marmalade/7.5/s3e/h/std/sys/socket.h'
p2240
sbsS'glext.h'
p2241
g329
(g1632
g331
Ntp2242
Rp2243
(dp2244
g1636
g1644
sg1637
g2010
sg355
S'c:/marmalade/7.5/s3e/h/GLES/glext.h'
p2245
sbsS'typeinfo.h'
p2246
g329
(g1632
g331
Ntp2247
Rp2248
(dp2249
g1636
g1644
sg1637
g1645
sg355
S'c:/marmalade/7.5/s3e/h/std/c++/typeinfo.h'
p2250
sbsS'typeinfo'
p2251
g329
(g1632
g331
Ntp2252
Rp2253
(dp2254
g1636
g1644
sg1637
g1645
sg355
S'c:/marmalade/7.5/s3e/h/std/c++/typeinfo'
p2255
sbsS'iwsound.config.txt'
p2256
g329
(g1632
g331
Ntp2257
Rp2258
(dp2259
g1636
g1141
sg1637
(lp2260
g1137
ag1148
asg355
g1150
sbsS'fstream.h'
p2261
g329
(g1632
g331
Ntp2262
Rp2263
(dp2264
g1636
g1644
sg1637
g1645
sg355
S'c:/marmalade/7.5/s3e/h/std/c++/fstream.h'
p2265
sbsS'IwGeomMat.h'
p2266
g329
(g1632
g331
Ntp2267
Rp2268
(dp2269
g1636
g1339
sg1637
g1698
sg355
g1355
sbsS's3ePointer.h'
p2270
g329
(g1632
g331
Ntp2271
Rp2272
(dp2273
g1636
g1644
sg1637
g1660
sg355
S'c:/marmalade/7.5/s3e/h/s3ePointer.h'
p2274
sbsS'IwMemBucket.h'
p2275
g329
(g1632
g331
Ntp2276
Rp2277
(dp2278
g1636
g1503
sg1637
g1673
sg355
g1550
sbsS'PVRTexTool.h'
p2279
g329
(g1632
g331
Ntp2280
Rp2281
(dp2282
g1636
g1267
sg1637
(lp2283
g1259
ag1261
asg355
g1270
sbsS's3eGL.h'
p2284
g329
(g1632
g331
Ntp2285
Rp2286
(dp2287
g1636
g1644
sg1637
g1660
sg355
S'c:/marmalade/7.5/s3e/h/s3eGL.h'
p2288
sbsS'IwGeomFVec2.h'
p2289
g329
(g1632
g331
Ntp2290
Rp2291
(dp2292
g1636
g1339
sg1637
g1698
sg355
g1373
sbsS'IwGeomSVec4.h'
p2293
g329
(g1632
g331
Ntp2294
Rp2295
(dp2296
g1636
g1339
sg1637
g1698
sg355
g1375
sbsS'BackgroundEntity.cpp'
p2297
g329
(g1632
g331
Ntp2298
Rp2299
(dp2300
g1636
g1198
sg1637
g1788
sg355
g1245
sbsS'poll.h'
p2301
g329
(g1632
g331
Ntp2302
Rp2303
(dp2304
g1636
g1644
sg1637
g1666
sg355
S'c:/marmalade/7.5/s3e/h/std/poll.h'
p2305
sbsS'IwMatAnim.h'
p2306
g329
(g1632
g331
Ntp2307
Rp2308
(dp2309
g1636
g1439
sg1637
g1778
sg355
g1440
sbsS'IwGeomFVec4.h'
p2310
g329
(g1632
g331
Ntp2311
Rp2312
(dp2313
g1636
g1339
sg1637
g1698
sg355
g1387
sbsS'IwGx.h'
p2314
g329
(g1632
g331
Ntp2315
Rp2316
(dp2317
g1636
g1439
sg1637
g1778
sg355
g1458
sbsS'valarray'
p2318
g329
(g1632
g331
Ntp2319
Rp2320
(dp2321
g1636
g1644
sg1637
g1645
sg355
S'c:/marmalade/7.5/s3e/h/std/c++/valarray'
p2322
sbsS'iosfwd'
p2323
g329
(g1632
g331
Ntp2324
Rp2325
(dp2326
g1636
g1644
sg1637
g1645
sg355
S'c:/marmalade/7.5/s3e/h/std/c++/iosfwd'
p2327
sbsS'gl2.h'
p2328
g329
(g1632
g331
Ntp2329
Rp2330
(dp2331
g1636
g1644
sg1637
g1909
sg355
S'c:/marmalade/7.5/s3e/h/GLES2/gl2.h'
p2332
sbsS'jpegint.h'
p2333
g329
(g1632
g331
Ntp2334
Rp2335
(dp2336
g1636
g1100
sg1637
g1732
sg355
g1115
sbsS'stdiostream.h'
p2337
g329
(g1632
g331
Ntp2338
Rp2339
(dp2340
g1636
g1644
sg1637
g1645
sg355
S'c:/marmalade/7.5/s3e/h/std/c++/stdiostream.h'
p2341
sbsS'mem.h'
p2342
g329
(g1632
g331
Ntp2343
Rp2344
(dp2345
g1636
g1644
sg1637
g1645
sg355
S'c:/marmalade/7.5/s3e/h/std/c++/mem.h'
p2346
sbsS'jerror.h'
p2347
g329
(g1632
g331
Ntp2348
Rp2349
(dp2350
g1636
g1100
sg1637
g1732
sg355
g1098
sbsS'zconf.h'
p2351
g329
(g1632
g331
Ntp2352
Rp2353
(dp2354
g1636
g1608
sg1637
(lp2355
g1603
ag1082
asg355
g1606
sbsS's3e.config.txt'
p2356
g329
(g1632
g331
Ntp2357
Rp2358
(dp2359
g1636
g1644
sg1637
g1660
sg355
S'c:/marmalade/7.5/s3e/s3e.config.txt'
p2360
sbsS'numeric'
p2361
g329
(g1632
g331
Ntp2362
Rp2363
(dp2364
g1636
g1644
sg1637
g1645
sg355
S'c:/marmalade/7.5/s3e/h/std/c++/numeric'
p2365
sbsS'utime.h'
p2366
g329
(g1632
g331
Ntp2367
Rp2368
(dp2369
g1636
g1644
sg1637
g1666
sg355
S'c:/marmalade/7.5/s3e/h/std/utime.h'
p2370
sbsS'jdhuff.h'
p2371
g329
(g1632
g331
Ntp2372
Rp2373
(dp2374
g1636
g1100
sg1637
g1732
sg355
g1101
sbsS'IwResHandlerWAV.cpp'
p2375
g329
(g1632
g331
Ntp2376
Rp2377
(dp2378
g1636
g1141
sg1637
g1684
sg355
g1144
sbsS'un.h'
p2379
g329
(g1632
g331
Ntp2380
Rp2381
(dp2382
g1636
g1644
sg1637
g1797
sg355
S'c:/marmalade/7.5/s3e/h/std/sys/un.h'
p2383
sbsS'IwImage.h'
p2384
g329
(g1632
g331
Ntp2385
Rp2386
(dp2387
g1636
g1503
sg1637
g1673
sg355
g1546
sbsS's3eImagePicker.h'
p2388
g329
(g1632
g331
Ntp2389
Rp2390
(dp2391
g1636
g1644
sg1637
g1871
sg355
S'c:/marmalade/7.5/s3e/h/ext/s3eImagePicker.h'
p2392
sbsS'stdlib.h'
p2393
g329
(g1632
g331
Ntp2394
Rp2395
(dp2396
g1636
g1644
sg1637
g1666
sg355
S'c:/marmalade/7.5/s3e/h/std/stdlib.h'
p2397
sbsS'IwCopyingPtr.h'
p2398
g329
(g1632
g331
Ntp2399
Rp2400
(dp2401
g1636
g1503
sg1637
g1673
sg355
g1585
sbsS'iostream'
p2402
g329
(g1632
g331
Ntp2403
Rp2404
(dp2405
g1636
g1644
sg1637
g1645
sg355
S'c:/marmalade/7.5/s3e/h/std/c++/iostream'
p2406
sbsS'png.h'
p2407
g329
(g1632
g331
Ntp2408
Rp2409
(dp2410
g1636
g1086
sg1637
(lp2411
g1080
ag1082
asg355
g1084
sbsS'stddef.h'
p2412
g329
(g1632
g331
Ntp2413
Rp2414
(dp2415
g1636
g1644
sg1637
g1666
sg355
S'c:/marmalade/7.5/s3e/h/std/stddef.h'
p2416
sbsS'Layer.cpp'
p2417
g329
(g1632
g331
Ntp2418
Rp2419
(dp2420
g1636
g1198
sg1637
g1788
sg355
g1196
sbsS'setjmp_win32.h'
p2421
g329
(g1632
g331
Ntp2422
Rp2423
(dp2424
g1636
g1644
sg1637
g1666
sg355
S'c:/marmalade/7.5/s3e/h/std/setjmp_win32.h'
p2425
sbsS'pauseMenu.h'
p2426
g329
(g1632
g331
Ntp2427
Rp2428
(dp2429
g1636
g1198
sg1637
g1788
sg355
g1243
sbsS'Layer.h'
p2430
g329
(g1632
g331
Ntp2431
Rp2432
(dp2433
g1636
g1198
sg1637
g1788
sg355
g1247
sbsS'IwGxPrint.h'
p2434
g329
(g1632
g331
Ntp2435
Rp2436
(dp2437
g1636
g1439
sg1637
g1778
sg355
g1448
sbsS'iwgx_public.defines.txt'
p2438
g329
(g1632
g331
Ntp2439
Rp2440
(dp2441
g1636
g1439
sg1637
g1778
sg355
g1460
sbsS'streambuf.h'
p2442
g329
(g1632
g331
Ntp2443
Rp2444
(dp2445
g1636
g1644
sg1637
g1645
sg355
S'c:/marmalade/7.5/s3e/h/std/c++/streambuf.h'
p2446
sbsS'resources.cpp'
p2447
g329
(g1632
g331
Ntp2448
Rp2449
(dp2450
g1636
g1198
sg1637
g1788
sg355
g1229
sbsS'IwGeomFPlane.h'
p2451
g329
(g1632
g331
Ntp2452
Rp2453
(dp2454
g1636
g1339
sg1637
g1698
sg355
g1403
sbsS'wchar.h'
p2455
g329
(g1632
g331
Ntp2456
Rp2457
(dp2458
g1636
g1644
sg1637
g1666
sg355
S'c:/marmalade/7.5/s3e/h/std/wchar.h'
p2459
sbsS's3eCameraCapture.h'
p2460
g329
(g1632
g331
Ntp2461
Rp2462
(dp2463
g1636
g1644
sg1637
g1871
sg355
S'c:/marmalade/7.5/s3e/h/ext/s3eCameraCapture.h'
p2464
sbsS'eglext.h'
p2465
g329
(g1632
g331
Ntp2466
Rp2467
(dp2468
g1636
g1644
sg1637
g2002
sg355
S'c:/marmalade/7.5/s3e/h/EGL/eglext.h'
p2469
sbsS'IwResHandlerImage.h'
p2470
g329
(g1632
g331
Ntp2471
Rp2472
(dp2473
g1636
g1415
sg1637
g1917
sg355
g1433
sbsS'strstream.h'
p2474
g329
(g1632
g331
Ntp2475
Rp2476
(dp2477
g1636
g1644
sg1637
g1645
sg355
S'c:/marmalade/7.5/s3e/h/std/c++/strstream.h'
p2478
sbsS'tiniconv.h'
p2479
g329
(g1632
g331
Ntp2480
Rp2481
(dp2482
g1636
g1134
sg1637
g2127
sg355
g1135
sbsS'IwGLExt.h'
p2483
g329
(g1632
g331
Ntp2484
Rp2485
(dp2486
g1636
g1296
sg1637
g1654
sg355
g1299
sbsS'app.icf'
p2487
g329
(g1632
g331
Ntp2488
Rp2489
(dp2490
g1636
(dp2491
sg1637
g4
sg355
S'c:/Marmalade/7.5/examples/GameTutorial/CPP/marm1/data/app.icf'
p2492
sbsS'IwClassFactory.h'
p2493
g329
(g1632
g331
Ntp2494
Rp2495
(dp2496
g1636
g1503
sg1637
g1673
sg355
g1520
sbsS'file.h'
p2497
g329
(g1632
g331
Ntp2498
Rp2499
(dp2500
g1636
g1644
sg1637
g1797
sg355
S'c:/marmalade/7.5/s3e/h/std/sys/file.h'
p2501
sbsS'cstring'
p2502
g329
(g1632
g331
Ntp2503
Rp2504
(dp2505
g1636
g1644
sg1637
g1645
sg355
S'c:/marmalade/7.5/s3e/h/std/c++/cstring'
p2506
sbsS'IwSoundInst.cpp'
p2507
g329
(g1632
g331
Ntp2508
Rp2509
(dp2510
g1636
g1141
sg1637
g1684
sg355
g1166
sbsS'iwutil.config.txt'
p2511
g329
(g1632
g331
Ntp2512
Rp2513
(dp2514
g1636
g1503
sg1637
g1673
sg355
g1536
sbsS's3eSMS.h'
p2515
g329
(g1632
g331
Ntp2516
Rp2517
(dp2518
g1636
g1644
sg1637
g1871
sg355
S'c:/marmalade/7.5/s3e/h/ext/s3eSMS.h'
p2519
sbsS'limits.h'
p2520
g329
(g1632
g331
Ntp2521
Rp2522
(dp2523
g1636
g1644
sg1637
g1666
sg355
S'c:/marmalade/7.5/s3e/h/std/limits.h'
p2524
sbsS'scene.h'
p2525
g329
(g1632
g331
Ntp2526
Rp2527
(dp2528
g1636
g1198
sg1637
g1788
sg355
g1251
sbsS'IwMaterial.h'
p2529
g329
(g1632
g331
Ntp2530
Rp2531
(dp2532
g1636
g1439
sg1637
g1778
sg355
g1468
sbsS'PVRTexTool_interface.cpp'
p2533
g329
(g1632
g331
Ntp2534
Rp2535
(dp2536
g1636
g1267
sg1637
(lp2537
g1259
ag1261
ag1263
asg355
g1268
sbsS'IwGxSurface.h'
p2538
g329
(g1632
g331
Ntp2539
Rp2540
(dp2541
g1636
g1439
sg1637
g1778
sg355
g1454
sbsS's3eSocket.h'
p2542
g329
(g1632
g331
Ntp2543
Rp2544
(dp2545
g1636
g1644
sg1637
g1660
sg355
S'c:/marmalade/7.5/s3e/h/s3eSocket.h'
p2546
sbsS'IwAutoFile.h'
p2547
g329
(g1632
g331
Ntp2548
Rp2549
(dp2550
g1636
g1503
sg1637
g1673
sg355
g1564
sbsS'ipc.h'
p2551
g329
(g1632
g331
Ntp2552
Rp2553
(dp2554
g1636
g1644
sg1637
g1797
sg355
S'c:/marmalade/7.5/s3e/h/std/sys/ipc.h'
p2555
sbsS'poll_1.h'
p2556
g329
(g1632
g331
Ntp2557
Rp2558
(dp2559
g1636
g1644
sg1637
g1797
sg355
S'c:/marmalade/7.5/s3e/h/std/sys/poll.h'
p2560
sbsS's3eThread.h'
p2561
g329
(g1632
g331
Ntp2562
Rp2563
(dp2564
g1636
g1644
sg1637
g1660
sg355
S'c:/marmalade/7.5/s3e/h/s3eThread.h'
p2565
sbsS'ucontext.h'
p2566
g329
(g1632
g331
Ntp2567
Rp2568
(dp2569
g1636
g1644
sg1637
g1666
sg355
S'c:/marmalade/7.5/s3e/h/std/ucontext.h'
p2570
sbsS'time.h'
p2571
g329
(g1632
g331
Ntp2572
Rp2573
(dp2574
g1636
g1644
sg1637
g1666
sg355
S'c:/marmalade/7.5/s3e/h/std/time.h'
p2575
sbsS'jchuff.h'
p2576
g329
(g1632
g331
Ntp2577
Rp2578
(dp2579
g1636
g1100
sg1637
g1732
sg355
g1117
sbsS'IwSoundPCM.cpp'
p2580
g329
(g1632
g331
Ntp2581
Rp2582
(dp2583
g1636
g1141
sg1637
g1684
sg355
g1162
sbsS's3eSoundRecord.h'
p2584
g329
(g1632
g331
Ntp2585
Rp2586
(dp2587
g1636
g1644
sg1637
g1660
sg355
S'c:/marmalade/7.5/s3e/h/s3eSoundRecord.h'
p2588
sbsS'IwFibre.h'
p2589
g329
(g1632
g331
Ntp2590
Rp2591
(dp2592
g1636
g1503
sg1637
g1673
sg355
g1589
sbsS's3eVersion.h'
p2593
g329
(g1632
g331
Ntp2594
Rp2595
(dp2596
g1636
g1644
sg1637
g1660
sg355
S'c:/marmalade/7.5/s3e/h/s3eVersion.h'
p2597
sbsS'input.cpp'
p2598
g329
(g1632
g331
Ntp2599
Rp2600
(dp2601
g1636
g1198
sg1637
g1788
sg355
g1221
sbsS'IwSoundGroup.h'
p2602
g329
(g1632
g331
Ntp2603
Rp2604
(dp2605
g1636
g1141
sg1637
g1684
sg355
g1187
sbsS'IwSoundWAV.h'
p2606
g329
(g1632
g331
Ntp2607
Rp2608
(dp2609
g1636
g1141
sg1637
g1684
sg355
g1168
sbsS'IwGxFontGlyph.h'
p2610
g329
(g1632
g331
Ntp2611
Rp2612
(dp2613
g1636
g1317
sg1637
g1638
sg355
g1315
sbsS's3eTypes.h'
p2614
g329
(g1632
g331
Ntp2615
Rp2616
(dp2617
g1636
g1644
sg1637
g1660
sg355
S'c:/marmalade/7.5/s3e/h/s3eTypes.h'
p2618
sbsS'IwSoundSpec.h'
p2619
g329
(g1632
g331
Ntp2620
Rp2621
(dp2622
g1636
g1141
sg1637
g1684
sg355
g1156
sbsS'signal_2.h'
p2623
g329
(g1632
g331
Ntp2624
Rp2625
(dp2626
g1636
g1644
sg1637
g1645
sg355
S'c:/marmalade/7.5/s3e/h/std/c++/signal.h'
p2627
sbsS'termios.h'
p2628
g329
(g1632
g331
Ntp2629
Rp2630
(dp2631
g1636
g1644
sg1637
g1666
sg355
S'c:/marmalade/7.5/s3e/h/std/termios.h'
p2632
sbsS'iw2dscenegraph.mkf'
p2633
g329
(g1632
g331
Ntp2634
Rp2635
(dp2636
g1636
g1288
sg1637
g1959
sg355
g1286
sbsS'slist'
p2637
g329
(g1632
g331
Ntp2638
Rp2639
(dp2640
g1636
g1644
sg1637
g1645
sg355
S'c:/marmalade/7.5/s3e/h/std/c++/slist'
p2641
sbsS'cstdlib'
p2642
g329
(g1632
g331
Ntp2643
Rp2644
(dp2645
g1636
g1644
sg1637
g1645
sg355
S'c:/marmalade/7.5/s3e/h/std/c++/cstdlib'
p2646
sbsS's3eLocation.h'
p2647
g329
(g1632
g331
Ntp2648
Rp2649
(dp2650
g1636
g1644
sg1637
g1660
sg355
S'c:/marmalade/7.5/s3e/h/s3eLocation.h'
p2651
sbsS'IwMemBucketHelpers.h'
p2652
g329
(g1632
g331
Ntp2653
Rp2654
(dp2655
g1636
g1503
sg1637
g1673
sg355
g1540
sbsS's3eHash.h'
p2656
g329
(g1632
g331
Ntp2657
Rp2658
(dp2659
g1636
g1644
sg1637
g1660
sg355
S'c:/marmalade/7.5/s3e/h/s3eHash.h'
p2660
sbsS'IwSoundGroup.cpp'
p2661
g329
(g1632
g331
Ntp2662
Rp2663
(dp2664
g1636
g1141
sg1637
g1684
sg355
g1139
sbsS'Enemymanager.h'
p2665
g329
(g1632
g331
Ntp2666
Rp2667
(dp2668
g1636
g1198
sg1637
g1788
sg355
g1235
sbsS'IwGeomFMat.h'
p2669
g329
(g1632
g331
Ntp2670
Rp2671
(dp2672
g1636
g1339
sg1637
g1698
sg355
g1367
sbsS'type_traits.h'
p2673
g329
(g1632
g331
Ntp2674
Rp2675
(dp2676
g1636
g1644
sg1637
g1645
sg355
S'c:/marmalade/7.5/s3e/h/std/c++/type_traits.h'
p2677
sbsS's3eAtomic.h'
p2678
g329
(g1632
g331
Ntp2679
Rp2680
(dp2681
g1636
g1644
sg1637
g1660
sg355
S'c:/marmalade/7.5/s3e/h/s3eAtomic.h'
p2682
sbsS'IwMenu.h'
p2683
g329
(g1632
g331
Ntp2684
Rp2685
(dp2686
g1636
g1503
sg1637
g1673
sg355
g1593
sbsS'IwResHandlerITX.h'
p2687
g329
(g1632
g331
Ntp2688
Rp2689
(dp2690
g1636
g1415
sg1637
g1917
sg355
g1413
sbsS'IwSoundData.h'
p2691
g329
(g1632
g331
Ntp2692
Rp2693
(dp2694
g1636
g1141
sg1637
g1684
sg355
g1180
sbsS'IwArray.h'
p2695
g329
(g1632
g331
Ntp2696
Rp2697
(dp2698
g1636
g1503
sg1637
g1673
sg355
g1591
sbsS'IwUTF8.h'
p2699
g329
(g1632
g331
Ntp2700
Rp2701
(dp2702
g1636
g1503
sg1637
g1673
sg355
g1534
sbsS'math_rvct.h'
p2703
g329
(g1632
g331
Ntp2704
Rp2705
(dp2706
g1636
g1644
sg1637
g1666
sg355
S'c:/marmalade/7.5/s3e/h/std/math_rvct.h'
p2707
sbsS'IwUtil.h'
p2708
g329
(g1632
g331
Ntp2709
Rp2710
(dp2711
g1636
g1503
sg1637
g1673
sg355
g1575
sbsS'IwFColour.h'
p2712
g329
(g1632
g331
Ntp2713
Rp2714
(dp2715
g1636
g1439
sg1637
g1778
sg355
g1474
sbsS'wctype.h'
p2716
g329
(g1632
g331
Ntp2717
Rp2718
(dp2719
g1636
g1644
sg1637
g1666
sg355
S'c:/marmalade/7.5/s3e/h/std/wctype.h'
p2720
sbsS'mainMenu.h'
p2721
g329
(g1632
g331
Ntp2722
Rp2723
(dp2724
g1636
g1198
sg1637
g1788
sg355
g1199
sbsS'cstddef'
p2725
g329
(g1632
g331
Ntp2726
Rp2727
(dp2728
g1636
g1644
sg1637
g1645
sg355
S'c:/marmalade/7.5/s3e/h/std/c++/cstddef'
p2729
sbsS'assert.h'
p2730
g329
(g1632
g331
Ntp2731
Rp2732
(dp2733
g1636
g1644
sg1637
g1666
sg355
S'c:/marmalade/7.5/s3e/h/std/assert.h'
p2734
sbsS'mman.h'
p2735
g329
(g1632
g331
Ntp2736
Rp2737
(dp2738
g1636
g1644
sg1637
g1797
sg355
S'c:/marmalade/7.5/s3e/h/std/sys/mman.h'
p2739
sbsS'IwRandom.h'
p2740
g329
(g1632
g331
Ntp2741
Rp2742
(dp2743
g1636
g1503
sg1637
g1673
sg355
g1530
sbsS'libgen.h'
p2744
g329
(g1632
g331
Ntp2745
Rp2746
(dp2747
g1636
g1644
sg1637
g1666
sg355
S'c:/marmalade/7.5/s3e/h/std/libgen.h'
p2748
sbsS'utsname.h'
p2749
g329
(g1632
g331
Ntp2750
Rp2751
(dp2752
g1636
g1644
sg1637
g1797
sg355
S'c:/marmalade/7.5/s3e/h/std/sys/utsname.h'
p2753
sbsS'wait.h'
p2754
g329
(g1632
g331
Ntp2755
Rp2756
(dp2757
g1636
g1644
sg1637
g1797
sg355
S'c:/marmalade/7.5/s3e/h/std/sys/wait.h'
p2758
sbsS'param.h'
p2759
g329
(g1632
g331
Ntp2760
Rp2761
(dp2762
g1636
g1644
sg1637
g1797
sg355
S'c:/marmalade/7.5/s3e/h/std/sys/param.h'
p2763
sbsS'IwDivide.h'
p2764
g329
(g1632
g331
Ntp2765
Rp2766
(dp2767
g1636
g1503
sg1637
g1673
sg355
g1510
sbsS'Iw2DSceneGraphCore.cpp'
p2768
g329
(g1632
g331
Ntp2769
Rp2770
(dp2771
g1636
g1496
sg1637
(lp2772
S"'Marmalade Studio'"
p2773
ag1489
asg355
g1497
sbsS'IwResManager.h'
p2774
g329
(g1632
g331
Ntp2775
Rp2776
(dp2777
g1636
g1415
sg1637
g1917
sg355
g1422
sbsS'IwSoundManager.h'
p2778
g329
(g1632
g331
Ntp2779
Rp2780
(dp2781
g1636
g1141
sg1637
g1684
sg355
g1160
sbsS'cwctype'
p2782
g329
(g1632
g331
Ntp2783
Rp2784
(dp2785
g1636
g1644
sg1637
g1645
sg355
S'c:/marmalade/7.5/s3e/h/std/c++/cwctype'
p2786
sbsS'set'
p2787
g329
(g1632
g331
Ntp2788
Rp2789
(dp2790
g1636
g1644
sg1637
g1645
sg355
S'c:/marmalade/7.5/s3e/h/std/c++/set'
p2791
sbsS'IwGeomSQuat.h'
p2792
g329
(g1632
g331
Ntp2793
Rp2794
(dp2795
g1636
g1339
sg1637
g1698
sg355
g1363
sbsS'locale'
p2796
g329
(g1632
g331
Ntp2797
Rp2798
(dp2799
g1636
g1644
sg1637
g1645
sg355
S'c:/marmalade/7.5/s3e/h/std/c++/locale'
p2800
sbsS'cstdio'
p2801
g329
(g1632
g331
Ntp2802
Rp2803
(dp2804
g1636
g1644
sg1637
g1645
sg355
S'c:/marmalade/7.5/s3e/h/std/c++/cstdio'
p2805
sbsS'cdjpeg.h'
p2806
g329
(g1632
g331
Ntp2807
Rp2808
(dp2809
g1636
g1100
sg1637
g1732
sg355
g1119
sbsS'audio.h'
p2810
g329
(g1632
g331
Ntp2811
Rp2812
(dp2813
g1636
g1198
sg1637
g1788
sg355
g1215
sbsS'IwList.h'
p2814
g329
(g1632
g331
Ntp2815
Rp2816
(dp2817
g1636
g1503
sg1637
g1673
sg355
g1562
sbsS'pauseMenu.cpp'
p2818
g329
(g1632
g331
Ntp2819
Rp2820
(dp2821
g1636
g1198
sg1637
g1788
sg355
g1249
sbsS'inttypes.h'
p2822
g329
(g1632
g331
Ntp2823
Rp2824
(dp2825
g1636
g1644
sg1637
g1666
sg355
S'c:/marmalade/7.5/s3e/h/std/inttypes.h'
p2826
sbsS'dirent.h'
p2827
g329
(g1632
g331
Ntp2828
Rp2829
(dp2830
g1636
g1644
sg1637
g1666
sg355
S'c:/marmalade/7.5/s3e/h/std/dirent.h'
p2831
sbsS'IwGeomVec3.h'
p2832
g329
(g1632
g331
Ntp2833
Rp2834
(dp2835
g1636
g1339
sg1637
g1698
sg355
g1357
sbsS'transupp.h'
p2836
g329
(g1632
g331
Ntp2837
Rp2838
(dp2839
g1636
g1100
sg1637
g1732
sg355
g1105
sbsS'IwMath.h'
p2840
g329
(g1632
g331
Ntp2841
Rp2842
(dp2843
g1636
g1503
sg1637
g1673
sg355
g1504
sbsS'IwGeomQuat.h'
p2844
g329
(g1632
g331
Ntp2845
Rp2846
(dp2847
g1636
g1339
sg1637
g1698
sg355
g1407
sbsS'glplatform.h'
p2848
g329
(g1632
g331
Ntp2849
Rp2850
(dp2851
g1636
g1644
sg1637
g2010
sg355
S'c:/marmalade/7.5/s3e/h/GLES/glplatform.h'
p2852
sbsS's3e-default.mkf'
p2853
g329
(g1632
g331
Ntp2854
Rp2855
(dp2856
g1636
g1628
sg1637
(lp2857
g1624
asg355
g1626
sbsS'iwgl.config.txt'
p2858
g329
(g1632
g331
Ntp2859
Rp2860
(dp2861
g1636
g1296
sg1637
g1654
sg355
g1297
sbsS'bitset'
p2862
g329
(g1632
g331
Ntp2863
Rp2864
(dp2865
g1636
g1644
sg1637
g1645
sg355
S'c:/marmalade/7.5/s3e/h/std/c++/bitset'
p2866
sbsS'alloca.h'
p2867
g329
(g1632
g331
Ntp2868
Rp2869
(dp2870
g1636
g1644
sg1637
g1666
sg355
S'c:/marmalade/7.5/s3e/h/std/alloca.h'
p2871
sbsS'IwResHandler.h'
p2872
g329
(g1632
g331
Ntp2873
Rp2874
(dp2875
g1636
g1415
sg1637
g1917
sg355
g1431
sbsS'IwResHandlerMTL.h'
p2876
g329
(g1632
g331
Ntp2877
Rp2878
(dp2879
g1636
g1439
sg1637
g1778
sg355
g1446
sbsS'IwRuntime.h'
p2880
g329
(g1632
g331
Ntp2881
Rp2882
(dp2883
g1636
g1503
sg1637
g1673
sg355
g1554
sbsS'limits'
p2884
g329
(g1632
g331
Ntp2885
Rp2886
(dp2887
g1636
g1644
sg1637
g1645
sg355
S'c:/marmalade/7.5/s3e/h/std/c++/limits'
p2888
sbsS'IwGeomBBox.h'
p2889
g329
(g1632
g331
Ntp2890
Rp2891
(dp2892
g1636
g1339
sg1637
g1698
sg355
g1397
sbsS's3eContacts.h'
p2893
g329
(g1632
g331
Ntp2894
Rp2895
(dp2896
g1636
g1644
sg1637
g1660
sg355
S'c:/marmalade/7.5/s3e/h/s3eContacts.h'
p2897
sbsS's3eLicense.h'
p2898
g329
(g1632
g331
Ntp2899
Rp2900
(dp2901
g1636
g1644
sg1637
g1660
sg355
S'c:/marmalade/7.5/s3e/h/s3eLicense.h'
p2902
sbsS'iwgx.config.txt'
p2903
g329
(g1632
g331
Ntp2904
Rp2905
(dp2906
g1636
g1439
sg1637
g1778
sg355
g1481
sbsS'IwTextParser.h'
p2907
g329
(g1632
g331
Ntp2908
Rp2909
(dp2910
g1636
g1503
sg1637
g1673
sg355
g1583
sbsS's3eTimer.h'
p2911
g329
(g1632
g331
Ntp2912
Rp2913
(dp2914
g1636
g1644
sg1637
g1660
sg355
S'c:/marmalade/7.5/s3e/h/s3eTimer.h'
p2915
sbsS'IwGeomVec.h'
p2916
g329
(g1632
g331
Ntp2917
Rp2918
(dp2919
g1636
g1339
sg1637
g1698
sg355
g1383
sbsS'IwSerialise.h'
p2920
g329
(g1632
g331
Ntp2921
Rp2922
(dp2923
g1636
g1503
sg1637
g1673
sg355
g1601
sbsS'cstdarg'
p2924
g329
(g1632
g331
Ntp2925
Rp2926
(dp2927
g1636
g1644
sg1637
g1645
sg355
S'c:/marmalade/7.5/s3e/h/std/c++/cstdarg'
p2928
sbsS'gl2ext.h'
p2929
g329
(g1632
g331
Ntp2930
Rp2931
(dp2932
g1636
g1644
sg1637
g1909
sg355
S'c:/marmalade/7.5/s3e/h/GLES2/gl2ext.h'
p2933
sbsS'BackgroundEntity.h'
p2934
g329
(g1632
g331
Ntp2935
Rp2936
(dp2937
g1636
g1198
sg1637
g1788
sg355
g1241
sbsS'IwChar.h'
p2938
g329
(g1632
g331
Ntp2939
Rp2940
(dp2941
g1636
g1503
sg1637
g1673
sg355
g1528
sbsS's3eSound.h'
p2942
g329
(g1632
g331
Ntp2943
Rp2944
(dp2945
g1636
g1644
sg1637
g1660
sg355
S'c:/marmalade/7.5/s3e/h/s3eSound.h'
p2946
sbsS's3eIOSBackgroundAudio.h'
p2947
g329
(g1632
g331
Ntp2948
Rp2949
(dp2950
g1636
g1644
sg1637
g1871
sg355
S'c:/marmalade/7.5/s3e/h/ext/s3eIOSBackgroundAudio.h'
p2951
sbsS'exception.h'
p2952
g329
(g1632
g331
Ntp2953
Rp2954
(dp2955
g1636
g1644
sg1637
g1645
sg355
S'c:/marmalade/7.5/s3e/h/std/c++/exception.h'
p2956
sbsS'iwgeom.config.txt'
p2957
g329
(g1632
g331
Ntp2958
Rp2959
(dp2960
g1636
g1339
sg1637
g1698
sg355
g1405
sbsS'Shark.h'
p2961
g329
(g1632
g331
Ntp2962
Rp2963
(dp2964
g1636
g1198
sg1637
g1788
sg355
g1223
sbsS'iwgx.mkf'
p2965
g329
(g1632
g331
Ntp2966
Rp2967
(dp2968
g1636
g1480
sg1637
g1778
sg355
g1478
sbsS'gl.h'
p2969
g329
(g1632
g331
Ntp2970
Rp2971
(dp2972
g1636
g1644
sg1637
g2010
sg355
S'c:/marmalade/7.5/s3e/h/GLES/gl.h'
p2973
sbsS'zlib.h'
p2974
g329
(g1632
g331
Ntp2975
Rp2976
(dp2977
g1636
g1608
sg1637
g2355
sg355
g1609
sbsS'temp_defines_release.h'
p2978
g329
(g1632
g331
Ntp2979
Rp2980
(dp2981
g1636
(lp2982
sg1637
(lp2983
S"'generated files'"
p2984
asg355
S'c:/Marmalade/7.5/examples/GameTutorial/CPP/marm1/build_stage4_vc12/temp_defines_release.h'
p2985
sbsS'iwgl.mkf'
p2986
g329
(g1632
g331
Ntp2987
Rp2988
(dp2989
g1636
g1293
sg1637
g1654
sg355
g1291
sbsS'IwColour.h'
p2990
g329
(g1632
g331
Ntp2991
Rp2992
(dp2993
g1636
g1439
sg1637
g1778
sg355
g1483
sbsS's3eLibrary.h'
p2994
g329
(g1632
g331
Ntp2995
Rp2996
(dp2997
g1636
g1644
sg1637
g1871
sg355
S'c:/marmalade/7.5/s3e/h/ext/s3eLibrary.h'
p2998
sbsS'types.h'
p2999
g329
(g1632
g331
Ntp3000
Rp3001
(dp3002
g1636
g1644
sg1637
g1797
sg355
S'c:/marmalade/7.5/s3e/h/std/sys/types.h'
p3003
sbsS'ifaddrs.h'
p3004
g329
(g1632
g331
Ntp3005
Rp3006
(dp3007
g1636
g1644
sg1637
g1666
sg355
S'c:/marmalade/7.5/s3e/h/std/ifaddrs.h'
p3008
sbsS'strstream'
p3009
g329
(g1632
g331
Ntp3010
Rp3011
(dp3012
g1636
g1644
sg1637
g1645
sg355
S'c:/marmalade/7.5/s3e/h/std/c++/strstream'
p3013
sbsS'IwTween.cpp'
p3014
g329
(g1632
g331
Ntp3015
Rp3016
(dp3017
g1636
g1618
sg1637
g2174
sg355
g1619
sbsS'exception'
p3018
g329
(g1632
g331
Ntp3019
Rp3020
(dp3021
g1636
g1644
sg1637
g1645
sg355
S'c:/marmalade/7.5/s3e/h/std/c++/exception'
p3022
sbsS'Enemymanager.cpp'
p3023
g329
(g1632
g331
Ntp3024
Rp3025
(dp3026
g1636
g1198
sg1637
g1788
sg355
g1209
sbsS'rlocks.h'
p3027
g329
(g1632
g331
Ntp3028
Rp3029
(dp3030
g1636
g1644
sg1637
g1645
sg355
S'c:/marmalade/7.5/s3e/h/std/c++/rlocks.h'
p3031
sbsS'ioctl.h'
p3032
g329
(g1632
g331
Ntp3033
Rp3034
(dp3035
g1636
g1644
sg1637
g1797
sg355
S'c:/marmalade/7.5/s3e/h/std/sys/ioctl.h'
p3036
sbsS'sem.h'
p3037
g329
(g1632
g331
Ntp3038
Rp3039
(dp3040
g1636
g1644
sg1637
g1797
sg355
S'c:/marmalade/7.5/s3e/h/std/sys/sem.h'
p3041
sbsS'jinclude.h'
p3042
g329
(g1632
g331
Ntp3043
Rp3044
(dp3045
g1636
g1100
sg1637
g1732
sg355
g1107
sbsS'IwEvent.h'
p3046
g329
(g1632
g331
Ntp3047
Rp3048
(dp3049
g1636
g1503
sg1637
g1673
sg355
g1587
sbsS'IwOptimiseSize.h'
p3050
g329
(g1632
g331
Ntp3051
Rp3052
(dp3053
g1636
g1503
sg1637
g1673
sg355
g1552
sbsS'iwgxfont_public.defines.txt'
p3054
g329
(g1632
g331
Ntp3055
Rp3056
(dp3057
g1636
g1317
sg1637
g1638
sg355
g1333
sbsS'iconv.h'
p3058
g329
(g1632
g331
Ntp3059
Rp3060
(dp3061
g1636
g1644
sg1637
g1666
sg355
S'c:/marmalade/7.5/s3e/h/std/iconv.h'
p3062
sbsS's3eDevice.h'
p3063
g329
(g1632
g331
Ntp3064
Rp3065
(dp3066
g1636
g1644
sg1637
g1660
sg355
S'c:/marmalade/7.5/s3e/h/s3eDevice.h'
p3067
sbsS'IwGeomSphere.h'
p3068
g329
(g1632
g331
Ntp3069
Rp3070
(dp3071
g1636
g1339
sg1637
g1698
sg355
g1340
sbsS'tiniconv.mkf'
p3072
g329
(g1632
g331
Ntp3073
Rp3074
(dp3075
g1636
g1131
sg1637
g2127
sg355
g1129
sbsS'iw2dscenegraph.defines.txt'
p3076
g329
(g1632
g331
Ntp3077
Rp3078
(dp3079
g1636
g1281
sg1637
g1959
sg355
g1282
sbsS'jdct.h'
p3080
g329
(g1632
g331
Ntp3081
Rp3082
(dp3083
g1636
g1100
sg1637
g1732
sg355
g1111
sbsS'cctype'
p3084
g329
(g1632
g331
Ntp3085
Rp3086
(dp3087
g1636
g1644
sg1637
g1645
sg355
S'c:/marmalade/7.5/s3e/h/std/c++/cctype'
p3088
sbsS'IwSoundADPCM.cpp'
p3089
g329
(g1632
g331
Ntp3090
Rp3091
(dp3092
g1636
g1141
sg1637
g1684
sg355
g1174
sbsS's3eConfig.h'
p3093
g329
(g1632
g331
Ntp3094
Rp3095
(dp3096
g1636
g1644
sg1637
g1660
sg355
S'c:/marmalade/7.5/s3e/h/s3eConfig.h'
p3097
sbsS'IwHashString.h'
p3098
g329
(g1632
g331
Ntp3099
Rp3100
(dp3101
g1636
g1503
sg1637
g1673
sg355
g1568
sbsS'stat.h'
p3102
g329
(g1632
g331
Ntp3103
Rp3104
(dp3105
g1636
g1644
sg1637
g1797
sg355
S'c:/marmalade/7.5/s3e/h/std/sys/stat.h'
p3106
sbsS'byteswap.h'
p3107
g329
(g1632
g331
Ntp3108
Rp3109
(dp3110
g1636
g1644
sg1637
g1666
sg355
S'c:/marmalade/7.5/s3e/h/std/byteswap.h'
p3111
sbsS'iwresmanager.mkf'
p3112
g329
(g1632
g331
Ntp3113
Rp3114
(dp3115
g1636
g1426
sg1637
g1917
sg355
g1424
sbsS'IwUtilInitTerm.h'
p3116
g329
(g1632
g331
Ntp3117
Rp3118
(dp3119
g1636
g1503
sg1637
g1673
sg355
g1597
sbsS'pthread_1.h'
p3120
g329
(g1632
g331
Ntp3121
Rp3122
(dp3123
g1636
g1644
sg1637
g1645
sg355
S'c:/marmalade/7.5/s3e/h/std/c++/pthread.h'
p3124
sbsS'iw2d.mkf'
p3125
g329
(g1632
g331
Ntp3126
Rp3127
(dp3128
g1636
g1312
sg1637
g1737
sg355
g1310
sbsS'complex'
p3129
g329
(g1632
g331
Ntp3130
Rp3131
(dp3132
g1636
g1644
sg1637
g1645
sg355
S'c:/marmalade/7.5/s3e/h/std/c++/complex'
p3133
sbsS'algorithm'
p3134
g329
(g1632
g331
Ntp3135
Rp3136
(dp3137
g1636
g1644
sg1637
g1645
sg355
S'c:/marmalade/7.5/s3e/h/std/c++/algorithm'
p3138
sbsS's3e.icf'
p3139
g329
(g1632
g331
Ntp3140
Rp3141
(dp3142
g1636
g1644
sg1637
g1660
sg355
S'c:/marmalade/7.5/s3e/s3e.icf'
p3143
sbsS'resources.h'
p3144
g329
(g1632
g331
Ntp3145
Rp3146
(dp3147
g1636
g1198
sg1637
g1788
sg355
g1217
sbsS'IwGxFontState.h'
p3148
g329
(g1632
g331
Ntp3149
Rp3150
(dp3151
g1636
g1317
sg1637
g1638
sg355
g1322
sbsS'marmaladeexampleresources.mkf'
p3152
g329
(g1632
g331
Ntp3153
Rp3154
(dp3155
g1636
g1193
sg1637
(lp3156
g1189
asg355
g1191
sbsS'stdio.h'
p3157
g329
(g1632
g331
Ntp3158
Rp3159
(dp3160
g1636
g1644
sg1637
g1666
sg355
S'c:/marmalade/7.5/s3e/h/std/stdio.h'
p3161
sbsS'jmemsys.h'
p3162
g329
(g1632
g331
Ntp3163
Rp3164
(dp3165
g1636
g1100
sg1637
g1732
sg355
g1113
sbsS'ios'
p3166
g329
(g1632
g331
Ntp3167
Rp3168
(dp3169
g1636
g1644
sg1637
g1645
sg355
S'c:/marmalade/7.5/s3e/h/std/c++/ios'
p3170
sbsS'IwTween.h'
p3171
g329
(g1632
g331
Ntp3172
Rp3173
(dp3174
g1636
g1618
sg1637
g2174
sg355
g1616
sbsS'PVRTexTool.defines.txt'
p3175
g329
(g1632
g331
Ntp3176
Rp3177
(dp3178
g1636
g1267
sg1637
g2537
sg355
g1265
sbsS'stack'
p3179
g329
(g1632
g331
Ntp3180
Rp3181
(dp3182
g1636
g1644
sg1637
g1645
sg355
S'c:/marmalade/7.5/s3e/h/std/c++/stack'
p3183
sbsS'IwSoundParams.h'
p3184
g329
(g1632
g331
Ntp3185
Rp3186
(dp3187
g1636
g1141
sg1637
g1684
sg355
g1172
sbsS'new.h'
p3188
g329
(g1632
g331
Ntp3189
Rp3190
(dp3191
g1636
g1644
sg1637
g1645
sg355
S'c:/marmalade/7.5/s3e/h/std/c++/new.h'
p3192
sbsS's3eEMail.h'
p3193
g329
(g1632
g331
Ntp3194
Rp3195
(dp3196
g1636
g1644
sg1637
g1871
sg355
S'c:/marmalade/7.5/s3e/h/ext/s3eEMail.h'
p3197
sbsS's3eVideo.h'
p3198
g329
(g1632
g331
Ntp3199
Rp3200
(dp3201
g1636
g1644
sg1637
g1660
sg355
S'c:/marmalade/7.5/s3e/h/s3eVideo.h'
p3202
sbsS'pngconf.h'
p3203
g329
(g1632
g331
Ntp3204
Rp3205
(dp3206
g1636
g1086
sg1637
g2411
sg355
g1087
sbsS'pwd.h'
p3207
g329
(g1632
g331
Ntp3208
Rp3209
(dp3210
g1636
g1644
sg1637
g1666
sg355
S'c:/marmalade/7.5/s3e/h/std/pwd.h'
p3211
sbsS'IwOptimiseThumb.h'
p3212
g329
(g1632
g331
Ntp3213
Rp3214
(dp3215
g1636
g1503
sg1637
g1673
sg355
g1570
sbsS'gl3.h'
p3216
g329
(g1632
g331
Ntp3217
Rp3218
(dp3219
g1636
g1644
sg1637
g1970
sg355
S'c:/marmalade/7.5/s3e/h/GLES3/gl3.h'
p3220
sbsS'IwClip.h'
p3221
g329
(g1632
g331
Ntp3222
Rp3223
(dp3224
g1636
g1439
sg1637
g1778
sg355
g1452
sbsS'IwSoundInst.h'
p3225
g329
(g1632
g331
Ntp3226
Rp3227
(dp3228
g1636
g1141
sg1637
g1684
sg355
g1152
sbsS'iwresmanager.config.txt'
p3229
g329
(g1632
g331
Ntp3230
Rp3231
(dp3232
g1636
g1415
sg1637
g1917
sg355
g1427
sbsS'IwGxShaderTechnique.h'
p3233
g329
(g1632
g331
Ntp3234
Rp3235
(dp3236
g1636
g1439
sg1637
g1778
sg355
g1464
sbsS'IwCore.h'
p3237
g329
(g1632
g331
Ntp3238
Rp3239
(dp3240
g1636
g1503
sg1637
g1673
sg355
g1508
sbsS'cfloat'
p3241
g329
(g1632
g331
Ntp3242
Rp3243
(dp3244
g1636
g1644
sg1637
g1645
sg355
S'c:/marmalade/7.5/s3e/h/std/c++/cfloat'
p3245
sbsS'IwGeomMat2D.h'
p3246
g329
(g1632
g331
Ntp3247
Rp3248
(dp3249
g1636
g1339
sg1637
g1698
sg355
g1371
sbsS'IwAllocator.h'
p3250
g329
(g1632
g331
Ntp3251
Rp3252
(dp3253
g1636
g1503
sg1637
g1673
sg355
g1538
sbsS'Levelmanager.cpp'
p3254
g329
(g1632
g331
Ntp3255
Rp3256
(dp3257
g1636
g1198
sg1637
g1788
sg355
g1237
sbsS'IwPath.h'
p3258
g329
(g1632
g331
Ntp3259
Rp3260
(dp3261
g1636
g1503
sg1637
g1673
sg355
g1558
sbsS'iwgxfont.mkf'
p3262
g329
(g1632
g331
Ntp3263
Rp3264
(dp3265
g1636
g1328
sg1637
g1638
sg355
g1326
sbsS'IwTexture.h'
p3266
g329
(g1632
g331
Ntp3267
Rp3268
(dp3269
g1636
g1439
sg1637
g1778
sg355
g1442
sbsS'IwGeomVec.h.tpl'
p3270
g329
(g1632
g331
Ntp3271
Rp3272
(dp3273
g1636
g1339
sg1637
g1698
sg355
g1381
sbsS's3eAccelerometer.h'
p3274
g329
(g1632
g331
Ntp3275
Rp3276
(dp3277
g1636
g1644
sg1637
g1660
sg355
S'c:/marmalade/7.5/s3e/h/s3eAccelerometer.h'
p3278
sbsS'setjmp.h'
p3279
g329
(g1632
g331
Ntp3280
Rp3281
(dp3282
g1636
g1644
sg1637
g1666
sg355
S'c:/marmalade/7.5/s3e/h/std/setjmp.h'
p3283
sbsS'IwSoundParams.cpp'
p3284
g329
(g1632
g331
Ntp3285
Rp3286
(dp3287
g1636
g1141
sg1637
g1684
sg355
g1158
sbsS'IwFile.h'
p3288
g329
(g1632
g331
Ntp3289
Rp3290
(dp3291
g1636
g1503
sg1637
g1673
sg355
g1579
sbsS'IwTextParseable.h'
p3292
g329
(g1632
g331
Ntp3293
Rp3294
(dp3295
g1636
g1503
sg1637
g1673
sg355
g1526
sbsS'istream.h'
p3296
g329
(g1632
g331
Ntp3297
Rp3298
(dp3299
g1636
g1644
sg1637
g1645
sg355
S'c:/marmalade/7.5/s3e/h/std/c++/istream.h'
p3300
sbsS'Level.h'
p3301
g329
(g1632
g331
Ntp3302
Rp3303
(dp3304
g1636
g1198
sg1637
g1788
sg355
g1211
sbsS'stdint.h'
p3305
g329
(g1632
g331
Ntp3306
Rp3307
(dp3308
g1636
g1644
sg1637
g1666
sg355
S'c:/marmalade/7.5/s3e/h/std/stdint.h'
p3309
sbsS'semaphore.h'
p3310
g329
(g1632
g331
Ntp3311
Rp3312
(dp3313
g1636
g1644
sg1637
g1666
sg355
S'c:/marmalade/7.5/s3e/h/std/semaphore.h'
p3314
sbsS'ctime'
p3315
g329
(g1632
g331
Ntp3316
Rp3317
(dp3318
g1636
g1644
sg1637
g1645
sg355
S'c:/marmalade/7.5/s3e/h/std/c++/ctime'
p3319
sbsS'sstream'
p3320
g329
(g1632
g331
Ntp3321
Rp3322
(dp3323
g1636
g1644
sg1637
g1645
sg355
S'c:/marmalade/7.5/s3e/h/std/c++/sstream'
p3324
sbsS'IwGeomFBBox.h'
p3325
g329
(g1632
g331
Ntp3326
Rp3327
(dp3328
g1636
g1339
sg1637
g1698
sg355
g1365
sbsS'IwDebugPrim.h'
p3329
g329
(g1632
g331
Ntp3330
Rp3331
(dp3332
g1636
g1439
sg1637
g1778
sg355
g1437
sbsS'GameScene.cpp'
p3333
g329
(g1632
g331
Ntp3334
Rp3335
(dp3336
g1636
g1198
sg1637
g1788
sg355
g1239
sbsS'IwGxFontContainer.h'
p3337
g329
(g1632
g331
Ntp3338
Rp3339
(dp3340
g1636
g1317
sg1637
g1638
sg355
g1324
sbsS'IwGeomSVec3.h'
p3341
g329
(g1632
g331
Ntp3342
Rp3343
(dp3344
g1636
g1339
sg1637
g1698
sg355
g1342
sbsS'hero.h'
p3345
g329
(g1632
g331
Ntp3346
Rp3347
(dp3348
g1636
g1198
sg1637
g1788
sg355
g1205
sbsS'iw2dscenegraphcore.mkf'
p3349
g329
(g1632
g331
Ntp3350
Rp3351
(dp3352
g1636
g1493
sg1637
g2772
sg355
g1491
sbsS's3eExt.h'
p3353
g329
(g1632
g331
Ntp3354
Rp3355
(dp3356
g1636
g1644
sg1637
g1660
sg355
S'c:/marmalade/7.5/s3e/h/s3eExt.h'
p3357
sbsS'IwGeomFVec3.h'
p3358
g329
(g1632
g331
Ntp3359
Rp3360
(dp3361
g1636
g1339
sg1637
g1698
sg355
g1401
sbsS'streambuf'
p3362
g329
(g1632
g331
Ntp3363
Rp3364
(dp3365
g1636
g1644
sg1637
g1645
sg355
S'c:/marmalade/7.5/s3e/h/std/c++/streambuf'
p3366
sbsS's3eMetrics.h'
p3367
g329
(g1632
g331
Ntp3368
Rp3369
(dp3370
g1636
g1644
sg1637
g1871
sg355
S'c:/marmalade/7.5/s3e/h/ext/s3eMetrics.h'
p3371
sbsS'Shark.cpp'
p3372
g329
(g1632
g331
Ntp3373
Rp3374
(dp3375
g1636
g1198
sg1637
g1788
sg355
g1227
sbsS'IwGxFont.h'
p3376
g329
(g1632
g331
Ntp3377
Rp3378
(dp3379
g1636
g1317
sg1637
g1638
sg355
g1331
sbsS's3eSecureStorage.h'
p3380
g329
(g1632
g331
Ntp3381
Rp3382
(dp3383
g1636
g1644
sg1637
g1660
sg355
S'c:/marmalade/7.5/s3e/h/s3eSecureStorage.h'
p3384
sbsS'string.h'
p3385
g329
(g1632
g331
Ntp3386
Rp3387
(dp3388
g1636
g1644
sg1637
g1666
sg355
S'c:/marmalade/7.5/s3e/h/std/string.h'
p3389
sbsS'IwResource.h'
p3390
g329
(g1632
g331
Ntp3391
Rp3392
(dp3393
g1636
g1503
sg1637
g1673
sg355
g1599
sbsS'IwGeomSVec2.h'
p3394
g329
(g1632
g331
Ntp3395
Rp3396
(dp3397
g1636
g1339
sg1637
g1698
sg355
g1337
sbsS'libjpeg.mkf'
p3398
g329
(g1632
g331
Ntp3399
Rp3400
(dp3401
g1636
g1096
sg1637
(lp3402
g1092
asg355
g1094
sbsS'IwGxDebug.h'
p3403
g329
(g1632
g331
Ntp3404
Rp3405
(dp3406
g1636
g1439
sg1637
g1778
sg355
g1462
sbsS'float.h'
p3407
g329
(g1632
g331
Ntp3408
Rp3409
(dp3410
g1636
g1644
sg1637
g1666
sg355
S'c:/marmalade/7.5/s3e/h/std/float.h'
p3411
sbsS'iomanip.h'
p3412
g329
(g1632
g331
Ntp3413
Rp3414
(dp3415
g1636
g1644
sg1637
g1645
sg355
S'c:/marmalade/7.5/s3e/h/std/c++/iomanip.h'
p3416
sbsS'IwKeymap.h'
p3417
g329
(g1632
g331
Ntp3418
Rp3419
(dp3420
g1636
g1503
sg1637
g1673
sg355
g1544
sbsS'IwDebug.h'
p3421
g329
(g1632
g331
Ntp3422
Rp3423
(dp3424
g1636
g1503
sg1637
g1673
sg355
g1532
sbsS'IwVariableBitField.h'
p3425
g329
(g1632
g331
Ntp3426
Rp3427
(dp3428
g1636
g1503
sg1637
g1673
sg355
g1566
sbsS'IwGeomMenu.h'
p3429
g329
(g1632
g331
Ntp3430
Rp3431
(dp3432
g1636
g1339
sg1637
g1698
sg355
g1395
sbsS'IwDivTable.h'
p3433
g329
(g1632
g331
Ntp3434
Rp3435
(dp3436
g1636
g1503
sg1637
g1673
sg355
g1522
sbsS'ctype.h'
p3437
g329
(g1632
g331
Ntp3438
Rp3439
(dp3440
g1636
g1644
sg1637
g1666
sg355
S'c:/marmalade/7.5/s3e/h/std/ctype.h'
p3441
sbsS'mainMenu.cpp'
p3442
g329
(g1632
g331
Ntp3443
Rp3444
(dp3445
g1636
g1198
sg1637
g1788
sg355
g1219
sbsS'IwResGroup.h'
p3446
g329
(g1632
g331
Ntp3447
Rp3448
(dp3449
g1636
g1415
sg1637
g1917
sg355
g1429
sbsS'signal_1.h'
p3450
g329
(g1632
g331
Ntp3451
Rp3452
(dp3453
g1636
g1644
sg1637
g1797
sg355
S'c:/marmalade/7.5/s3e/h/std/sys/signal.h'
p3454
sbsS'IwSoundData.cpp'
p3455
g329
(g1632
g331
Ntp3456
Rp3457
(dp3458
g1636
g1141
sg1637
g1684
sg355
g1178
sbsS'main.cpp'
p3459
g329
(g1632
g331
Ntp3460
Rp3461
(dp3462
g1636
g1198
sg1637
g1788
sg355
g1225
sbsS'shm.h'
p3463
g329
(g1632
g331
Ntp3464
Rp3465
(dp3466
g1636
g1644
sg1637
g1797
sg355
S'c:/marmalade/7.5/s3e/h/std/sys/shm.h'
p3467
sbsS'IwManagedList.h'
p3468
g329
(g1632
g331
Ntp3469
Rp3470
(dp3471
g1636
g1503
sg1637
g1673
sg355
g1516
sbsS'prctl.h'
p3472
g329
(g1632
g331
Ntp3473
Rp3474
(dp3475
g1636
g1644
sg1637
g1797
sg355
S'c:/marmalade/7.5/s3e/h/std/sys/prctl.h'
p3476
sbsS'IwGxStream.h'
p3477
g329
(g1632
g331
Ntp3478
Rp3479
(dp3480
g1636
g1439
sg1637
g1778
sg355
g1450
sbsS'temp_defines_debug.h'
p3481
g329
(g1632
g331
Ntp3482
Rp3483
(dp3484
g1636
(lp3485
sg1637
(lp3486
g2984
asg355
S'c:/Marmalade/7.5/examples/GameTutorial/CPP/marm1/build_stage4_vc12/temp_defines_debug.h'
p3487
sbsS'utility'
p3488
g329
(g1632
g331
Ntp3489
Rp3490
(dp3491
g1636
g1644
sg1637
g1645
sg355
S'c:/marmalade/7.5/s3e/h/std/c++/utility'
p3492
sbsS'input.h'
p3493
g329
(g1632
g331
Ntp3494
Rp3495
(dp3496
g1636
g1198
sg1637
g1788
sg355
g1213
sbsS'Levelmanager.h'
p3497
g329
(g1632
g331
Ntp3498
Rp3499
(dp3500
g1636
g1198
sg1637
g1788
sg355
g1233
sbsS'IwGeomLegacy.h'
p3501
g329
(g1632
g331
Ntp3502
Rp3503
(dp3504
g1636
g1339
sg1637
g1698
sg355
g1359
sbsS'IwTPage.h'
p3505
g329
(g1632
g331
Ntp3506
Rp3507
(dp3508
g1636
g1439
sg1637
g1778
sg355
g1487
sbsS'IwResSerialise.h'
p3509
g329
(g1632
g331
Ntp3510
Rp3511
(dp3512
g1636
g1415
sg1637
g1917
sg355
g1416
sbsS's3eCrypto.h'
p3513
g329
(g1632
g331
Ntp3514
Rp3515
(dp3516
g1636
g1644
sg1637
g1660
sg355
S'c:/marmalade/7.5/s3e/h/s3eCrypto.h'
p3517
sbsS's3eKeyboard.h'
p3518
g329
(g1632
g331
Ntp3519
Rp3520
(dp3521
g1636
g1644
sg1637
g1660
sg355
S'c:/marmalade/7.5/s3e/h/s3eKeyboard.h'
p3522
sbsS'fcntl.h'
p3523
g329
(g1632
g331
Ntp3524
Rp3525
(dp3526
g1636
g1644
sg1637
g1666
sg355
S'c:/marmalade/7.5/s3e/h/std/fcntl.h'
p3527
sbsS'Iw2DSceneGraphCore.h'
p3528
g329
(g1632
g331
Ntp3529
Rp3530
(dp3531
g1636
g1496
sg1637
g2772
sg355
g1494
sbsS'memory.h'
p3532
g329
(g1632
g331
Ntp3533
Rp3534
(dp3535
g1636
g1644
sg1637
g1666
sg355
S'c:/marmalade/7.5/s3e/h/std/memory.h'
p3536
sbsS'Entity.h'
p3537
g329
(g1632
g331
Ntp3538
Rp3539
(dp3540
g1636
g1198
sg1637
g1788
sg355
g1203
sbsS'pthread.h'
p3541
g329
(g1632
g331
Ntp3542
Rp3543
(dp3544
g1636
g1644
sg1637
g1666
sg355
S'c:/marmalade/7.5/s3e/h/std/pthread.h'
p3545
sbsS'IwGeomIntersect.h'
p3546
g329
(g1632
g331
Ntp3547
Rp3548
(dp3549
g1636
g1339
sg1637
g1698
sg355
g1385
sbsS'IwTextParserITX.h'
p3550
g329
(g1632
g331
Ntp3551
Rp3552
(dp3553
g1636
g1503
sg1637
g1673
sg355
g1542
sbsS'IwClip.inl'
p3554
g329
(g1632
g331
Ntp3555
Rp3556
(dp3557
g1636
g1439
sg1637
g1778
sg355
g1472
sbsS'Iw2DSceneGraph.cpp'
p3558
g329
(g1632
g331
Ntp3559
Rp3560
(dp3561
g1636
g1281
sg1637
g1959
sg355
g1279
sbsS'ostream.h'
p3562
g329
(g1632
g331
Ntp3563
Rp3564
(dp3565
g1636
g1644
sg1637
g1645
sg355
S'c:/marmalade/7.5/s3e/h/std/c++/ostream.h'
p3566
sbsS'stl_user_config.h'
p3567
g329
(g1632
g331
Ntp3568
Rp3569
(dp3570
g1636
g1644
sg1637
g1645
sg355
S'c:/marmalade/7.5/s3e/h/std/c++/stl_user_config.h'
p3571
sbsS'IwProfileMenu.h'
p3572
g329
(g1632
g331
Ntp3573
Rp3574
(dp3575
g1636
g1503
sg1637
g1673
sg355
g1518
sbsS'MarmaladeVersion.h'
p3576
g329
(g1632
g331
Ntp3577
Rp3578
(dp3579
g1636
g1644
sg1637
g1660
sg355
S'c:/marmalade/7.5/s3e/h/MarmaladeVersion.h'
p3580
sbsS'IwResHandlerWAV.h'
p3581
g329
(g1632
g331
Ntp3582
Rp3583
(dp3584
g1636
g1141
sg1637
g1684
sg355
g1146
sbsS'gl3platform.h'
p3585
g329
(g1632
g331
Ntp3586
Rp3587
(dp3588
g1636
g1644
sg1637
g1970
sg355
S'c:/marmalade/7.5/s3e/h/GLES3/gl3platform.h'
p3589
sbsS'ios.h'
p3590
g329
(g1632
g331
Ntp3591
Rp3592
(dp3593
g1636
g1644
sg1637
g1645
sg355
S'c:/marmalade/7.5/s3e/h/std/c++/ios.h'
p3594
sbsS'IwImageHelper.h'
p3595
g329
(g1632
g331
Ntp3596
Rp3597
(dp3598
g1636
g1503
sg1637
g1673
sg355
g1514
sbsS'hash_set'
p3599
g329
(g1632
g331
Ntp3600
Rp3601
(dp3602
g1636
g1644
sg1637
g1645
sg355
S'c:/marmalade/7.5/s3e/h/std/c++/hash_set'
p3603
sbsS'IwGeomFQuat.h'
p3604
g329
(g1632
g331
Ntp3605
Rp3606
(dp3607
g1636
g1339
sg1637
g1698
sg355
g1349
sbsS'jmorecfg.h'
p3608
g329
(g1632
g331
Ntp3609
Rp3610
(dp3611
g1636
g1100
sg1637
g1732
sg355
g1109
sbsS'eglplatform.h'
p3612
g329
(g1632
g331
Ntp3613
Rp3614
(dp3615
g1636
g1644
sg1637
g2002
sg355
S'c:/marmalade/7.5/s3e/h/EGL/eglplatform.h'
p3616
sbsS'cmath'
p3617
g329
(g1632
g331
Ntp3618
Rp3619
(dp3620
g1636
g1644
sg1637
g1645
sg355
S'c:/marmalade/7.5/s3e/h/std/c++/cmath'
p3621
sbsS'math_gcc.h'
p3622
g329
(g1632
g331
Ntp3623
Rp3624
(dp3625
g1636
g1644
sg1637
g1666
sg355
S'c:/marmalade/7.5/s3e/h/std/math_gcc.h'
p3626
sbsS's3eMemory.h'
p3627
g329
(g1632
g331
Ntp3628
Rp3629
(dp3630
g1636
g1644
sg1637
g1660
sg355
S'c:/marmalade/7.5/s3e/h/s3eMemory.h'
p3631
sbsS'strings.h'
p3632
g329
(g1632
g331
Ntp3633
Rp3634
(dp3635
g1636
g1644
sg1637
g1666
sg355
S'c:/marmalade/7.5/s3e/h/std/strings.h'
p3636
sbsS's3eFile.h'
p3637
g329
(g1632
g331
Ntp3638
Rp3639
(dp3640
g1636
g1644
sg1637
g1660
sg355
S'c:/marmalade/7.5/s3e/h/s3eFile.h'
p3641
sbsS'IwGxTypes.h'
p3642
g329
(g1632
g331
Ntp3643
Rp3644
(dp3645
g1636
g1439
sg1637
g1778
sg355
g1476
sbsS'cerrno'
p3646
g329
(g1632
g331
Ntp3647
Rp3648
(dp3649
g1636
g1644
sg1637
g1645
sg355
S'c:/marmalade/7.5/s3e/h/std/c++/cerrno'
p3650
sbsS'IwSoundManager.cpp'
p3651
g329
(g1632
g331
Ntp3652
Rp3653
(dp3654
g1636
g1141
sg1637
g1684
sg355
g1154
sbsS'main.h'
p3655
g329
(g1632
g331
Ntp3656
Rp3657
(dp3658
g1636
g1198
sg1637
g1788
sg355
g1201
sbsS'soundengine.mkf'
p3659
g329
(g1632
g331
Ntp3660
Rp3661
(dp3662
g1636
g1186
sg1637
g1684
sg355
g1184
sbsS'resource.h'
p3663
g329
(g1632
g331
Ntp3664
Rp3665
(dp3666
g1636
g1644
sg1637
g1797
sg355
S'c:/marmalade/7.5/s3e/h/std/sys/resource.h'
p3667
sbsS'clocale'
p3668
g329
(g1632
g331
Ntp3669
Rp3670
(dp3671
g1636
g1644
sg1637
g1645
sg355
S'c:/marmalade/7.5/s3e/h/std/c++/clocale'
p3672
sbsS'pvrtextool.mkf'
p3673
g329
(g1632
g331
Ntp3674
Rp3675
(dp3676
g1636
g1274
sg1637
g2283
sg355
g1272
sbsS'csetjmp'
p3677
g329
(g1632
g331
Ntp3678
Rp3679
(dp3680
g1636
g1644
sg1637
g1645
sg355
S'c:/marmalade/7.5/s3e/h/std/c++/csetjmp'
p3681
sbsS'netdb.h'
p3682
g329
(g1632
g331
Ntp3683
Rp3684
(dp3685
g1636
g1644
sg1637
g1666
sg355
S'c:/marmalade/7.5/s3e/h/std/netdb.h'
p3686
sbsS's3eAndroidJNI.h'
p3687
g329
(g1632
g331
Ntp3688
Rp3689
(dp3690
g1636
g1644
sg1637
g1871
sg355
S'c:/marmalade/7.5/s3e/h/ext/s3eAndroidJNI.h'
p3691
sbsS'stdexcept'
p3692
g329
(g1632
g331
Ntp3693
Rp3694
(dp3695
g1636
g1644
sg1637
g1645
sg355
S'c:/marmalade/7.5/s3e/h/std/c++/stdexcept'
p3696
sbsS'math.h'
p3697
g329
(g1632
g331
Ntp3698
Rp3699
(dp3700
g1636
g1644
sg1637
g1666
sg355
S'c:/marmalade/7.5/s3e/h/std/math.h'
p3701
sbsS'stdbool.h'
p3702
g329
(g1632
g331
Ntp3703
Rp3704
(dp3705
g1636
g1644
sg1637
g1666
sg355
S'c:/marmalade/7.5/s3e/h/std/stdbool.h'
p3706
sbsS'uio.h'
p3707
g329
(g1632
g331
Ntp3708
Rp3709
(dp3710
g1636
g1644
sg1637
g1797
sg355
S'c:/marmalade/7.5/s3e/h/std/sys/uio.h'
p3711
sbsS'IwUncopyable.h'
p3712
g329
(g1632
g331
Ntp3713
Rp3714
(dp3715
g1636
g1503
sg1637
g1673
sg355
g1581
sbssS'juice_build_type'
p3716
g4
sS'tests'
p3717
(lp3718
sS'project_name'
p3719
g337
sS'root_file'
p3720
g135
sS'current_root'
p3721
S'c:/Marmalade/7.5/examples/GameTutorial/CPP/marm1'
p3722
sS'dependencies'
p3723
(lp3724
sS'include_paths'
p3725
(lp3726
S'c:/marmalade/7.5/modules/iw2d/h'
p3727
aS'c:/marmalade/7.5/modules/iwgx/h'
p3728
aS'c:/marmalade/7.5/modules/iwgl/h'
p3729
aS'c:/marmalade/7.5/modules/iwutil/h'
p3730
aS'c:/marmalade/7.5/modules/third_party/libjpeg/h'
p3731
aS'c:/marmalade/7.5/modules/third_party/zlib/h'
p3732
aS'c:/marmalade/7.5/modules/third_party/libpng/h'
p3733
aS'c:/marmalade/7.5/modules/iwgeom/h'
p3734
aS'c:/marmalade/7.5/modules/iwresmanager/h'
p3735
aS'c:/marmalade/7.5/extensions/pvrtextool/h'
p3736
aS'c:/marmalade/7.5/modules/iwgxfont/h'
p3737
aS'c:/marmalade/7.5/modules/third_party/tiniconv/source'
p3738
aS'c:/marmalade/7.5/modules/iw2dscenegraph/h'
p3739
aS'c:/marmalade/7.5/modules/iw2dscenegraphcore/h'
p3740
aS'c:/marmalade/7.5/modules/iwtween/h'
p3741
aS'c:/marmalade/7.5/examples/gametutorial/cpp/modules/soundengine/h'
p3742
aS'c:/marmalade/7.5/examples/gametutorial/cpp/modules/soundengine/source'
p3743
aS'c:/marmalade/7.5/s3e/h'
p3744
aS'c:/marmalade/7.5/s3e/h/ext'
p3745
aS'c:/marmalade/7.5/s3e/h/std'
p3746
aS'c:/marmalade/7.5/s3e/h/std/c++'
p3747
aS'c:/marmalade/7.5/s3e/h/ext_legacy'
p3748
aS'c:/marmalade/7.5/s3e/h/legacy'
p3749
asS'weak_frameworks'
p3750
(lp3751
sS'extprojects'
p3752
(dp3753
sg599
(dp3754
g593
(lp3755
(S'c:/Marmalade/7.5/examples/GameTutorial/CPP/marm1/data/audio'
p3756
S'audio'
p3757
I0
tp3758
a(S'c:/Marmalade/7.5/examples/GameTutorial/CPP/marm1/data/textures'
p3759
S'textures'
p3760
I0
tp3761
a(S'c:/Marmalade/7.5/examples/GameTutorial/CPP/marm1/data/fonts'
p3762
S'fonts'
p3763
I0
tp3764
a(S'c:/Marmalade/7.5/examples/GameTutorial/CPP/marm1/data-ram/data-gles1,c:/Marmalade/7.5/examples/GameTutorial/CPP/marm1/data'
p3765
S'.'
p3766
I0
tp3767
assS'macro_types'
p3768
(dp3769
g528
I1
sg529
I0
sg530
I0
sg531
I0
sg533
I0
sg534
I0
sg535
I0
sg536
I0
sg537
I0
sg539
I0
sg540
I0
sg541
I0
sg542
I0
sg543
I0
sg545
I0
sg547
I0
sg548
I0
sg549
I0
sg550
I0
sg551
I0
sg552
I0
sg553
I0
sg554
I0
sg555
I1
sg556
I0
sg557
I0
sg558
I0
sg559
I0
sg560
I01
sg561
I1
sg562
I0
sg563
I0
sg564
I0
sg565
I0
sg566
I0
sg567
I0
sg568
I0
ssS'commands'
p3770
(lp3771
sg601
(g1073
S'VC12'
p3772
S'X86ARMAARCH64'
p3773
tp3774
sS'build_libs'
p3775
(dp3776
sg603
g0
sS'frameworks'
p3777
(lp3778
sS'environ'
p3779
(dp3780
sS'target_name_debug'
p3781
g337
sS'builders'
p3782
(dp3783
g593
(dp3784
S'.S'
p3785
(dp3786
S'gcc_aarch64'
p3787
(lp3788
S'.obj'
p3789
aS'echo AARCH64 Assembling(GCC) ${SOURCE}...'
p3790
aS'c:/marmalade/7.5/s3e\\gcc\\win32\\aarch64\\bin\\aarch64-none-elf-gcc -c -o ${TARGET} ${SOURCE}'
p3791
asS'rvct'
p3792
(lp3793
g3789
aS'echo ARM Assembling(RVCT) ${SOURCE}...'
p3794
aS'c:/marmalade/7.5/s3e\\rvct\\bin\\armasm -o ${TARGET} ${SOURCE}'
p3795
asg451
(lp3796
g3789
aS'echo ARM Assembling(GCC) ${SOURCE}...'
p3797
aS'c:/marmalade/7.5/s3e\\gcc\\win32\\arm\\bin\\arm-none-eabi-gcc -c -o ${TARGET} ${SOURCE}'
p3798
asS'ppu'
p3799
(lp3800
S'.a'
p3801
aS'echo PPU Assembling(SNC) ${SOURCE}...'
p3802
aS'c:/marmalade/7.5/s3e\\rvct\\bin\\armasm -o ${TARGET} ${SOURCE}'
p3803
assS'.s'
p3804
g3786
sS'.vp'
p3805
(lp3806
NaS'"C:/Marmalade/7.5/s3e/python/python.exe" "c:/marmalade/7.5/modules/iwgx/tools/compile_shaders.py" ${SOURCE}'
p3807
asssS'extproject_names'
p3808
(lp3809
sbtp3810
.