((dp0
S'arm_dbg_args'
p1
S'-via:"c:\\Marmalade\\7.5\\examples\\GameTutorial\\CPP\\marm1\\build_stage4_vc12\\Stage4_vc12_arm_debug.via" -qemu'
p2
sS'game-icf'
p3
S''
p4
sS'dist'
p5
NsS'csproj'
p6
g4
sS'module_path_append'
p7
NsS'global_path'
p8
S'c:\\marmalade\\7.5\\examples\\gametutorial\\cpp'
p9
sS'system_path'
p10
S'c:\\marmalade\\7.5\\s3e\\makefile_builder'
p11
sS'android_x86_dbg_args'
p12
S'../../tools/DeployTool/DeployTool.exe --dir "c:\\Marmalade\\7.5\\examples\\GameTutorial\\CPP\\marm1\\build_stage4_vc12"'
p13
sS'aarch64-arch-mod'
p14
g4
sS'no-emit'
p15
NsS'arm-float-abi'
p16
g4
sS'arm_rel_rtsm_args'
p17
S'-via:"c:\\Marmalade\\7.5\\examples\\GameTutorial\\CPP\\marm1\\build_stage4_vc12\\Stage4_vc12_arm_release.via" -qemu'
p18
sS'amd64'
p19
NsS'line-width'
p20
I80
sS'gcc_dbg_args'
p21
S'-via:"c:\\Marmalade\\7.5\\examples\\GameTutorial\\CPP\\marm1\\build_stage4_vc12\\Stage4_vc12_gcc_debug.via" -qemu'
p22
sS'android-x86'
p23
NsS'x86_dbg_exe'
p24
S'c:/marmalade/7.5/s3e\\win32\\s3e_simulator_debug.exe'
p25
sS'disable-runtime-checks'
p26
NsS'release'
p27
NsS'no-make'
p28
NsS'xcode-x86-build-settings'
p29
g4
sS'optimise-size'
p30
NsS'fat'
p31
NsS'output-name-debug'
p32
g4
sS'arm-fpu'
p33
g4
sS'proj_name'
p34
S'Stage4_vc12'
p35
sS'rvct-version'
p36
S'none'
p37
sS'compiler'
p38
g4
sS'execute'
p39
NsS'compile-static'
p40
NsS'msvc-project'
p41
I01
sS'buildenv'
p42
S'VC12'
p43
sS'quick'
p44
NsS'module_path'
p45
(lp46
S'c:/Marmalade/7.5/examples/GameTutorial/CPP/modules'
p47
asS'mkf_default'
p48
S's3e-default.mkf'
p49
sS'use-release-std-libs'
p50
NsS'using_perforce'
p51
I00
sS'tizen-x86'
p52
NsS'mips-s3e'
p53
NsS's3e-api-lib-name'
p54
S's3e_api_iwgl'
p55
sS'ios-no-pic'
p56
NsS'shared-arm-lib'
p57
NsS'arm-cpu'
p58
g4
sS'compile-thumb'
p59
NsS'no-ide'
p60
NsS'msvc-version'
p61
S'6.0'
p62
sS'arm'
p63
NsS'builddir'
p64
g4
sS'compile-debug-as-release'
p65
I0
sS'arm-arch'
p66
g4
sS'brief'
p67
NsS'dll'
p68
NsS'buildenv-toolset'
p69
g4
sS'version'
p70
NsS'aarch64-arch'
p71
g4
sS'ccache'
p72
I0
sS'offline'
p73
NsS'ios-version'
p74
g4
sS'hub_data'
p75
g4
sS'fake_vc_call'
p76
I01
sS'jobs'
p77
I0
sS'linkflags'
p78
NsS'gcc_aarch64_dbg_args'
p79
g13
sS'debug'
p80
NsS'xcode-build-order'
p81
g4
sS'gcc_aarch64_rel_rtsm_args'
p82
S'-via:"c:\\Marmalade\\7.5\\examples\\GameTutorial\\CPP\\marm1\\build_stage4_vc12\\Stage4_vc12_gcc_aarch64_release.via" -qemu'
p83
sS'gcc_rel_rtsm_args'
p84
S'-via:"c:\\Marmalade\\7.5\\examples\\GameTutorial\\CPP\\marm1\\build_stage4_vc12\\Stage4_vc12_gcc_release.via" -qemu'
p85
sS'done_defaults'
p86
I1
sS'path'
p87
NsS's3e-data-dir'
p88
S'c:/Marmalade/7.5/examples/GameTutorial/CPP/marm1\\data'
p89
sS'enable-exceptions'
p90
NsS'osx-dll'
p91
NsS'extension'
p92
g4
sS'no-vc6'
p93
NsS'aarch64'
p94
NsS'win32-console'
p95
NsS'dist-format'
p96
g4
sS's3e-force-arch'
p97
NsS'dump_defines'
p98
NsS'use-shared-std-libs'
p99
NsS'gcc-version'
p100
g4
sS'x86_dbg_args'
p101
S'-via:"c:\\Marmalade\\7.5\\examples\\GameTutorial\\CPP\\marm1\\build_stage4_vc12\\Stage4_vc12_debug.via"'
p102
sS'tizen_x86_dbg_args'
p103
g13
sS'arm-debugger'
p104
g4
sS'use_temp_extension'
p105
NsS'verbose'
p106
I0
sS'log'
p107
NsS'no-strip'
p108
NsS'rebuild'
p109
NsS'mips_dbg_args'
p110
g13
sS'win32-simulator-dll'
p111
NsS'strict'
p112
NsS'xcode-aarch64-build-settings'
p113
g4
sS'enable-global-path'
p114
NsS'gcc_aarch64_rel_args'
p115
g13
sS'cflags'
p116
(lp117
S'-std=gnu++0x'
p118
asS'dist-dir'
p119
g4
sS'xcode-arm-build-settings'
p120
g4
sS'jflags'
p121
NsS'csprojSDKRefs'
p122
g4
sS'tizen_x86_rel_exe'
p123
S'c:\\marmalade\\7.5\\s3e\\makefile_builder\\tool_launcher.exe'
p124
sS'test-assets'
p125
g4
sS'distcc'
p126
NsS'external-compiler'
p127
NsS'no-distcc'
p128
NsS'preinclude'
p129
NsS'using_sdk'
p130
I01
sS'nologo'
p131
NsS'warn-level'
p132
I2
sS'mips_dbg_exe'
p133
g124
sS'mkb_in'
p134
S'c:/Marmalade/7.5/examples/GameTutorial/CPP/marm1/Stage4.mkb'
p135
sS'tizen_x86_dbg_exe'
p136
g124
sS'arm_dbg_exe'
p137
S'c:/marmalade/7.5/s3e\\bin\\armdebug.exe'
p138
sS'mdev-first'
p139
NsS'csprojDLLRef'
p140
NsS'tizen_x86_rel_args'
p141
g13
sS'android_x86_dbg_exe'
p142
g124
sS'test-config'
p143
g4
sS'list-targets'
p144
NsS'arm_rel_exe'
p145
g124
sS'arm_rel_args'
p146
g13
sS'makedeps'
p147
NsS'android_x86_rel_exe'
p148
g124
sS'default-buildenv'
p149
S'vc12'
p150
sS'x86_rel_exe'
p151
g25
sS'preprocess-java'
p152
NsS'mips_rel_args'
p153
g13
sS'defines'
p154
NsS'lib'
p155
NsS'non-interactive'
p156
NsS'global_argv'
p157
(lp158
S'C:\\Marmalade\\7.5\\s3e\\makefile_builder\\mkb.py'
p159
aS'c:/Marmalade/7.5/examples/GameTutorial/CPP/marm1/Stage4.mkb'
p160
aS'--buildenv=VC12'
p161
aS'--fake-vc-call'
p162
aS'--default-buildenv=vc12'
p163
aS'--msvc-project'
p164
asS'make'
p165
NsS'optimise-speed'
p166
NsS'internal'
p167
NsS'enable-stdinc'
p168
NsS'deploy-only'
p169
NsS'x86'
p170
NsS'deploy'
p171
g4
sS'x86_run_exe'
p172
S'c:/marmalade/7.5/s3e\\win32\\s3e_console.exe'
p173
sS'cxxflags'
p174
NsS'x86_rel_args'
p175
S'-via:"c:\\Marmalade\\7.5\\examples\\GameTutorial\\CPP\\marm1\\build_stage4_vc12\\Stage4_vc12_release.via"'
p176
sS'gcc_rel_args'
p177
g13
sS'mips'
p178
NsS'xcode-build-settings'
p179
g4
sS'incredibuild'
p180
NsS'strict-compile'
p181
NsS'use-auto-subdirs'
p182
NsS'mips_rel_exe'
p183
g124
sS'android_x86_rel_args'
p184
g13
sS'app-icf'
p185
g4
sS'deployargs'
p186
NsS'iosnativedebug'
p187
NsS'use_prebuilt'
p188
NsS'mkf_in'
p189
(lp190
S'c:\\marmalade\\7.5\\s3e\\s3e-default.mkf'
p191
aS'c:\\marmalade\\7.5\\modules\\iw2d\\iw2d.mkf'
p192
aS'c:\\marmalade\\7.5\\modules\\iwgx\\iwgx.mkf'
p193
aS'c:\\marmalade\\7.5\\modules\\iwgl\\iwgl.mkf'
p194
aS'c:\\marmalade\\7.5\\modules\\iwutil\\iwutil.mkf'
p195
aS'c:\\marmalade\\7.5\\modules\\third_party\\libjpeg\\libjpeg.mkf'
p196
aS'c:\\marmalade\\7.5\\modules\\third_party\\libpng\\libpng.mkf'
p197
aS'c:\\marmalade\\7.5\\modules\\third_party\\zlib\\zlib.mkf'
p198
aS'c:\\marmalade\\7.5\\modules\\iwgeom\\iwgeom.mkf'
p199
aS'c:\\marmalade\\7.5\\modules\\iwresmanager\\iwresmanager.mkf'
p200
aS'c:\\marmalade\\7.5\\extensions\\pvrtextool\\pvrtextool.mkf'
p201
aS'c:\\marmalade\\7.5\\modules\\iwgxfont\\iwgxfont.mkf'
p202
aS'c:\\marmalade\\7.5\\modules\\third_party\\tiniconv\\tiniconv.mkf'
p203
aS'c:\\marmalade\\7.5\\modules\\iw2dscenegraph\\iw2dscenegraph.mkf'
p204
aS'c:\\marmalade\\7.5\\modules\\iw2dscenegraphcore\\iw2dscenegraphcore.mkf'
p205
aS'c:\\marmalade\\7.5\\modules\\iwtween\\iwtween.mkf'
p206
aS'c:\\marmalade\\7.5\\examples\\gametutorial\\cpp\\modules\\soundengine\\soundengine.mkf'
p207
aS'c:\\marmalade\\7.5\\examples\\marmaladeexampleresources\\marmaladeexampleresources.mkf'
p208
asS'strict-mkb'
p209
NsS'executeargs'
p210
NsS'clean'
p211
NsS'no-asm'
p212
NsS'output-name'
p213
g4
sS'no-modules'
p214
NsS'find_define'
p215
g4
s(dp216
S'c:\\marmalade\\7.5\\s3e\\makefile_builder\\templates\\vc7_suo.pyc'
p217
F1424160376.0
sS'c:\\marmalade\\7.5\\s3e\\makefile_builder\\templates\\ws81_vcxproj.pyc'
p218
F1424160380.0
sS'c:\\marmalade\\7.5\\s3e\\makefile_builder\\plugins\\s3e_ws8.pyc'
p219
F1424160376.0
sS'c:\\marmalade\\7.5\\s3e\\makefile_builder\\templates'
p220
F1424630747.758857
sS'c:\\marmalade\\7.5\\s3e\\makefile_builder\\templates\\qmake.py'
p221
F1424159312.0
sS'c:\\marmalade\\7.5\\s3e\\makefile_builder\\templates\\vc10_user.pyc'
p222
F1424160378.0
sS'c:\\marmalade\\7.5\\s3e\\makefile_builder\\plugins'
p223
F1424631019.086376
sS'c:\\marmalade\\7.5\\s3e\\makefile_builder\\mkb_main.pyc'
p224
F1424160376.0
sS'c:\\marmalade\\7.5\\s3e\\makefile_builder\\templates\\mips_linker_script'
p225
F1424159312.0
sS'c:\\marmalade\\7.5\\s3e\\makefile_builder\\plugins\\XcodeEmitter.py'
p226
F1424159310.0
sS'c:\\marmalade\\7.5\\s3e\\makefile_builder\\mkb.py'
p227
F1424159310.0
sS'c:\\marmalade\\7.5\\s3e\\makefile_builder\\templates\\ws81_ext_sln.pyc'
p228
F1424160380.0
sS'c:\\marmalade\\7.5\\s3e\\makefile_builder\\templates\\win32_dsp.pyc'
p229
F1424160376.0
sS'c:\\marmalade\\7.5\\s3e\\makefile_builder\\templates\\ws8_csproj.pyc'
p230
F1424160380.0
sS'c:\\marmalade\\7.5\\s3e\\makefile_builder\\deployment.pyc'
p231
F1424160376.0
sS'c:\\marmalade\\7.5\\s3e\\makefile_builder\\plugins\\win32_vc6.pyc'
p232
F1424160376.0
sS'c:\\marmalade\\7.5\\s3e\\makefile_builder\\plugins\\osx_xcode.pyc'
p233
F1424160376.0
sS'c:\\marmalade\\7.5\\s3e\\makefile_builder\\plugins\\null.pyc'
p234
F1424160376.0
sS'c:\\marmalade\\7.5\\s3e\\makefile_builder\\templates\\wp81_csproj.pyc'
p235
F1424160380.0
sS'c:\\marmalade\\7.5\\s3e\\makefile_builder\\templates\\qmake_user.py'
p236
F1424159312.0
sS'c:\\marmalade\\7.5\\s3e\\makefile_builder\\templates\\vc6_opt.pyc'
p237
F1424160376.0
sS'c:\\marmalade\\7.5\\s3e\\makefile_builder\\plugins\\vc7_utils.pyc'
p238
F1424160376.0
sS'c:\\marmalade\\7.5\\s3e\\makefile_builder\\templates\\wp81_vcxproj.pyc'
p239
F1424160380.0
sS'c:\\marmalade\\7.5\\s3e\\makefile_builder\\templates\\win32_vcxproj.pyc'
p240
F1424160378.0
sS'c:\\marmalade\\7.5\\s3e\\makefile_builder\\templates\\ws8_ext_sln.pyc'
p241
F1424160380.0
sS'c:\\marmalade\\7.5\\s3e\\makefile_builder\\templates\\ws8_ext_csproj.pyc'
p242
F1424160380.0
sS'c:\\marmalade\\7.5\\s3e\\makefile_builder\\templates\\wp8_ext_csproj.pyc'
p243
F1424160378.0
sS'c:\\marmalade\\7.5\\s3e\\makefile_builder\\plugins\\s3e_wp8.pyc'
p244
F1424160376.0
sS'c:\\marmalade\\7.5\\s3e\\makefile_builder\\templates\\ws81_csproj.pyc'
p245
F1424160380.0
sS'c:\\marmalade\\7.5\\s3e\\makefile_builder\\docs\\deprecated.options.txt'
p246
F1424159310.0
sS'c:\\marmalade\\7.5\\s3e\\makefile_builder\\plugins\\s3e_make.pyc'
p247
F1424160376.0
sS'c:\\marmalade\\7.5\\s3e\\makefile_builder\\templates\\win8_ext_csproj.pyc'
p248
F1424160378.0
sS'c:\\marmalade\\7.5\\s3e\\makefile_builder\\mkb_parser.pyc'
p249
F1424160376.0
sS'c:\\marmalade\\7.5\\s3e\\makefile_builder\\plugins\\s3e_web.pyc'
p250
F1424160376.0
sS'c:\\marmalade\\7.5\\s3e\\makefile_builder\\docs\\mkb.defines.txt'
p251
F1424159310.0
sS'c:\\marmalade\\7.5\\s3e\\makefile_builder\\plugins\\osx_scons.pyc'
p252
F1424160376.0
sS'c:\\marmalade\\7.5\\s3e\\makefile_builder\\plugins\\ws81_ws81.pyc'
p253
F1424160376.0
sS'c:\\marmalade\\7.5\\s3e\\makefile_builder\\plugins\\s3e_qmake.py'
p254
F1424159312.0
sS'c:\\marmalade\\7.5\\s3e\\makefile_builder\\templates\\win8_csproj.pyc'
p255
F1424160378.0
sS'c:\\marmalade\\7.5\\s3e\\makefile_builder\\plugins\\s3e_vc6.pyc'
p256
F1424160376.0
sS'c:\\marmalade\\7.5\\s3e\\makefile_builder\\plugins\\wp81_wp81.pyc'
p257
F1424160376.0
sS'c:\\marmalade\\7.5\\s3e\\makefile_builder\\templates\\wp81_csproj_user.pyc'
p258
F1424160380.0
sS'c:\\marmalade\\7.5\\s3e\\makefile_builder\\templates\\win32_dsw.pyc'
p259
F1424160376.0
sS'c:\\marmalade\\7.5\\s3e\\makefile_builder\\templates\\xcode4.xcscheme'
p260
F1424159312.0
sS'c:\\marmalade\\7.5\\s3e\\makefile_builder\\templates\\template.opt'
p261
F1424159312.0
sS'c:\\marmalade\\7.5\\s3e\\makefile_builder\\templates\\template.suo'
p262
F1424159312.0
sS'c:\\marmalade\\7.5\\s3e\\makefile_builder\\templates\\linker_script'
p263
F1424159312.0
sS'c:\\marmalade\\7.5\\s3e\\makefile_builder\\templates\\gdb_start.txt'
p264
F1424159312.0
sS'c:\\marmalade\\7.5\\s3e\\makefile_builder\\mkb_launcher.exe'
p265
F1424159548.0
sS'c:\\marmalade\\7.5\\s3e\\makefile_builder\\templates\\scons.pyc'
p266
F1424160376.0
sS'c:\\marmalade\\7.5\\s3e\\makefile_builder\\docs\\parse_options.pyc'
p267
F1424160380.0
sS'c:\\marmalade\\7.5\\s3e\\makefile_builder\\templates\\xcode4_arm.xcscheme'
p268
F1424159312.0
sS'c:\\marmalade\\7.5\\s3e\\makefile_builder\\plugins\\VisualStudioEmitter.pyc'
p269
F1424160376.0
sS'c:\\marmalade\\7.5\\s3e\\makefile_builder\\plugins\\s3e_xcode.pyc'
p270
F1424631019.087376
sS'c:\\marmalade\\7.5\\s3e\\makefile_builder\\plugins\\Emitter.pyc'
p271
F1424160376.0
sS'c:\\marmalade\\7.5\\s3e\\makefile_builder\\templates\\ws8_sln.pyc'
p272
F1424160380.0
sS'c:\\marmalade\\7.5\\s3e\\makefile_builder\\tool_launcher.exe'
p273
F1424159548.0
sS'c:\\marmalade\\7.5\\s3e\\makefile_builder\\templates\\wp8_sln.pyc'
p274
F1424160378.0
sS'c:\\marmalade\\7.5\\s3e\\makefile_builder\\mkb_upstream.pyc'
p275
F1424160376.0
sS'c:\\marmalade\\7.5\\s3e\\makefile_builder\\templates\\ws81_csproj_user.pyc'
p276
F1424160380.0
sS'c:\\marmalade\\7.5\\s3e\\makefile_builder\\templates\\win32_sln.pyc'
p277
F1424160376.0
sS'c:\\marmalade\\7.5\\s3e\\makefile_builder\\templates\\xcode4_DeployTool.xcscheme'
p278
F1424159312.0
sS'c:\\marmalade\\7.5\\s3e\\makefile_builder\\plugins\\deploy.pyc'
p279
F1424160376.0
sS'c:\\marmalade\\7.5\\s3e\\makefile_builder\\plugins\\s3e_win8.pyc'
p280
F1424160376.0
sS'c:\\marmalade\\7.5\\s3e\\makefile_builder\\plugins\\iphone.pyc'
p281
F1424160376.0
sS'c:\\marmalade\\7.5\\s3e\\makefile_builder\\plugins\\Win8Emitter.pyc'
p282
F1424160376.0
sS'c:\\marmalade\\7.5\\s3e\\makefile_builder\\plugins\\s3e_qmake.pyc'
p283
F1424631018.9523683
sS'c:\\marmalade\\7.5\\s3e\\makefile_builder\\docs'
p284
F1424630747.7758577
sS'c:\\marmalade\\7.5\\s3e\\makefile_builder\\mkb_globals.pyc'
p285
F1424160376.0
sS'c:\\marmalade\\7.5\\s3e\\makefile_builder\\plugins\\win8_utils.pyc'
p286
F1424160376.0
sS'c:\\marmalade\\7.5\\s3e\\makefile_builder\\plugins\\xcode4_schememanagement.py'
p287
F1424159312.0
sS'c:\\marmalade\\7.5\\s3e\\makefile_builder\\templates\\wp81_ext_sln.pyc'
p288
F1424160380.0
sS'c:\\marmalade\\7.5\\s3e\\makefile_builder\\templates\\make.py'
p289
F1424159312.0
sS'c:\\marmalade\\7.5\\s3e\\makefile_builder\\templates\\ws81_ext_csproj.pyc'
p290
F1424160380.0
sS'c:\\marmalade\\7.5\\s3e\\makefile_builder\\plugins\\s3e_xcode.py'
p291
F1424159312.0
sS'c:\\marmalade\\7.5\\s3e\\makefile_builder\\plugins\\XcodeEmitter.pyc'
p292
F1424631018.8013597
sS'c:\\marmalade\\7.5\\s3e\\makefile_builder\\docs\\deployment_options.txt'
p293
F1424159310.0
sS'c:\\marmalade\\7.5\\s3e\\makefile_builder\\templates\\win8_sln.pyc'
p294
F1424160378.0
sS'c:\\marmalade\\7.5\\s3e\\makefile_builder\\plugins\\java.pyc'
p295
F1424160376.0
sS'c:\\marmalade\\7.5\\s3e\\makefile_builder\\plugins\\xcode4_schememanagement.pyc'
p296
F1424631018.80836
sS'c:\\marmalade\\7.5\\s3e\\makefile_builder\\plugins\\SConsEmitter.pyc'
p297
F1424160376.0
sS'c:\\marmalade\\7.5\\s3e\\makefile_builder\\templates\\win32_vcproj.pyc'
p298
F1424160378.0
sS'c:\\marmalade\\7.5\\s3e\\makefile_builder\\plugins\\wp8_wp8.pyc'
p299
F1424160376.0
sS'c:\\marmalade\\7.5\\s3e\\makefile_builder\\templates\\MainWindow.xib'
p300
F1424159312.0
sS'c:\\marmalade\\7.5\\s3e\\makefile_builder\\mkb_util.pyc'
p301
F1424160376.0
sS'c:\\marmalade\\7.5\\s3e\\makefile_builder\\templates\\vc8_user.pyc'
p302
F1424160378.0
sS'c:\\marmalade\\7.5\\s3e\\makefile_builder\\templates\\Info.plist'
p303
F1424159312.0
sS'c:\\marmalade\\7.5\\s3e\\makefile_builder\\templates\\wp8_csproj_user.pyc'
p304
F1424160378.0
sS'c:\\marmalade\\7.5\\s3e\\makefile_builder\\docs\\deprecated.defines.txt'
p305
F1424159310.0
sS'c:\\marmalade\\7.5\\s3e\\makefile_builder\\templates\\ws8_csproj_user.pyc'
p306
F1424160380.0
sS'c:\\marmalade\\7.5\\s3e\\makefile_builder\\plugins\\S3EEmitter.pyc'
p307
F1424160376.0
sS'c:\\marmalade\\7.5\\s3e\\makefile_builder\\templates\\rvct_linker_script'
p308
F1424159312.0
sS'c:\\marmalade\\7.5\\s3e\\makefile_builder\\templates\\xcode_pbxuser.py'
p309
F1424159312.0
sS'c:\\marmalade\\7.5\\s3e\\makefile_builder\\docs\\options.txt'
p310
F1424159310.0
sS'c:\\marmalade\\7.5\\s3e\\makefile_builder\\templates\\wp81_sln.pyc'
p311
F1424160380.0
sS'c:\\marmalade\\7.5\\s3e\\makefile_builder\\templates\\ws81_sln.pyc'
p312
F1424160380.0
sS'c:\\marmalade\\7.5\\s3e\\makefile_builder\\plugins\\vc6_utils.pyc'
p313
F1424160376.0
sS'c:\\marmalade\\7.5\\s3e\\makefile_builder\\templates\\wp81_ext_csproj.pyc'
p314
F1424160380.0
sS'c:\\marmalade\\7.5\\s3e\\makefile_builder\\plugins\\s3e_wp81.pyc'
p315
F1424160376.0
sS'c:\\marmalade\\7.5\\s3e\\makefile_builder\\templates\\aarch64_linker_script'
p316
F1424159312.0
sS'c:\\marmalade\\7.5\\s3e\\makefile_builder\\templates\\ws8_vcxproj.pyc'
p317
F1424160380.0
sS'c:\\marmalade\\7.5\\s3e\\makefile_builder\\plugins\\MakeEmitter.pyc'
p318
F1424160376.0
sS'c:\\marmalade\\7.5\\s3e\\makefile_builder\\templates\\win32_vcxproj_filters.pyc'
p319
F1424160378.0
sS'c:\\marmalade\\7.5\\s3e\\makefile_builder\\templates\\xcode.py'
p320
F1424159312.0
sS'c:\\marmalade\\7.5\\s3e\\makefile_builder\\plugins\\s3e_ws81.pyc'
p321
F1424160376.0
sS'c:\\marmalade\\7.5\\s3e\\makefile_builder\\plugins\\linux_scons.pyc'
p322
F1424160376.0
sS'c:\\marmalade\\7.5\\s3e\\makefile_builder\\templates\\win8_vcxproj.pyc'
p323
F1424160378.0
sS'c:\\marmalade\\7.5\\s3e\\makefile_builder\\plugins\\s3e_scons.pyc'
p324
F1424160376.0
sS'c:\\marmalade\\7.5\\s3e\\makefile_builder\\templates\\wp8_csproj.pyc'
p325
F1424160378.0
sS'c:\\marmalade\\7.5\\s3e\\makefile_builder\\templates\\win8_csproj_user.pyc'
p326
F1424160378.0
sS'c:\\marmalade\\7.5\\s3e\\makefile_builder\\plugins\\ws8_ws8.pyc'
p327
F1424160376.0
sS'c:\\marmalade\\7.5\\s3e\\makefile_builder\\templates\\wp8_vcxproj.pyc'
p328
F1424160378.0
sS'c:\\marmalade\\7.5\\s3e\\makefile_builder\\mkb_option.pyc'
p329
F1424160376.0
sccopy_reg
_reconstructor
p330
(cmkb_main
MkbFile
p331
c__builtin__
object
p332
Ntp333
Rp334
(dp335
g5
(lp336
sS'target_name'
p337
S'Stage4'
p338
sS'current_file'
p339
g135
sS'package_path'
p340
(lp341
sS'post_build'
p342
(lp343
(lp344
S'c:/marmalade/7.5/s3e/tools'
p345
aS'C:\\Marmalade\\7.5\\s3e\\python\\python.exe .\\process_map.py "$(TargetPath)"'
p346
aa(S'c:\\marmalade\\7.5\\s3e\\bin'
p347
S'"s3e_plink" -l "$(TargetPath)" '
p348
g170
tp349
asS'librarys'
p350
(lp351
g330
(cmkb_main
Library
p352
g332
Ntp353
Rp354
(dp355
S'name'
p356
S'vc6_compat.lib'
p357
sS'expand_name'
p358
I00
sS'include_spec_rvct_objs'
p359
(lp360
sS'include_all_objs'
p361
I00
sS'share_arm'
p362
I00
sS'arch'
p363
S'x86'
p364
sS'nodebug'
p365
I00
sg38
Nsbag330
(g352
g332
Ntp366
Rp367
(dp368
g356
S'iw2d'
p369
sg358
I01
sg359
(lp370
sg361
Nsg362
Nsg363
Nsg365
I00
sg38
Nsbag330
(g352
g332
Ntp371
Rp372
(dp373
g356
S'ATI_Compress_MT_VC7.lib'
p374
sg358
I00
sg359
g370
sg361
Nsg362
Nsg363
S'x86'
p375
sg365
I00
sg38
Nsbag330
(g352
g332
Ntp376
Rp377
(dp378
g356
S'iwgx'
p379
sg358
I01
sg359
g370
sg361
Nsg362
Nsg363
Nsg365
I00
sg38
Nsbag330
(g352
g332
Ntp380
Rp381
(dp382
g356
S'iwgl'
p383
sg358
I01
sg359
g370
sg361
Nsg362
Nsg363
Nsg365
I00
sg38
Nsbag330
(g352
g332
Ntp384
Rp385
(dp386
g356
S'iwutil'
p387
sg358
I01
sg359
g370
sg361
Nsg362
Nsg363
Nsg365
I00
sg38
Nsbag330
(g352
g332
Ntp388
Rp389
(dp390
g356
S'jpeg'
p391
sg358
I01
sg359
g370
sg361
Nsg362
Nsg363
Nsg365
I00
sg38
Nsbag330
(g352
g332
Ntp392
Rp393
(dp394
g356
S'z'
p395
sg358
I01
sg359
g370
sg361
Nsg362
Nsg363
Nsg365
I00
sg38
Nsbag330
(g352
g332
Ntp396
Rp397
(dp398
g356
S'png'
p399
sg358
I01
sg359
g370
sg361
Nsg362
Nsg363
Nsg365
I00
sg38
Nsbag330
(g352
g332
Ntp400
Rp401
(dp402
g356
S'iwgeom'
p403
sg358
I01
sg359
g370
sg361
Nsg362
Nsg363
Nsg365
I00
sg38
Nsbag330
(g352
g332
Ntp404
Rp405
(dp406
g356
S'iwresmanager'
p407
sg358
I01
sg359
g370
sg361
Nsg362
Nsg363
Nsg365
I00
sg38
Nsbag330
(g352
g332
Ntp408
Rp409
(dp410
g356
S'iwgxfont'
p411
sg358
I01
sg359
g370
sg361
Nsg362
Nsg363
Nsg365
I00
sg38
Nsbag330
(g352
g332
Ntp412
Rp413
(dp414
g356
S'tiniconv'
p415
sg358
I01
sg359
g370
sg361
Nsg362
Nsg363
Nsg365
I00
sg38
Nsbag330
(g352
g332
Ntp416
Rp417
(dp418
g356
S's3e_cpp'
p419
sg358
I01
sg359
g360
sg361
I00
sg362
I00
sg363
Nsg365
I00
sg38
Nsbag330
(g352
g332
Ntp420
Rp421
(dp422
g356
S's3e'
p423
sg358
I01
sg359
(lp424
S'iwcrt.o'
p425
asg361
I00
sg362
I00
sg363
Nsg365
I00
sg38
Nsbag330
(g352
g332
Ntp426
Rp427
(dp428
g356
g55
sg358
I01
sg359
g360
sg361
I00
sg362
I00
sg363
S'x86'
p429
sg365
I01
sg38
Nsbag330
(g352
g332
Ntp430
Rp431
(dp432
g356
g55
sg358
I01
sg359
g360
sg361
I00
sg362
I00
sg363
S'!x86'
p433
sg365
I01
sg38
Nsbag330
(g352
g332
Ntp434
Rp435
(dp436
g356
S'stdc++'
p437
sg358
I00
sg359
g360
sg361
I00
sg362
I00
sg363
S'mips'
p438
sg365
I00
sg38
Nsbag330
(g352
g332
Ntp439
Rp440
(dp441
g356
S'c'
p442
sg358
I00
sg359
g360
sg361
I00
sg362
I00
sg363
S'mips'
p443
sg365
I00
sg38
Nsbag330
(g352
g332
Ntp444
Rp445
(dp446
g356
S'm'
p447
sg358
I00
sg359
g360
sg361
I00
sg362
I00
sg363
S'mips'
p448
sg365
I00
sg38
Nsbag330
(g352
g332
Ntp449
Rp450
(dp451
g356
S'gcc'
p452
sg358
I00
sg359
g360
sg361
I00
sg362
I00
sg363
S'mips'
p453
sg365
I00
sg38
Nsbag330
(g352
g332
Ntp454
Rp455
(dp456
g356
S'stdc++'
p457
sg358
I00
sg359
g360
sg361
I00
sg362
I00
sg363
S'gcc_x86_android'
p458
sg365
I00
sg38
Nsbag330
(g352
g332
Ntp459
Rp460
(dp461
g356
g442
sg358
I00
sg359
g360
sg361
I00
sg362
I00
sg363
S'gcc_x86_android'
p462
sg365
I00
sg38
Nsbag330
(g352
g332
Ntp463
Rp464
(dp465
g356
g447
sg358
I00
sg359
g360
sg361
I00
sg362
I00
sg363
S'gcc_x86_android'
p466
sg365
I00
sg38
Nsbag330
(g352
g332
Ntp467
Rp468
(dp469
g356
g452
sg358
I00
sg359
g360
sg361
I00
sg362
I00
sg363
S'gcc_x86_android'
p470
sg365
I00
sg38
NsbasS'library_paths'
p471
(lp472
g330
(cmkb_main
LibraryPath
p473
g332
Ntp474
Rp475
(dp476
S'expand_path'
p477
I01
sg356
S'c:/marmalade/7.5/modules/iw2d'
p478
sbag330
(g473
g332
Ntp479
Rp480
(dp481
g477
I00
sg356
S'c:/marmalade/7.5/modules/iwgx/atitools'
p482
sbag330
(g473
g332
Ntp483
Rp484
(dp485
g477
I01
sg356
S'c:/marmalade/7.5/modules/iwgx'
p486
sbag330
(g473
g332
Ntp487
Rp488
(dp489
g477
I01
sg356
S'c:/marmalade/7.5/modules/iwgl'
p490
sbag330
(g473
g332
Ntp491
Rp492
(dp493
g477
I01
sg356
S'c:/marmalade/7.5/modules/iwutil'
p494
sbag330
(g473
g332
Ntp495
Rp496
(dp497
g477
I01
sg356
S'c:/marmalade/7.5/modules/third_party/libjpeg'
p498
sbag330
(g473
g332
Ntp499
Rp500
(dp501
g477
I01
sg356
S'c:/marmalade/7.5/modules/third_party/zlib'
p502
sbag330
(g473
g332
Ntp503
Rp504
(dp505
g477
I01
sg356
S'c:/marmalade/7.5/modules/third_party/libpng'
p506
sbag330
(g473
g332
Ntp507
Rp508
(dp509
g477
I01
sg356
S'c:/marmalade/7.5/modules/iwgeom'
p510
sbag330
(g473
g332
Ntp511
Rp512
(dp513
g477
I01
sg356
S'c:/marmalade/7.5/modules/iwresmanager'
p514
sbag330
(g473
g332
Ntp515
Rp516
(dp517
g477
I01
sg356
S'c:/marmalade/7.5/modules/iwgxfont'
p518
sbag330
(g473
g332
Ntp519
Rp520
(dp521
g477
I01
sg356
S'c:/marmalade/7.5/modules/third_party/tiniconv'
p522
sbag330
(g473
g332
Ntp523
Rp524
(dp525
g477
I01
sg356
S'c:/marmalade/7.5/s3e'
p526
sbasS'macros'
p527
(dp528
S'IW_USE_CALLSTACK'
p529
NsS'IW_MKF_IWGEOM'
p530
NsS'I3D_PLATFORM_S3E'
p531
NsS'IW_TRACE_CHANNEL_PVRTEXTOOL_VERBOSE'
p532
S'2'
p533
sS'IW_MKF_LIBJPEG'
p534
NsS'I3D_OS_S3E'
p535
NsS'IW_MKF_PVRTEXTOOL'
p536
NsS'IW_MKF_TINICONV'
p537
NsS'IW_APP_VERSION'
p538
S'"1.0"'
p539
sS'__S3E__'
p540
NsS'IW_MKF_IWRESMANAGER'
p541
NsS'IW_MKF_IWUTIL'
p542
NsS'IW_PLATFORM_S3E'
p543
NsS'IW_ASSERTION_CHANNEL_2D'
p544
S'1'
p545
sS'IW_APP_NAME'
p546
S'"Stage4"'
p547
sS'IW_MKF_MARMALADEEXAMPLERESOURCES'
p548
NsS'IW_MKF_IWGXFONT'
p549
NsS'IW_MKF_IWTWEEN'
p550
NsS'IW_MKF_ZLIB'
p551
NsS'IW_MKF_S3E_DEFAULT'
p552
NsS'IW_MKF_IWGX'
p553
NsS'IW_MKF_IW2DSCENEGRAPH'
p554
NsS'IW_MKF_SOUNDENGINE'
p555
NsS'IW_USE_ASSERTIONS'
p556
NsS'_CRT_SECURE_NO_DEPRECATE'
p557
NsS'IW_MKF_IWGL'
p558
NsS'IW_MKF_LIBPNG'
p559
NsS'IW_TRACE_CHANNEL_IW_2DSCENEGRAPH'
p560
g545
sS'IW_DEBUG'
p561
NsS'IW_USE_TRACING'
p562
NsS'IW_ASSERTION_CHANNEL_IW_2DSCENEGRAPH'
p563
g545
sS'IW_TRACE_CHANNEL_PVRTEXTOOL'
p564
g545
sS'IW_SDK'
p565
NsS'S3E_INCLUDE_LEGACY'
p566
NsS'IW_MKF_IW2DSCENEGRAPHCORE'
p567
NsS'IW_MKF_IW2D'
p568
NsS'IW_ASSERTION_CHANNEL_PVRTEXTOOL'
p569
g545
ssS'done_warnings'
p570
(dp571
sS'subprojects'
p572
(dp573
g193
S'iwgx'
p574
sg202
S'iwgxfont'
p575
sg191
S's3e-default.mkf'
p576
sg205
S'../iw2dscenegraphcore'
p577
sg198
S'zlib'
p578
sg200
S'iwresmanager'
p579
sg203
S'tiniconv'
p580
sg196
S'libjpeg'
p581
sg192
S'iw2d'
p582
sg208
S'../../../MarmaladeExampleResources'
p583
sg195
S'iwutil'
p584
sg206
S'iwtween'
p585
sg197
S'libpng'
p586
sg204
S'iw2dscenegraph'
p587
sg207
S'SoundEngine'
p588
sg194
S'iwgl'
p589
sg199
S'iwgeom'
p590
sg201
S'PVRTexTool'
p591
ssS'deployments'
p592
(dp593
S'Default'
p594
g330
(cdeployment
Deployment
p595
g332
Ntp596
Rp597
(dp598
S'got_version'
p599
I0
sS'assets'
p600
g594
sS'mkb'
p601
g334
sS'target'
p602
Nsg363
(lp603
sS'options'
p604
(dp605
S'iphone-link-lib'
p606
(lp607
sS'game-icf'
p608
NsS'android-tm'
p609
NsS'winmobile-icon32'
p610
NsS'ws8-logo-image150x150'
p611
NsS'wp81-logo-image150x150'
p612
NsS'android-keystore'
p613
NsS'osx-ext-dll'
p614
(lp615
S'c:/marmalade/7.5/extensions/pvrtextool/lib/osx/libPVRTexTool.dylib'
p616
asS'iphone-provisioning-profile'
p617
NsS'ws8-splash-screen-image620x300'
p618
NsS'wp81-extra-pri'
p619
(lp620
sS'ws8-ext-capabilities'
p621
(lp622
sS'android-icon-hdpi'
p623
NsS'iphone-ipad-only'
p624
NsS'iphone-splash-full-orient'
p625
NsS'wp8-tile-fliptemplate-supports-large'
p626
NsS'iphone-show-status-bar'
p627
NsS'roku-requires-mkv'
p628
NsS'long-caption'
p629
NsS'android-pkgname'
p630
NsS'wp81-publisher-display-name'
p631
NsS'blackberry-permissions-read-device-identifying-information'
p632
NsS'ws81-certificate-end-date'
p633
NsS'psp-dlgcontentid'
p634
NsS'iphone-minimum-ios-version'
p635
NsS'target-folder'
p636
NsS'tizen-dist1-CA-path'
p637
NsS'symbian-icon2-format'
p638
NsS'tizen-author-key'
p639
NsS'firefoxos-icon-128X128'
p640
NsS'iphone-region'
p641
NsS'uiq3-icon3-mask'
p642
NsS'brew-encoding'
p643
NsS'android-x86'
p644
NsS'nds-initialcode'
p645
NsS'iphone-persistent-wifi'
p646
NsS'psp-snd0'
p647
NsS'roku-icon-focus-hd'
p648
NsS'osx-appid'
p649
NsS'winmobile-install-folder'
p650
NsS'android-external-res'
p651
(lp652
sS'ws8-product-version'
p653
NsS'brew-priviledges'
p654
NsS'iphone-info-plist-override'
p655
NsS'iphone-icon-ipad'
p656
NsS'iphone-skip-icon-generation'
p657
NsS'roku-hidden'
p658
NsS'psp-titlename'
p659
NsS'wp81-product-version'
p660
NsS'symbian-icon1-mask'
p661
NsS'psp-parentallevel'
p662
NsS'iphone-launch-storyboard'
p663
NsS'splashscreen-use-all'
p664
NsS'wp8-author'
p665
NsS'symbian-disable-ecompxl'
p666
NsS'splashscreen-auto-onblack'
p667
NsS'iphone-icon-dir'
p668
NsS'iphone-icon-extra'
p669
NsS'win32-ext-dll'
p670
(lp671
S'c:/marmalade/7.5/extensions/pvrtextool/lib/win32/PVRTexTool.dll'
p672
asS'iphone-development-key'
p673
NsS'winmobile-icon48'
p674
NsS'android-unsigned'
p675
NsS'osx-appstore-category'
p676
NsS'version-revision'
p677
NsS'roku-icon-focus-sd'
p678
NsS'ws81-product-version'
p679
NsS'winmobile-png90'
p680
NsS'iphone-icon-ipad-high-res'
p681
NsS'iphone-disable-ipad'
p682
NsS'ws81-splash-screen-background'
p683
NsS'wp8-ext-capabilities'
p684
(lp685
sS'brew-icon-large'
p686
NsS'symbian-icon1-mask-black'
p687
NsS'ws8-extra-res'
p688
(lp689
sS'iphone-bundle-localisations'
p690
NsS'winmobile-png60'
p691
NsS'blackberry-permissions-access-shared'
p692
NsS'blackberry-author'
p693
NsS'android-icon-xxxhdpi'
p694
NsS'olddeploytoolstyle'
p695
NsS'android_icon_gallery'
p696
NsS'wp81-splash-screen-background'
p697
NsS'winmobile-cab-compress'
p698
NsS'iphone-info-plist'
p699
NsS'ws81-ext-managed-dll'
p700
(lp701
sS'playbook-cskpass'
p702
NsS'win32-icon'
p703
NsS'symbian-key'
p704
NsS'app-icf'
p705
NsS'blackberry-storepass'
p706
NsS'wp8-tile-fliptemplate-back-title'
p707
NsS'brew-compress-loader'
p708
NsS'iphone-testflight'
p709
NsS'win32-pref-windowposy'
p710
NsS'win32-pref-windowposx'
p711
NsS'roku-requires-audiometadata'
p712
NsS'wp8-exclude-low-mem'
p713
NsS'iphone-icon-ipad-search-high-res'
p714
NsS'iphone-link-libdir'
p715
(lp716
sS'wp81-ext-capabilities'
p717
(lp718
sS'blackberry-permissions-read-geolocation'
p719
NsS'ws81-ext-device-capabilities'
p720
(lp721
sS'tizen-signed'
p722
NsS'android-extra-application-manifest'
p723
(lp724
sS'ws8-ext-native-dll'
p725
(lp726
sS'symbian-icon2-mask'
p727
NsS'iphone-launch-extra'
p728
NsS'webos-memory'
p729
NsS'android-keypass'
p730
NsS'name'
p731
NsS'uiq3-icon2-format'
p732
NsS'roku-splash-screen-sd'
p733
NsS'auto-derbh'
p734
NsS'roku-icon-side-sd'
p735
NsS'android-external-assets'
p736
(lp737
sS'nds-publicsavedatasize'
p738
NsS'splashscreen'
p739
S'c:/marmalade/7.5/examples/marmaladeexampleresources/resources/splashscreens'
p740
sS'brew-mif'
p741
NsS'iphone-icon-settings-high-res'
p742
NsS'android-manifest'
p743
NsS'ws81-splash-screen-image620x300'
p744
NsS'wp81-product-name'
p745
NsS's3e-compression'
p746
NsS'tizen-author-password'
p747
NsS'wp8-tile-fliptemplate-back-content'
p748
NsS'blackberry-extra-descriptor'
p749
(lp750
sS'symbian-icon1'
p751
NsS'symbian-icon2'
p752
NsS'nds-makercode'
p753
NsS'android-extra-styles-file'
p754
NsS'wp81-publisher-id'
p755
NsS'nds-bannertitle-jp'
p756
NsS'wp81-logo-image44x44'
p757
NsS'osx-sign-for-store'
p758
NsS'symbian7-uid'
p759
NsS'wp8-tile-fliptemplate-large-back-content'
p760
NsS'wp81-phone-publisher-id'
p761
NsS'nds-bannertitle-cn'
p762
NsS'iphone-distribution-key'
p763
NsS'android-icon-gallery'
p764
NsS'blackberry-keystore'
p765
NsS'iphone-nosign'
p766
NsS'caption'
p767
NsS'android-extra-manifest'
p768
(lp769
sS'wp81-ext-sdk-ref'
p770
(lp771
sS'android-icon-xxhdpi'
p772
NsS'version-minor'
p773
NsS'iphone-skip-launch-generation'
p774
NsS'iphone-link-libdirs'
p775
(lp776
sS'iphone-icon-large'
p777
NsS'symbian-keypwd'
p778
NsS'symbian8-uid'
p779
NsS'symbian-cert-key'
p780
NsS'winmobile-ampd-part-number'
p781
NsS'arch'
p782
NsS'nds-romheadertemplate'
p783
NsS'webos-icon'
p784
NsS'wp81-ext-device-capabilities'
p785
(lp786
sS'psp-dlgprotectdocument'
p787
NsS'ws8-splash-screen-background'
p788
NsS'android-icon-mdpi'
p789
NsS'nds-icon'
p790
NsS'ws8-custom-manifest-fill'
p791
NsS'iphone-development-cert'
p792
NsS'and'
p793
NsS'symbian-icon2-mask-black'
p794
NsS'blackberry-phone-icon'
p795
NsS'iphone-enable-4inch-retina'
p796
NsS'ws8-custom-manifest'
p797
NsS'version-major'
p798
NsS'wp8-genre-isgame'
p799
NsS'uiq3-uid'
p800
NsS'iphone-splash-retina-generate'
p801
NsS'tizen-hw-acceleration'
p802
NsS'iphone_bundle_localisations'
p803
NsS'tizen-dist1-key'
p804
NsS'wp81-custom-manifest-fill'
p805
NsS'wp8-custom-manifest'
p806
NsS'nds-bannertitle-ge'
p807
NsS'iphone-sign-for-distribution'
p808
NsS'wp8-tile-fliptemplate-medium-back-image'
p809
NsS'wp8-publisher-id'
p810
NsS'icon'
p811
S'c:/marmalade/7.5/examples/marmaladeexampleresources/resources/icons'
p812
sS'wp8-exclude-wxga'
p813
NsS'wp81-identity-name'
p814
NsS'uiq3-icon2-mask'
p815
NsS'iphone-splashscreen-portrait'
p816
NsS'iphone-icon-high-res'
p817
NsS'ws81-distribution-pfx-password'
p818
NsS'playbook-author'
p819
NsS'android-icon-xhdpi'
p820
NsS'linux-ext-lib'
p821
(lp822
sS'blackberry-permissions-access-internet'
p823
NsS'wp8-exclude-720p'
p824
NsS'lgtv-use-drm'
p825
NsS'symbian-platsecflags'
p826
NsS'ws8-description'
p827
NsS'blackberry-playbook-icon'
p828
NsS'copyright'
p829
NsS'ws8-distribution-pfx-password'
p830
NsS'win32-gles-directory'
p831
NsS'version'
p832
NsS'iphone-uiviewcontroller-based-status-bar'
p833
NsS'ws81-logo-image150x150'
p834
NsS'osx-signing-identity-app'
p835
NsS'tizen-project-url'
p836
NsS'symbian-icon-svg'
p837
NsS'android-aliasname'
p838
NsS'psp-dlgmanual'
p839
NsS'brew-uid'
p840
NsS'symbian-locationsupport'
p841
NsS'wp81-logo-image50x50'
p842
NsS'ws8-ext-managed-dll'
p843
(lp844
sS'nds-bannertitle-it'
p845
NsS'ws81-custom-manifest-fill'
p846
NsS'ws8-ext-sdk-manifest-part'
p847
(lp848
sS'uiq3-icon1-mask'
p849
NsS'winmobile-icon16'
p850
NsS'ws8-product-name'
p851
NsS'blackberry-cskpass'
p852
NsS'winmobile-start-menu-folder'
p853
NsS'brew-clsid'
p854
NsS'roku-requires-bluetooth'
p855
NsS'iphone-default-development-profile'
p856
NsS'ws8-ext-device-capabilities'
p857
(lp858
sS'blackberry-permissions-use-camera'
p859
NsS'ws81-extra-pri'
p860
(lp861
sS'iphone-prerendered-icon'
p862
NsS'iphone-appid'
p863
NsS'ws8-identity-name'
p864
NsS'tizen-dist2-CA-path'
p865
NsS'android-external-jars'
p866
(lp867
sS'winmobile-icon64'
p868
NsS'blackberry-permissions-post-notification'
p869
NsS'winmobile-setup-dll'
p870
NsS'firefoxos-manifest'
p871
NsS'win8-winrt-extra-res'
p872
(lp873
sS'wp81-ext-sdk-manifest-part'
p874
(lp875
sS'symbian9-uid'
p876
NsS'iphone-icon-ipad-ios7'
p877
NsS'winmobile-trace-file'
p878
NsS'roku-splash-color'
p879
NsS'psp-appversion'
p880
NsS'ws8-publisher-id'
p881
NsS'android-supports-gl-texture'
p882
(lp883
sS'winmobile-png45'
p884
NsS'wp81-extra-res'
p885
(lp886
sS'android-storepass'
p887
NsS'osx-signing-identity-inst'
p888
NsS'android-custom-activity'
p889
NsS'psp-discversion'
p890
NsS'wp81-ext-managed-dll'
p891
(lp892
sS'psp-copyright'
p893
NsS'embed-icf'
p894
NsS'tizen-manifest'
p895
NsS'osx-icon'
p896
NsS'webos-appinfo'
p897
NsS'psp-dlghealthwarning'
p898
NsS'webos-appid'
p899
NsS'roku-icon-side-hd'
p900
NsS'iphone-icon-ipad-search-high-res-ios7'
p901
NsS'iphone-extra-plist'
p902
(lp903
sS'ws81-ext-sdk-manifest-part'
p904
(lp905
sS'loader_name_prefix'
p906
NsS'iphone-launch-dir'
p907
NsS'nds-titlename'
p908
NsS'ws81-logo-image50x50'
p909
NsS'wp81-custom-manifest'
p910
NsS'osx-entitlements-plist'
p911
NsS'psp-dlgicon0'
p912
NsS'winmobile-nouninstall'
p913
NsS'psp-discid'
p914
NsS'tizen-dist2-password'
p915
NsS'ws8-ext-sdk-ref'
p916
(lp917
sS'iphone-extra-string'
p918
(lp919
sS'version-string'
p920
NsS'iphone-icon-high-res-ios7'
p921
NsS'blackberry-permissions-record-audio'
p922
NsS'ws8-certificate-end-date'
p923
NsS'tizen-so'
p924
(lp925
sS'wp8-tile-fliptemplate-small-image'
p926
NsS'playbook-authorid'
p927
NsS'iphone-signing-identity'
p928
NsS'roku-persist-quota'
p929
NsS'nds-bannertitle-fr'
p930
NsS'ws8-distribution-pfx'
p931
NsS'ws8-publisher-display-name'
p932
NsS'brew-icon-small'
p933
NsS'psp-dlgpic2'
p934
NsS'psp-dlgpic0'
p935
NsS'psp-pic0'
p936
NsS'psp-pic1'
p937
NsS'win32-pref-windowtitle'
p938
NsS'psp-icon0'
p939
NsS'psp-icon1'
p940
NsS'ws81-identity-name'
p941
NsS'winmobile-icon'
p942
NsS'iphone-no-splash'
p943
NsS'iphone-splash'
p944
NsS'iphone-app-fonts'
p945
NsS'wp8-ext-native-dll'
p946
(lp947
sS'wp81-splash-screen-image480x800'
p948
NsS'ws81-distribution-cer'
p949
NsS'iphone-backgroundmode-audio'
p950
NsS'uiq3-icon2'
p951
NsS'uiq3-icon3'
p952
NsS'uiq3-icon1'
p953
NsS'uiq3-icon1-format'
p954
NsS'ws8-logo-image50x50'
p955
NsS'iphone-icon-ipad-search'
p956
NsS'symbian-run-on-install'
p957
NsS'wp81-description'
p958
NsS'ws81-publisher-display-name'
p959
NsS'firefoxos-xulrunner'
p960
NsS'symbian-soundrecordsupport'
p961
NsS'nds-bannertitle-sp'
p962
NsS'psp-producer'
p963
NsS'iphone-apple-wwdr-cert'
p964
NsS'android-icon-nonstandard'
p965
NsS'win32-pref-processtitle'
p966
NsS'nds-bannertitle-hn'
p967
NsS'tizen-dist2-key'
p968
NsS'brew-depends'
p969
NsS'ws81-custom-manifest'
p970
NsS'iphone-allow-launch-rotation'
p971
NsS'iphone-icon-ipad-search-ios7'
p972
NsS'brew-icon-medium'
p973
NsS'iphone-bundle-url-name'
p974
NsS'wp8-tile-fliptemplate-large-front-image'
p975
NsS'tizen-dist2-CA-root-path'
p976
NsS'ws81-description'
p977
NsS'uiq3-icon3-format'
p978
NsS'ws81-logo-image30x30'
p979
NsS'win8-phone-extra-res'
p980
(lp981
sS'iphone-signing-host'
p982
NsS'tizen-icon'
p983
NsS'osx-info-plist'
p984
NsS'symbian-icon1-format'
p985
NsS'ws81-distribution-pfx'
p986
NsS'blackberry-authorid'
p987
NsS'ws81-publisher-id'
p988
NsS'win8-store-extra-res'
p989
(lp990
sS'wp8-description'
p991
NsS'iphone-link-opts'
p992
(lp993
sS'ws81-ext-sdk-ref'
p994
(lp995
sS'roku-splash-min-time'
p996
NsS'wp8-tile-fliptemplate-medium-front-image'
p997
NsS'iphone-disable-launch-images'
p998
NsS'provider'
p999
NsS'playbook-keystore'
p1000
NsS'tizen-appid'
p1001
NsS'wp8-extra-res'
p1002
(lp1003
sS'symbian-osexecsupport'
p1004
NsS'android-install-location'
p1005
NsS'nds-privatesavedatasize'
p1006
NsS'iphone-disable-testflight'
p1007
NsS'playbook-storepass'
p1008
NsS'android-icon-ldpi'
p1009
NsS'manufacturer'
p1010
NsS'itunes-artwork'
p1011
NsS'iphone-extra-sections'
p1012
NsS'ws81-product-name'
p1013
NsS'ws81-ext-native-dll'
p1014
(lp1015
sS'ws8-extra-pri'
p1016
(lp1017
sS'wp8-product-id'
p1018
NsS'ws8-logo-image30x30'
p1019
NsS'wp8-ext-managed-dll'
p1020
(lp1021
sS'iphone-splashscreen-landscape'
p1022
NsS'symbian-maxheapsize'
p1023
NsS'android-extra-packages'
p1024
(lp1025
sS'priv-sign-key'
p1026
NsS'networking'
p1027
NsS'android-icon'
p1028
NsS'iphone-icon-settings'
p1029
NsS'wp81-phone-product-id'
p1030
NsS'firefoxos-icon-60X60'
p1031
NsS'iphone-distribution-cert'
p1032
NsS'android_extra_strings'
p1033
NsS'nds-bannertitle-en'
p1034
NsS'wp8-tile-fliptemplate-title'
p1035
NsS'android-so'
p1036
(lp1037
sS'wp8-higher-mem'
p1038
NsS'wp8-ext-sdk-ref'
p1039
(lp1040
sS'wp8-fast-resume-mode'
p1041
NsS'roku-splash-screen-hd'
p1042
NsS'iphone-bundle-url-schemes'
p1043
NsS'roku-screensaver-private'
p1044
NsS'osx-extra-res'
p1045
(lp1046
sS'ws81-extra-res'
p1047
(lp1048
sS'playbook-icon'
p1049
NsS'uid'
p1050
NsS'pkguid-as-uid'
p1051
NsS'wp81-ext-native-dll'
p1052
(lp1053
sS'tizen-dist1-password'
p1054
NsS'roku-screensaver-title'
p1055
NsS'osx-minimum-osx-version'
p1056
NsS'symbian-cert'
p1057
NsS'iphone-icon'
p1058
NsS'ws81-ext-capabilities'
p1059
(lp1060
sS'ws8-distribution-cer'
p1061
NsS'playbook-access-shared'
p1062
NsS'iphone-icon-ipad-high-res-ios7'
p1063
NsS'iphone-link-libs'
p1064
(lp1065
sS'wp8-exclude-wvga'
p1066
NsS'assets'
p1067
NsS'wp8-tile-fliptemplate-large-back-image'
p1068
NsS'wp8-custom-manifest-fill'
p1069
NsS'pub-sign-key'
p1070
NsS'android-extra-strings'
p1071
NsS'tizen-author-CA-path'
p1072
Nssg356
g594
sbssS'platform'
p1073
S'S3E'
p1074
sg70
S'1.0'
p1075
sS'arcade_platform'
p1076
g4
sS'extensions'
p1077
(dp1078
sS'source_groups_tree'
p1079
(dp1080
S'(libpng)'
p1081
(dp1082
S'h'
p1083
(dp1084
S'c:/marmalade/7.5/modules/third_party/libpng/h/png.h'
p1085
(lp1086
I1
a(dp1087
asS'c:/marmalade/7.5/modules/third_party/libpng/h/pngconf.h'
p1088
(lp1089
I1
ag1087
assS'c:/marmalade/7.5/modules/third_party/libpng/libpng.mkf'
p1090
(lp1091
I1
a(dp1092
assS'(libjpeg)'
p1093
(dp1094
S'c:/marmalade/7.5/modules/third_party/libjpeg/libjpeg.mkf'
p1095
(lp1096
I1
a(dp1097
asg1083
(dp1098
S'c:/marmalade/7.5/modules/third_party/libjpeg/h/jerror.h'
p1099
(lp1100
I1
a(dp1101
asS'c:/marmalade/7.5/modules/third_party/libjpeg/h/jdhuff.h'
p1102
(lp1103
I1
ag1101
asS'c:/marmalade/7.5/modules/third_party/libjpeg/h/cderror.h'
p1104
(lp1105
I1
ag1101
asS'c:/marmalade/7.5/modules/third_party/libjpeg/h/transupp.h'
p1106
(lp1107
I1
ag1101
asS'c:/marmalade/7.5/modules/third_party/libjpeg/h/jinclude.h'
p1108
(lp1109
I1
ag1101
asS'c:/marmalade/7.5/modules/third_party/libjpeg/h/jmorecfg.h'
p1110
(lp1111
I1
ag1101
asS'c:/marmalade/7.5/modules/third_party/libjpeg/h/jdct.h'
p1112
(lp1113
I1
ag1101
asS'c:/marmalade/7.5/modules/third_party/libjpeg/h/jmemsys.h'
p1114
(lp1115
I1
ag1101
asS'c:/marmalade/7.5/modules/third_party/libjpeg/h/jpegint.h'
p1116
(lp1117
I1
ag1101
asS'c:/marmalade/7.5/modules/third_party/libjpeg/h/jchuff.h'
p1118
(lp1119
I1
ag1101
asS'c:/marmalade/7.5/modules/third_party/libjpeg/h/cdjpeg.h'
p1120
(lp1121
I1
ag1101
asS'c:/marmalade/7.5/modules/third_party/libjpeg/h/jversion.h'
p1122
(lp1123
I1
ag1101
asS'c:/marmalade/7.5/modules/third_party/libjpeg/h/jconfig.h'
p1124
(lp1125
I1
ag1101
asS'c:/marmalade/7.5/modules/third_party/libjpeg/h/jpeglib.h'
p1126
(lp1127
I1
ag1101
asssS'(tiniconv)'
p1128
(dp1129
S'c:/marmalade/7.5/modules/third_party/tiniconv/tiniconv.mkf'
p1130
(lp1131
I1
a(dp1132
asS'c:/marmalade/7.5/modules/third_party/tiniconv/source/tiniconv_int.h'
p1133
(lp1134
I1
a(dp1135
asS'c:/marmalade/7.5/modules/third_party/tiniconv/source/tiniconv.h'
p1136
(lp1137
I1
ag1135
assS'(SoundEngine)'
p1138
(dp1139
S'c:/marmalade/7.5/examples/gametutorial/cpp/modules/soundengine/source/IwSoundGroup.cpp'
p1140
(lp1141
I1
a(dp1142
asS'c:/marmalade/7.5/examples/gametutorial/cpp/modules/soundengine/h/IwSoundADPCM.h'
p1143
(lp1144
I1
ag1142
asS'c:/marmalade/7.5/examples/gametutorial/cpp/modules/soundengine/source/IwResHandlerWAV.cpp'
p1145
(lp1146
I1
ag1142
asS'c:/marmalade/7.5/examples/gametutorial/cpp/modules/soundengine/h/IwResHandlerWAV.h'
p1147
(lp1148
I1
ag1142
asS'Docs'
p1149
(dp1150
S'c:/marmalade/7.5/examples/gametutorial/cpp/modules/soundengine/docs/iwsound.config.txt'
p1151
(lp1152
I1
ag1142
assS'c:/marmalade/7.5/examples/gametutorial/cpp/modules/soundengine/h/IwSoundInst.h'
p1153
(lp1154
I1
ag1142
asS'c:/marmalade/7.5/examples/gametutorial/cpp/modules/soundengine/source/IwSoundManager.cpp'
p1155
(lp1156
I1
ag1142
asS'c:/marmalade/7.5/examples/gametutorial/cpp/modules/soundengine/h/IwSoundSpec.h'
p1157
(lp1158
I1
ag1142
asS'c:/marmalade/7.5/examples/gametutorial/cpp/modules/soundengine/source/IwSoundParams.cpp'
p1159
(lp1160
I1
ag1142
asS'c:/marmalade/7.5/examples/gametutorial/cpp/modules/soundengine/h/IwSoundManager.h'
p1161
(lp1162
I1
ag1142
asS'c:/marmalade/7.5/examples/gametutorial/cpp/modules/soundengine/source/IwSoundPCM.cpp'
p1163
(lp1164
I1
ag1142
asS'c:/marmalade/7.5/examples/gametutorial/cpp/modules/soundengine/source/IwSoundWAV.cpp'
p1165
(lp1166
I1
ag1142
asS'c:/marmalade/7.5/examples/gametutorial/cpp/modules/soundengine/source/IwSoundInst.cpp'
p1167
(lp1168
I1
ag1142
asS'c:/marmalade/7.5/examples/gametutorial/cpp/modules/soundengine/h/IwSoundWAV.h'
p1169
(lp1170
I1
ag1142
asS'c:/marmalade/7.5/examples/gametutorial/cpp/modules/soundengine/source/IwSoundSpec.cpp'
p1171
(lp1172
I1
ag1142
asS'c:/marmalade/7.5/examples/gametutorial/cpp/modules/soundengine/h/IwSoundParams.h'
p1173
(lp1174
I1
ag1142
asS'c:/marmalade/7.5/examples/gametutorial/cpp/modules/soundengine/source/IwSoundADPCM.cpp'
p1175
(lp1176
I1
ag1142
asS'c:/marmalade/7.5/examples/gametutorial/cpp/modules/soundengine/h/IwSound.h'
p1177
(lp1178
I1
ag1142
asS'c:/marmalade/7.5/examples/gametutorial/cpp/modules/soundengine/source/IwSoundData.cpp'
p1179
(lp1180
I1
ag1142
asS'c:/marmalade/7.5/examples/gametutorial/cpp/modules/soundengine/h/IwSoundData.h'
p1181
(lp1182
I1
ag1142
asS'c:/marmalade/7.5/examples/gametutorial/cpp/modules/soundengine/h/IwSoundPCM.h'
p1183
(lp1184
I1
ag1142
asS'c:/marmalade/7.5/examples/gametutorial/cpp/modules/soundengine/soundengine.mkf'
p1185
(lp1186
I1
a(dp1187
asS'c:/marmalade/7.5/examples/gametutorial/cpp/modules/soundengine/h/IwSoundGroup.h'
p1188
(lp1189
I1
ag1142
assS'(MarmaladeExampleResources)'
p1190
(dp1191
S'c:/marmalade/7.5/examples/marmaladeexampleresources/marmaladeexampleresources.mkf'
p1192
(lp1193
I1
a(dp1194
assS'source'
p1195
(dp1196
S'c:/Marmalade/7.5/examples/GameTutorial/CPP/marm1/source/Powerup.cpp'
p1197
(lp1198
I1
a(dp1199
asS'c:/Marmalade/7.5/examples/GameTutorial/CPP/marm1/source/Layer.cpp'
p1200
(lp1201
I1
ag1199
asS'c:/Marmalade/7.5/examples/GameTutorial/CPP/marm1/source/mainMenu.h'
p1202
(lp1203
I1
ag1199
asS'c:/Marmalade/7.5/examples/GameTutorial/CPP/marm1/source/main.h'
p1204
(lp1205
I1
ag1199
asS'c:/Marmalade/7.5/examples/GameTutorial/CPP/marm1/source/Entity.h'
p1206
(lp1207
I1
ag1199
asS'c:/Marmalade/7.5/examples/GameTutorial/CPP/marm1/source/hero.h'
p1208
(lp1209
I1
ag1199
asS'c:/Marmalade/7.5/examples/GameTutorial/CPP/marm1/source/scene.cpp'
p1210
(lp1211
I1
ag1199
asS'c:/Marmalade/7.5/examples/GameTutorial/CPP/marm1/source/Score.cpp'
p1212
(lp1213
I1
ag1199
asS'c:/Marmalade/7.5/examples/GameTutorial/CPP/marm1/source/Enemymanager.cpp'
p1214
(lp1215
I1
ag1199
asS'c:/Marmalade/7.5/examples/GameTutorial/CPP/marm1/source/Level.h'
p1216
(lp1217
I1
ag1199
asS'c:/Marmalade/7.5/examples/GameTutorial/CPP/marm1/source/input.h'
p1218
(lp1219
I1
ag1199
asS'c:/Marmalade/7.5/examples/GameTutorial/CPP/marm1/source/audio.h'
p1220
(lp1221
I1
ag1199
asS'c:/Marmalade/7.5/examples/GameTutorial/CPP/marm1/source/resources.h'
p1222
(lp1223
I1
ag1199
asS'c:/Marmalade/7.5/examples/GameTutorial/CPP/marm1/source/mainMenu.cpp'
p1224
(lp1225
I1
ag1199
asS'c:/Marmalade/7.5/examples/GameTutorial/CPP/marm1/source/input.cpp'
p1226
(lp1227
I1
ag1199
asS'c:/Marmalade/7.5/examples/GameTutorial/CPP/marm1/source/Shark.h'
p1228
(lp1229
I1
ag1199
asS'c:/Marmalade/7.5/examples/GameTutorial/CPP/marm1/source/main.cpp'
p1230
(lp1231
I1
ag1199
asS'c:/Marmalade/7.5/examples/GameTutorial/CPP/marm1/source/Shark.cpp'
p1232
(lp1233
I1
ag1199
asS'c:/Marmalade/7.5/examples/GameTutorial/CPP/marm1/source/Life.h'
p1234
(lp1235
I1
ag1199
asS'c:/Marmalade/7.5/examples/GameTutorial/CPP/marm1/source/resources.cpp'
p1236
(lp1237
I1
ag1199
asS'c:/Marmalade/7.5/examples/GameTutorial/CPP/marm1/source/Entity.cpp'
p1238
(lp1239
I1
ag1199
asS'c:/Marmalade/7.5/examples/GameTutorial/CPP/marm1/source/Levelmanager.h'
p1240
(lp1241
I1
ag1199
asS'c:/Marmalade/7.5/examples/GameTutorial/CPP/marm1/source/Enemymanager.h'
p1242
(lp1243
I1
ag1199
asS'c:/Marmalade/7.5/examples/GameTutorial/CPP/marm1/source/Levelmanager.cpp'
p1244
(lp1245
I1
ag1199
asS'c:/Marmalade/7.5/examples/GameTutorial/CPP/marm1/source/GameScene.cpp'
p1246
(lp1247
I1
ag1199
asS'c:/Marmalade/7.5/examples/GameTutorial/CPP/marm1/source/BackgroundEntity.h'
p1248
(lp1249
I1
ag1199
asS'c:/Marmalade/7.5/examples/GameTutorial/CPP/marm1/source/pauseMenu.h'
p1250
(lp1251
I1
ag1199
asS'c:/Marmalade/7.5/examples/GameTutorial/CPP/marm1/source/Powerup.h'
p1252
(lp1253
I1
ag1199
asS'c:/Marmalade/7.5/examples/GameTutorial/CPP/marm1/source/Score.h'
p1254
(lp1255
I1
ag1199
asS'c:/Marmalade/7.5/examples/GameTutorial/CPP/marm1/source/BackgroundEntity.cpp'
p1256
(lp1257
I1
ag1199
asS'c:/Marmalade/7.5/examples/GameTutorial/CPP/marm1/source/Life.cpp'
p1258
(lp1259
I1
ag1199
asS'c:/Marmalade/7.5/examples/GameTutorial/CPP/marm1/source/Layer.h'
p1260
(lp1261
I1
ag1199
asS'c:/Marmalade/7.5/examples/GameTutorial/CPP/marm1/source/pauseMenu.cpp'
p1262
(lp1263
I1
ag1199
asS'c:/Marmalade/7.5/examples/GameTutorial/CPP/marm1/source/scene.h'
p1264
(lp1265
I1
ag1199
asS'c:/Marmalade/7.5/examples/GameTutorial/CPP/marm1/source/audio.cpp'
p1266
(lp1267
I1
ag1199
asS'c:/Marmalade/7.5/examples/GameTutorial/CPP/marm1/source/hero.cpp'
p1268
(lp1269
I1
ag1199
asS'c:/Marmalade/7.5/examples/GameTutorial/CPP/marm1/source/GameScene.h'
p1270
(lp1271
I1
ag1199
assS'Extensions'
p1272
(dp1273
S'PVRTexTool'
p1274
(dp1275
S'interface'
p1276
(dp1277
S'c:/marmalade/7.5/extensions/pvrtextool/interface/PVRTexTool.defines.txt'
p1278
(lp1279
I1
a(dp1280
asS'c:/marmalade/7.5/extensions/pvrtextool/interface/PVRTexTool_interface.cpp'
p1281
(lp1282
I1
ag1280
assS'c:/marmalade/7.5/extensions/pvrtextool/h/PVRTexTool.h'
p1283
(lp1284
I1
ag1280
asS'c:/marmalade/7.5/extensions/pvrtextool/pvrtextool.mkf'
p1285
(lp1286
I1
a(dp1287
asssS"'Marmalade Studio'"
p1288
(dp1289
S'iw2dscenegraph'
p1290
(dp1291
S'c:/marmalade/7.5/modules/iw2dscenegraph/source/Iw2DSceneGraph.cpp'
p1292
(lp1293
I1
a(dp1294
asS'c:/marmalade/7.5/modules/iw2dscenegraph/docs/iw2dscenegraph.defines.txt'
p1295
(lp1296
I1
ag1294
asS'c:/marmalade/7.5/modules/iw2dscenegraph/h/Iw2DSceneGraph.h'
p1297
(lp1298
I1
ag1294
asS'c:/marmalade/7.5/modules/iw2dscenegraph/iw2dscenegraph.mkf'
p1299
(lp1300
I1
a(dp1301
assS'iwgl'
p1302
(dp1303
S'c:/marmalade/7.5/modules/iwgl/iwgl.mkf'
p1304
(lp1305
I1
a(dp1306
asS'c:/marmalade/7.5/modules/iwgl/h/IwGL.h'
p1307
(lp1308
I1
a(dp1309
asS'c:/marmalade/7.5/modules/iwgl/docs/iwgl.config.txt'
p1310
(lp1311
I1
ag1309
asS'c:/marmalade/7.5/modules/iwgl/h/IwGLExt.h'
p1312
(lp1313
I1
ag1309
assS'iw2d'
p1314
(dp1315
S'c:/marmalade/7.5/modules/iw2d/docs/iw2d_public.defines.txt'
p1316
(lp1317
I1
a(dp1318
asS'c:/marmalade/7.5/modules/iw2d/docs/iw2d.config.txt'
p1319
(lp1320
I1
ag1318
asS'c:/marmalade/7.5/modules/iw2d/h/Iw2D.h'
p1321
(lp1322
I1
ag1318
asS'c:/marmalade/7.5/modules/iw2d/iw2d.mkf'
p1323
(lp1324
I1
a(dp1325
assS'iwgxfont'
p1326
(dp1327
S'c:/marmalade/7.5/modules/iwgxfont/h/IwGxFontGlyph.h'
p1328
(lp1329
I1
a(dp1330
asS'c:/marmalade/7.5/modules/iwgxfont/h/IwGxFontTypes.h'
p1331
(lp1332
I1
ag1330
asS'c:/marmalade/7.5/modules/iwgxfont/docs/iwgxfont.config.txt'
p1333
(lp1334
I1
ag1330
asS'c:/marmalade/7.5/modules/iwgxfont/h/IwGxFontState.h'
p1335
(lp1336
I1
ag1330
asS'c:/marmalade/7.5/modules/iwgxfont/h/IwGxFontContainer.h'
p1337
(lp1338
I1
ag1330
asS'c:/marmalade/7.5/modules/iwgxfont/iwgxfont.mkf'
p1339
(lp1340
I1
a(dp1341
asS'c:/marmalade/7.5/modules/iwgxfont/h/IwGxFontPreparedData.h'
p1342
(lp1343
I1
ag1330
asS'c:/marmalade/7.5/modules/iwgxfont/h/IwGxFont.h'
p1344
(lp1345
I1
ag1330
asS'c:/marmalade/7.5/modules/iwgxfont/docs/iwgxfont_public.defines.txt'
p1346
(lp1347
I1
ag1330
assS'iwgeom'
p1348
(dp1349
S'c:/marmalade/7.5/modules/iwgeom/h/IwGeomSVec2.h'
p1350
(lp1351
I1
a(dp1352
asS'c:/marmalade/7.5/modules/iwgeom/h/IwGeomSphere.h'
p1353
(lp1354
I1
ag1352
asS'c:/marmalade/7.5/modules/iwgeom/h/IwGeomSVec3.h'
p1355
(lp1356
I1
ag1352
asS'c:/marmalade/7.5/modules/iwgeom/iwgeom.mkf'
p1357
(lp1358
I1
a(dp1359
asS'c:/marmalade/7.5/modules/iwgeom/h/IwGeomSqrt.h'
p1360
(lp1361
I1
ag1352
asS'c:/marmalade/7.5/modules/iwgeom/h/IwGeomFQuat.h'
p1362
(lp1363
I1
ag1352
asS'c:/marmalade/7.5/modules/iwgeom/h/IwGeomQuat.h.tpl'
p1364
(lp1365
I1
ag1352
asS'c:/marmalade/7.5/modules/iwgeom/h/IwGeomVec2.h'
p1366
(lp1367
I1
ag1352
asS'c:/marmalade/7.5/modules/iwgeom/h/IwGeomMat.h'
p1368
(lp1369
I1
ag1352
asS'c:/marmalade/7.5/modules/iwgeom/h/IwGeomVec3.h'
p1370
(lp1371
I1
ag1352
asS'c:/marmalade/7.5/modules/iwgeom/h/IwGeomLegacy.h'
p1372
(lp1373
I1
ag1352
asS'c:/marmalade/7.5/modules/iwgeom/h/IwGeom.h'
p1374
(lp1375
I1
ag1352
asS'c:/marmalade/7.5/modules/iwgeom/h/IwGeomSQuat.h'
p1376
(lp1377
I1
ag1352
asS'c:/marmalade/7.5/modules/iwgeom/h/IwGeomFBBox.h'
p1378
(lp1379
I1
ag1352
asS'c:/marmalade/7.5/modules/iwgeom/h/IwGeomFMat.h'
p1380
(lp1381
I1
ag1352
asS'c:/marmalade/7.5/modules/iwgeom/h/IwGeomPlane.h'
p1382
(lp1383
I1
ag1352
asS'c:/marmalade/7.5/modules/iwgeom/h/IwGeomMat2D.h'
p1384
(lp1385
I1
ag1352
asS'c:/marmalade/7.5/modules/iwgeom/h/IwGeomFVec2.h'
p1386
(lp1387
I1
ag1352
asS'c:/marmalade/7.5/modules/iwgeom/h/IwGeomSVec4.h'
p1388
(lp1389
I1
ag1352
asS'c:/marmalade/7.5/modules/iwgeom/h/IwGeomVec4.h'
p1390
(lp1391
I1
ag1352
asS'c:/marmalade/7.5/modules/iwgeom/h/IwGeomCore.h'
p1392
(lp1393
I1
ag1352
asS'c:/marmalade/7.5/modules/iwgeom/h/IwGeomVec.h.tpl'
p1394
(lp1395
I1
ag1352
asS'c:/marmalade/7.5/modules/iwgeom/h/IwGeomVec.h'
p1396
(lp1397
I1
ag1352
asS'c:/marmalade/7.5/modules/iwgeom/h/IwGeomIntersect.h'
p1398
(lp1399
I1
ag1352
asS'c:/marmalade/7.5/modules/iwgeom/h/IwGeomFVec4.h'
p1400
(lp1401
I1
ag1352
asS'c:/marmalade/7.5/modules/iwgeom/h/IwGeomMat.h.tpl'
p1402
(lp1403
I1
ag1352
asS'c:/marmalade/7.5/modules/iwgeom/h/IwGeomMat2D.h.tpl'
p1404
(lp1405
I1
ag1352
asS'c:/marmalade/7.5/modules/iwgeom/h/IwGeomFMat2D.h'
p1406
(lp1407
I1
ag1352
asS'c:/marmalade/7.5/modules/iwgeom/h/IwGeomMenu.h'
p1408
(lp1409
I1
ag1352
asS'c:/marmalade/7.5/modules/iwgeom/h/IwGeomBBox.h'
p1410
(lp1411
I1
ag1352
asS'c:/marmalade/7.5/modules/iwgeom/h/IwGeomFSphere.h'
p1412
(lp1413
I1
ag1352
asS'c:/marmalade/7.5/modules/iwgeom/h/IwGeomFVec3.h'
p1414
(lp1415
I1
ag1352
asS'c:/marmalade/7.5/modules/iwgeom/h/IwGeomFPlane.h'
p1416
(lp1417
I1
ag1352
asS'c:/marmalade/7.5/modules/iwgeom/docs/iwgeom.config.txt'
p1418
(lp1419
I1
ag1352
asS'c:/marmalade/7.5/modules/iwgeom/h/IwGeomQuat.h'
p1420
(lp1421
I1
ag1352
asS'c:/marmalade/7.5/modules/iwgeom/h/IwGeomFIntersect.h'
p1422
(lp1423
I1
ag1352
assS'iwresmanager'
p1424
(dp1425
S'c:/marmalade/7.5/modules/iwresmanager/h/IwResHandlerITX.h'
p1426
(lp1427
I1
a(dp1428
asS'c:/marmalade/7.5/modules/iwresmanager/h/IwResSerialise.h'
p1429
(lp1430
I1
ag1428
asS'c:/marmalade/7.5/modules/iwresmanager/h/IwResManagerClass.h'
p1431
(lp1432
I1
ag1428
asS'c:/marmalade/7.5/modules/iwresmanager/h/IwResHandlerGROUP.h'
p1433
(lp1434
I1
ag1428
asS'c:/marmalade/7.5/modules/iwresmanager/h/IwResManager.h'
p1435
(lp1436
I1
ag1428
asS'c:/marmalade/7.5/modules/iwresmanager/iwresmanager.mkf'
p1437
(lp1438
I1
a(dp1439
asS'c:/marmalade/7.5/modules/iwresmanager/docs/iwresmanager.config.txt'
p1440
(lp1441
I1
ag1428
asS'c:/marmalade/7.5/modules/iwresmanager/h/IwResGroup.h'
p1442
(lp1443
I1
ag1428
asS'c:/marmalade/7.5/modules/iwresmanager/h/IwResHandler.h'
p1444
(lp1445
I1
ag1428
asS'c:/marmalade/7.5/modules/iwresmanager/h/IwResHandlerImage.h'
p1446
(lp1447
I1
ag1428
assS'iwgx'
p1448
(dp1449
S'c:/marmalade/7.5/modules/iwgx/h/IwDebugPrim.h'
p1450
(lp1451
I1
a(dp1452
asS'c:/marmalade/7.5/modules/iwgx/h/IwMatAnim.h'
p1453
(lp1454
I1
ag1452
asS'c:/marmalade/7.5/modules/iwgx/h/IwTexture.h'
p1455
(lp1456
I1
ag1452
asS'c:/marmalade/7.5/modules/iwgx/h/IwGxFuncTable.h'
p1457
(lp1458
I1
ag1452
asS'c:/marmalade/7.5/modules/iwgx/h/IwResHandlerMTL.h'
p1459
(lp1460
I1
ag1452
asS'c:/marmalade/7.5/modules/iwgx/h/IwGxPrint.h'
p1461
(lp1462
I1
ag1452
asS'c:/marmalade/7.5/modules/iwgx/h/IwGxStream.h'
p1463
(lp1464
I1
ag1452
asS'c:/marmalade/7.5/modules/iwgx/h/IwClip.h'
p1465
(lp1466
I1
ag1452
asS'c:/marmalade/7.5/modules/iwgx/h/IwGxSurface.h'
p1467
(lp1468
I1
ag1452
asS'c:/marmalade/7.5/modules/iwgx/h/IwGxError.h'
p1469
(lp1470
I1
ag1452
asS'c:/marmalade/7.5/modules/iwgx/h/IwGx.h'
p1471
(lp1472
I1
ag1452
asS'c:/marmalade/7.5/modules/iwgx/docs/iwgx_public.defines.txt'
p1473
(lp1474
I1
ag1452
asS'c:/marmalade/7.5/modules/iwgx/h/IwGxDebug.h'
p1475
(lp1476
I1
ag1452
asS'c:/marmalade/7.5/modules/iwgx/h/IwGxShaderTechnique.h'
p1477
(lp1478
I1
ag1452
asS'c:/marmalade/7.5/modules/iwgx/h/IwGxTransformSW.h'
p1479
(lp1480
I1
ag1452
asS'c:/marmalade/7.5/modules/iwgx/h/IwMaterial.h'
p1481
(lp1482
I1
ag1452
asS'c:/marmalade/7.5/modules/iwgx/h/IwGxMetrics.h'
p1483
(lp1484
I1
ag1452
asS'c:/marmalade/7.5/modules/iwgx/h/IwClip.inl'
p1485
(lp1486
I1
ag1452
asS'c:/marmalade/7.5/modules/iwgx/h/IwFColour.h'
p1487
(lp1488
I1
ag1452
asS'c:/marmalade/7.5/modules/iwgx/h/IwGxTypes.h'
p1489
(lp1490
I1
ag1452
asS'c:/marmalade/7.5/modules/iwgx/iwgx.mkf'
p1491
(lp1492
I1
a(dp1493
asS'c:/marmalade/7.5/modules/iwgx/docs/iwgx.config.txt'
p1494
(lp1495
I1
ag1452
asS'c:/marmalade/7.5/modules/iwgx/h/IwColour.h'
p1496
(lp1497
I1
ag1452
asS'c:/marmalade/7.5/modules/iwgx/h/IwGxState.h'
p1498
(lp1499
I1
ag1452
asS'c:/marmalade/7.5/modules/iwgx/h/IwTPage.h'
p1500
(lp1501
I1
ag1452
assS'iw2dscenegraphcore'
p1502
(dp1503
S'c:/marmalade/7.5/modules/iw2dscenegraphcore/iw2dscenegraphcore.mkf'
p1504
(lp1505
I1
a(dp1506
asS'c:/marmalade/7.5/modules/iw2dscenegraphcore/h/Iw2DSceneGraphCore.h'
p1507
(lp1508
I1
a(dp1509
asS'c:/marmalade/7.5/modules/iw2dscenegraphcore/source/Iw2DSceneGraphCore.cpp'
p1510
(lp1511
I1
ag1509
assS'iwutil'
p1512
(dp1513
S'c:/marmalade/7.5/modules/iwutil/h/IwSingleton.h'
p1514
(lp1515
I1
a(dp1516
asS'c:/marmalade/7.5/modules/iwutil/h/IwMath.h'
p1517
(lp1518
I1
ag1516
asS'c:/marmalade/7.5/modules/iwutil/h/IwBuffer.h'
p1519
(lp1520
I1
ag1516
asS'c:/marmalade/7.5/modules/iwutil/h/IwCore.h'
p1521
(lp1522
I1
ag1516
asS'c:/marmalade/7.5/modules/iwutil/h/IwDivide.h'
p1523
(lp1524
I1
ag1516
asS'c:/marmalade/7.5/modules/iwutil/h/IwMemory.h'
p1525
(lp1526
I1
ag1516
asS'c:/marmalade/7.5/modules/iwutil/h/IwImageHelper.h'
p1527
(lp1528
I1
ag1516
asS'c:/marmalade/7.5/modules/iwutil/h/IwManagedList.h'
p1529
(lp1530
I1
ag1516
asS'c:/marmalade/7.5/modules/iwutil/h/IwProfileMenu.h'
p1531
(lp1532
I1
ag1516
asS'c:/marmalade/7.5/modules/iwutil/h/IwClassFactory.h'
p1533
(lp1534
I1
ag1516
asS'c:/marmalade/7.5/modules/iwutil/h/IwDivTable.h'
p1535
(lp1536
I1
ag1516
asS'c:/marmalade/7.5/modules/iwutil/h/IwManaged.h'
p1537
(lp1538
I1
ag1516
asS'c:/marmalade/7.5/modules/iwutil/h/IwTextParseable.h'
p1539
(lp1540
I1
ag1516
asS'c:/marmalade/7.5/modules/iwutil/h/IwChar.h'
p1541
(lp1542
I1
ag1516
asS'c:/marmalade/7.5/modules/iwutil/h/IwRandom.h'
p1543
(lp1544
I1
ag1516
asS'c:/marmalade/7.5/modules/iwutil/h/IwDebug.h'
p1545
(lp1546
I1
ag1516
asS'c:/marmalade/7.5/modules/iwutil/h/IwUTF8.h'
p1547
(lp1548
I1
ag1516
asS'c:/marmalade/7.5/modules/iwutil/docs/iwutil.config.txt'
p1549
(lp1550
I1
ag1516
asS'c:/marmalade/7.5/modules/iwutil/h/IwAllocator.h'
p1551
(lp1552
I1
ag1516
asS'c:/marmalade/7.5/modules/iwutil/h/IwMemBucketHelpers.h'
p1553
(lp1554
I1
ag1516
asS'c:/marmalade/7.5/modules/iwutil/h/IwTextParserITX.h'
p1555
(lp1556
I1
ag1516
asS'c:/marmalade/7.5/modules/iwutil/h/IwKeymap.h'
p1557
(lp1558
I1
ag1516
asS'c:/marmalade/7.5/modules/iwutil/h/IwImage.h'
p1559
(lp1560
I1
ag1516
asS'c:/marmalade/7.5/modules/iwutil/h/IwOptimiseARM.h'
p1561
(lp1562
I1
ag1516
asS'c:/marmalade/7.5/modules/iwutil/h/IwMemBucket.h'
p1563
(lp1564
I1
ag1516
asS'c:/marmalade/7.5/modules/iwutil/h/IwOptimiseSize.h'
p1565
(lp1566
I1
ag1516
asS'c:/marmalade/7.5/modules/iwutil/h/IwRuntime.h'
p1567
(lp1568
I1
ag1516
asS'c:/marmalade/7.5/modules/iwutil/h/IwMemManagerDL.h'
p1569
(lp1570
I1
ag1516
asS'c:/marmalade/7.5/modules/iwutil/h/IwPath.h'
p1571
(lp1572
I1
ag1516
asS'c:/marmalade/7.5/modules/iwutil/h/IwOptimiseSpeed.h'
p1573
(lp1574
I1
ag1516
asS'c:/marmalade/7.5/modules/iwutil/h/IwList.h'
p1575
(lp1576
I1
ag1516
asS'c:/marmalade/7.5/modules/iwutil/h/IwAutoFile.h'
p1577
(lp1578
I1
ag1516
asS'c:/marmalade/7.5/modules/iwutil/h/IwVariableBitField.h'
p1579
(lp1580
I1
ag1516
asS'c:/marmalade/7.5/modules/iwutil/h/IwHashString.h'
p1581
(lp1582
I1
ag1516
asS'c:/marmalade/7.5/modules/iwutil/h/IwOptimiseThumb.h'
p1583
(lp1584
I1
ag1516
asS'c:/marmalade/7.5/modules/iwutil/iwutil.mkf'
p1585
(lp1586
I1
a(dp1587
asS'c:/marmalade/7.5/modules/iwutil/h/IwUtil.h'
p1588
(lp1589
I1
ag1516
asS'c:/marmalade/7.5/modules/iwutil/h/IwString.h'
p1590
(lp1591
I1
ag1516
asS'c:/marmalade/7.5/modules/iwutil/h/IwFile.h'
p1592
(lp1593
I1
ag1516
asS'c:/marmalade/7.5/modules/iwutil/h/IwUncopyable.h'
p1594
(lp1595
I1
ag1516
asS'c:/marmalade/7.5/modules/iwutil/h/IwTextParser.h'
p1596
(lp1597
I1
ag1516
asS'c:/marmalade/7.5/modules/iwutil/h/IwCopyingPtr.h'
p1598
(lp1599
I1
ag1516
asS'c:/marmalade/7.5/modules/iwutil/h/IwEvent.h'
p1600
(lp1601
I1
ag1516
asS'c:/marmalade/7.5/modules/iwutil/h/IwFibre.h'
p1602
(lp1603
I1
ag1516
asS'c:/marmalade/7.5/modules/iwutil/h/IwArray.h'
p1604
(lp1605
I1
ag1516
asS'c:/marmalade/7.5/modules/iwutil/h/IwMenu.h'
p1606
(lp1607
I1
ag1516
asS'c:/marmalade/7.5/modules/iwutil/h/IwTypes.h'
p1608
(lp1609
I1
ag1516
asS'c:/marmalade/7.5/modules/iwutil/h/IwUtilInitTerm.h'
p1610
(lp1611
I1
ag1516
asS'c:/marmalade/7.5/modules/iwutil/h/IwResource.h'
p1612
(lp1613
I1
ag1516
asS'c:/marmalade/7.5/modules/iwutil/h/IwSerialise.h'
p1614
(lp1615
I1
ag1516
asssS'(zlib)'
p1616
(dp1617
g1083
(dp1618
S'c:/marmalade/7.5/modules/third_party/zlib/h/zconf.h'
p1619
(lp1620
I1
a(dp1621
asS'c:/marmalade/7.5/modules/third_party/zlib/h/zlib.h'
p1622
(lp1623
I1
ag1621
assS'c:/marmalade/7.5/modules/third_party/zlib/zlib.mkf'
p1624
(lp1625
I1
a(dp1626
assS'(iwtween)'
p1627
(dp1628
S'c:/marmalade/7.5/modules/iwtween/h/IwTween.h'
p1629
(lp1630
I1
a(dp1631
asS'c:/marmalade/7.5/modules/iwtween/source/IwTween.cpp'
p1632
(lp1633
I1
ag1631
asS'c:/marmalade/7.5/modules/iwtween/iwtween.mkf'
p1634
(lp1635
I1
a(dp1636
assS'(s3e-default)'
p1637
(dp1638
S'c:/marmalade/7.5/s3e/s3e-default.mkf'
p1639
(lp1640
I1
a(dp1641
asssS'files'
p1642
(dp1643
S'IwGxFontPreparedData.h'
p1644
g330
(cmkb_main
File
p1645
g332
Ntp1646
Rp1647
(dp1648
S'flags'
p1649
g1330
sS'group'
p1650
(lp1651
S"'Marmalade Studio'"
p1652
ag1326
asg356
g1342
sbsS'iterator'
p1653
g330
(g1645
g332
Ntp1654
Rp1655
(dp1656
g1649
(dp1657
sg1650
(lp1658
S"'Marmalade System (S3E)'"
p1659
aS'stdc headers'
p1660
aS'c++'
p1661
asg356
S'c:/marmalade/7.5/s3e/h/std/c++/iterator'
p1662
sbsS'IwGL.h'
p1663
g330
(g1645
g332
Ntp1664
Rp1665
(dp1666
g1649
g1309
sg1650
(lp1667
S"'Marmalade Studio'"
p1668
ag1302
asg356
g1307
sbsS's3e.h'
p1669
g330
(g1645
g332
Ntp1670
Rp1671
(dp1672
g1649
g1657
sg1650
(lp1673
g1659
asg356
S'c:/marmalade/7.5/s3e/h/s3e.h'
p1674
sbsS'errno.h'
p1675
g330
(g1645
g332
Ntp1676
Rp1677
(dp1678
g1649
g1657
sg1650
(lp1679
g1659
aS'stdc headers'
p1680
asg356
S'c:/marmalade/7.5/s3e/h/std/errno.h'
p1681
sbsS'IwSingleton.h'
p1682
g330
(g1645
g332
Ntp1683
Rp1684
(dp1685
g1649
g1516
sg1650
(lp1686
S"'Marmalade Studio'"
p1687
ag1512
asg356
g1514
sbsS'dlfcn.h'
p1688
g330
(g1645
g332
Ntp1689
Rp1690
(dp1691
g1649
g1657
sg1650
g1679
sg356
S'c:/marmalade/7.5/s3e/h/std/dlfcn.h'
p1692
sbsS'IwSoundWAV.cpp'
p1693
g330
(g1645
g332
Ntp1694
Rp1695
(dp1696
g1649
g1142
sg1650
(lp1697
g1138
asg356
g1165
sbsS'sched.h'
p1698
g330
(g1645
g332
Ntp1699
Rp1700
(dp1701
g1649
g1657
sg1650
g1679
sg356
S'c:/marmalade/7.5/s3e/h/std/sched.h'
p1702
sbsS'IwSoundPCM.h'
p1703
g330
(g1645
g332
Ntp1704
Rp1705
(dp1706
g1649
g1142
sg1650
g1697
sg356
g1183
sbsS'IwGeomFMat2D.h'
p1707
g330
(g1645
g332
Ntp1708
Rp1709
(dp1710
g1649
g1352
sg1650
(lp1711
S"'Marmalade Studio'"
p1712
ag1348
asg356
g1406
sbsS'cassert'
p1713
g330
(g1645
g332
Ntp1714
Rp1715
(dp1716
g1649
g1657
sg1650
g1658
sg356
S'c:/marmalade/7.5/s3e/h/std/c++/cassert'
p1717
sbsS'grp.h'
p1718
g330
(g1645
g332
Ntp1719
Rp1720
(dp1721
g1649
g1657
sg1650
g1679
sg356
S'c:/marmalade/7.5/s3e/h/std/grp.h'
p1722
sbsS'list'
p1723
g330
(g1645
g332
Ntp1724
Rp1725
(dp1726
g1649
g1657
sg1650
g1658
sg356
S'c:/marmalade/7.5/s3e/h/std/c++/list'
p1727
sbsS'IwSoundSpec.cpp'
p1728
g330
(g1645
g332
Ntp1729
Rp1730
(dp1731
g1649
g1142
sg1650
g1697
sg356
g1171
sbsS'IwGeomMat.h.tpl'
p1732
g330
(g1645
g332
Ntp1733
Rp1734
(dp1735
g1649
g1352
sg1650
g1711
sg356
g1402
sbsS'istream'
p1736
g330
(g1645
g332
Ntp1737
Rp1738
(dp1739
g1649
g1657
sg1650
g1658
sg356
S'c:/marmalade/7.5/s3e/h/std/c++/istream'
p1740
sbsS'jpeglib.h'
p1741
g330
(g1645
g332
Ntp1742
Rp1743
(dp1744
g1649
g1101
sg1650
(lp1745
g1093
ag1083
asg356
g1126
sbsS'iw2d_public.defines.txt'
p1746
g330
(g1645
g332
Ntp1747
Rp1748
(dp1749
g1649
g1318
sg1650
(lp1750
S"'Marmalade Studio'"
p1751
ag1314
asg356
g1316
sbsS'iostream.h'
p1752
g330
(g1645
g332
Ntp1753
Rp1754
(dp1755
g1649
g1657
sg1650
g1658
sg356
S'c:/marmalade/7.5/s3e/h/std/c++/iostream.h'
p1756
sbsS'IwSoundADPCM.h'
p1757
g330
(g1645
g332
Ntp1758
Rp1759
(dp1760
g1649
g1142
sg1650
g1697
sg356
g1143
sbsS'string'
p1761
g330
(g1645
g332
Ntp1762
Rp1763
(dp1764
g1649
g1657
sg1650
g1658
sg356
S'c:/marmalade/7.5/s3e/h/std/c++/string'
p1765
sbsS'IwMemory.h'
p1766
g330
(g1645
g332
Ntp1767
Rp1768
(dp1769
g1649
g1516
sg1650
g1686
sg356
g1525
sbsS'IwGeomPlane.h'
p1770
g330
(g1645
g332
Ntp1771
Rp1772
(dp1773
g1649
g1352
sg1650
g1711
sg356
g1382
sbsS'iw2d.config.txt'
p1774
g330
(g1645
g332
Ntp1775
Rp1776
(dp1777
g1649
g1318
sg1650
g1750
sg356
g1319
sbsS'iomanip'
p1778
g330
(g1645
g332
Ntp1779
Rp1780
(dp1781
g1649
g1657
sg1650
g1658
sg356
S'c:/marmalade/7.5/s3e/h/std/c++/iomanip'
p1782
sbsS'iwgeom.mkf'
p1783
g330
(g1645
g332
Ntp1784
Rp1785
(dp1786
g1649
g1359
sg1650
g1711
sg356
g1357
sbsS'IwGxError.h'
p1787
g330
(g1645
g332
Ntp1788
Rp1789
(dp1790
g1649
g1452
sg1650
(lp1791
S"'Marmalade Studio'"
p1792
ag1448
asg356
g1469
sbsS'IwGeom.h'
p1793
g330
(g1645
g332
Ntp1794
Rp1795
(dp1796
g1649
g1352
sg1650
g1711
sg356
g1374
sbsS'scene.cpp'
p1797
g330
(g1645
g332
Ntp1798
Rp1799
(dp1800
g1649
g1199
sg1650
(lp1801
g1195
asg356
g1210
sbsS'IwGeomVec4.h'
p1802
g330
(g1645
g332
Ntp1803
Rp1804
(dp1805
g1649
g1352
sg1650
g1711
sg356
g1390
sbsS'dir.h'
p1806
g330
(g1645
g332
Ntp1807
Rp1808
(dp1809
g1649
g1657
sg1650
(lp1810
g1659
aS'stdc headers'
p1811
aS'sys'
p1812
asg356
S'c:/marmalade/7.5/s3e/h/std/sys/dir.h'
p1813
sbsS'locale.h'
p1814
g330
(g1645
g332
Ntp1815
Rp1816
(dp1817
g1649
g1657
sg1650
g1679
sg356
S'c:/marmalade/7.5/s3e/h/std/locale.h'
p1818
sbsS'vector'
p1819
g330
(g1645
g332
Ntp1820
Rp1821
(dp1822
g1649
g1657
sg1650
g1658
sg356
S'c:/marmalade/7.5/s3e/h/std/c++/vector'
p1823
sbsS'IwManaged.h'
p1824
g330
(g1645
g332
Ntp1825
Rp1826
(dp1827
g1649
g1516
sg1650
g1686
sg356
g1537
sbsS's3eCompass.h'
p1828
g330
(g1645
g332
Ntp1829
Rp1830
(dp1831
g1649
g1657
sg1650
g1673
sg356
S'c:/marmalade/7.5/s3e/h/s3eCompass.h'
p1832
sbsS'cderror.h'
p1833
g330
(g1645
g332
Ntp1834
Rp1835
(dp1836
g1649
g1101
sg1650
g1745
sg356
g1104
sbsS'climits'
p1837
g330
(g1645
g332
Ntp1838
Rp1839
(dp1840
g1649
g1657
sg1650
g1658
sg356
S'c:/marmalade/7.5/s3e/h/std/c++/climits'
p1841
sbsS's3eVibra.h'
p1842
g330
(g1645
g332
Ntp1843
Rp1844
(dp1845
g1649
g1657
sg1650
g1673
sg356
S'c:/marmalade/7.5/s3e/h/s3eVibra.h'
p1846
sbsS'jversion.h'
p1847
g330
(g1645
g332
Ntp1848
Rp1849
(dp1850
g1649
g1101
sg1650
g1745
sg356
g1122
sbsS'fnmatch.h'
p1851
g330
(g1645
g332
Ntp1852
Rp1853
(dp1854
g1649
g1657
sg1650
g1679
sg356
S'c:/marmalade/7.5/s3e/h/std/fnmatch.h'
p1855
sbsS'IwGxState.h'
p1856
g330
(g1645
g332
Ntp1857
Rp1858
(dp1859
g1649
g1452
sg1650
g1791
sg356
g1498
sbsS'rope'
p1860
g330
(g1645
g332
Ntp1861
Rp1862
(dp1863
g1649
g1657
sg1650
g1658
sg356
S'c:/marmalade/7.5/s3e/h/std/c++/rope'
p1864
sbsS's3eAudio.h'
p1865
g330
(g1645
g332
Ntp1866
Rp1867
(dp1868
g1649
g1657
sg1650
g1673
sg356
S'c:/marmalade/7.5/s3e/h/s3eAudio.h'
p1869
sbsS's3eSurface.h'
p1870
g330
(g1645
g332
Ntp1871
Rp1872
(dp1873
g1649
g1657
sg1650
g1673
sg356
S'c:/marmalade/7.5/s3e/h/s3eSurface.h'
p1874
sbsS'new'
p1875
g330
(g1645
g332
Ntp1876
Rp1877
(dp1878
g1649
g1657
sg1650
g1658
sg356
S'c:/marmalade/7.5/s3e/h/std/c++/new'
p1879
sbsS's3eWindow.h'
p1880
g330
(g1645
g332
Ntp1881
Rp1882
(dp1883
g1649
g1657
sg1650
(lp1884
g1659
aS'Extensions'
p1885
asg356
S'c:/marmalade/7.5/s3e/h/ext/s3eWindow.h'
p1886
sbsS'IwBuffer.h'
p1887
g330
(g1645
g332
Ntp1888
Rp1889
(dp1890
g1649
g1516
sg1650
g1686
sg356
g1519
sbsS'stdio_streambuf'
p1891
g330
(g1645
g332
Ntp1892
Rp1893
(dp1894
g1649
g1657
sg1650
g1658
sg356
S'c:/marmalade/7.5/s3e/h/std/c++/stdio_streambuf'
p1895
sbsS'IwGeomQuat.h.tpl'
p1896
g330
(g1645
g332
Ntp1897
Rp1898
(dp1899
g1649
g1352
sg1650
g1711
sg356
g1364
sbsS's3eOSExec.h'
p1900
g330
(g1645
g332
Ntp1901
Rp1902
(dp1903
g1649
g1657
sg1650
g1884
sg356
S'c:/marmalade/7.5/s3e/h/ext/s3eOSExec.h'
p1904
sbsS'IwGxTransformSW.h'
p1905
g330
(g1645
g332
Ntp1906
Rp1907
(dp1908
g1649
g1452
sg1650
g1791
sg356
g1479
sbsS'unistd.h'
p1909
g330
(g1645
g332
Ntp1910
Rp1911
(dp1912
g1649
g1657
sg1650
g1679
sg356
S'c:/marmalade/7.5/s3e/h/std/unistd.h'
p1913
sbsS'iwgxfont.config.txt'
p1914
g330
(g1645
g332
Ntp1915
Rp1916
(dp1917
g1649
g1330
sg1650
g1651
sg356
g1333
sbsS'gl2platform.h'
p1918
g330
(g1645
g332
Ntp1919
Rp1920
(dp1921
g1649
g1657
sg1650
(lp1922
g1659
aS'GL'
p1923
aS'GLES 2.0'
p1924
asg356
S'c:/marmalade/7.5/s3e/h/GLES2/gl2platform.h'
p1925
sbsS'IwResManagerClass.h'
p1926
g330
(g1645
g332
Ntp1927
Rp1928
(dp1929
g1649
g1428
sg1650
(lp1930
g1288
ag1424
asg356
g1431
sbsS'queue'
p1931
g330
(g1645
g332
Ntp1932
Rp1933
(dp1934
g1649
g1657
sg1650
g1658
sg356
S'c:/marmalade/7.5/s3e/h/std/c++/queue'
p1935
sbsS'time_1.h'
p1936
g330
(g1645
g332
Ntp1937
Rp1938
(dp1939
g1649
g1657
sg1650
g1810
sg356
S'c:/marmalade/7.5/s3e/h/std/sys/time.h'
p1940
sbsS'Iw2D.h'
p1941
g330
(g1645
g332
Ntp1942
Rp1943
(dp1944
g1649
g1318
sg1650
g1750
sg356
g1321
sbsS'IwGeomVec2.h'
p1945
g330
(g1645
g332
Ntp1946
Rp1947
(dp1948
g1649
g1352
sg1650
g1711
sg356
g1366
sbsS'sendfile.h'
p1949
g330
(g1645
g332
Ntp1950
Rp1951
(dp1952
g1649
g1657
sg1650
g1810
sg356
S'c:/marmalade/7.5/s3e/h/std/sys/sendfile.h'
p1953
sbsS'malloc.h'
p1954
g330
(g1645
g332
Ntp1955
Rp1956
(dp1957
g1649
g1657
sg1650
g1679
sg356
S'c:/marmalade/7.5/s3e/h/std/malloc.h'
p1958
sbsS'stdarg.h'
p1959
g330
(g1645
g332
Ntp1960
Rp1961
(dp1962
g1649
g1657
sg1650
g1679
sg356
S'c:/marmalade/7.5/s3e/h/std/stdarg.h'
p1963
sbsS'IwGeomCore.h'
p1964
g330
(g1645
g332
Ntp1965
Rp1966
(dp1967
g1649
g1352
sg1650
g1711
sg356
g1392
sbsS'Iw2DSceneGraph.h'
p1968
g330
(g1645
g332
Ntp1969
Rp1970
(dp1971
g1649
g1294
sg1650
(lp1972
S"'Marmalade Studio'"
p1973
ag1290
asg356
g1297
sbsS'endian.h'
p1974
g330
(g1645
g332
Ntp1975
Rp1976
(dp1977
g1649
g1657
sg1650
g1679
sg356
S'c:/marmalade/7.5/s3e/h/std/endian.h'
p1978
sbsS'gl3ext.h'
p1979
g330
(g1645
g332
Ntp1980
Rp1981
(dp1982
g1649
g1657
sg1650
(lp1983
g1659
aS'GL'
p1984
aS'GLES 3.0'
p1985
asg356
S'c:/marmalade/7.5/s3e/h/GLES3/gl3ext.h'
p1986
sbsS'glob.h'
p1987
g330
(g1645
g332
Ntp1988
Rp1989
(dp1990
g1649
g1657
sg1650
g1679
sg356
S'c:/marmalade/7.5/s3e/h/std/glob.h'
p1991
sbsS'fstream'
p1992
g330
(g1645
g332
Ntp1993
Rp1994
(dp1995
g1649
g1657
sg1650
g1658
sg356
S'c:/marmalade/7.5/s3e/h/std/c++/fstream'
p1996
sbsS's3eCamera.h'
p1997
g330
(g1645
g332
Ntp1998
Rp1999
(dp2000
g1649
g1657
sg1650
g1673
sg356
S'c:/marmalade/7.5/s3e/h/s3eCamera.h'
p2001
sbsS'jconfig.h'
p2002
g330
(g1645
g332
Ntp2003
Rp2004
(dp2005
g1649
g1101
sg1650
g1745
sg356
g1124
sbsS'memory'
p2006
g330
(g1645
g332
Ntp2007
Rp2008
(dp2009
g1649
g1657
sg1650
g1658
sg356
S'c:/marmalade/7.5/s3e/h/std/c++/memory'
p2010
sbsS'egl.h'
p2011
g330
(g1645
g332
Ntp2012
Rp2013
(dp2014
g1649
g1657
sg1650
(lp2015
g1659
aS'GL'
p2016
aS'EGL'
p2017
asg356
S'c:/marmalade/7.5/s3e/h/EGL/egl.h'
p2018
sbsS'egl_1.h'
p2019
g330
(g1645
g332
Ntp2020
Rp2021
(dp2022
g1649
g1657
sg1650
(lp2023
g1659
aS'GL'
p2024
aS'GLES 1.x'
p2025
asg356
S'c:/marmalade/7.5/s3e/h/GLES/egl.h'
p2026
sbsS'IwMemManagerDL.h'
p2027
g330
(g1645
g332
Ntp2028
Rp2029
(dp2030
g1649
g1516
sg1650
g1686
sg356
g1569
sbsS'deque'
p2031
g330
(g1645
g332
Ntp2032
Rp2033
(dp2034
g1649
g1657
sg1650
g1658
sg356
S'c:/marmalade/7.5/s3e/h/std/c++/deque'
p2035
sbsS'IwString.h'
p2036
g330
(g1645
g332
Ntp2037
Rp2038
(dp2039
g1649
g1516
sg1650
g1686
sg356
g1590
sbsS'GameScene.h'
p2040
g330
(g1645
g332
Ntp2041
Rp2042
(dp2043
g1649
g1199
sg1650
g1801
sg356
g1270
sbsS'cwchar'
p2044
g330
(g1645
g332
Ntp2045
Rp2046
(dp2047
g1649
g1657
sg1650
g1658
sg356
S'c:/marmalade/7.5/s3e/h/std/c++/cwchar'
p2048
sbsS'iwutil.mkf'
p2049
g330
(g1645
g332
Ntp2050
Rp2051
(dp2052
g1649
g1587
sg1650
g1686
sg356
g1585
sbsS'csignal'
p2053
g330
(g1645
g332
Ntp2054
Rp2055
(dp2056
g1649
g1657
sg1650
g1658
sg356
S'c:/marmalade/7.5/s3e/h/std/c++/csignal'
p2057
sbsS'pthread_types.h'
p2058
g330
(g1645
g332
Ntp2059
Rp2060
(dp2061
g1649
g1657
sg1650
g1679
sg356
S'c:/marmalade/7.5/s3e/h/std/pthread_types.h'
p2062
sbsS'Entity.cpp'
p2063
g330
(g1645
g332
Ntp2064
Rp2065
(dp2066
g1649
g1199
sg1650
g1801
sg356
g1238
sbsS'pthread_alloc'
p2067
g330
(g1645
g332
Ntp2068
Rp2069
(dp2070
g1649
g1657
sg1650
g1658
sg356
S'c:/marmalade/7.5/s3e/h/std/c++/pthread_alloc'
p2071
sbsS'getopt.h'
p2072
g330
(g1645
g332
Ntp2073
Rp2074
(dp2075
g1649
g1657
sg1650
g1679
sg356
S'c:/marmalade/7.5/s3e/h/std/getopt.h'
p2076
sbsS'IwOptimiseARM.h'
p2077
g330
(g1645
g332
Ntp2078
Rp2079
(dp2080
g1649
g1516
sg1650
g1686
sg356
g1561
sbsS'times.h'
p2081
g330
(g1645
g332
Ntp2082
Rp2083
(dp2084
g1649
g1657
sg1650
g1810
sg356
S'c:/marmalade/7.5/s3e/h/std/sys/times.h'
p2085
sbsS'IwGeomFSphere.h'
p2086
g330
(g1645
g332
Ntp2087
Rp2088
(dp2089
g1649
g1352
sg1650
g1711
sg356
g1412
sbsS'functional'
p2090
g330
(g1645
g332
Ntp2091
Rp2092
(dp2093
g1649
g1657
sg1650
g1658
sg356
S'c:/marmalade/7.5/s3e/h/std/c++/functional'
p2094
sbsS'IwTypes.h'
p2095
g330
(g1645
g332
Ntp2096
Rp2097
(dp2098
g1649
g1516
sg1650
g1686
sg356
g1608
sbsS'IwGxMetrics.h'
p2099
g330
(g1645
g332
Ntp2100
Rp2101
(dp2102
g1649
g1452
sg1650
g1791
sg356
g1483
sbsS'audio.cpp'
p2103
g330
(g1645
g332
Ntp2104
Rp2105
(dp2106
g1649
g1199
sg1650
g1801
sg356
g1266
sbsS's3eCompression.h'
p2107
g330
(g1645
g332
Ntp2108
Rp2109
(dp2110
g1649
g1657
sg1650
g1673
sg356
S'c:/marmalade/7.5/s3e/h/s3eCompression.h'
p2111
sbsS'langinfo.h'
p2112
g330
(g1645
g332
Ntp2113
Rp2114
(dp2115
g1649
g1657
sg1650
g1679
sg356
S'c:/marmalade/7.5/s3e/h/std/langinfo.h'
p2116
sbsS's3edebugHeap.h'
p2117
g330
(g1645
g332
Ntp2118
Rp2119
(dp2120
g1649
g1657
sg1650
g1884
sg356
S'c:/marmalade/7.5/s3e/h/ext/s3edebugHeap.h'
p2121
sbsS'AirplayVersion.h'
p2122
g330
(g1645
g332
Ntp2123
Rp2124
(dp2125
g1649
g1657
sg1650
g1673
sg356
S'c:/marmalade/7.5/s3e/h/AirplayVersion.h'
p2126
sbsS'gl2extimg.h'
p2127
g330
(g1645
g332
Ntp2128
Rp2129
(dp2130
g1649
g1657
sg1650
g1922
sg356
S'c:/marmalade/7.5/s3e/h/GLES2/gl2extimg.h'
p2131
sbsS'IwGeomSqrt.h'
p2132
g330
(g1645
g332
Ntp2133
Rp2134
(dp2135
g1649
g1352
sg1650
g1711
sg356
g1360
sbsS'tiniconv_int.h'
p2136
g330
(g1645
g332
Ntp2137
Rp2138
(dp2139
g1649
g1135
sg1650
(lp2140
g1128
asg356
g1133
sbsS'syslog.h'
p2141
g330
(g1645
g332
Ntp2142
Rp2143
(dp2144
g1649
g1657
sg1650
g1679
sg356
S'c:/marmalade/7.5/s3e/h/std/syslog.h'
p2145
sbsS'IwGxFontTypes.h'
p2146
g330
(g1645
g332
Ntp2147
Rp2148
(dp2149
g1649
g1330
sg1650
g1651
sg356
g1331
sbsS'IwGeomFIntersect.h'
p2150
g330
(g1645
g332
Ntp2151
Rp2152
(dp2153
g1649
g1352
sg1650
g1711
sg356
g1422
sbsS'hash_map'
p2154
g330
(g1645
g332
Ntp2155
Rp2156
(dp2157
g1649
g1657
sg1650
g1658
sg356
S'c:/marmalade/7.5/s3e/h/std/c++/hash_map'
p2158
sbsS's3e.mkf'
p2159
g330
(g1645
g332
Ntp2160
Rp2161
(dp2162
g1649
(dp2163
sg1650
g1673
sg356
S'c:/marmalade/7.5/s3e/s3e.mkf'
p2164
sbsS'IwGeomMat2D.h.tpl'
p2165
g330
(g1645
g332
Ntp2166
Rp2167
(dp2168
g1649
g1352
sg1650
g1711
sg356
g1404
sbsS's3eOSReadString.h'
p2169
g330
(g1645
g332
Ntp2170
Rp2171
(dp2172
g1649
g1657
sg1650
g1884
sg356
S'c:/marmalade/7.5/s3e/h/ext/s3eOSReadString.h'
p2173
sbsS'IwSound.h'
p2174
g330
(g1645
g332
Ntp2175
Rp2176
(dp2177
g1649
g1142
sg1650
g1697
sg356
g1177
sbsS'map'
p2178
g330
(g1645
g332
Ntp2179
Rp2180
(dp2181
g1649
g1657
sg1650
g1658
sg356
S'c:/marmalade/7.5/s3e/h/std/c++/map'
p2182
sbsS'iwtween.mkf'
p2183
g330
(g1645
g332
Ntp2184
Rp2185
(dp2186
g1649
g1636
sg1650
(lp2187
g1627
asg356
g1634
sbsS'IwOptimiseSpeed.h'
p2188
g330
(g1645
g332
Ntp2189
Rp2190
(dp2191
g1649
g1516
sg1650
g1686
sg356
g1573
sbsS'ostream'
p2192
g330
(g1645
g332
Ntp2193
Rp2194
(dp2195
g1649
g1657
sg1650
g1658
sg356
S'c:/marmalade/7.5/s3e/h/std/c++/ostream'
p2196
sbsS'msl_string.h'
p2197
g330
(g1645
g332
Ntp2198
Rp2199
(dp2200
g1649
g1657
sg1650
g1658
sg356
S'c:/marmalade/7.5/s3e/h/std/c++/msl_string.h'
p2201
sbsS'select.h'
p2202
g330
(g1645
g332
Ntp2203
Rp2204
(dp2205
g1649
g1657
sg1650
g1810
sg356
S'c:/marmalade/7.5/s3e/h/std/sys/select.h'
p2206
sbsS'hero.cpp'
p2207
g330
(g1645
g332
Ntp2208
Rp2209
(dp2210
g1649
g1199
sg1650
g1801
sg356
g1268
sbsS'zlib.mkf'
p2211
g330
(g1645
g332
Ntp2212
Rp2213
(dp2214
g1649
g1626
sg1650
(lp2215
g1616
asg356
g1624
sbsS'signal.h'
p2216
g330
(g1645
g332
Ntp2217
Rp2218
(dp2219
g1649
g1657
sg1650
g1679
sg356
S'c:/marmalade/7.5/s3e/h/std/signal.h'
p2220
sbsS'sigcontext.h'
p2221
g330
(g1645
g332
Ntp2222
Rp2223
(dp2224
g1649
g1657
sg1650
g1679
sg356
S'c:/marmalade/7.5/s3e/h/std/sigcontext.h'
p2225
sbsS'libpng.mkf'
p2226
g330
(g1645
g332
Ntp2227
Rp2228
(dp2229
g1649
g1092
sg1650
(lp2230
g1081
asg356
g1090
sbsS's3eClipboard.h'
p2231
g330
(g1645
g332
Ntp2232
Rp2233
(dp2234
g1649
g1657
sg1650
g1673
sg356
S'c:/marmalade/7.5/s3e/h/s3eClipboard.h'
p2235
sbsS'IwGxFuncTable.h'
p2236
g330
(g1645
g332
Ntp2237
Rp2238
(dp2239
g1649
g1452
sg1650
g1791
sg356
g1457
sbsS'IwResHandlerGROUP.h'
p2240
g330
(g1645
g332
Ntp2241
Rp2242
(dp2243
g1649
g1428
sg1650
g1930
sg356
g1433
sbsS's3eDebug.h'
p2244
g330
(g1645
g332
Ntp2245
Rp2246
(dp2247
g1649
g1657
sg1650
g1673
sg356
S'c:/marmalade/7.5/s3e/h/s3eDebug.h'
p2248
sbsS'socket.h'
p2249
g330
(g1645
g332
Ntp2250
Rp2251
(dp2252
g1649
g1657
sg1650
g1810
sg356
S'c:/marmalade/7.5/s3e/h/std/sys/socket.h'
p2253
sbsS'glext.h'
p2254
g330
(g1645
g332
Ntp2255
Rp2256
(dp2257
g1649
g1657
sg1650
g2023
sg356
S'c:/marmalade/7.5/s3e/h/GLES/glext.h'
p2258
sbsS'typeinfo.h'
p2259
g330
(g1645
g332
Ntp2260
Rp2261
(dp2262
g1649
g1657
sg1650
g1658
sg356
S'c:/marmalade/7.5/s3e/h/std/c++/typeinfo.h'
p2263
sbsS'typeinfo'
p2264
g330
(g1645
g332
Ntp2265
Rp2266
(dp2267
g1649
g1657
sg1650
g1658
sg356
S'c:/marmalade/7.5/s3e/h/std/c++/typeinfo'
p2268
sbsS'iwsound.config.txt'
p2269
g330
(g1645
g332
Ntp2270
Rp2271
(dp2272
g1649
g1142
sg1650
(lp2273
g1138
ag1149
asg356
g1151
sbsS'fstream.h'
p2274
g330
(g1645
g332
Ntp2275
Rp2276
(dp2277
g1649
g1657
sg1650
g1658
sg356
S'c:/marmalade/7.5/s3e/h/std/c++/fstream.h'
p2278
sbsS'IwGeomMat.h'
p2279
g330
(g1645
g332
Ntp2280
Rp2281
(dp2282
g1649
g1352
sg1650
g1711
sg356
g1368
sbsS's3ePointer.h'
p2283
g330
(g1645
g332
Ntp2284
Rp2285
(dp2286
g1649
g1657
sg1650
g1673
sg356
S'c:/marmalade/7.5/s3e/h/s3ePointer.h'
p2287
sbsS'IwMemBucket.h'
p2288
g330
(g1645
g332
Ntp2289
Rp2290
(dp2291
g1649
g1516
sg1650
g1686
sg356
g1563
sbsS'PVRTexTool.h'
p2292
g330
(g1645
g332
Ntp2293
Rp2294
(dp2295
g1649
g1280
sg1650
(lp2296
g1272
ag1274
asg356
g1283
sbsS's3eGL.h'
p2297
g330
(g1645
g332
Ntp2298
Rp2299
(dp2300
g1649
g1657
sg1650
g1673
sg356
S'c:/marmalade/7.5/s3e/h/s3eGL.h'
p2301
sbsS'IwGeomFVec2.h'
p2302
g330
(g1645
g332
Ntp2303
Rp2304
(dp2305
g1649
g1352
sg1650
g1711
sg356
g1386
sbsS'IwGeomSVec4.h'
p2306
g330
(g1645
g332
Ntp2307
Rp2308
(dp2309
g1649
g1352
sg1650
g1711
sg356
g1388
sbsS'BackgroundEntity.cpp'
p2310
g330
(g1645
g332
Ntp2311
Rp2312
(dp2313
g1649
g1199
sg1650
g1801
sg356
g1256
sbsS'poll.h'
p2314
g330
(g1645
g332
Ntp2315
Rp2316
(dp2317
g1649
g1657
sg1650
g1679
sg356
S'c:/marmalade/7.5/s3e/h/std/poll.h'
p2318
sbsS'IwMatAnim.h'
p2319
g330
(g1645
g332
Ntp2320
Rp2321
(dp2322
g1649
g1452
sg1650
g1791
sg356
g1453
sbsS'Life.cpp'
p2323
g330
(g1645
g332
Ntp2324
Rp2325
(dp2326
g1649
g1199
sg1650
g1801
sg356
g1258
sbsS'IwGeomFVec4.h'
p2327
g330
(g1645
g332
Ntp2328
Rp2329
(dp2330
g1649
g1352
sg1650
g1711
sg356
g1400
sbsS'IwGx.h'
p2331
g330
(g1645
g332
Ntp2332
Rp2333
(dp2334
g1649
g1452
sg1650
g1791
sg356
g1471
sbsS'valarray'
p2335
g330
(g1645
g332
Ntp2336
Rp2337
(dp2338
g1649
g1657
sg1650
g1658
sg356
S'c:/marmalade/7.5/s3e/h/std/c++/valarray'
p2339
sbsS'iosfwd'
p2340
g330
(g1645
g332
Ntp2341
Rp2342
(dp2343
g1649
g1657
sg1650
g1658
sg356
S'c:/marmalade/7.5/s3e/h/std/c++/iosfwd'
p2344
sbsS'gl2.h'
p2345
g330
(g1645
g332
Ntp2346
Rp2347
(dp2348
g1649
g1657
sg1650
g1922
sg356
S'c:/marmalade/7.5/s3e/h/GLES2/gl2.h'
p2349
sbsS'jpegint.h'
p2350
g330
(g1645
g332
Ntp2351
Rp2352
(dp2353
g1649
g1101
sg1650
g1745
sg356
g1116
sbsS'Score.cpp'
p2354
g330
(g1645
g332
Ntp2355
Rp2356
(dp2357
g1649
g1199
sg1650
g1801
sg356
g1212
sbsS'stdiostream.h'
p2358
g330
(g1645
g332
Ntp2359
Rp2360
(dp2361
g1649
g1657
sg1650
g1658
sg356
S'c:/marmalade/7.5/s3e/h/std/c++/stdiostream.h'
p2362
sbsS'mem.h'
p2363
g330
(g1645
g332
Ntp2364
Rp2365
(dp2366
g1649
g1657
sg1650
g1658
sg356
S'c:/marmalade/7.5/s3e/h/std/c++/mem.h'
p2367
sbsS'jerror.h'
p2368
g330
(g1645
g332
Ntp2369
Rp2370
(dp2371
g1649
g1101
sg1650
g1745
sg356
g1099
sbsS'zconf.h'
p2372
g330
(g1645
g332
Ntp2373
Rp2374
(dp2375
g1649
g1621
sg1650
(lp2376
g1616
ag1083
asg356
g1619
sbsS's3e.config.txt'
p2377
g330
(g1645
g332
Ntp2378
Rp2379
(dp2380
g1649
g1657
sg1650
g1673
sg356
S'c:/marmalade/7.5/s3e/s3e.config.txt'
p2381
sbsS'numeric'
p2382
g330
(g1645
g332
Ntp2383
Rp2384
(dp2385
g1649
g1657
sg1650
g1658
sg356
S'c:/marmalade/7.5/s3e/h/std/c++/numeric'
p2386
sbsS'utime.h'
p2387
g330
(g1645
g332
Ntp2388
Rp2389
(dp2390
g1649
g1657
sg1650
g1679
sg356
S'c:/marmalade/7.5/s3e/h/std/utime.h'
p2391
sbsS'jdhuff.h'
p2392
g330
(g1645
g332
Ntp2393
Rp2394
(dp2395
g1649
g1101
sg1650
g1745
sg356
g1102
sbsS'IwResHandlerWAV.cpp'
p2396
g330
(g1645
g332
Ntp2397
Rp2398
(dp2399
g1649
g1142
sg1650
g1697
sg356
g1145
sbsS'un.h'
p2400
g330
(g1645
g332
Ntp2401
Rp2402
(dp2403
g1649
g1657
sg1650
g1810
sg356
S'c:/marmalade/7.5/s3e/h/std/sys/un.h'
p2404
sbsS'IwImage.h'
p2405
g330
(g1645
g332
Ntp2406
Rp2407
(dp2408
g1649
g1516
sg1650
g1686
sg356
g1559
sbsS's3eImagePicker.h'
p2409
g330
(g1645
g332
Ntp2410
Rp2411
(dp2412
g1649
g1657
sg1650
g1884
sg356
S'c:/marmalade/7.5/s3e/h/ext/s3eImagePicker.h'
p2413
sbsS'stdlib.h'
p2414
g330
(g1645
g332
Ntp2415
Rp2416
(dp2417
g1649
g1657
sg1650
g1679
sg356
S'c:/marmalade/7.5/s3e/h/std/stdlib.h'
p2418
sbsS'IwCopyingPtr.h'
p2419
g330
(g1645
g332
Ntp2420
Rp2421
(dp2422
g1649
g1516
sg1650
g1686
sg356
g1598
sbsS'iostream'
p2423
g330
(g1645
g332
Ntp2424
Rp2425
(dp2426
g1649
g1657
sg1650
g1658
sg356
S'c:/marmalade/7.5/s3e/h/std/c++/iostream'
p2427
sbsS'png.h'
p2428
g330
(g1645
g332
Ntp2429
Rp2430
(dp2431
g1649
g1087
sg1650
(lp2432
g1081
ag1083
asg356
g1085
sbsS'stddef.h'
p2433
g330
(g1645
g332
Ntp2434
Rp2435
(dp2436
g1649
g1657
sg1650
g1679
sg356
S'c:/marmalade/7.5/s3e/h/std/stddef.h'
p2437
sbsS'Layer.cpp'
p2438
g330
(g1645
g332
Ntp2439
Rp2440
(dp2441
g1649
g1199
sg1650
g1801
sg356
g1200
sbsS'setjmp_win32.h'
p2442
g330
(g1645
g332
Ntp2443
Rp2444
(dp2445
g1649
g1657
sg1650
g1679
sg356
S'c:/marmalade/7.5/s3e/h/std/setjmp_win32.h'
p2446
sbsS'pauseMenu.h'
p2447
g330
(g1645
g332
Ntp2448
Rp2449
(dp2450
g1649
g1199
sg1650
g1801
sg356
g1250
sbsS'IwGxPrint.h'
p2451
g330
(g1645
g332
Ntp2452
Rp2453
(dp2454
g1649
g1452
sg1650
g1791
sg356
g1461
sbsS'iwgx_public.defines.txt'
p2455
g330
(g1645
g332
Ntp2456
Rp2457
(dp2458
g1649
g1452
sg1650
g1791
sg356
g1473
sbsS'streambuf.h'
p2459
g330
(g1645
g332
Ntp2460
Rp2461
(dp2462
g1649
g1657
sg1650
g1658
sg356
S'c:/marmalade/7.5/s3e/h/std/c++/streambuf.h'
p2463
sbsS'resources.cpp'
p2464
g330
(g1645
g332
Ntp2465
Rp2466
(dp2467
g1649
g1199
sg1650
g1801
sg356
g1236
sbsS'IwGeomFPlane.h'
p2468
g330
(g1645
g332
Ntp2469
Rp2470
(dp2471
g1649
g1352
sg1650
g1711
sg356
g1416
sbsS'wchar.h'
p2472
g330
(g1645
g332
Ntp2473
Rp2474
(dp2475
g1649
g1657
sg1650
g1679
sg356
S'c:/marmalade/7.5/s3e/h/std/wchar.h'
p2476
sbsS's3eCameraCapture.h'
p2477
g330
(g1645
g332
Ntp2478
Rp2479
(dp2480
g1649
g1657
sg1650
g1884
sg356
S'c:/marmalade/7.5/s3e/h/ext/s3eCameraCapture.h'
p2481
sbsS'eglext.h'
p2482
g330
(g1645
g332
Ntp2483
Rp2484
(dp2485
g1649
g1657
sg1650
g2015
sg356
S'c:/marmalade/7.5/s3e/h/EGL/eglext.h'
p2486
sbsS'IwResHandlerImage.h'
p2487
g330
(g1645
g332
Ntp2488
Rp2489
(dp2490
g1649
g1428
sg1650
g1930
sg356
g1446
sbsS'strstream.h'
p2491
g330
(g1645
g332
Ntp2492
Rp2493
(dp2494
g1649
g1657
sg1650
g1658
sg356
S'c:/marmalade/7.5/s3e/h/std/c++/strstream.h'
p2495
sbsS'tiniconv.h'
p2496
g330
(g1645
g332
Ntp2497
Rp2498
(dp2499
g1649
g1135
sg1650
g2140
sg356
g1136
sbsS'IwGLExt.h'
p2500
g330
(g1645
g332
Ntp2501
Rp2502
(dp2503
g1649
g1309
sg1650
g1667
sg356
g1312
sbsS'app.icf'
p2504
g330
(g1645
g332
Ntp2505
Rp2506
(dp2507
g1649
(dp2508
sg1650
g4
sg356
S'c:/Marmalade/7.5/examples/GameTutorial/CPP/marm1/data/app.icf'
p2509
sbsS'IwClassFactory.h'
p2510
g330
(g1645
g332
Ntp2511
Rp2512
(dp2513
g1649
g1516
sg1650
g1686
sg356
g1533
sbsS'file.h'
p2514
g330
(g1645
g332
Ntp2515
Rp2516
(dp2517
g1649
g1657
sg1650
g1810
sg356
S'c:/marmalade/7.5/s3e/h/std/sys/file.h'
p2518
sbsS'cstring'
p2519
g330
(g1645
g332
Ntp2520
Rp2521
(dp2522
g1649
g1657
sg1650
g1658
sg356
S'c:/marmalade/7.5/s3e/h/std/c++/cstring'
p2523
sbsS'IwSoundInst.cpp'
p2524
g330
(g1645
g332
Ntp2525
Rp2526
(dp2527
g1649
g1142
sg1650
g1697
sg356
g1167
sbsS'iwutil.config.txt'
p2528
g330
(g1645
g332
Ntp2529
Rp2530
(dp2531
g1649
g1516
sg1650
g1686
sg356
g1549
sbsS's3eSMS.h'
p2532
g330
(g1645
g332
Ntp2533
Rp2534
(dp2535
g1649
g1657
sg1650
g1884
sg356
S'c:/marmalade/7.5/s3e/h/ext/s3eSMS.h'
p2536
sbsS'limits.h'
p2537
g330
(g1645
g332
Ntp2538
Rp2539
(dp2540
g1649
g1657
sg1650
g1679
sg356
S'c:/marmalade/7.5/s3e/h/std/limits.h'
p2541
sbsS'scene.h'
p2542
g330
(g1645
g332
Ntp2543
Rp2544
(dp2545
g1649
g1199
sg1650
g1801
sg356
g1264
sbsS'IwMaterial.h'
p2546
g330
(g1645
g332
Ntp2547
Rp2548
(dp2549
g1649
g1452
sg1650
g1791
sg356
g1481
sbsS'Powerup.h'
p2550
g330
(g1645
g332
Ntp2551
Rp2552
(dp2553
g1649
g1199
sg1650
g1801
sg356
g1252
sbsS'PVRTexTool_interface.cpp'
p2554
g330
(g1645
g332
Ntp2555
Rp2556
(dp2557
g1649
g1280
sg1650
(lp2558
g1272
ag1274
ag1276
asg356
g1281
sbsS'IwGxSurface.h'
p2559
g330
(g1645
g332
Ntp2560
Rp2561
(dp2562
g1649
g1452
sg1650
g1791
sg356
g1467
sbsS's3eSocket.h'
p2563
g330
(g1645
g332
Ntp2564
Rp2565
(dp2566
g1649
g1657
sg1650
g1673
sg356
S'c:/marmalade/7.5/s3e/h/s3eSocket.h'
p2567
sbsS'Life.h'
p2568
g330
(g1645
g332
Ntp2569
Rp2570
(dp2571
g1649
g1199
sg1650
g1801
sg356
g1234
sbsS'IwAutoFile.h'
p2572
g330
(g1645
g332
Ntp2573
Rp2574
(dp2575
g1649
g1516
sg1650
g1686
sg356
g1577
sbsS'ipc.h'
p2576
g330
(g1645
g332
Ntp2577
Rp2578
(dp2579
g1649
g1657
sg1650
g1810
sg356
S'c:/marmalade/7.5/s3e/h/std/sys/ipc.h'
p2580
sbsS'poll_1.h'
p2581
g330
(g1645
g332
Ntp2582
Rp2583
(dp2584
g1649
g1657
sg1650
g1810
sg356
S'c:/marmalade/7.5/s3e/h/std/sys/poll.h'
p2585
sbsS's3eThread.h'
p2586
g330
(g1645
g332
Ntp2587
Rp2588
(dp2589
g1649
g1657
sg1650
g1673
sg356
S'c:/marmalade/7.5/s3e/h/s3eThread.h'
p2590
sbsS'ucontext.h'
p2591
g330
(g1645
g332
Ntp2592
Rp2593
(dp2594
g1649
g1657
sg1650
g1679
sg356
S'c:/marmalade/7.5/s3e/h/std/ucontext.h'
p2595
sbsS'time.h'
p2596
g330
(g1645
g332
Ntp2597
Rp2598
(dp2599
g1649
g1657
sg1650
g1679
sg356
S'c:/marmalade/7.5/s3e/h/std/time.h'
p2600
sbsS'jchuff.h'
p2601
g330
(g1645
g332
Ntp2602
Rp2603
(dp2604
g1649
g1101
sg1650
g1745
sg356
g1118
sbsS'IwSoundPCM.cpp'
p2605
g330
(g1645
g332
Ntp2606
Rp2607
(dp2608
g1649
g1142
sg1650
g1697
sg356
g1163
sbsS's3eSoundRecord.h'
p2609
g330
(g1645
g332
Ntp2610
Rp2611
(dp2612
g1649
g1657
sg1650
g1673
sg356
S'c:/marmalade/7.5/s3e/h/s3eSoundRecord.h'
p2613
sbsS'IwFibre.h'
p2614
g330
(g1645
g332
Ntp2615
Rp2616
(dp2617
g1649
g1516
sg1650
g1686
sg356
g1602
sbsS's3eVersion.h'
p2618
g330
(g1645
g332
Ntp2619
Rp2620
(dp2621
g1649
g1657
sg1650
g1673
sg356
S'c:/marmalade/7.5/s3e/h/s3eVersion.h'
p2622
sbsS'input.cpp'
p2623
g330
(g1645
g332
Ntp2624
Rp2625
(dp2626
g1649
g1199
sg1650
g1801
sg356
g1226
sbsS'IwSoundGroup.h'
p2627
g330
(g1645
g332
Ntp2628
Rp2629
(dp2630
g1649
g1142
sg1650
g1697
sg356
g1188
sbsS'IwSoundWAV.h'
p2631
g330
(g1645
g332
Ntp2632
Rp2633
(dp2634
g1649
g1142
sg1650
g1697
sg356
g1169
sbsS'IwGxFontGlyph.h'
p2635
g330
(g1645
g332
Ntp2636
Rp2637
(dp2638
g1649
g1330
sg1650
g1651
sg356
g1328
sbsS's3eTypes.h'
p2639
g330
(g1645
g332
Ntp2640
Rp2641
(dp2642
g1649
g1657
sg1650
g1673
sg356
S'c:/marmalade/7.5/s3e/h/s3eTypes.h'
p2643
sbsS'IwSoundSpec.h'
p2644
g330
(g1645
g332
Ntp2645
Rp2646
(dp2647
g1649
g1142
sg1650
g1697
sg356
g1157
sbsS'signal_2.h'
p2648
g330
(g1645
g332
Ntp2649
Rp2650
(dp2651
g1649
g1657
sg1650
g1658
sg356
S'c:/marmalade/7.5/s3e/h/std/c++/signal.h'
p2652
sbsS'termios.h'
p2653
g330
(g1645
g332
Ntp2654
Rp2655
(dp2656
g1649
g1657
sg1650
g1679
sg356
S'c:/marmalade/7.5/s3e/h/std/termios.h'
p2657
sbsS'iw2dscenegraph.mkf'
p2658
g330
(g1645
g332
Ntp2659
Rp2660
(dp2661
g1649
g1301
sg1650
g1972
sg356
g1299
sbsS'slist'
p2662
g330
(g1645
g332
Ntp2663
Rp2664
(dp2665
g1649
g1657
sg1650
g1658
sg356
S'c:/marmalade/7.5/s3e/h/std/c++/slist'
p2666
sbsS'cstdlib'
p2667
g330
(g1645
g332
Ntp2668
Rp2669
(dp2670
g1649
g1657
sg1650
g1658
sg356
S'c:/marmalade/7.5/s3e/h/std/c++/cstdlib'
p2671
sbsS's3eLocation.h'
p2672
g330
(g1645
g332
Ntp2673
Rp2674
(dp2675
g1649
g1657
sg1650
g1673
sg356
S'c:/marmalade/7.5/s3e/h/s3eLocation.h'
p2676
sbsS'IwMemBucketHelpers.h'
p2677
g330
(g1645
g332
Ntp2678
Rp2679
(dp2680
g1649
g1516
sg1650
g1686
sg356
g1553
sbsS's3eHash.h'
p2681
g330
(g1645
g332
Ntp2682
Rp2683
(dp2684
g1649
g1657
sg1650
g1673
sg356
S'c:/marmalade/7.5/s3e/h/s3eHash.h'
p2685
sbsS'IwSoundGroup.cpp'
p2686
g330
(g1645
g332
Ntp2687
Rp2688
(dp2689
g1649
g1142
sg1650
g1697
sg356
g1140
sbsS'Enemymanager.h'
p2690
g330
(g1645
g332
Ntp2691
Rp2692
(dp2693
g1649
g1199
sg1650
g1801
sg356
g1242
sbsS'IwGeomFMat.h'
p2694
g330
(g1645
g332
Ntp2695
Rp2696
(dp2697
g1649
g1352
sg1650
g1711
sg356
g1380
sbsS'type_traits.h'
p2698
g330
(g1645
g332
Ntp2699
Rp2700
(dp2701
g1649
g1657
sg1650
g1658
sg356
S'c:/marmalade/7.5/s3e/h/std/c++/type_traits.h'
p2702
sbsS's3eAtomic.h'
p2703
g330
(g1645
g332
Ntp2704
Rp2705
(dp2706
g1649
g1657
sg1650
g1673
sg356
S'c:/marmalade/7.5/s3e/h/s3eAtomic.h'
p2707
sbsS'IwMenu.h'
p2708
g330
(g1645
g332
Ntp2709
Rp2710
(dp2711
g1649
g1516
sg1650
g1686
sg356
g1606
sbsS'IwResHandlerITX.h'
p2712
g330
(g1645
g332
Ntp2713
Rp2714
(dp2715
g1649
g1428
sg1650
g1930
sg356
g1426
sbsS'IwSoundData.h'
p2716
g330
(g1645
g332
Ntp2717
Rp2718
(dp2719
g1649
g1142
sg1650
g1697
sg356
g1181
sbsS'IwArray.h'
p2720
g330
(g1645
g332
Ntp2721
Rp2722
(dp2723
g1649
g1516
sg1650
g1686
sg356
g1604
sbsS'IwUTF8.h'
p2724
g330
(g1645
g332
Ntp2725
Rp2726
(dp2727
g1649
g1516
sg1650
g1686
sg356
g1547
sbsS'math_rvct.h'
p2728
g330
(g1645
g332
Ntp2729
Rp2730
(dp2731
g1649
g1657
sg1650
g1679
sg356
S'c:/marmalade/7.5/s3e/h/std/math_rvct.h'
p2732
sbsS'IwUtil.h'
p2733
g330
(g1645
g332
Ntp2734
Rp2735
(dp2736
g1649
g1516
sg1650
g1686
sg356
g1588
sbsS'IwFColour.h'
p2737
g330
(g1645
g332
Ntp2738
Rp2739
(dp2740
g1649
g1452
sg1650
g1791
sg356
g1487
sbsS'wctype.h'
p2741
g330
(g1645
g332
Ntp2742
Rp2743
(dp2744
g1649
g1657
sg1650
g1679
sg356
S'c:/marmalade/7.5/s3e/h/std/wctype.h'
p2745
sbsS'mainMenu.h'
p2746
g330
(g1645
g332
Ntp2747
Rp2748
(dp2749
g1649
g1199
sg1650
g1801
sg356
g1202
sbsS'cstddef'
p2750
g330
(g1645
g332
Ntp2751
Rp2752
(dp2753
g1649
g1657
sg1650
g1658
sg356
S'c:/marmalade/7.5/s3e/h/std/c++/cstddef'
p2754
sbsS'assert.h'
p2755
g330
(g1645
g332
Ntp2756
Rp2757
(dp2758
g1649
g1657
sg1650
g1679
sg356
S'c:/marmalade/7.5/s3e/h/std/assert.h'
p2759
sbsS'mman.h'
p2760
g330
(g1645
g332
Ntp2761
Rp2762
(dp2763
g1649
g1657
sg1650
g1810
sg356
S'c:/marmalade/7.5/s3e/h/std/sys/mman.h'
p2764
sbsS'IwRandom.h'
p2765
g330
(g1645
g332
Ntp2766
Rp2767
(dp2768
g1649
g1516
sg1650
g1686
sg356
g1543
sbsS'libgen.h'
p2769
g330
(g1645
g332
Ntp2770
Rp2771
(dp2772
g1649
g1657
sg1650
g1679
sg356
S'c:/marmalade/7.5/s3e/h/std/libgen.h'
p2773
sbsS'utsname.h'
p2774
g330
(g1645
g332
Ntp2775
Rp2776
(dp2777
g1649
g1657
sg1650
g1810
sg356
S'c:/marmalade/7.5/s3e/h/std/sys/utsname.h'
p2778
sbsS'wait.h'
p2779
g330
(g1645
g332
Ntp2780
Rp2781
(dp2782
g1649
g1657
sg1650
g1810
sg356
S'c:/marmalade/7.5/s3e/h/std/sys/wait.h'
p2783
sbsS'param.h'
p2784
g330
(g1645
g332
Ntp2785
Rp2786
(dp2787
g1649
g1657
sg1650
g1810
sg356
S'c:/marmalade/7.5/s3e/h/std/sys/param.h'
p2788
sbsS'IwDivide.h'
p2789
g330
(g1645
g332
Ntp2790
Rp2791
(dp2792
g1649
g1516
sg1650
g1686
sg356
g1523
sbsS'Iw2DSceneGraphCore.cpp'
p2793
g330
(g1645
g332
Ntp2794
Rp2795
(dp2796
g1649
g1509
sg1650
(lp2797
S"'Marmalade Studio'"
p2798
ag1502
asg356
g1510
sbsS'IwResManager.h'
p2799
g330
(g1645
g332
Ntp2800
Rp2801
(dp2802
g1649
g1428
sg1650
g1930
sg356
g1435
sbsS'IwSoundManager.h'
p2803
g330
(g1645
g332
Ntp2804
Rp2805
(dp2806
g1649
g1142
sg1650
g1697
sg356
g1161
sbsS'cwctype'
p2807
g330
(g1645
g332
Ntp2808
Rp2809
(dp2810
g1649
g1657
sg1650
g1658
sg356
S'c:/marmalade/7.5/s3e/h/std/c++/cwctype'
p2811
sbsS'set'
p2812
g330
(g1645
g332
Ntp2813
Rp2814
(dp2815
g1649
g1657
sg1650
g1658
sg356
S'c:/marmalade/7.5/s3e/h/std/c++/set'
p2816
sbsS'IwGeomSQuat.h'
p2817
g330
(g1645
g332
Ntp2818
Rp2819
(dp2820
g1649
g1352
sg1650
g1711
sg356
g1376
sbsS'locale'
p2821
g330
(g1645
g332
Ntp2822
Rp2823
(dp2824
g1649
g1657
sg1650
g1658
sg356
S'c:/marmalade/7.5/s3e/h/std/c++/locale'
p2825
sbsS'cstdio'
p2826
g330
(g1645
g332
Ntp2827
Rp2828
(dp2829
g1649
g1657
sg1650
g1658
sg356
S'c:/marmalade/7.5/s3e/h/std/c++/cstdio'
p2830
sbsS'cdjpeg.h'
p2831
g330
(g1645
g332
Ntp2832
Rp2833
(dp2834
g1649
g1101
sg1650
g1745
sg356
g1120
sbsS'audio.h'
p2835
g330
(g1645
g332
Ntp2836
Rp2837
(dp2838
g1649
g1199
sg1650
g1801
sg356
g1220
sbsS'IwList.h'
p2839
g330
(g1645
g332
Ntp2840
Rp2841
(dp2842
g1649
g1516
sg1650
g1686
sg356
g1575
sbsS'pauseMenu.cpp'
p2843
g330
(g1645
g332
Ntp2844
Rp2845
(dp2846
g1649
g1199
sg1650
g1801
sg356
g1262
sbsS'inttypes.h'
p2847
g330
(g1645
g332
Ntp2848
Rp2849
(dp2850
g1649
g1657
sg1650
g1679
sg356
S'c:/marmalade/7.5/s3e/h/std/inttypes.h'
p2851
sbsS'dirent.h'
p2852
g330
(g1645
g332
Ntp2853
Rp2854
(dp2855
g1649
g1657
sg1650
g1679
sg356
S'c:/marmalade/7.5/s3e/h/std/dirent.h'
p2856
sbsS'IwGeomVec3.h'
p2857
g330
(g1645
g332
Ntp2858
Rp2859
(dp2860
g1649
g1352
sg1650
g1711
sg356
g1370
sbsS'transupp.h'
p2861
g330
(g1645
g332
Ntp2862
Rp2863
(dp2864
g1649
g1101
sg1650
g1745
sg356
g1106
sbsS'IwMath.h'
p2865
g330
(g1645
g332
Ntp2866
Rp2867
(dp2868
g1649
g1516
sg1650
g1686
sg356
g1517
sbsS'IwGeomQuat.h'
p2869
g330
(g1645
g332
Ntp2870
Rp2871
(dp2872
g1649
g1352
sg1650
g1711
sg356
g1420
sbsS'Iw2DSceneGraph.cpp'
p2873
g330
(g1645
g332
Ntp2874
Rp2875
(dp2876
g1649
g1294
sg1650
g1972
sg356
g1292
sbsS'glplatform.h'
p2877
g330
(g1645
g332
Ntp2878
Rp2879
(dp2880
g1649
g1657
sg1650
g2023
sg356
S'c:/marmalade/7.5/s3e/h/GLES/glplatform.h'
p2881
sbsS's3e-default.mkf'
p2882
g330
(g1645
g332
Ntp2883
Rp2884
(dp2885
g1649
g1641
sg1650
(lp2886
g1637
asg356
g1639
sbsS'iwgl.config.txt'
p2887
g330
(g1645
g332
Ntp2888
Rp2889
(dp2890
g1649
g1309
sg1650
g1667
sg356
g1310
sbsS'bitset'
p2891
g330
(g1645
g332
Ntp2892
Rp2893
(dp2894
g1649
g1657
sg1650
g1658
sg356
S'c:/marmalade/7.5/s3e/h/std/c++/bitset'
p2895
sbsS'alloca.h'
p2896
g330
(g1645
g332
Ntp2897
Rp2898
(dp2899
g1649
g1657
sg1650
g1679
sg356
S'c:/marmalade/7.5/s3e/h/std/alloca.h'
p2900
sbsS'IwResHandler.h'
p2901
g330
(g1645
g332
Ntp2902
Rp2903
(dp2904
g1649
g1428
sg1650
g1930
sg356
g1444
sbsS'IwResHandlerMTL.h'
p2905
g330
(g1645
g332
Ntp2906
Rp2907
(dp2908
g1649
g1452
sg1650
g1791
sg356
g1459
sbsS'IwRuntime.h'
p2909
g330
(g1645
g332
Ntp2910
Rp2911
(dp2912
g1649
g1516
sg1650
g1686
sg356
g1567
sbsS'limits'
p2913
g330
(g1645
g332
Ntp2914
Rp2915
(dp2916
g1649
g1657
sg1650
g1658
sg356
S'c:/marmalade/7.5/s3e/h/std/c++/limits'
p2917
sbsS'IwGeomBBox.h'
p2918
g330
(g1645
g332
Ntp2919
Rp2920
(dp2921
g1649
g1352
sg1650
g1711
sg356
g1410
sbsS's3eContacts.h'
p2922
g330
(g1645
g332
Ntp2923
Rp2924
(dp2925
g1649
g1657
sg1650
g1673
sg356
S'c:/marmalade/7.5/s3e/h/s3eContacts.h'
p2926
sbsS's3eLicense.h'
p2927
g330
(g1645
g332
Ntp2928
Rp2929
(dp2930
g1649
g1657
sg1650
g1673
sg356
S'c:/marmalade/7.5/s3e/h/s3eLicense.h'
p2931
sbsS'iwgx.config.txt'
p2932
g330
(g1645
g332
Ntp2933
Rp2934
(dp2935
g1649
g1452
sg1650
g1791
sg356
g1494
sbsS'IwTextParser.h'
p2936
g330
(g1645
g332
Ntp2937
Rp2938
(dp2939
g1649
g1516
sg1650
g1686
sg356
g1596
sbsS's3eTimer.h'
p2940
g330
(g1645
g332
Ntp2941
Rp2942
(dp2943
g1649
g1657
sg1650
g1673
sg356
S'c:/marmalade/7.5/s3e/h/s3eTimer.h'
p2944
sbsS'IwGeomVec.h'
p2945
g330
(g1645
g332
Ntp2946
Rp2947
(dp2948
g1649
g1352
sg1650
g1711
sg356
g1396
sbsS'IwSerialise.h'
p2949
g330
(g1645
g332
Ntp2950
Rp2951
(dp2952
g1649
g1516
sg1650
g1686
sg356
g1614
sbsS'cstdarg'
p2953
g330
(g1645
g332
Ntp2954
Rp2955
(dp2956
g1649
g1657
sg1650
g1658
sg356
S'c:/marmalade/7.5/s3e/h/std/c++/cstdarg'
p2957
sbsS'gl2ext.h'
p2958
g330
(g1645
g332
Ntp2959
Rp2960
(dp2961
g1649
g1657
sg1650
g1922
sg356
S'c:/marmalade/7.5/s3e/h/GLES2/gl2ext.h'
p2962
sbsS'BackgroundEntity.h'
p2963
g330
(g1645
g332
Ntp2964
Rp2965
(dp2966
g1649
g1199
sg1650
g1801
sg356
g1248
sbsS'IwChar.h'
p2967
g330
(g1645
g332
Ntp2968
Rp2969
(dp2970
g1649
g1516
sg1650
g1686
sg356
g1541
sbsS's3eSound.h'
p2971
g330
(g1645
g332
Ntp2972
Rp2973
(dp2974
g1649
g1657
sg1650
g1673
sg356
S'c:/marmalade/7.5/s3e/h/s3eSound.h'
p2975
sbsS's3eIOSBackgroundAudio.h'
p2976
g330
(g1645
g332
Ntp2977
Rp2978
(dp2979
g1649
g1657
sg1650
g1884
sg356
S'c:/marmalade/7.5/s3e/h/ext/s3eIOSBackgroundAudio.h'
p2980
sbsS'exception.h'
p2981
g330
(g1645
g332
Ntp2982
Rp2983
(dp2984
g1649
g1657
sg1650
g1658
sg356
S'c:/marmalade/7.5/s3e/h/std/c++/exception.h'
p2985
sbsS'iwgeom.config.txt'
p2986
g330
(g1645
g332
Ntp2987
Rp2988
(dp2989
g1649
g1352
sg1650
g1711
sg356
g1418
sbsS'Shark.h'
p2990
g330
(g1645
g332
Ntp2991
Rp2992
(dp2993
g1649
g1199
sg1650
g1801
sg356
g1228
sbsS'iwgx.mkf'
p2994
g330
(g1645
g332
Ntp2995
Rp2996
(dp2997
g1649
g1493
sg1650
g1791
sg356
g1491
sbsS'gl.h'
p2998
g330
(g1645
g332
Ntp2999
Rp3000
(dp3001
g1649
g1657
sg1650
g2023
sg356
S'c:/marmalade/7.5/s3e/h/GLES/gl.h'
p3002
sbsS'zlib.h'
p3003
g330
(g1645
g332
Ntp3004
Rp3005
(dp3006
g1649
g1621
sg1650
g2376
sg356
g1622
sbsS'temp_defines_release.h'
p3007
g330
(g1645
g332
Ntp3008
Rp3009
(dp3010
g1649
(lp3011
sg1650
(lp3012
S"'generated files'"
p3013
asg356
S'c:/Marmalade/7.5/examples/GameTutorial/CPP/marm1/build_stage4_vc12/temp_defines_release.h'
p3014
sbsS'iwgl.mkf'
p3015
g330
(g1645
g332
Ntp3016
Rp3017
(dp3018
g1649
g1306
sg1650
g1667
sg356
g1304
sbsS'IwColour.h'
p3019
g330
(g1645
g332
Ntp3020
Rp3021
(dp3022
g1649
g1452
sg1650
g1791
sg356
g1496
sbsS's3eLibrary.h'
p3023
g330
(g1645
g332
Ntp3024
Rp3025
(dp3026
g1649
g1657
sg1650
g1884
sg356
S'c:/marmalade/7.5/s3e/h/ext/s3eLibrary.h'
p3027
sbsS'types.h'
p3028
g330
(g1645
g332
Ntp3029
Rp3030
(dp3031
g1649
g1657
sg1650
g1810
sg356
S'c:/marmalade/7.5/s3e/h/std/sys/types.h'
p3032
sbsS'ifaddrs.h'
p3033
g330
(g1645
g332
Ntp3034
Rp3035
(dp3036
g1649
g1657
sg1650
g1679
sg356
S'c:/marmalade/7.5/s3e/h/std/ifaddrs.h'
p3037
sbsS'strstream'
p3038
g330
(g1645
g332
Ntp3039
Rp3040
(dp3041
g1649
g1657
sg1650
g1658
sg356
S'c:/marmalade/7.5/s3e/h/std/c++/strstream'
p3042
sbsS'IwTween.cpp'
p3043
g330
(g1645
g332
Ntp3044
Rp3045
(dp3046
g1649
g1631
sg1650
g2187
sg356
g1632
sbsS'exception'
p3047
g330
(g1645
g332
Ntp3048
Rp3049
(dp3050
g1649
g1657
sg1650
g1658
sg356
S'c:/marmalade/7.5/s3e/h/std/c++/exception'
p3051
sbsS'Enemymanager.cpp'
p3052
g330
(g1645
g332
Ntp3053
Rp3054
(dp3055
g1649
g1199
sg1650
g1801
sg356
g1214
sbsS'Powerup.cpp'
p3056
g330
(g1645
g332
Ntp3057
Rp3058
(dp3059
g1649
g1199
sg1650
g1801
sg356
g1197
sbsS'rlocks.h'
p3060
g330
(g1645
g332
Ntp3061
Rp3062
(dp3063
g1649
g1657
sg1650
g1658
sg356
S'c:/marmalade/7.5/s3e/h/std/c++/rlocks.h'
p3064
sbsS'ioctl.h'
p3065
g330
(g1645
g332
Ntp3066
Rp3067
(dp3068
g1649
g1657
sg1650
g1810
sg356
S'c:/marmalade/7.5/s3e/h/std/sys/ioctl.h'
p3069
sbsS'sem.h'
p3070
g330
(g1645
g332
Ntp3071
Rp3072
(dp3073
g1649
g1657
sg1650
g1810
sg356
S'c:/marmalade/7.5/s3e/h/std/sys/sem.h'
p3074
sbsS'jinclude.h'
p3075
g330
(g1645
g332
Ntp3076
Rp3077
(dp3078
g1649
g1101
sg1650
g1745
sg356
g1108
sbsS'IwEvent.h'
p3079
g330
(g1645
g332
Ntp3080
Rp3081
(dp3082
g1649
g1516
sg1650
g1686
sg356
g1600
sbsS'IwOptimiseSize.h'
p3083
g330
(g1645
g332
Ntp3084
Rp3085
(dp3086
g1649
g1516
sg1650
g1686
sg356
g1565
sbsS'iwgxfont_public.defines.txt'
p3087
g330
(g1645
g332
Ntp3088
Rp3089
(dp3090
g1649
g1330
sg1650
g1651
sg356
g1346
sbsS'iconv.h'
p3091
g330
(g1645
g332
Ntp3092
Rp3093
(dp3094
g1649
g1657
sg1650
g1679
sg356
S'c:/marmalade/7.5/s3e/h/std/iconv.h'
p3095
sbsS's3eDevice.h'
p3096
g330
(g1645
g332
Ntp3097
Rp3098
(dp3099
g1649
g1657
sg1650
g1673
sg356
S'c:/marmalade/7.5/s3e/h/s3eDevice.h'
p3100
sbsS'IwGeomSphere.h'
p3101
g330
(g1645
g332
Ntp3102
Rp3103
(dp3104
g1649
g1352
sg1650
g1711
sg356
g1353
sbsS'tiniconv.mkf'
p3105
g330
(g1645
g332
Ntp3106
Rp3107
(dp3108
g1649
g1132
sg1650
g2140
sg356
g1130
sbsS'iw2dscenegraph.defines.txt'
p3109
g330
(g1645
g332
Ntp3110
Rp3111
(dp3112
g1649
g1294
sg1650
g1972
sg356
g1295
sbsS'jdct.h'
p3113
g330
(g1645
g332
Ntp3114
Rp3115
(dp3116
g1649
g1101
sg1650
g1745
sg356
g1112
sbsS'cctype'
p3117
g330
(g1645
g332
Ntp3118
Rp3119
(dp3120
g1649
g1657
sg1650
g1658
sg356
S'c:/marmalade/7.5/s3e/h/std/c++/cctype'
p3121
sbsS'IwSoundADPCM.cpp'
p3122
g330
(g1645
g332
Ntp3123
Rp3124
(dp3125
g1649
g1142
sg1650
g1697
sg356
g1175
sbsS's3eConfig.h'
p3126
g330
(g1645
g332
Ntp3127
Rp3128
(dp3129
g1649
g1657
sg1650
g1673
sg356
S'c:/marmalade/7.5/s3e/h/s3eConfig.h'
p3130
sbsS'IwHashString.h'
p3131
g330
(g1645
g332
Ntp3132
Rp3133
(dp3134
g1649
g1516
sg1650
g1686
sg356
g1581
sbsS'stat.h'
p3135
g330
(g1645
g332
Ntp3136
Rp3137
(dp3138
g1649
g1657
sg1650
g1810
sg356
S'c:/marmalade/7.5/s3e/h/std/sys/stat.h'
p3139
sbsS'byteswap.h'
p3140
g330
(g1645
g332
Ntp3141
Rp3142
(dp3143
g1649
g1657
sg1650
g1679
sg356
S'c:/marmalade/7.5/s3e/h/std/byteswap.h'
p3144
sbsS'iwresmanager.mkf'
p3145
g330
(g1645
g332
Ntp3146
Rp3147
(dp3148
g1649
g1439
sg1650
g1930
sg356
g1437
sbsS'IwUtilInitTerm.h'
p3149
g330
(g1645
g332
Ntp3150
Rp3151
(dp3152
g1649
g1516
sg1650
g1686
sg356
g1610
sbsS'pthread_1.h'
p3153
g330
(g1645
g332
Ntp3154
Rp3155
(dp3156
g1649
g1657
sg1650
g1658
sg356
S'c:/marmalade/7.5/s3e/h/std/c++/pthread.h'
p3157
sbsS'iw2d.mkf'
p3158
g330
(g1645
g332
Ntp3159
Rp3160
(dp3161
g1649
g1325
sg1650
g1750
sg356
g1323
sbsS'complex'
p3162
g330
(g1645
g332
Ntp3163
Rp3164
(dp3165
g1649
g1657
sg1650
g1658
sg356
S'c:/marmalade/7.5/s3e/h/std/c++/complex'
p3166
sbsS'algorithm'
p3167
g330
(g1645
g332
Ntp3168
Rp3169
(dp3170
g1649
g1657
sg1650
g1658
sg356
S'c:/marmalade/7.5/s3e/h/std/c++/algorithm'
p3171
sbsS's3e.icf'
p3172
g330
(g1645
g332
Ntp3173
Rp3174
(dp3175
g1649
g1657
sg1650
g1673
sg356
S'c:/marmalade/7.5/s3e/s3e.icf'
p3176
sbsS'resources.h'
p3177
g330
(g1645
g332
Ntp3178
Rp3179
(dp3180
g1649
g1199
sg1650
g1801
sg356
g1222
sbsS'IwGxFontState.h'
p3181
g330
(g1645
g332
Ntp3182
Rp3183
(dp3184
g1649
g1330
sg1650
g1651
sg356
g1335
sbsS'marmaladeexampleresources.mkf'
p3185
g330
(g1645
g332
Ntp3186
Rp3187
(dp3188
g1649
g1194
sg1650
(lp3189
g1190
asg356
g1192
sbsS'stdio.h'
p3190
g330
(g1645
g332
Ntp3191
Rp3192
(dp3193
g1649
g1657
sg1650
g1679
sg356
S'c:/marmalade/7.5/s3e/h/std/stdio.h'
p3194
sbsS'jmemsys.h'
p3195
g330
(g1645
g332
Ntp3196
Rp3197
(dp3198
g1649
g1101
sg1650
g1745
sg356
g1114
sbsS'ios'
p3199
g330
(g1645
g332
Ntp3200
Rp3201
(dp3202
g1649
g1657
sg1650
g1658
sg356
S'c:/marmalade/7.5/s3e/h/std/c++/ios'
p3203
sbsS'IwTween.h'
p3204
g330
(g1645
g332
Ntp3205
Rp3206
(dp3207
g1649
g1631
sg1650
g2187
sg356
g1629
sbsS'PVRTexTool.defines.txt'
p3208
g330
(g1645
g332
Ntp3209
Rp3210
(dp3211
g1649
g1280
sg1650
g2558
sg356
g1278
sbsS'stack'
p3212
g330
(g1645
g332
Ntp3213
Rp3214
(dp3215
g1649
g1657
sg1650
g1658
sg356
S'c:/marmalade/7.5/s3e/h/std/c++/stack'
p3216
sbsS'IwSoundParams.h'
p3217
g330
(g1645
g332
Ntp3218
Rp3219
(dp3220
g1649
g1142
sg1650
g1697
sg356
g1173
sbsS'new.h'
p3221
g330
(g1645
g332
Ntp3222
Rp3223
(dp3224
g1649
g1657
sg1650
g1658
sg356
S'c:/marmalade/7.5/s3e/h/std/c++/new.h'
p3225
sbsS's3eEMail.h'
p3226
g330
(g1645
g332
Ntp3227
Rp3228
(dp3229
g1649
g1657
sg1650
g1884
sg356
S'c:/marmalade/7.5/s3e/h/ext/s3eEMail.h'
p3230
sbsS's3eVideo.h'
p3231
g330
(g1645
g332
Ntp3232
Rp3233
(dp3234
g1649
g1657
sg1650
g1673
sg356
S'c:/marmalade/7.5/s3e/h/s3eVideo.h'
p3235
sbsS'pngconf.h'
p3236
g330
(g1645
g332
Ntp3237
Rp3238
(dp3239
g1649
g1087
sg1650
g2432
sg356
g1088
sbsS'pwd.h'
p3240
g330
(g1645
g332
Ntp3241
Rp3242
(dp3243
g1649
g1657
sg1650
g1679
sg356
S'c:/marmalade/7.5/s3e/h/std/pwd.h'
p3244
sbsS'IwOptimiseThumb.h'
p3245
g330
(g1645
g332
Ntp3246
Rp3247
(dp3248
g1649
g1516
sg1650
g1686
sg356
g1583
sbsS'gl3.h'
p3249
g330
(g1645
g332
Ntp3250
Rp3251
(dp3252
g1649
g1657
sg1650
g1983
sg356
S'c:/marmalade/7.5/s3e/h/GLES3/gl3.h'
p3253
sbsS'IwClip.h'
p3254
g330
(g1645
g332
Ntp3255
Rp3256
(dp3257
g1649
g1452
sg1650
g1791
sg356
g1465
sbsS'IwSoundInst.h'
p3258
g330
(g1645
g332
Ntp3259
Rp3260
(dp3261
g1649
g1142
sg1650
g1697
sg356
g1153
sbsS'iwresmanager.config.txt'
p3262
g330
(g1645
g332
Ntp3263
Rp3264
(dp3265
g1649
g1428
sg1650
g1930
sg356
g1440
sbsS'IwGxShaderTechnique.h'
p3266
g330
(g1645
g332
Ntp3267
Rp3268
(dp3269
g1649
g1452
sg1650
g1791
sg356
g1477
sbsS'IwCore.h'
p3270
g330
(g1645
g332
Ntp3271
Rp3272
(dp3273
g1649
g1516
sg1650
g1686
sg356
g1521
sbsS'cfloat'
p3274
g330
(g1645
g332
Ntp3275
Rp3276
(dp3277
g1649
g1657
sg1650
g1658
sg356
S'c:/marmalade/7.5/s3e/h/std/c++/cfloat'
p3278
sbsS'IwGeomMat2D.h'
p3279
g330
(g1645
g332
Ntp3280
Rp3281
(dp3282
g1649
g1352
sg1650
g1711
sg356
g1384
sbsS'IwAllocator.h'
p3283
g330
(g1645
g332
Ntp3284
Rp3285
(dp3286
g1649
g1516
sg1650
g1686
sg356
g1551
sbsS'Levelmanager.cpp'
p3287
g330
(g1645
g332
Ntp3288
Rp3289
(dp3290
g1649
g1199
sg1650
g1801
sg356
g1244
sbsS'IwPath.h'
p3291
g330
(g1645
g332
Ntp3292
Rp3293
(dp3294
g1649
g1516
sg1650
g1686
sg356
g1571
sbsS'Score.h'
p3295
g330
(g1645
g332
Ntp3296
Rp3297
(dp3298
g1649
g1199
sg1650
g1801
sg356
g1254
sbsS'iwgxfont.mkf'
p3299
g330
(g1645
g332
Ntp3300
Rp3301
(dp3302
g1649
g1341
sg1650
g1651
sg356
g1339
sbsS'IwTexture.h'
p3303
g330
(g1645
g332
Ntp3304
Rp3305
(dp3306
g1649
g1452
sg1650
g1791
sg356
g1455
sbsS'IwGeomVec.h.tpl'
p3307
g330
(g1645
g332
Ntp3308
Rp3309
(dp3310
g1649
g1352
sg1650
g1711
sg356
g1394
sbsS's3eAccelerometer.h'
p3311
g330
(g1645
g332
Ntp3312
Rp3313
(dp3314
g1649
g1657
sg1650
g1673
sg356
S'c:/marmalade/7.5/s3e/h/s3eAccelerometer.h'
p3315
sbsS'setjmp.h'
p3316
g330
(g1645
g332
Ntp3317
Rp3318
(dp3319
g1649
g1657
sg1650
g1679
sg356
S'c:/marmalade/7.5/s3e/h/std/setjmp.h'
p3320
sbsS'IwSoundParams.cpp'
p3321
g330
(g1645
g332
Ntp3322
Rp3323
(dp3324
g1649
g1142
sg1650
g1697
sg356
g1159
sbsS'IwFile.h'
p3325
g330
(g1645
g332
Ntp3326
Rp3327
(dp3328
g1649
g1516
sg1650
g1686
sg356
g1592
sbsS'IwTextParseable.h'
p3329
g330
(g1645
g332
Ntp3330
Rp3331
(dp3332
g1649
g1516
sg1650
g1686
sg356
g1539
sbsS'istream.h'
p3333
g330
(g1645
g332
Ntp3334
Rp3335
(dp3336
g1649
g1657
sg1650
g1658
sg356
S'c:/marmalade/7.5/s3e/h/std/c++/istream.h'
p3337
sbsS'Level.h'
p3338
g330
(g1645
g332
Ntp3339
Rp3340
(dp3341
g1649
g1199
sg1650
g1801
sg356
g1216
sbsS'stdint.h'
p3342
g330
(g1645
g332
Ntp3343
Rp3344
(dp3345
g1649
g1657
sg1650
g1679
sg356
S'c:/marmalade/7.5/s3e/h/std/stdint.h'
p3346
sbsS'semaphore.h'
p3347
g330
(g1645
g332
Ntp3348
Rp3349
(dp3350
g1649
g1657
sg1650
g1679
sg356
S'c:/marmalade/7.5/s3e/h/std/semaphore.h'
p3351
sbsS'ctime'
p3352
g330
(g1645
g332
Ntp3353
Rp3354
(dp3355
g1649
g1657
sg1650
g1658
sg356
S'c:/marmalade/7.5/s3e/h/std/c++/ctime'
p3356
sbsS'sstream'
p3357
g330
(g1645
g332
Ntp3358
Rp3359
(dp3360
g1649
g1657
sg1650
g1658
sg356
S'c:/marmalade/7.5/s3e/h/std/c++/sstream'
p3361
sbsS'IwGeomFBBox.h'
p3362
g330
(g1645
g332
Ntp3363
Rp3364
(dp3365
g1649
g1352
sg1650
g1711
sg356
g1378
sbsS'IwDebugPrim.h'
p3366
g330
(g1645
g332
Ntp3367
Rp3368
(dp3369
g1649
g1452
sg1650
g1791
sg356
g1450
sbsS'GameScene.cpp'
p3370
g330
(g1645
g332
Ntp3371
Rp3372
(dp3373
g1649
g1199
sg1650
g1801
sg356
g1246
sbsS'IwGxFontContainer.h'
p3374
g330
(g1645
g332
Ntp3375
Rp3376
(dp3377
g1649
g1330
sg1650
g1651
sg356
g1337
sbsS'IwGeomSVec3.h'
p3378
g330
(g1645
g332
Ntp3379
Rp3380
(dp3381
g1649
g1352
sg1650
g1711
sg356
g1355
sbsS'hero.h'
p3382
g330
(g1645
g332
Ntp3383
Rp3384
(dp3385
g1649
g1199
sg1650
g1801
sg356
g1208
sbsS'iw2dscenegraphcore.mkf'
p3386
g330
(g1645
g332
Ntp3387
Rp3388
(dp3389
g1649
g1506
sg1650
g2797
sg356
g1504
sbsS's3eExt.h'
p3390
g330
(g1645
g332
Ntp3391
Rp3392
(dp3393
g1649
g1657
sg1650
g1673
sg356
S'c:/marmalade/7.5/s3e/h/s3eExt.h'
p3394
sbsS'IwGeomFVec3.h'
p3395
g330
(g1645
g332
Ntp3396
Rp3397
(dp3398
g1649
g1352
sg1650
g1711
sg356
g1414
sbsS'streambuf'
p3399
g330
(g1645
g332
Ntp3400
Rp3401
(dp3402
g1649
g1657
sg1650
g1658
sg356
S'c:/marmalade/7.5/s3e/h/std/c++/streambuf'
p3403
sbsS's3eMetrics.h'
p3404
g330
(g1645
g332
Ntp3405
Rp3406
(dp3407
g1649
g1657
sg1650
g1884
sg356
S'c:/marmalade/7.5/s3e/h/ext/s3eMetrics.h'
p3408
sbsS'Shark.cpp'
p3409
g330
(g1645
g332
Ntp3410
Rp3411
(dp3412
g1649
g1199
sg1650
g1801
sg356
g1232
sbsS'IwGxFont.h'
p3413
g330
(g1645
g332
Ntp3414
Rp3415
(dp3416
g1649
g1330
sg1650
g1651
sg356
g1344
sbsS's3eSecureStorage.h'
p3417
g330
(g1645
g332
Ntp3418
Rp3419
(dp3420
g1649
g1657
sg1650
g1673
sg356
S'c:/marmalade/7.5/s3e/h/s3eSecureStorage.h'
p3421
sbsS'string.h'
p3422
g330
(g1645
g332
Ntp3423
Rp3424
(dp3425
g1649
g1657
sg1650
g1679
sg356
S'c:/marmalade/7.5/s3e/h/std/string.h'
p3426
sbsS'IwResource.h'
p3427
g330
(g1645
g332
Ntp3428
Rp3429
(dp3430
g1649
g1516
sg1650
g1686
sg356
g1612
sbsS'IwGeomSVec2.h'
p3431
g330
(g1645
g332
Ntp3432
Rp3433
(dp3434
g1649
g1352
sg1650
g1711
sg356
g1350
sbsS'libjpeg.mkf'
p3435
g330
(g1645
g332
Ntp3436
Rp3437
(dp3438
g1649
g1097
sg1650
(lp3439
g1093
asg356
g1095
sbsS'IwGxDebug.h'
p3440
g330
(g1645
g332
Ntp3441
Rp3442
(dp3443
g1649
g1452
sg1650
g1791
sg356
g1475
sbsS'float.h'
p3444
g330
(g1645
g332
Ntp3445
Rp3446
(dp3447
g1649
g1657
sg1650
g1679
sg356
S'c:/marmalade/7.5/s3e/h/std/float.h'
p3448
sbsS'iomanip.h'
p3449
g330
(g1645
g332
Ntp3450
Rp3451
(dp3452
g1649
g1657
sg1650
g1658
sg356
S'c:/marmalade/7.5/s3e/h/std/c++/iomanip.h'
p3453
sbsS'IwKeymap.h'
p3454
g330
(g1645
g332
Ntp3455
Rp3456
(dp3457
g1649
g1516
sg1650
g1686
sg356
g1557
sbsS'IwDebug.h'
p3458
g330
(g1645
g332
Ntp3459
Rp3460
(dp3461
g1649
g1516
sg1650
g1686
sg356
g1545
sbsS'IwVariableBitField.h'
p3462
g330
(g1645
g332
Ntp3463
Rp3464
(dp3465
g1649
g1516
sg1650
g1686
sg356
g1579
sbsS'IwGeomMenu.h'
p3466
g330
(g1645
g332
Ntp3467
Rp3468
(dp3469
g1649
g1352
sg1650
g1711
sg356
g1408
sbsS'IwDivTable.h'
p3470
g330
(g1645
g332
Ntp3471
Rp3472
(dp3473
g1649
g1516
sg1650
g1686
sg356
g1535
sbsS'ctype.h'
p3474
g330
(g1645
g332
Ntp3475
Rp3476
(dp3477
g1649
g1657
sg1650
g1679
sg356
S'c:/marmalade/7.5/s3e/h/std/ctype.h'
p3478
sbsS'mainMenu.cpp'
p3479
g330
(g1645
g332
Ntp3480
Rp3481
(dp3482
g1649
g1199
sg1650
g1801
sg356
g1224
sbsS'IwResGroup.h'
p3483
g330
(g1645
g332
Ntp3484
Rp3485
(dp3486
g1649
g1428
sg1650
g1930
sg356
g1442
sbsS'signal_1.h'
p3487
g330
(g1645
g332
Ntp3488
Rp3489
(dp3490
g1649
g1657
sg1650
g1810
sg356
S'c:/marmalade/7.5/s3e/h/std/sys/signal.h'
p3491
sbsS'IwSoundData.cpp'
p3492
g330
(g1645
g332
Ntp3493
Rp3494
(dp3495
g1649
g1142
sg1650
g1697
sg356
g1179
sbsS'main.cpp'
p3496
g330
(g1645
g332
Ntp3497
Rp3498
(dp3499
g1649
g1199
sg1650
g1801
sg356
g1230
sbsS'shm.h'
p3500
g330
(g1645
g332
Ntp3501
Rp3502
(dp3503
g1649
g1657
sg1650
g1810
sg356
S'c:/marmalade/7.5/s3e/h/std/sys/shm.h'
p3504
sbsS'IwManagedList.h'
p3505
g330
(g1645
g332
Ntp3506
Rp3507
(dp3508
g1649
g1516
sg1650
g1686
sg356
g1529
sbsS'prctl.h'
p3509
g330
(g1645
g332
Ntp3510
Rp3511
(dp3512
g1649
g1657
sg1650
g1810
sg356
S'c:/marmalade/7.5/s3e/h/std/sys/prctl.h'
p3513
sbsS'IwGxStream.h'
p3514
g330
(g1645
g332
Ntp3515
Rp3516
(dp3517
g1649
g1452
sg1650
g1791
sg356
g1463
sbsS'temp_defines_debug.h'
p3518
g330
(g1645
g332
Ntp3519
Rp3520
(dp3521
g1649
(lp3522
sg1650
(lp3523
g3013
asg356
S'c:/Marmalade/7.5/examples/GameTutorial/CPP/marm1/build_stage4_vc12/temp_defines_debug.h'
p3524
sbsS'utility'
p3525
g330
(g1645
g332
Ntp3526
Rp3527
(dp3528
g1649
g1657
sg1650
g1658
sg356
S'c:/marmalade/7.5/s3e/h/std/c++/utility'
p3529
sbsS'input.h'
p3530
g330
(g1645
g332
Ntp3531
Rp3532
(dp3533
g1649
g1199
sg1650
g1801
sg356
g1218
sbsS'Levelmanager.h'
p3534
g330
(g1645
g332
Ntp3535
Rp3536
(dp3537
g1649
g1199
sg1650
g1801
sg356
g1240
sbsS'IwGeomLegacy.h'
p3538
g330
(g1645
g332
Ntp3539
Rp3540
(dp3541
g1649
g1352
sg1650
g1711
sg356
g1372
sbsS'IwTPage.h'
p3542
g330
(g1645
g332
Ntp3543
Rp3544
(dp3545
g1649
g1452
sg1650
g1791
sg356
g1500
sbsS'IwResSerialise.h'
p3546
g330
(g1645
g332
Ntp3547
Rp3548
(dp3549
g1649
g1428
sg1650
g1930
sg356
g1429
sbsS's3eCrypto.h'
p3550
g330
(g1645
g332
Ntp3551
Rp3552
(dp3553
g1649
g1657
sg1650
g1673
sg356
S'c:/marmalade/7.5/s3e/h/s3eCrypto.h'
p3554
sbsS's3eKeyboard.h'
p3555
g330
(g1645
g332
Ntp3556
Rp3557
(dp3558
g1649
g1657
sg1650
g1673
sg356
S'c:/marmalade/7.5/s3e/h/s3eKeyboard.h'
p3559
sbsS'fcntl.h'
p3560
g330
(g1645
g332
Ntp3561
Rp3562
(dp3563
g1649
g1657
sg1650
g1679
sg356
S'c:/marmalade/7.5/s3e/h/std/fcntl.h'
p3564
sbsS'Iw2DSceneGraphCore.h'
p3565
g330
(g1645
g332
Ntp3566
Rp3567
(dp3568
g1649
g1509
sg1650
g2797
sg356
g1507
sbsS'memory.h'
p3569
g330
(g1645
g332
Ntp3570
Rp3571
(dp3572
g1649
g1657
sg1650
g1679
sg356
S'c:/marmalade/7.5/s3e/h/std/memory.h'
p3573
sbsS'Entity.h'
p3574
g330
(g1645
g332
Ntp3575
Rp3576
(dp3577
g1649
g1199
sg1650
g1801
sg356
g1206
sbsS'pthread.h'
p3578
g330
(g1645
g332
Ntp3579
Rp3580
(dp3581
g1649
g1657
sg1650
g1679
sg356
S'c:/marmalade/7.5/s3e/h/std/pthread.h'
p3582
sbsS'IwGeomIntersect.h'
p3583
g330
(g1645
g332
Ntp3584
Rp3585
(dp3586
g1649
g1352
sg1650
g1711
sg356
g1398
sbsS'IwTextParserITX.h'
p3587
g330
(g1645
g332
Ntp3588
Rp3589
(dp3590
g1649
g1516
sg1650
g1686
sg356
g1555
sbsS'IwClip.inl'
p3591
g330
(g1645
g332
Ntp3592
Rp3593
(dp3594
g1649
g1452
sg1650
g1791
sg356
g1485
sbsS'Layer.h'
p3595
g330
(g1645
g332
Ntp3596
Rp3597
(dp3598
g1649
g1199
sg1650
g1801
sg356
g1260
sbsS'ostream.h'
p3599
g330
(g1645
g332
Ntp3600
Rp3601
(dp3602
g1649
g1657
sg1650
g1658
sg356
S'c:/marmalade/7.5/s3e/h/std/c++/ostream.h'
p3603
sbsS'stl_user_config.h'
p3604
g330
(g1645
g332
Ntp3605
Rp3606
(dp3607
g1649
g1657
sg1650
g1658
sg356
S'c:/marmalade/7.5/s3e/h/std/c++/stl_user_config.h'
p3608
sbsS'IwProfileMenu.h'
p3609
g330
(g1645
g332
Ntp3610
Rp3611
(dp3612
g1649
g1516
sg1650
g1686
sg356
g1531
sbsS'MarmaladeVersion.h'
p3613
g330
(g1645
g332
Ntp3614
Rp3615
(dp3616
g1649
g1657
sg1650
g1673
sg356
S'c:/marmalade/7.5/s3e/h/MarmaladeVersion.h'
p3617
sbsS'IwResHandlerWAV.h'
p3618
g330
(g1645
g332
Ntp3619
Rp3620
(dp3621
g1649
g1142
sg1650
g1697
sg356
g1147
sbsS'gl3platform.h'
p3622
g330
(g1645
g332
Ntp3623
Rp3624
(dp3625
g1649
g1657
sg1650
g1983
sg356
S'c:/marmalade/7.5/s3e/h/GLES3/gl3platform.h'
p3626
sbsS'ios.h'
p3627
g330
(g1645
g332
Ntp3628
Rp3629
(dp3630
g1649
g1657
sg1650
g1658
sg356
S'c:/marmalade/7.5/s3e/h/std/c++/ios.h'
p3631
sbsS'IwImageHelper.h'
p3632
g330
(g1645
g332
Ntp3633
Rp3634
(dp3635
g1649
g1516
sg1650
g1686
sg356
g1527
sbsS'hash_set'
p3636
g330
(g1645
g332
Ntp3637
Rp3638
(dp3639
g1649
g1657
sg1650
g1658
sg356
S'c:/marmalade/7.5/s3e/h/std/c++/hash_set'
p3640
sbsS'IwGeomFQuat.h'
p3641
g330
(g1645
g332
Ntp3642
Rp3643
(dp3644
g1649
g1352
sg1650
g1711
sg356
g1362
sbsS'jmorecfg.h'
p3645
g330
(g1645
g332
Ntp3646
Rp3647
(dp3648
g1649
g1101
sg1650
g1745
sg356
g1110
sbsS'eglplatform.h'
p3649
g330
(g1645
g332
Ntp3650
Rp3651
(dp3652
g1649
g1657
sg1650
g2015
sg356
S'c:/marmalade/7.5/s3e/h/EGL/eglplatform.h'
p3653
sbsS'cmath'
p3654
g330
(g1645
g332
Ntp3655
Rp3656
(dp3657
g1649
g1657
sg1650
g1658
sg356
S'c:/marmalade/7.5/s3e/h/std/c++/cmath'
p3658
sbsS'math_gcc.h'
p3659
g330
(g1645
g332
Ntp3660
Rp3661
(dp3662
g1649
g1657
sg1650
g1679
sg356
S'c:/marmalade/7.5/s3e/h/std/math_gcc.h'
p3663
sbsS's3eMemory.h'
p3664
g330
(g1645
g332
Ntp3665
Rp3666
(dp3667
g1649
g1657
sg1650
g1673
sg356
S'c:/marmalade/7.5/s3e/h/s3eMemory.h'
p3668
sbsS'strings.h'
p3669
g330
(g1645
g332
Ntp3670
Rp3671
(dp3672
g1649
g1657
sg1650
g1679
sg356
S'c:/marmalade/7.5/s3e/h/std/strings.h'
p3673
sbsS's3eFile.h'
p3674
g330
(g1645
g332
Ntp3675
Rp3676
(dp3677
g1649
g1657
sg1650
g1673
sg356
S'c:/marmalade/7.5/s3e/h/s3eFile.h'
p3678
sbsS'IwGxTypes.h'
p3679
g330
(g1645
g332
Ntp3680
Rp3681
(dp3682
g1649
g1452
sg1650
g1791
sg356
g1489
sbsS'cerrno'
p3683
g330
(g1645
g332
Ntp3684
Rp3685
(dp3686
g1649
g1657
sg1650
g1658
sg356
S'c:/marmalade/7.5/s3e/h/std/c++/cerrno'
p3687
sbsS'IwSoundManager.cpp'
p3688
g330
(g1645
g332
Ntp3689
Rp3690
(dp3691
g1649
g1142
sg1650
g1697
sg356
g1155
sbsS'main.h'
p3692
g330
(g1645
g332
Ntp3693
Rp3694
(dp3695
g1649
g1199
sg1650
g1801
sg356
g1204
sbsS'soundengine.mkf'
p3696
g330
(g1645
g332
Ntp3697
Rp3698
(dp3699
g1649
g1187
sg1650
g1697
sg356
g1185
sbsS'resource.h'
p3700
g330
(g1645
g332
Ntp3701
Rp3702
(dp3703
g1649
g1657
sg1650
g1810
sg356
S'c:/marmalade/7.5/s3e/h/std/sys/resource.h'
p3704
sbsS'clocale'
p3705
g330
(g1645
g332
Ntp3706
Rp3707
(dp3708
g1649
g1657
sg1650
g1658
sg356
S'c:/marmalade/7.5/s3e/h/std/c++/clocale'
p3709
sbsS'pvrtextool.mkf'
p3710
g330
(g1645
g332
Ntp3711
Rp3712
(dp3713
g1649
g1287
sg1650
g2296
sg356
g1285
sbsS'csetjmp'
p3714
g330
(g1645
g332
Ntp3715
Rp3716
(dp3717
g1649
g1657
sg1650
g1658
sg356
S'c:/marmalade/7.5/s3e/h/std/c++/csetjmp'
p3718
sbsS'netdb.h'
p3719
g330
(g1645
g332
Ntp3720
Rp3721
(dp3722
g1649
g1657
sg1650
g1679
sg356
S'c:/marmalade/7.5/s3e/h/std/netdb.h'
p3723
sbsS's3eAndroidJNI.h'
p3724
g330
(g1645
g332
Ntp3725
Rp3726
(dp3727
g1649
g1657
sg1650
g1884
sg356
S'c:/marmalade/7.5/s3e/h/ext/s3eAndroidJNI.h'
p3728
sbsS'stdexcept'
p3729
g330
(g1645
g332
Ntp3730
Rp3731
(dp3732
g1649
g1657
sg1650
g1658
sg356
S'c:/marmalade/7.5/s3e/h/std/c++/stdexcept'
p3733
sbsS'math.h'
p3734
g330
(g1645
g332
Ntp3735
Rp3736
(dp3737
g1649
g1657
sg1650
g1679
sg356
S'c:/marmalade/7.5/s3e/h/std/math.h'
p3738
sbsS'stdbool.h'
p3739
g330
(g1645
g332
Ntp3740
Rp3741
(dp3742
g1649
g1657
sg1650
g1679
sg356
S'c:/marmalade/7.5/s3e/h/std/stdbool.h'
p3743
sbsS'uio.h'
p3744
g330
(g1645
g332
Ntp3745
Rp3746
(dp3747
g1649
g1657
sg1650
g1810
sg356
S'c:/marmalade/7.5/s3e/h/std/sys/uio.h'
p3748
sbsS'IwUncopyable.h'
p3749
g330
(g1645
g332
Ntp3750
Rp3751
(dp3752
g1649
g1516
sg1650
g1686
sg356
g1594
sbssS'juice_build_type'
p3753
g4
sS'tests'
p3754
(lp3755
sS'project_name'
p3756
g338
sS'root_file'
p3757
g135
sS'current_root'
p3758
S'c:/Marmalade/7.5/examples/GameTutorial/CPP/marm1'
p3759
sS'dependencies'
p3760
(lp3761
sS'include_paths'
p3762
(lp3763
S'c:/marmalade/7.5/modules/iw2d/h'
p3764
aS'c:/marmalade/7.5/modules/iwgx/h'
p3765
aS'c:/marmalade/7.5/modules/iwgl/h'
p3766
aS'c:/marmalade/7.5/modules/iwutil/h'
p3767
aS'c:/marmalade/7.5/modules/third_party/libjpeg/h'
p3768
aS'c:/marmalade/7.5/modules/third_party/zlib/h'
p3769
aS'c:/marmalade/7.5/modules/third_party/libpng/h'
p3770
aS'c:/marmalade/7.5/modules/iwgeom/h'
p3771
aS'c:/marmalade/7.5/modules/iwresmanager/h'
p3772
aS'c:/marmalade/7.5/extensions/pvrtextool/h'
p3773
aS'c:/marmalade/7.5/modules/iwgxfont/h'
p3774
aS'c:/marmalade/7.5/modules/third_party/tiniconv/source'
p3775
aS'c:/marmalade/7.5/modules/iw2dscenegraph/h'
p3776
aS'c:/marmalade/7.5/modules/iw2dscenegraphcore/h'
p3777
aS'c:/marmalade/7.5/modules/iwtween/h'
p3778
aS'c:/marmalade/7.5/examples/gametutorial/cpp/modules/soundengine/h'
p3779
aS'c:/marmalade/7.5/examples/gametutorial/cpp/modules/soundengine/source'
p3780
aS'c:/marmalade/7.5/s3e/h'
p3781
aS'c:/marmalade/7.5/s3e/h/ext'
p3782
aS'c:/marmalade/7.5/s3e/h/std'
p3783
aS'c:/marmalade/7.5/s3e/h/std/c++'
p3784
aS'c:/marmalade/7.5/s3e/h/ext_legacy'
p3785
aS'c:/marmalade/7.5/s3e/h/legacy'
p3786
asS'weak_frameworks'
p3787
(lp3788
sS'extprojects'
p3789
(dp3790
sg600
(dp3791
g594
(lp3792
(S'c:/Marmalade/7.5/examples/GameTutorial/CPP/marm1/data/audio'
p3793
S'audio'
p3794
I0
tp3795
a(S'c:/Marmalade/7.5/examples/GameTutorial/CPP/marm1/data/textures'
p3796
S'textures'
p3797
I0
tp3798
a(S'c:/Marmalade/7.5/examples/GameTutorial/CPP/marm1/data/fonts'
p3799
S'fonts'
p3800
I0
tp3801
a(S'c:/Marmalade/7.5/examples/GameTutorial/CPP/marm1/data-ram/data-gles1,c:/Marmalade/7.5/examples/GameTutorial/CPP/marm1/data'
p3802
S'.'
p3803
I0
tp3804
assS'macro_types'
p3805
(dp3806
g529
I1
sg530
I0
sg531
I0
sg532
I0
sg534
I0
sg535
I0
sg536
I0
sg537
I0
sg538
I0
sg540
I0
sg541
I0
sg542
I0
sg543
I0
sg544
I0
sg546
I0
sg548
I0
sg549
I0
sg550
I0
sg551
I0
sg552
I0
sg553
I0
sg554
I0
sg555
I0
sg556
I1
sg557
I0
sg558
I0
sg559
I0
sg560
I0
sg561
I01
sg562
I1
sg563
I0
sg564
I0
sg565
I0
sg566
I0
sg567
I0
sg568
I0
sg569
I0
ssS'commands'
p3807
(lp3808
sg602
(g1074
S'VC12'
p3809
S'X86ARMAARCH64'
p3810
tp3811
sS'build_libs'
p3812
(dp3813
sg604
g0
sS'frameworks'
p3814
(lp3815
sS'environ'
p3816
(dp3817
sS'target_name_debug'
p3818
g338
sS'builders'
p3819
(dp3820
g594
(dp3821
S'.S'
p3822
(dp3823
S'gcc_aarch64'
p3824
(lp3825
S'.obj'
p3826
aS'echo AARCH64 Assembling(GCC) ${SOURCE}...'
p3827
aS'c:/marmalade/7.5/s3e\\gcc\\win32\\aarch64\\bin\\aarch64-none-elf-gcc -c -o ${TARGET} ${SOURCE}'
p3828
asS'rvct'
p3829
(lp3830
g3826
aS'echo ARM Assembling(RVCT) ${SOURCE}...'
p3831
aS'c:/marmalade/7.5/s3e\\rvct\\bin\\armasm -o ${TARGET} ${SOURCE}'
p3832
asg452
(lp3833
g3826
aS'echo ARM Assembling(GCC) ${SOURCE}...'
p3834
aS'c:/marmalade/7.5/s3e\\gcc\\win32\\arm\\bin\\arm-none-eabi-gcc -c -o ${TARGET} ${SOURCE}'
p3835
asS'ppu'
p3836
(lp3837
S'.a'
p3838
aS'echo PPU Assembling(SNC) ${SOURCE}...'
p3839
aS'c:/marmalade/7.5/s3e\\rvct\\bin\\armasm -o ${TARGET} ${SOURCE}'
p3840
assS'.s'
p3841
g3823
sS'.vp'
p3842
(lp3843
NaS'"C:/Marmalade/7.5/s3e/python/python.exe" "c:/marmalade/7.5/modules/iwgx/tools/compile_shaders.py" ${SOURCE}'
p3844
asssS'extproject_names'
p3845
(lp3846
sbtp3847
.