((dp0
S'arm_dbg_args'
p1
S'-via:"c:\\Marmalade\\7.5\\examples\\GameTutorial\\CPP\\marm1\\build_stage4_vc12\\Stage4_vc12_arm_debug.via" -qemu'
p2
sS'game-icf'
p3
S''
p4
sS'dist'
p5
NsS'csproj'
p6
g4
sS'module_path_append'
p7
NsS'global_path'
p8
S'c:\\marmalade\\7.5\\examples\\gametutorial\\cpp'
p9
sS'system_path'
p10
S'c:\\marmalade\\7.5\\s3e\\makefile_builder'
p11
sS'android_x86_dbg_args'
p12
S'../../tools/DeployTool/DeployTool.exe --dir "c:\\Marmalade\\7.5\\examples\\GameTutorial\\CPP\\marm1\\build_stage4_vc12"'
p13
sS'aarch64-arch-mod'
p14
g4
sS'no-emit'
p15
NsS'arm-float-abi'
p16
g4
sS'arm_rel_rtsm_args'
p17
S'-via:"c:\\Marmalade\\7.5\\examples\\GameTutorial\\CPP\\marm1\\build_stage4_vc12\\Stage4_vc12_arm_release.via" -qemu'
p18
sS'amd64'
p19
NsS'line-width'
p20
I80
sS'gcc_dbg_args'
p21
S'-via:"c:\\Marmalade\\7.5\\examples\\GameTutorial\\CPP\\marm1\\build_stage4_vc12\\Stage4_vc12_gcc_debug.via" -qemu'
p22
sS'android-x86'
p23
NsS'x86_dbg_exe'
p24
S'c:/marmalade/7.5/s3e\\win32\\s3e_simulator_debug.exe'
p25
sS'disable-runtime-checks'
p26
NsS'release'
p27
NsS'no-make'
p28
NsS'xcode-x86-build-settings'
p29
g4
sS'optimise-size'
p30
NsS'fat'
p31
NsS'output-name-debug'
p32
g4
sS'arm-fpu'
p33
g4
sS'proj_name'
p34
S'Stage4_vc12'
p35
sS'rvct-version'
p36
S'none'
p37
sS'compiler'
p38
g4
sS'execute'
p39
NsS'compile-static'
p40
NsS'msvc-project'
p41
I01
sS'buildenv'
p42
S'VC12'
p43
sS'quick'
p44
NsS'module_path'
p45
(lp46
S'c:/Marmalade/7.5/examples/GameTutorial/CPP/modules'
p47
asS'mkf_default'
p48
S's3e-default.mkf'
p49
sS'use-release-std-libs'
p50
NsS'using_perforce'
p51
I00
sS'tizen-x86'
p52
NsS'mips-s3e'
p53
NsS's3e-api-lib-name'
p54
S's3e_api_iwgl'
p55
sS'ios-no-pic'
p56
NsS'shared-arm-lib'
p57
NsS'arm-cpu'
p58
g4
sS'compile-thumb'
p59
NsS'no-ide'
p60
NsS'msvc-version'
p61
S'6.0'
p62
sS'arm'
p63
NsS'builddir'
p64
g4
sS'compile-debug-as-release'
p65
I0
sS'arm-arch'
p66
g4
sS'brief'
p67
NsS'dll'
p68
NsS'buildenv-toolset'
p69
g4
sS'version'
p70
NsS'aarch64-arch'
p71
g4
sS'ccache'
p72
I0
sS'offline'
p73
NsS'ios-version'
p74
g4
sS'hub_data'
p75
g4
sS'fake_vc_call'
p76
NsS'jobs'
p77
I0
sS'linkflags'
p78
NsS'gcc_aarch64_dbg_args'
p79
g13
sS'debug'
p80
NsS'xcode-build-order'
p81
g4
sS'gcc_aarch64_rel_rtsm_args'
p82
S'-via:"c:\\Marmalade\\7.5\\examples\\GameTutorial\\CPP\\marm1\\build_stage4_vc12\\Stage4_vc12_gcc_aarch64_release.via" -qemu'
p83
sS'gcc_rel_rtsm_args'
p84
S'-via:"c:\\Marmalade\\7.5\\examples\\GameTutorial\\CPP\\marm1\\build_stage4_vc12\\Stage4_vc12_gcc_release.via" -qemu'
p85
sS'done_defaults'
p86
I1
sS'path'
p87
NsS's3e-data-dir'
p88
S'c:/Marmalade/7.5/examples/GameTutorial/CPP/marm1\\data'
p89
sS'enable-exceptions'
p90
NsS'osx-dll'
p91
NsS'extension'
p92
g4
sS'no-vc6'
p93
NsS'aarch64'
p94
NsS'win32-console'
p95
NsS'dist-format'
p96
g4
sS's3e-force-arch'
p97
NsS'dump_defines'
p98
NsS'use-shared-std-libs'
p99
NsS'gcc-version'
p100
g4
sS'x86_dbg_args'
p101
S'-via:"c:\\Marmalade\\7.5\\examples\\GameTutorial\\CPP\\marm1\\build_stage4_vc12\\Stage4_vc12_debug.via"'
p102
sS'tizen_x86_dbg_args'
p103
g13
sS'arm-debugger'
p104
g4
sS'use_temp_extension'
p105
NsS'verbose'
p106
I0
sS'log'
p107
NsS'no-strip'
p108
NsS'rebuild'
p109
NsS'mips_dbg_args'
p110
g13
sS'win32-simulator-dll'
p111
NsS'strict'
p112
NsS'xcode-aarch64-build-settings'
p113
g4
sS'enable-global-path'
p114
NsS'gcc_aarch64_rel_args'
p115
g13
sS'cflags'
p116
(lp117
S'-std=gnu++0x'
p118
asS'dist-dir'
p119
g4
sS'xcode-arm-build-settings'
p120
g4
sS'jflags'
p121
NsS'csprojSDKRefs'
p122
g4
sS'tizen_x86_rel_exe'
p123
S'c:\\marmalade\\7.5\\s3e\\makefile_builder\\tool_launcher.exe'
p124
sS'test-assets'
p125
g4
sS'distcc'
p126
NsS'external-compiler'
p127
NsS'no-distcc'
p128
NsS'preinclude'
p129
NsS'using_sdk'
p130
I01
sS'nologo'
p131
NsS'warn-level'
p132
I2
sS'mips_dbg_exe'
p133
g124
sS'mkb_in'
p134
S'c:/Marmalade/7.5/examples/GameTutorial/CPP/marm1/Stage4.mkb'
p135
sS'tizen_x86_dbg_exe'
p136
g124
sS'arm_dbg_exe'
p137
S'c:/marmalade/7.5/s3e\\bin\\armdebug.exe'
p138
sS'mdev-first'
p139
NsS'csprojDLLRef'
p140
NsS'tizen_x86_rel_args'
p141
g13
sS'android_x86_dbg_exe'
p142
g124
sS'test-config'
p143
g4
sS'list-targets'
p144
NsS'arm_rel_exe'
p145
g124
sS'arm_rel_args'
p146
g13
sS'makedeps'
p147
NsS'android_x86_rel_exe'
p148
g124
sS'default-buildenv'
p149
S'vc12'
p150
sS'x86_rel_exe'
p151
g25
sS'preprocess-java'
p152
NsS'mips_rel_args'
p153
g13
sS'defines'
p154
NsS'lib'
p155
NsS'non-interactive'
p156
NsS'global_argv'
p157
(lp158
S'C:\\Marmalade\\7.5\\s3e\\makefile_builder\\mkb.py'
p159
aS'c:/Marmalade/7.5/examples/GameTutorial/CPP/marm1/Stage4.mkb'
p160
aS'--buildenv=VC12'
p161
aS'--default-buildenv=vc12'
p162
aS'--msvc-project'
p163
asS'make'
p164
NsS'optimise-speed'
p165
NsS'internal'
p166
NsS'enable-stdinc'
p167
NsS'deploy-only'
p168
NsS'x86'
p169
NsS'deploy'
p170
g4
sS'x86_run_exe'
p171
S'c:/marmalade/7.5/s3e\\win32\\s3e_console.exe'
p172
sS'cxxflags'
p173
NsS'x86_rel_args'
p174
S'-via:"c:\\Marmalade\\7.5\\examples\\GameTutorial\\CPP\\marm1\\build_stage4_vc12\\Stage4_vc12_release.via"'
p175
sS'gcc_rel_args'
p176
g13
sS'mips'
p177
NsS'xcode-build-settings'
p178
g4
sS'incredibuild'
p179
NsS'strict-compile'
p180
NsS'use-auto-subdirs'
p181
NsS'mips_rel_exe'
p182
g124
sS'android_x86_rel_args'
p183
g13
sS'app-icf'
p184
g4
sS'deployargs'
p185
NsS'iosnativedebug'
p186
NsS'use_prebuilt'
p187
NsS'mkf_in'
p188
(lp189
S'c:\\marmalade\\7.5\\s3e\\s3e-default.mkf'
p190
aS'c:\\marmalade\\7.5\\modules\\iw2d\\iw2d.mkf'
p191
aS'c:\\marmalade\\7.5\\modules\\iwgx\\iwgx.mkf'
p192
aS'c:\\marmalade\\7.5\\modules\\iwgl\\iwgl.mkf'
p193
aS'c:\\marmalade\\7.5\\modules\\iwutil\\iwutil.mkf'
p194
aS'c:\\marmalade\\7.5\\modules\\third_party\\libjpeg\\libjpeg.mkf'
p195
aS'c:\\marmalade\\7.5\\modules\\third_party\\libpng\\libpng.mkf'
p196
aS'c:\\marmalade\\7.5\\modules\\third_party\\zlib\\zlib.mkf'
p197
aS'c:\\marmalade\\7.5\\modules\\iwgeom\\iwgeom.mkf'
p198
aS'c:\\marmalade\\7.5\\modules\\iwresmanager\\iwresmanager.mkf'
p199
aS'c:\\marmalade\\7.5\\extensions\\pvrtextool\\pvrtextool.mkf'
p200
aS'c:\\marmalade\\7.5\\modules\\iwgxfont\\iwgxfont.mkf'
p201
aS'c:\\marmalade\\7.5\\modules\\third_party\\tiniconv\\tiniconv.mkf'
p202
aS'c:\\marmalade\\7.5\\modules\\iw2dscenegraph\\iw2dscenegraph.mkf'
p203
aS'c:\\marmalade\\7.5\\modules\\iw2dscenegraphcore\\iw2dscenegraphcore.mkf'
p204
aS'c:\\marmalade\\7.5\\modules\\iwtween\\iwtween.mkf'
p205
aS'c:\\marmalade\\7.5\\examples\\gametutorial\\cpp\\modules\\soundengine\\soundengine.mkf'
p206
aS'c:\\marmalade\\7.5\\examples\\marmaladeexampleresources\\marmaladeexampleresources.mkf'
p207
asS'strict-mkb'
p208
NsS'executeargs'
p209
NsS'clean'
p210
NsS'no-asm'
p211
NsS'output-name'
p212
g4
sS'no-modules'
p213
NsS'find_define'
p214
g4
s(dp215
S'c:\\marmalade\\7.5\\s3e\\makefile_builder\\templates\\vc7_suo.pyc'
p216
F1424160376.0
sS'c:\\marmalade\\7.5\\s3e\\makefile_builder\\templates\\ws81_vcxproj.pyc'
p217
F1424160380.0
sS'c:\\marmalade\\7.5\\s3e\\makefile_builder\\plugins\\s3e_ws8.pyc'
p218
F1424160376.0
sS'c:\\marmalade\\7.5\\s3e\\makefile_builder\\templates'
p219
F1424630747.758857
sS'c:\\marmalade\\7.5\\s3e\\makefile_builder\\templates\\qmake.py'
p220
F1424159312.0
sS'c:\\marmalade\\7.5\\s3e\\makefile_builder\\templates\\vc10_user.pyc'
p221
F1424160378.0
sS'c:\\marmalade\\7.5\\s3e\\makefile_builder\\plugins'
p222
F1424631019.086376
sS'c:\\marmalade\\7.5\\s3e\\makefile_builder\\mkb_main.pyc'
p223
F1424160376.0
sS'c:\\marmalade\\7.5\\s3e\\makefile_builder\\templates\\mips_linker_script'
p224
F1424159312.0
sS'c:\\marmalade\\7.5\\s3e\\makefile_builder\\plugins\\XcodeEmitter.py'
p225
F1424159310.0
sS'c:\\marmalade\\7.5\\s3e\\makefile_builder\\mkb.py'
p226
F1424159310.0
sS'c:\\marmalade\\7.5\\s3e\\makefile_builder\\templates\\ws81_ext_sln.pyc'
p227
F1424160380.0
sS'c:\\marmalade\\7.5\\s3e\\makefile_builder\\templates\\win32_dsp.pyc'
p228
F1424160376.0
sS'c:\\marmalade\\7.5\\s3e\\makefile_builder\\templates\\ws8_csproj.pyc'
p229
F1424160380.0
sS'c:\\marmalade\\7.5\\s3e\\makefile_builder\\deployment.pyc'
p230
F1424160376.0
sS'c:\\marmalade\\7.5\\s3e\\makefile_builder\\plugins\\win32_vc6.pyc'
p231
F1424160376.0
sS'c:\\marmalade\\7.5\\s3e\\makefile_builder\\plugins\\osx_xcode.pyc'
p232
F1424160376.0
sS'c:\\marmalade\\7.5\\s3e\\makefile_builder\\plugins\\null.pyc'
p233
F1424160376.0
sS'c:\\marmalade\\7.5\\s3e\\makefile_builder\\templates\\wp81_csproj.pyc'
p234
F1424160380.0
sS'c:\\marmalade\\7.5\\s3e\\makefile_builder\\templates\\qmake_user.py'
p235
F1424159312.0
sS'c:\\marmalade\\7.5\\s3e\\makefile_builder\\templates\\vc6_opt.pyc'
p236
F1424160376.0
sS'c:\\marmalade\\7.5\\s3e\\makefile_builder\\plugins\\vc7_utils.pyc'
p237
F1424160376.0
sS'c:\\marmalade\\7.5\\s3e\\makefile_builder\\templates\\wp81_vcxproj.pyc'
p238
F1424160380.0
sS'c:\\marmalade\\7.5\\s3e\\makefile_builder\\templates\\win32_vcxproj.pyc'
p239
F1424160378.0
sS'c:\\marmalade\\7.5\\s3e\\makefile_builder\\templates\\ws8_ext_sln.pyc'
p240
F1424160380.0
sS'c:\\marmalade\\7.5\\s3e\\makefile_builder\\templates\\ws8_ext_csproj.pyc'
p241
F1424160380.0
sS'c:\\marmalade\\7.5\\s3e\\makefile_builder\\templates\\wp8_ext_csproj.pyc'
p242
F1424160378.0
sS'c:\\marmalade\\7.5\\s3e\\makefile_builder\\plugins\\s3e_wp8.pyc'
p243
F1424160376.0
sS'c:\\marmalade\\7.5\\s3e\\makefile_builder\\templates\\ws81_csproj.pyc'
p244
F1424160380.0
sS'c:\\marmalade\\7.5\\s3e\\makefile_builder\\docs\\deprecated.options.txt'
p245
F1424159310.0
sS'c:\\marmalade\\7.5\\s3e\\makefile_builder\\plugins\\s3e_make.pyc'
p246
F1424160376.0
sS'c:\\marmalade\\7.5\\s3e\\makefile_builder\\templates\\win8_ext_csproj.pyc'
p247
F1424160378.0
sS'c:\\marmalade\\7.5\\s3e\\makefile_builder\\mkb_parser.pyc'
p248
F1424160376.0
sS'c:\\marmalade\\7.5\\s3e\\makefile_builder\\plugins\\s3e_web.pyc'
p249
F1424160376.0
sS'c:\\marmalade\\7.5\\s3e\\makefile_builder\\docs\\mkb.defines.txt'
p250
F1424159310.0
sS'c:\\marmalade\\7.5\\s3e\\makefile_builder\\plugins\\osx_scons.pyc'
p251
F1424160376.0
sS'c:\\marmalade\\7.5\\s3e\\makefile_builder\\plugins\\ws81_ws81.pyc'
p252
F1424160376.0
sS'c:\\marmalade\\7.5\\s3e\\makefile_builder\\plugins\\s3e_qmake.py'
p253
F1424159312.0
sS'c:\\marmalade\\7.5\\s3e\\makefile_builder\\templates\\win8_csproj.pyc'
p254
F1424160378.0
sS'c:\\marmalade\\7.5\\s3e\\makefile_builder\\plugins\\s3e_vc6.pyc'
p255
F1424160376.0
sS'c:\\marmalade\\7.5\\s3e\\makefile_builder\\plugins\\wp81_wp81.pyc'
p256
F1424160376.0
sS'c:\\marmalade\\7.5\\s3e\\makefile_builder\\templates\\wp81_csproj_user.pyc'
p257
F1424160380.0
sS'c:\\marmalade\\7.5\\s3e\\makefile_builder\\templates\\win32_dsw.pyc'
p258
F1424160376.0
sS'c:\\marmalade\\7.5\\s3e\\makefile_builder\\templates\\xcode4.xcscheme'
p259
F1424159312.0
sS'c:\\marmalade\\7.5\\s3e\\makefile_builder\\templates\\template.opt'
p260
F1424159312.0
sS'c:\\marmalade\\7.5\\s3e\\makefile_builder\\templates\\template.suo'
p261
F1424159312.0
sS'c:\\marmalade\\7.5\\s3e\\makefile_builder\\templates\\linker_script'
p262
F1424159312.0
sS'c:\\marmalade\\7.5\\s3e\\makefile_builder\\templates\\gdb_start.txt'
p263
F1424159312.0
sS'c:\\marmalade\\7.5\\s3e\\makefile_builder\\mkb_launcher.exe'
p264
F1424159548.0
sS'c:\\marmalade\\7.5\\s3e\\makefile_builder\\templates\\scons.pyc'
p265
F1424160376.0
sS'c:\\marmalade\\7.5\\s3e\\makefile_builder\\docs\\parse_options.pyc'
p266
F1424160380.0
sS'c:\\marmalade\\7.5\\s3e\\makefile_builder\\templates\\xcode4_arm.xcscheme'
p267
F1424159312.0
sS'c:\\marmalade\\7.5\\s3e\\makefile_builder\\plugins\\VisualStudioEmitter.pyc'
p268
F1424160376.0
sS'c:\\marmalade\\7.5\\s3e\\makefile_builder\\plugins\\s3e_xcode.pyc'
p269
F1424631019.087376
sS'c:\\marmalade\\7.5\\s3e\\makefile_builder\\plugins\\Emitter.pyc'
p270
F1424160376.0
sS'c:\\marmalade\\7.5\\s3e\\makefile_builder\\templates\\ws8_sln.pyc'
p271
F1424160380.0
sS'c:\\marmalade\\7.5\\s3e\\makefile_builder\\tool_launcher.exe'
p272
F1424159548.0
sS'c:\\marmalade\\7.5\\s3e\\makefile_builder\\templates\\wp8_sln.pyc'
p273
F1424160378.0
sS'c:\\marmalade\\7.5\\s3e\\makefile_builder\\mkb_upstream.pyc'
p274
F1424160376.0
sS'c:\\marmalade\\7.5\\s3e\\makefile_builder\\templates\\ws81_csproj_user.pyc'
p275
F1424160380.0
sS'c:\\marmalade\\7.5\\s3e\\makefile_builder\\templates\\win32_sln.pyc'
p276
F1424160376.0
sS'c:\\marmalade\\7.5\\s3e\\makefile_builder\\templates\\xcode4_DeployTool.xcscheme'
p277
F1424159312.0
sS'c:\\marmalade\\7.5\\s3e\\makefile_builder\\plugins\\deploy.pyc'
p278
F1424160376.0
sS'c:\\marmalade\\7.5\\s3e\\makefile_builder\\plugins\\s3e_win8.pyc'
p279
F1424160376.0
sS'c:\\marmalade\\7.5\\s3e\\makefile_builder\\plugins\\iphone.pyc'
p280
F1424160376.0
sS'c:\\marmalade\\7.5\\s3e\\makefile_builder\\plugins\\Win8Emitter.pyc'
p281
F1424160376.0
sS'c:\\marmalade\\7.5\\s3e\\makefile_builder\\plugins\\s3e_qmake.pyc'
p282
F1424631018.9523683
sS'c:\\marmalade\\7.5\\s3e\\makefile_builder\\docs'
p283
F1424630747.7758577
sS'c:\\marmalade\\7.5\\s3e\\makefile_builder\\mkb_globals.pyc'
p284
F1424160376.0
sS'c:\\marmalade\\7.5\\s3e\\makefile_builder\\plugins\\win8_utils.pyc'
p285
F1424160376.0
sS'c:\\marmalade\\7.5\\s3e\\makefile_builder\\plugins\\xcode4_schememanagement.py'
p286
F1424159312.0
sS'c:\\marmalade\\7.5\\s3e\\makefile_builder\\templates\\wp81_ext_sln.pyc'
p287
F1424160380.0
sS'c:\\marmalade\\7.5\\s3e\\makefile_builder\\templates\\make.py'
p288
F1424159312.0
sS'c:\\marmalade\\7.5\\s3e\\makefile_builder\\templates\\ws81_ext_csproj.pyc'
p289
F1424160380.0
sS'c:\\marmalade\\7.5\\s3e\\makefile_builder\\plugins\\s3e_xcode.py'
p290
F1424159312.0
sS'c:\\marmalade\\7.5\\s3e\\makefile_builder\\plugins\\XcodeEmitter.pyc'
p291
F1424631018.8013597
sS'c:\\marmalade\\7.5\\s3e\\makefile_builder\\docs\\deployment_options.txt'
p292
F1424159310.0
sS'c:\\marmalade\\7.5\\s3e\\makefile_builder\\templates\\win8_sln.pyc'
p293
F1424160378.0
sS'c:\\marmalade\\7.5\\s3e\\makefile_builder\\plugins\\java.pyc'
p294
F1424160376.0
sS'c:\\marmalade\\7.5\\s3e\\makefile_builder\\plugins\\xcode4_schememanagement.pyc'
p295
F1424631018.80836
sS'c:\\marmalade\\7.5\\s3e\\makefile_builder\\plugins\\SConsEmitter.pyc'
p296
F1424160376.0
sS'c:\\marmalade\\7.5\\s3e\\makefile_builder\\templates\\win32_vcproj.pyc'
p297
F1424160378.0
sS'c:\\marmalade\\7.5\\s3e\\makefile_builder\\plugins\\wp8_wp8.pyc'
p298
F1424160376.0
sS'c:\\marmalade\\7.5\\s3e\\makefile_builder\\templates\\MainWindow.xib'
p299
F1424159312.0
sS'c:\\marmalade\\7.5\\s3e\\makefile_builder\\mkb_util.pyc'
p300
F1424160376.0
sS'c:\\marmalade\\7.5\\s3e\\makefile_builder\\templates\\vc8_user.pyc'
p301
F1424160378.0
sS'c:\\marmalade\\7.5\\s3e\\makefile_builder\\templates\\Info.plist'
p302
F1424159312.0
sS'c:\\marmalade\\7.5\\s3e\\makefile_builder\\templates\\wp8_csproj_user.pyc'
p303
F1424160378.0
sS'c:\\marmalade\\7.5\\s3e\\makefile_builder\\docs\\deprecated.defines.txt'
p304
F1424159310.0
sS'c:\\marmalade\\7.5\\s3e\\makefile_builder\\templates\\ws8_csproj_user.pyc'
p305
F1424160380.0
sS'c:\\marmalade\\7.5\\s3e\\makefile_builder\\plugins\\S3EEmitter.pyc'
p306
F1424160376.0
sS'c:\\marmalade\\7.5\\s3e\\makefile_builder\\templates\\rvct_linker_script'
p307
F1424159312.0
sS'c:\\marmalade\\7.5\\s3e\\makefile_builder\\templates\\xcode_pbxuser.py'
p308
F1424159312.0
sS'c:\\marmalade\\7.5\\s3e\\makefile_builder\\docs\\options.txt'
p309
F1424159310.0
sS'c:\\marmalade\\7.5\\s3e\\makefile_builder\\templates\\wp81_sln.pyc'
p310
F1424160380.0
sS'c:\\marmalade\\7.5\\s3e\\makefile_builder\\templates\\ws81_sln.pyc'
p311
F1424160380.0
sS'c:\\marmalade\\7.5\\s3e\\makefile_builder\\plugins\\vc6_utils.pyc'
p312
F1424160376.0
sS'c:\\marmalade\\7.5\\s3e\\makefile_builder\\templates\\wp81_ext_csproj.pyc'
p313
F1424160380.0
sS'c:\\marmalade\\7.5\\s3e\\makefile_builder\\plugins\\s3e_wp81.pyc'
p314
F1424160376.0
sS'c:\\marmalade\\7.5\\s3e\\makefile_builder\\templates\\aarch64_linker_script'
p315
F1424159312.0
sS'c:\\marmalade\\7.5\\s3e\\makefile_builder\\templates\\ws8_vcxproj.pyc'
p316
F1424160380.0
sS'c:\\marmalade\\7.5\\s3e\\makefile_builder\\plugins\\MakeEmitter.pyc'
p317
F1424160376.0
sS'c:\\marmalade\\7.5\\s3e\\makefile_builder\\templates\\win32_vcxproj_filters.pyc'
p318
F1424160378.0
sS'c:\\marmalade\\7.5\\s3e\\makefile_builder\\templates\\xcode.py'
p319
F1424159312.0
sS'c:\\marmalade\\7.5\\s3e\\makefile_builder\\plugins\\s3e_ws81.pyc'
p320
F1424160376.0
sS'c:\\marmalade\\7.5\\s3e\\makefile_builder\\plugins\\linux_scons.pyc'
p321
F1424160376.0
sS'c:\\marmalade\\7.5\\s3e\\makefile_builder\\templates\\win8_vcxproj.pyc'
p322
F1424160378.0
sS'c:\\marmalade\\7.5\\s3e\\makefile_builder\\plugins\\s3e_scons.pyc'
p323
F1424160376.0
sS'c:\\marmalade\\7.5\\s3e\\makefile_builder\\templates\\wp8_csproj.pyc'
p324
F1424160378.0
sS'c:\\marmalade\\7.5\\s3e\\makefile_builder\\templates\\win8_csproj_user.pyc'
p325
F1424160378.0
sS'c:\\marmalade\\7.5\\s3e\\makefile_builder\\plugins\\ws8_ws8.pyc'
p326
F1424160376.0
sS'c:\\marmalade\\7.5\\s3e\\makefile_builder\\templates\\wp8_vcxproj.pyc'
p327
F1424160378.0
sS'c:\\marmalade\\7.5\\s3e\\makefile_builder\\mkb_option.pyc'
p328
F1424160376.0
sccopy_reg
_reconstructor
p329
(cmkb_main
MkbFile
p330
c__builtin__
object
p331
Ntp332
Rp333
(dp334
g5
(lp335
sS'target_name'
p336
S'Stage4'
p337
sS'current_file'
p338
g135
sS'package_path'
p339
(lp340
sS'post_build'
p341
(lp342
(lp343
S'c:/marmalade/7.5/s3e/tools'
p344
aS'C:\\Marmalade\\7.5\\s3e\\python\\python.exe .\\process_map.py "$(TargetPath)"'
p345
aa(S'c:\\marmalade\\7.5\\s3e\\bin'
p346
S'"s3e_plink" -l "$(TargetPath)" '
p347
g169
tp348
asS'librarys'
p349
(lp350
g329
(cmkb_main
Library
p351
g331
Ntp352
Rp353
(dp354
S'name'
p355
S'vc6_compat.lib'
p356
sS'expand_name'
p357
I00
sS'include_spec_rvct_objs'
p358
(lp359
sS'include_all_objs'
p360
I00
sS'share_arm'
p361
I00
sS'arch'
p362
S'x86'
p363
sS'nodebug'
p364
I00
sg38
Nsbag329
(g351
g331
Ntp365
Rp366
(dp367
g355
S'iw2d'
p368
sg357
I01
sg358
(lp369
sg360
Nsg361
Nsg362
Nsg364
I00
sg38
Nsbag329
(g351
g331
Ntp370
Rp371
(dp372
g355
S'ATI_Compress_MT_VC7.lib'
p373
sg357
I00
sg358
g369
sg360
Nsg361
Nsg362
S'x86'
p374
sg364
I00
sg38
Nsbag329
(g351
g331
Ntp375
Rp376
(dp377
g355
S'iwgx'
p378
sg357
I01
sg358
g369
sg360
Nsg361
Nsg362
Nsg364
I00
sg38
Nsbag329
(g351
g331
Ntp379
Rp380
(dp381
g355
S'iwgl'
p382
sg357
I01
sg358
g369
sg360
Nsg361
Nsg362
Nsg364
I00
sg38
Nsbag329
(g351
g331
Ntp383
Rp384
(dp385
g355
S'iwutil'
p386
sg357
I01
sg358
g369
sg360
Nsg361
Nsg362
Nsg364
I00
sg38
Nsbag329
(g351
g331
Ntp387
Rp388
(dp389
g355
S'jpeg'
p390
sg357
I01
sg358
g369
sg360
Nsg361
Nsg362
Nsg364
I00
sg38
Nsbag329
(g351
g331
Ntp391
Rp392
(dp393
g355
S'z'
p394
sg357
I01
sg358
g369
sg360
Nsg361
Nsg362
Nsg364
I00
sg38
Nsbag329
(g351
g331
Ntp395
Rp396
(dp397
g355
S'png'
p398
sg357
I01
sg358
g369
sg360
Nsg361
Nsg362
Nsg364
I00
sg38
Nsbag329
(g351
g331
Ntp399
Rp400
(dp401
g355
S'iwgeom'
p402
sg357
I01
sg358
g369
sg360
Nsg361
Nsg362
Nsg364
I00
sg38
Nsbag329
(g351
g331
Ntp403
Rp404
(dp405
g355
S'iwresmanager'
p406
sg357
I01
sg358
g369
sg360
Nsg361
Nsg362
Nsg364
I00
sg38
Nsbag329
(g351
g331
Ntp407
Rp408
(dp409
g355
S'iwgxfont'
p410
sg357
I01
sg358
g369
sg360
Nsg361
Nsg362
Nsg364
I00
sg38
Nsbag329
(g351
g331
Ntp411
Rp412
(dp413
g355
S'tiniconv'
p414
sg357
I01
sg358
g369
sg360
Nsg361
Nsg362
Nsg364
I00
sg38
Nsbag329
(g351
g331
Ntp415
Rp416
(dp417
g355
S's3e_cpp'
p418
sg357
I01
sg358
g359
sg360
I00
sg361
I00
sg362
Nsg364
I00
sg38
Nsbag329
(g351
g331
Ntp419
Rp420
(dp421
g355
S's3e'
p422
sg357
I01
sg358
(lp423
S'iwcrt.o'
p424
asg360
I00
sg361
I00
sg362
Nsg364
I00
sg38
Nsbag329
(g351
g331
Ntp425
Rp426
(dp427
g355
g55
sg357
I01
sg358
g359
sg360
I00
sg361
I00
sg362
S'x86'
p428
sg364
I01
sg38
Nsbag329
(g351
g331
Ntp429
Rp430
(dp431
g355
g55
sg357
I01
sg358
g359
sg360
I00
sg361
I00
sg362
S'!x86'
p432
sg364
I01
sg38
Nsbag329
(g351
g331
Ntp433
Rp434
(dp435
g355
S'stdc++'
p436
sg357
I00
sg358
g359
sg360
I00
sg361
I00
sg362
S'mips'
p437
sg364
I00
sg38
Nsbag329
(g351
g331
Ntp438
Rp439
(dp440
g355
S'c'
p441
sg357
I00
sg358
g359
sg360
I00
sg361
I00
sg362
S'mips'
p442
sg364
I00
sg38
Nsbag329
(g351
g331
Ntp443
Rp444
(dp445
g355
S'm'
p446
sg357
I00
sg358
g359
sg360
I00
sg361
I00
sg362
S'mips'
p447
sg364
I00
sg38
Nsbag329
(g351
g331
Ntp448
Rp449
(dp450
g355
S'gcc'
p451
sg357
I00
sg358
g359
sg360
I00
sg361
I00
sg362
S'mips'
p452
sg364
I00
sg38
Nsbag329
(g351
g331
Ntp453
Rp454
(dp455
g355
S'stdc++'
p456
sg357
I00
sg358
g359
sg360
I00
sg361
I00
sg362
S'gcc_x86_android'
p457
sg364
I00
sg38
Nsbag329
(g351
g331
Ntp458
Rp459
(dp460
g355
g441
sg357
I00
sg358
g359
sg360
I00
sg361
I00
sg362
S'gcc_x86_android'
p461
sg364
I00
sg38
Nsbag329
(g351
g331
Ntp462
Rp463
(dp464
g355
g446
sg357
I00
sg358
g359
sg360
I00
sg361
I00
sg362
S'gcc_x86_android'
p465
sg364
I00
sg38
Nsbag329
(g351
g331
Ntp466
Rp467
(dp468
g355
g451
sg357
I00
sg358
g359
sg360
I00
sg361
I00
sg362
S'gcc_x86_android'
p469
sg364
I00
sg38
NsbasS'library_paths'
p470
(lp471
g329
(cmkb_main
LibraryPath
p472
g331
Ntp473
Rp474
(dp475
S'expand_path'
p476
I01
sg355
S'c:/marmalade/7.5/modules/iw2d'
p477
sbag329
(g472
g331
Ntp478
Rp479
(dp480
g476
I00
sg355
S'c:/marmalade/7.5/modules/iwgx/atitools'
p481
sbag329
(g472
g331
Ntp482
Rp483
(dp484
g476
I01
sg355
S'c:/marmalade/7.5/modules/iwgx'
p485
sbag329
(g472
g331
Ntp486
Rp487
(dp488
g476
I01
sg355
S'c:/marmalade/7.5/modules/iwgl'
p489
sbag329
(g472
g331
Ntp490
Rp491
(dp492
g476
I01
sg355
S'c:/marmalade/7.5/modules/iwutil'
p493
sbag329
(g472
g331
Ntp494
Rp495
(dp496
g476
I01
sg355
S'c:/marmalade/7.5/modules/third_party/libjpeg'
p497
sbag329
(g472
g331
Ntp498
Rp499
(dp500
g476
I01
sg355
S'c:/marmalade/7.5/modules/third_party/zlib'
p501
sbag329
(g472
g331
Ntp502
Rp503
(dp504
g476
I01
sg355
S'c:/marmalade/7.5/modules/third_party/libpng'
p505
sbag329
(g472
g331
Ntp506
Rp507
(dp508
g476
I01
sg355
S'c:/marmalade/7.5/modules/iwgeom'
p509
sbag329
(g472
g331
Ntp510
Rp511
(dp512
g476
I01
sg355
S'c:/marmalade/7.5/modules/iwresmanager'
p513
sbag329
(g472
g331
Ntp514
Rp515
(dp516
g476
I01
sg355
S'c:/marmalade/7.5/modules/iwgxfont'
p517
sbag329
(g472
g331
Ntp518
Rp519
(dp520
g476
I01
sg355
S'c:/marmalade/7.5/modules/third_party/tiniconv'
p521
sbag329
(g472
g331
Ntp522
Rp523
(dp524
g476
I01
sg355
S'c:/marmalade/7.5/s3e'
p525
sbasS'macros'
p526
(dp527
S'IW_USE_CALLSTACK'
p528
NsS'IW_MKF_IWGEOM'
p529
NsS'I3D_PLATFORM_S3E'
p530
NsS'IW_TRACE_CHANNEL_PVRTEXTOOL_VERBOSE'
p531
S'2'
p532
sS'IW_MKF_LIBJPEG'
p533
NsS'I3D_OS_S3E'
p534
NsS'IW_MKF_PVRTEXTOOL'
p535
NsS'IW_MKF_TINICONV'
p536
NsS'IW_APP_VERSION'
p537
S'"1.0"'
p538
sS'__S3E__'
p539
NsS'IW_MKF_IWRESMANAGER'
p540
NsS'IW_MKF_IWUTIL'
p541
NsS'IW_PLATFORM_S3E'
p542
NsS'IW_ASSERTION_CHANNEL_2D'
p543
S'1'
p544
sS'IW_APP_NAME'
p545
S'"Stage4"'
p546
sS'IW_MKF_MARMALADEEXAMPLERESOURCES'
p547
NsS'IW_MKF_IWGXFONT'
p548
NsS'IW_MKF_IWTWEEN'
p549
NsS'IW_MKF_ZLIB'
p550
NsS'IW_MKF_S3E_DEFAULT'
p551
NsS'IW_MKF_IWGX'
p552
NsS'IW_MKF_IW2DSCENEGRAPH'
p553
NsS'IW_MKF_SOUNDENGINE'
p554
NsS'IW_USE_ASSERTIONS'
p555
NsS'_CRT_SECURE_NO_DEPRECATE'
p556
NsS'IW_MKF_IWGL'
p557
NsS'IW_MKF_LIBPNG'
p558
NsS'IW_TRACE_CHANNEL_IW_2DSCENEGRAPH'
p559
g544
sS'IW_DEBUG'
p560
NsS'IW_USE_TRACING'
p561
NsS'IW_ASSERTION_CHANNEL_IW_2DSCENEGRAPH'
p562
g544
sS'IW_TRACE_CHANNEL_PVRTEXTOOL'
p563
g544
sS'IW_SDK'
p564
NsS'S3E_INCLUDE_LEGACY'
p565
NsS'IW_MKF_IW2DSCENEGRAPHCORE'
p566
NsS'IW_MKF_IW2D'
p567
NsS'IW_ASSERTION_CHANNEL_PVRTEXTOOL'
p568
g544
ssS'done_warnings'
p569
(dp570
sS'subprojects'
p571
(dp572
g192
S'iwgx'
p573
sg201
S'iwgxfont'
p574
sg190
S's3e-default.mkf'
p575
sg204
S'../iw2dscenegraphcore'
p576
sg197
S'zlib'
p577
sg199
S'iwresmanager'
p578
sg202
S'tiniconv'
p579
sg195
S'libjpeg'
p580
sg191
S'iw2d'
p581
sg207
S'../../../MarmaladeExampleResources'
p582
sg194
S'iwutil'
p583
sg205
S'iwtween'
p584
sg196
S'libpng'
p585
sg203
S'iw2dscenegraph'
p586
sg206
S'SoundEngine'
p587
sg193
S'iwgl'
p588
sg198
S'iwgeom'
p589
sg200
S'PVRTexTool'
p590
ssS'deployments'
p591
(dp592
S'Default'
p593
g329
(cdeployment
Deployment
p594
g331
Ntp595
Rp596
(dp597
S'got_version'
p598
I0
sS'assets'
p599
g593
sS'mkb'
p600
g333
sS'target'
p601
Nsg362
(lp602
sS'options'
p603
(dp604
S'iphone-link-lib'
p605
(lp606
sS'game-icf'
p607
NsS'android-tm'
p608
NsS'winmobile-icon32'
p609
NsS'ws8-logo-image150x150'
p610
NsS'wp81-logo-image150x150'
p611
NsS'android-keystore'
p612
NsS'osx-ext-dll'
p613
(lp614
S'c:/marmalade/7.5/extensions/pvrtextool/lib/osx/libPVRTexTool.dylib'
p615
asS'iphone-provisioning-profile'
p616
NsS'ws8-splash-screen-image620x300'
p617
NsS'wp81-extra-pri'
p618
(lp619
sS'ws8-ext-capabilities'
p620
(lp621
sS'android-icon-hdpi'
p622
NsS'iphone-ipad-only'
p623
NsS'iphone-splash-full-orient'
p624
NsS'wp8-tile-fliptemplate-supports-large'
p625
NsS'iphone-show-status-bar'
p626
NsS'roku-requires-mkv'
p627
NsS'long-caption'
p628
NsS'android-pkgname'
p629
NsS'wp81-publisher-display-name'
p630
NsS'blackberry-permissions-read-device-identifying-information'
p631
NsS'ws81-certificate-end-date'
p632
NsS'psp-dlgcontentid'
p633
NsS'iphone-minimum-ios-version'
p634
NsS'target-folder'
p635
NsS'tizen-dist1-CA-path'
p636
NsS'symbian-icon2-format'
p637
NsS'tizen-author-key'
p638
NsS'firefoxos-icon-128X128'
p639
NsS'iphone-region'
p640
NsS'uiq3-icon3-mask'
p641
NsS'brew-encoding'
p642
NsS'android-x86'
p643
NsS'nds-initialcode'
p644
NsS'iphone-persistent-wifi'
p645
NsS'psp-snd0'
p646
NsS'roku-icon-focus-hd'
p647
NsS'osx-appid'
p648
NsS'winmobile-install-folder'
p649
NsS'android-external-res'
p650
(lp651
sS'ws8-product-version'
p652
NsS'brew-priviledges'
p653
NsS'iphone-info-plist-override'
p654
NsS'iphone-icon-ipad'
p655
NsS'iphone-skip-icon-generation'
p656
NsS'roku-hidden'
p657
NsS'psp-titlename'
p658
NsS'wp81-product-version'
p659
NsS'symbian-icon1-mask'
p660
NsS'psp-parentallevel'
p661
NsS'iphone-launch-storyboard'
p662
NsS'splashscreen-use-all'
p663
NsS'wp8-author'
p664
NsS'symbian-disable-ecompxl'
p665
NsS'splashscreen-auto-onblack'
p666
NsS'iphone-icon-dir'
p667
NsS'iphone-icon-extra'
p668
NsS'win32-ext-dll'
p669
(lp670
S'c:/marmalade/7.5/extensions/pvrtextool/lib/win32/PVRTexTool.dll'
p671
asS'iphone-development-key'
p672
NsS'winmobile-icon48'
p673
NsS'android-unsigned'
p674
NsS'osx-appstore-category'
p675
NsS'version-revision'
p676
NsS'roku-icon-focus-sd'
p677
NsS'ws81-product-version'
p678
NsS'winmobile-png90'
p679
NsS'iphone-icon-ipad-high-res'
p680
NsS'iphone-disable-ipad'
p681
NsS'ws81-splash-screen-background'
p682
NsS'wp8-ext-capabilities'
p683
(lp684
sS'brew-icon-large'
p685
NsS'symbian-icon1-mask-black'
p686
NsS'ws8-extra-res'
p687
(lp688
sS'iphone-bundle-localisations'
p689
NsS'winmobile-png60'
p690
NsS'blackberry-permissions-access-shared'
p691
NsS'blackberry-author'
p692
NsS'android-icon-xxxhdpi'
p693
NsS'olddeploytoolstyle'
p694
NsS'android_icon_gallery'
p695
NsS'wp81-splash-screen-background'
p696
NsS'winmobile-cab-compress'
p697
NsS'iphone-info-plist'
p698
NsS'ws81-ext-managed-dll'
p699
(lp700
sS'playbook-cskpass'
p701
NsS'win32-icon'
p702
NsS'symbian-key'
p703
NsS'app-icf'
p704
NsS'blackberry-storepass'
p705
NsS'wp8-tile-fliptemplate-back-title'
p706
NsS'brew-compress-loader'
p707
NsS'iphone-testflight'
p708
NsS'win32-pref-windowposy'
p709
NsS'win32-pref-windowposx'
p710
NsS'roku-requires-audiometadata'
p711
NsS'wp8-exclude-low-mem'
p712
NsS'iphone-icon-ipad-search-high-res'
p713
NsS'iphone-link-libdir'
p714
(lp715
sS'wp81-ext-capabilities'
p716
(lp717
sS'blackberry-permissions-read-geolocation'
p718
NsS'ws81-ext-device-capabilities'
p719
(lp720
sS'tizen-signed'
p721
NsS'android-extra-application-manifest'
p722
(lp723
sS'ws8-ext-native-dll'
p724
(lp725
sS'symbian-icon2-mask'
p726
NsS'iphone-launch-extra'
p727
NsS'webos-memory'
p728
NsS'android-keypass'
p729
NsS'name'
p730
NsS'uiq3-icon2-format'
p731
NsS'roku-splash-screen-sd'
p732
NsS'auto-derbh'
p733
NsS'roku-icon-side-sd'
p734
NsS'android-external-assets'
p735
(lp736
sS'nds-publicsavedatasize'
p737
NsS'splashscreen'
p738
S'c:/marmalade/7.5/examples/marmaladeexampleresources/resources/splashscreens'
p739
sS'brew-mif'
p740
NsS'iphone-icon-settings-high-res'
p741
NsS'android-manifest'
p742
NsS'ws81-splash-screen-image620x300'
p743
NsS'wp81-product-name'
p744
NsS's3e-compression'
p745
NsS'tizen-author-password'
p746
NsS'wp8-tile-fliptemplate-back-content'
p747
NsS'blackberry-extra-descriptor'
p748
(lp749
sS'symbian-icon1'
p750
NsS'symbian-icon2'
p751
NsS'nds-makercode'
p752
NsS'android-extra-styles-file'
p753
NsS'wp81-publisher-id'
p754
NsS'nds-bannertitle-jp'
p755
NsS'wp81-logo-image44x44'
p756
NsS'osx-sign-for-store'
p757
NsS'symbian7-uid'
p758
NsS'wp8-tile-fliptemplate-large-back-content'
p759
NsS'wp81-phone-publisher-id'
p760
NsS'nds-bannertitle-cn'
p761
NsS'iphone-distribution-key'
p762
NsS'android-icon-gallery'
p763
NsS'blackberry-keystore'
p764
NsS'iphone-nosign'
p765
NsS'caption'
p766
NsS'android-extra-manifest'
p767
(lp768
sS'wp81-ext-sdk-ref'
p769
(lp770
sS'android-icon-xxhdpi'
p771
NsS'version-minor'
p772
NsS'iphone-skip-launch-generation'
p773
NsS'iphone-link-libdirs'
p774
(lp775
sS'iphone-icon-large'
p776
NsS'symbian-keypwd'
p777
NsS'symbian8-uid'
p778
NsS'symbian-cert-key'
p779
NsS'winmobile-ampd-part-number'
p780
NsS'arch'
p781
NsS'nds-romheadertemplate'
p782
NsS'webos-icon'
p783
NsS'wp81-ext-device-capabilities'
p784
(lp785
sS'psp-dlgprotectdocument'
p786
NsS'ws8-splash-screen-background'
p787
NsS'android-icon-mdpi'
p788
NsS'nds-icon'
p789
NsS'ws8-custom-manifest-fill'
p790
NsS'iphone-development-cert'
p791
NsS'and'
p792
NsS'symbian-icon2-mask-black'
p793
NsS'blackberry-phone-icon'
p794
NsS'iphone-enable-4inch-retina'
p795
NsS'ws8-custom-manifest'
p796
NsS'version-major'
p797
NsS'wp8-genre-isgame'
p798
NsS'uiq3-uid'
p799
NsS'iphone-splash-retina-generate'
p800
NsS'tizen-hw-acceleration'
p801
NsS'iphone_bundle_localisations'
p802
NsS'tizen-dist1-key'
p803
NsS'wp81-custom-manifest-fill'
p804
NsS'wp8-custom-manifest'
p805
NsS'nds-bannertitle-ge'
p806
NsS'iphone-sign-for-distribution'
p807
NsS'wp8-tile-fliptemplate-medium-back-image'
p808
NsS'wp8-publisher-id'
p809
NsS'icon'
p810
S'c:/marmalade/7.5/examples/marmaladeexampleresources/resources/icons'
p811
sS'wp8-exclude-wxga'
p812
NsS'wp81-identity-name'
p813
NsS'uiq3-icon2-mask'
p814
NsS'iphone-splashscreen-portrait'
p815
NsS'iphone-icon-high-res'
p816
NsS'ws81-distribution-pfx-password'
p817
NsS'playbook-author'
p818
NsS'android-icon-xhdpi'
p819
NsS'linux-ext-lib'
p820
(lp821
sS'blackberry-permissions-access-internet'
p822
NsS'wp8-exclude-720p'
p823
NsS'lgtv-use-drm'
p824
NsS'symbian-platsecflags'
p825
NsS'ws8-description'
p826
NsS'blackberry-playbook-icon'
p827
NsS'copyright'
p828
NsS'ws8-distribution-pfx-password'
p829
NsS'win32-gles-directory'
p830
NsS'version'
p831
NsS'iphone-uiviewcontroller-based-status-bar'
p832
NsS'ws81-logo-image150x150'
p833
NsS'osx-signing-identity-app'
p834
NsS'tizen-project-url'
p835
NsS'symbian-icon-svg'
p836
NsS'android-aliasname'
p837
NsS'psp-dlgmanual'
p838
NsS'brew-uid'
p839
NsS'symbian-locationsupport'
p840
NsS'wp81-logo-image50x50'
p841
NsS'ws8-ext-managed-dll'
p842
(lp843
sS'nds-bannertitle-it'
p844
NsS'ws81-custom-manifest-fill'
p845
NsS'ws8-ext-sdk-manifest-part'
p846
(lp847
sS'uiq3-icon1-mask'
p848
NsS'winmobile-icon16'
p849
NsS'ws8-product-name'
p850
NsS'blackberry-cskpass'
p851
NsS'winmobile-start-menu-folder'
p852
NsS'brew-clsid'
p853
NsS'roku-requires-bluetooth'
p854
NsS'iphone-default-development-profile'
p855
NsS'ws8-ext-device-capabilities'
p856
(lp857
sS'blackberry-permissions-use-camera'
p858
NsS'ws81-extra-pri'
p859
(lp860
sS'iphone-prerendered-icon'
p861
NsS'iphone-appid'
p862
NsS'ws8-identity-name'
p863
NsS'tizen-dist2-CA-path'
p864
NsS'android-external-jars'
p865
(lp866
sS'winmobile-icon64'
p867
NsS'blackberry-permissions-post-notification'
p868
NsS'winmobile-setup-dll'
p869
NsS'firefoxos-manifest'
p870
NsS'win8-winrt-extra-res'
p871
(lp872
sS'wp81-ext-sdk-manifest-part'
p873
(lp874
sS'symbian9-uid'
p875
NsS'iphone-icon-ipad-ios7'
p876
NsS'winmobile-trace-file'
p877
NsS'roku-splash-color'
p878
NsS'psp-appversion'
p879
NsS'ws8-publisher-id'
p880
NsS'android-supports-gl-texture'
p881
(lp882
sS'winmobile-png45'
p883
NsS'wp81-extra-res'
p884
(lp885
sS'android-storepass'
p886
NsS'osx-signing-identity-inst'
p887
NsS'android-custom-activity'
p888
NsS'psp-discversion'
p889
NsS'wp81-ext-managed-dll'
p890
(lp891
sS'psp-copyright'
p892
NsS'embed-icf'
p893
NsS'tizen-manifest'
p894
NsS'osx-icon'
p895
NsS'webos-appinfo'
p896
NsS'psp-dlghealthwarning'
p897
NsS'webos-appid'
p898
NsS'roku-icon-side-hd'
p899
NsS'iphone-icon-ipad-search-high-res-ios7'
p900
NsS'iphone-extra-plist'
p901
(lp902
sS'ws81-ext-sdk-manifest-part'
p903
(lp904
sS'loader_name_prefix'
p905
NsS'iphone-launch-dir'
p906
NsS'nds-titlename'
p907
NsS'ws81-logo-image50x50'
p908
NsS'wp81-custom-manifest'
p909
NsS'osx-entitlements-plist'
p910
NsS'psp-dlgicon0'
p911
NsS'winmobile-nouninstall'
p912
NsS'psp-discid'
p913
NsS'tizen-dist2-password'
p914
NsS'ws8-ext-sdk-ref'
p915
(lp916
sS'iphone-extra-string'
p917
(lp918
sS'version-string'
p919
NsS'iphone-icon-high-res-ios7'
p920
NsS'blackberry-permissions-record-audio'
p921
NsS'ws8-certificate-end-date'
p922
NsS'tizen-so'
p923
(lp924
sS'wp8-tile-fliptemplate-small-image'
p925
NsS'playbook-authorid'
p926
NsS'iphone-signing-identity'
p927
NsS'roku-persist-quota'
p928
NsS'nds-bannertitle-fr'
p929
NsS'ws8-distribution-pfx'
p930
NsS'ws8-publisher-display-name'
p931
NsS'brew-icon-small'
p932
NsS'psp-dlgpic2'
p933
NsS'psp-dlgpic0'
p934
NsS'psp-pic0'
p935
NsS'psp-pic1'
p936
NsS'win32-pref-windowtitle'
p937
NsS'psp-icon0'
p938
NsS'psp-icon1'
p939
NsS'ws81-identity-name'
p940
NsS'winmobile-icon'
p941
NsS'iphone-no-splash'
p942
NsS'iphone-splash'
p943
NsS'iphone-app-fonts'
p944
NsS'wp8-ext-native-dll'
p945
(lp946
sS'wp81-splash-screen-image480x800'
p947
NsS'ws81-distribution-cer'
p948
NsS'iphone-backgroundmode-audio'
p949
NsS'uiq3-icon2'
p950
NsS'uiq3-icon3'
p951
NsS'uiq3-icon1'
p952
NsS'uiq3-icon1-format'
p953
NsS'ws8-logo-image50x50'
p954
NsS'iphone-icon-ipad-search'
p955
NsS'symbian-run-on-install'
p956
NsS'wp81-description'
p957
NsS'ws81-publisher-display-name'
p958
NsS'firefoxos-xulrunner'
p959
NsS'symbian-soundrecordsupport'
p960
NsS'nds-bannertitle-sp'
p961
NsS'psp-producer'
p962
NsS'iphone-apple-wwdr-cert'
p963
NsS'android-icon-nonstandard'
p964
NsS'win32-pref-processtitle'
p965
NsS'nds-bannertitle-hn'
p966
NsS'tizen-dist2-key'
p967
NsS'brew-depends'
p968
NsS'ws81-custom-manifest'
p969
NsS'iphone-allow-launch-rotation'
p970
NsS'iphone-icon-ipad-search-ios7'
p971
NsS'brew-icon-medium'
p972
NsS'iphone-bundle-url-name'
p973
NsS'wp8-tile-fliptemplate-large-front-image'
p974
NsS'tizen-dist2-CA-root-path'
p975
NsS'ws81-description'
p976
NsS'uiq3-icon3-format'
p977
NsS'ws81-logo-image30x30'
p978
NsS'win8-phone-extra-res'
p979
(lp980
sS'iphone-signing-host'
p981
NsS'tizen-icon'
p982
NsS'osx-info-plist'
p983
NsS'symbian-icon1-format'
p984
NsS'ws81-distribution-pfx'
p985
NsS'blackberry-authorid'
p986
NsS'ws81-publisher-id'
p987
NsS'win8-store-extra-res'
p988
(lp989
sS'wp8-description'
p990
NsS'iphone-link-opts'
p991
(lp992
sS'ws81-ext-sdk-ref'
p993
(lp994
sS'roku-splash-min-time'
p995
NsS'wp8-tile-fliptemplate-medium-front-image'
p996
NsS'iphone-disable-launch-images'
p997
NsS'provider'
p998
NsS'playbook-keystore'
p999
NsS'tizen-appid'
p1000
NsS'wp8-extra-res'
p1001
(lp1002
sS'symbian-osexecsupport'
p1003
NsS'android-install-location'
p1004
NsS'nds-privatesavedatasize'
p1005
NsS'iphone-disable-testflight'
p1006
NsS'playbook-storepass'
p1007
NsS'android-icon-ldpi'
p1008
NsS'manufacturer'
p1009
NsS'itunes-artwork'
p1010
NsS'iphone-extra-sections'
p1011
NsS'ws81-product-name'
p1012
NsS'ws81-ext-native-dll'
p1013
(lp1014
sS'ws8-extra-pri'
p1015
(lp1016
sS'wp8-product-id'
p1017
NsS'ws8-logo-image30x30'
p1018
NsS'wp8-ext-managed-dll'
p1019
(lp1020
sS'iphone-splashscreen-landscape'
p1021
NsS'symbian-maxheapsize'
p1022
NsS'android-extra-packages'
p1023
(lp1024
sS'priv-sign-key'
p1025
NsS'networking'
p1026
NsS'android-icon'
p1027
NsS'iphone-icon-settings'
p1028
NsS'wp81-phone-product-id'
p1029
NsS'firefoxos-icon-60X60'
p1030
NsS'iphone-distribution-cert'
p1031
NsS'android_extra_strings'
p1032
NsS'nds-bannertitle-en'
p1033
NsS'wp8-tile-fliptemplate-title'
p1034
NsS'android-so'
p1035
(lp1036
sS'wp8-higher-mem'
p1037
NsS'wp8-ext-sdk-ref'
p1038
(lp1039
sS'wp8-fast-resume-mode'
p1040
NsS'roku-splash-screen-hd'
p1041
NsS'iphone-bundle-url-schemes'
p1042
NsS'roku-screensaver-private'
p1043
NsS'osx-extra-res'
p1044
(lp1045
sS'ws81-extra-res'
p1046
(lp1047
sS'playbook-icon'
p1048
NsS'uid'
p1049
NsS'pkguid-as-uid'
p1050
NsS'wp81-ext-native-dll'
p1051
(lp1052
sS'tizen-dist1-password'
p1053
NsS'roku-screensaver-title'
p1054
NsS'osx-minimum-osx-version'
p1055
NsS'symbian-cert'
p1056
NsS'iphone-icon'
p1057
NsS'ws81-ext-capabilities'
p1058
(lp1059
sS'ws8-distribution-cer'
p1060
NsS'playbook-access-shared'
p1061
NsS'iphone-icon-ipad-high-res-ios7'
p1062
NsS'iphone-link-libs'
p1063
(lp1064
sS'wp8-exclude-wvga'
p1065
NsS'assets'
p1066
NsS'wp8-tile-fliptemplate-large-back-image'
p1067
NsS'wp8-custom-manifest-fill'
p1068
NsS'pub-sign-key'
p1069
NsS'android-extra-strings'
p1070
NsS'tizen-author-CA-path'
p1071
Nssg355
g593
sbssS'platform'
p1072
S'S3E'
p1073
sg70
S'1.0'
p1074
sS'arcade_platform'
p1075
g4
sS'extensions'
p1076
(dp1077
sS'source_groups_tree'
p1078
(dp1079
S'(libpng)'
p1080
(dp1081
S'h'
p1082
(dp1083
S'c:/marmalade/7.5/modules/third_party/libpng/h/png.h'
p1084
(lp1085
I1
a(dp1086
asS'c:/marmalade/7.5/modules/third_party/libpng/h/pngconf.h'
p1087
(lp1088
I1
ag1086
assS'c:/marmalade/7.5/modules/third_party/libpng/libpng.mkf'
p1089
(lp1090
I1
a(dp1091
assS'(libjpeg)'
p1092
(dp1093
S'c:/marmalade/7.5/modules/third_party/libjpeg/libjpeg.mkf'
p1094
(lp1095
I1
a(dp1096
asg1082
(dp1097
S'c:/marmalade/7.5/modules/third_party/libjpeg/h/jerror.h'
p1098
(lp1099
I1
a(dp1100
asS'c:/marmalade/7.5/modules/third_party/libjpeg/h/jdhuff.h'
p1101
(lp1102
I1
ag1100
asS'c:/marmalade/7.5/modules/third_party/libjpeg/h/cderror.h'
p1103
(lp1104
I1
ag1100
asS'c:/marmalade/7.5/modules/third_party/libjpeg/h/transupp.h'
p1105
(lp1106
I1
ag1100
asS'c:/marmalade/7.5/modules/third_party/libjpeg/h/jinclude.h'
p1107
(lp1108
I1
ag1100
asS'c:/marmalade/7.5/modules/third_party/libjpeg/h/jmorecfg.h'
p1109
(lp1110
I1
ag1100
asS'c:/marmalade/7.5/modules/third_party/libjpeg/h/jdct.h'
p1111
(lp1112
I1
ag1100
asS'c:/marmalade/7.5/modules/third_party/libjpeg/h/jmemsys.h'
p1113
(lp1114
I1
ag1100
asS'c:/marmalade/7.5/modules/third_party/libjpeg/h/jpegint.h'
p1115
(lp1116
I1
ag1100
asS'c:/marmalade/7.5/modules/third_party/libjpeg/h/jchuff.h'
p1117
(lp1118
I1
ag1100
asS'c:/marmalade/7.5/modules/third_party/libjpeg/h/cdjpeg.h'
p1119
(lp1120
I1
ag1100
asS'c:/marmalade/7.5/modules/third_party/libjpeg/h/jversion.h'
p1121
(lp1122
I1
ag1100
asS'c:/marmalade/7.5/modules/third_party/libjpeg/h/jconfig.h'
p1123
(lp1124
I1
ag1100
asS'c:/marmalade/7.5/modules/third_party/libjpeg/h/jpeglib.h'
p1125
(lp1126
I1
ag1100
asssS'(tiniconv)'
p1127
(dp1128
S'c:/marmalade/7.5/modules/third_party/tiniconv/tiniconv.mkf'
p1129
(lp1130
I1
a(dp1131
asS'c:/marmalade/7.5/modules/third_party/tiniconv/source/tiniconv_int.h'
p1132
(lp1133
I1
a(dp1134
asS'c:/marmalade/7.5/modules/third_party/tiniconv/source/tiniconv.h'
p1135
(lp1136
I1
ag1134
assS'(SoundEngine)'
p1137
(dp1138
S'c:/marmalade/7.5/examples/gametutorial/cpp/modules/soundengine/source/IwSoundGroup.cpp'
p1139
(lp1140
I1
a(dp1141
asS'c:/marmalade/7.5/examples/gametutorial/cpp/modules/soundengine/h/IwSoundADPCM.h'
p1142
(lp1143
I1
ag1141
asS'c:/marmalade/7.5/examples/gametutorial/cpp/modules/soundengine/source/IwResHandlerWAV.cpp'
p1144
(lp1145
I1
ag1141
asS'c:/marmalade/7.5/examples/gametutorial/cpp/modules/soundengine/h/IwResHandlerWAV.h'
p1146
(lp1147
I1
ag1141
asS'Docs'
p1148
(dp1149
S'c:/marmalade/7.5/examples/gametutorial/cpp/modules/soundengine/docs/iwsound.config.txt'
p1150
(lp1151
I1
ag1141
assS'c:/marmalade/7.5/examples/gametutorial/cpp/modules/soundengine/h/IwSoundInst.h'
p1152
(lp1153
I1
ag1141
asS'c:/marmalade/7.5/examples/gametutorial/cpp/modules/soundengine/source/IwSoundManager.cpp'
p1154
(lp1155
I1
ag1141
asS'c:/marmalade/7.5/examples/gametutorial/cpp/modules/soundengine/h/IwSoundSpec.h'
p1156
(lp1157
I1
ag1141
asS'c:/marmalade/7.5/examples/gametutorial/cpp/modules/soundengine/source/IwSoundParams.cpp'
p1158
(lp1159
I1
ag1141
asS'c:/marmalade/7.5/examples/gametutorial/cpp/modules/soundengine/h/IwSoundManager.h'
p1160
(lp1161
I1
ag1141
asS'c:/marmalade/7.5/examples/gametutorial/cpp/modules/soundengine/source/IwSoundPCM.cpp'
p1162
(lp1163
I1
ag1141
asS'c:/marmalade/7.5/examples/gametutorial/cpp/modules/soundengine/source/IwSoundWAV.cpp'
p1164
(lp1165
I1
ag1141
asS'c:/marmalade/7.5/examples/gametutorial/cpp/modules/soundengine/source/IwSoundInst.cpp'
p1166
(lp1167
I1
ag1141
asS'c:/marmalade/7.5/examples/gametutorial/cpp/modules/soundengine/h/IwSoundWAV.h'
p1168
(lp1169
I1
ag1141
asS'c:/marmalade/7.5/examples/gametutorial/cpp/modules/soundengine/source/IwSoundSpec.cpp'
p1170
(lp1171
I1
ag1141
asS'c:/marmalade/7.5/examples/gametutorial/cpp/modules/soundengine/h/IwSoundParams.h'
p1172
(lp1173
I1
ag1141
asS'c:/marmalade/7.5/examples/gametutorial/cpp/modules/soundengine/source/IwSoundADPCM.cpp'
p1174
(lp1175
I1
ag1141
asS'c:/marmalade/7.5/examples/gametutorial/cpp/modules/soundengine/h/IwSound.h'
p1176
(lp1177
I1
ag1141
asS'c:/marmalade/7.5/examples/gametutorial/cpp/modules/soundengine/source/IwSoundData.cpp'
p1178
(lp1179
I1
ag1141
asS'c:/marmalade/7.5/examples/gametutorial/cpp/modules/soundengine/h/IwSoundData.h'
p1180
(lp1181
I1
ag1141
asS'c:/marmalade/7.5/examples/gametutorial/cpp/modules/soundengine/h/IwSoundPCM.h'
p1182
(lp1183
I1
ag1141
asS'c:/marmalade/7.5/examples/gametutorial/cpp/modules/soundengine/soundengine.mkf'
p1184
(lp1185
I1
a(dp1186
asS'c:/marmalade/7.5/examples/gametutorial/cpp/modules/soundengine/h/IwSoundGroup.h'
p1187
(lp1188
I1
ag1141
assS'(MarmaladeExampleResources)'
p1189
(dp1190
S'c:/marmalade/7.5/examples/marmaladeexampleresources/marmaladeexampleresources.mkf'
p1191
(lp1192
I1
a(dp1193
assS'source'
p1194
(dp1195
S'c:/Marmalade/7.5/examples/GameTutorial/CPP/marm1/source/mainMenu.h'
p1196
(lp1197
I1
a(dp1198
asS'c:/Marmalade/7.5/examples/GameTutorial/CPP/marm1/source/main.h'
p1199
(lp1200
I1
ag1198
asS'c:/Marmalade/7.5/examples/GameTutorial/CPP/marm1/source/enemy.h'
p1201
(lp1202
I1
ag1198
asS'c:/Marmalade/7.5/examples/GameTutorial/CPP/marm1/source/hero.h'
p1203
(lp1204
I1
ag1198
asS'c:/Marmalade/7.5/examples/GameTutorial/CPP/marm1/source/scene.cpp'
p1205
(lp1206
I1
ag1198
asS'c:/Marmalade/7.5/examples/GameTutorial/CPP/marm1/source/Enemymanager.cpp'
p1207
(lp1208
I1
ag1198
asS'c:/Marmalade/7.5/examples/GameTutorial/CPP/marm1/source/Level.h'
p1209
(lp1210
I1
ag1198
asS'c:/Marmalade/7.5/examples/GameTutorial/CPP/marm1/source/input.h'
p1211
(lp1212
I1
ag1198
asS'c:/Marmalade/7.5/examples/GameTutorial/CPP/marm1/source/audio.h'
p1213
(lp1214
I1
ag1198
asS'c:/Marmalade/7.5/examples/GameTutorial/CPP/marm1/source/resources.h'
p1215
(lp1216
I1
ag1198
asS'c:/Marmalade/7.5/examples/GameTutorial/CPP/marm1/source/mainMenu.cpp'
p1217
(lp1218
I1
ag1198
asS'c:/Marmalade/7.5/examples/GameTutorial/CPP/marm1/source/input.cpp'
p1219
(lp1220
I1
ag1198
asS'c:/Marmalade/7.5/examples/GameTutorial/CPP/marm1/source/main.cpp'
p1221
(lp1222
I1
ag1198
asS'c:/Marmalade/7.5/examples/GameTutorial/CPP/marm1/source/Shark.cpp'
p1223
(lp1224
I1
ag1198
asS'c:/Marmalade/7.5/examples/GameTutorial/CPP/marm1/source/enemy.cpp'
p1225
(lp1226
I1
ag1198
asS'c:/Marmalade/7.5/examples/GameTutorial/CPP/marm1/source/resources.cpp'
p1227
(lp1228
I1
ag1198
asS'c:/Marmalade/7.5/examples/GameTutorial/CPP/marm1/source/Shark.h'
p1229
(lp1230
I1
ag1198
asS'c:/Marmalade/7.5/examples/GameTutorial/CPP/marm1/source/Levelmanager.h'
p1231
(lp1232
I1
ag1198
asS'c:/Marmalade/7.5/examples/GameTutorial/CPP/marm1/source/Enemymanager.h'
p1233
(lp1234
I1
ag1198
asS'c:/Marmalade/7.5/examples/GameTutorial/CPP/marm1/source/Levelmanager.cpp'
p1235
(lp1236
I1
ag1198
asS'c:/Marmalade/7.5/examples/GameTutorial/CPP/marm1/source/GameScene.cpp'
p1237
(lp1238
I1
ag1198
asS'c:/Marmalade/7.5/examples/GameTutorial/CPP/marm1/source/BackgroundEntity.h'
p1239
(lp1240
I1
ag1198
asS'c:/Marmalade/7.5/examples/GameTutorial/CPP/marm1/source/pauseMenu.h'
p1241
(lp1242
I1
ag1198
asS'c:/Marmalade/7.5/examples/GameTutorial/CPP/marm1/source/BackgroundEntity.cpp'
p1243
(lp1244
I1
ag1198
asS'c:/Marmalade/7.5/examples/GameTutorial/CPP/marm1/source/pauseMenu.cpp'
p1245
(lp1246
I1
ag1198
asS'c:/Marmalade/7.5/examples/GameTutorial/CPP/marm1/source/scene.h'
p1247
(lp1248
I1
ag1198
asS'c:/Marmalade/7.5/examples/GameTutorial/CPP/marm1/source/audio.cpp'
p1249
(lp1250
I1
ag1198
asS'c:/Marmalade/7.5/examples/GameTutorial/CPP/marm1/source/hero.cpp'
p1251
(lp1252
I1
ag1198
asS'c:/Marmalade/7.5/examples/GameTutorial/CPP/marm1/source/GameScene.h'
p1253
(lp1254
I1
ag1198
assS'Extensions'
p1255
(dp1256
S'PVRTexTool'
p1257
(dp1258
S'interface'
p1259
(dp1260
S'c:/marmalade/7.5/extensions/pvrtextool/interface/PVRTexTool.defines.txt'
p1261
(lp1262
I1
a(dp1263
asS'c:/marmalade/7.5/extensions/pvrtextool/interface/PVRTexTool_interface.cpp'
p1264
(lp1265
I1
ag1263
assS'c:/marmalade/7.5/extensions/pvrtextool/h/PVRTexTool.h'
p1266
(lp1267
I1
ag1263
asS'c:/marmalade/7.5/extensions/pvrtextool/pvrtextool.mkf'
p1268
(lp1269
I1
a(dp1270
asssS"'Marmalade Studio'"
p1271
(dp1272
S'iw2dscenegraph'
p1273
(dp1274
S'c:/marmalade/7.5/modules/iw2dscenegraph/source/Iw2DSceneGraph.cpp'
p1275
(lp1276
I1
a(dp1277
asS'c:/marmalade/7.5/modules/iw2dscenegraph/docs/iw2dscenegraph.defines.txt'
p1278
(lp1279
I1
ag1277
asS'c:/marmalade/7.5/modules/iw2dscenegraph/h/Iw2DSceneGraph.h'
p1280
(lp1281
I1
ag1277
asS'c:/marmalade/7.5/modules/iw2dscenegraph/iw2dscenegraph.mkf'
p1282
(lp1283
I1
a(dp1284
assS'iwgl'
p1285
(dp1286
S'c:/marmalade/7.5/modules/iwgl/iwgl.mkf'
p1287
(lp1288
I1
a(dp1289
asS'c:/marmalade/7.5/modules/iwgl/h/IwGL.h'
p1290
(lp1291
I1
a(dp1292
asS'c:/marmalade/7.5/modules/iwgl/docs/iwgl.config.txt'
p1293
(lp1294
I1
ag1292
asS'c:/marmalade/7.5/modules/iwgl/h/IwGLExt.h'
p1295
(lp1296
I1
ag1292
assS'iw2d'
p1297
(dp1298
S'c:/marmalade/7.5/modules/iw2d/docs/iw2d_public.defines.txt'
p1299
(lp1300
I1
a(dp1301
asS'c:/marmalade/7.5/modules/iw2d/docs/iw2d.config.txt'
p1302
(lp1303
I1
ag1301
asS'c:/marmalade/7.5/modules/iw2d/h/Iw2D.h'
p1304
(lp1305
I1
ag1301
asS'c:/marmalade/7.5/modules/iw2d/iw2d.mkf'
p1306
(lp1307
I1
a(dp1308
assS'iwgxfont'
p1309
(dp1310
S'c:/marmalade/7.5/modules/iwgxfont/h/IwGxFontGlyph.h'
p1311
(lp1312
I1
a(dp1313
asS'c:/marmalade/7.5/modules/iwgxfont/h/IwGxFontTypes.h'
p1314
(lp1315
I1
ag1313
asS'c:/marmalade/7.5/modules/iwgxfont/docs/iwgxfont.config.txt'
p1316
(lp1317
I1
ag1313
asS'c:/marmalade/7.5/modules/iwgxfont/h/IwGxFontState.h'
p1318
(lp1319
I1
ag1313
asS'c:/marmalade/7.5/modules/iwgxfont/h/IwGxFontContainer.h'
p1320
(lp1321
I1
ag1313
asS'c:/marmalade/7.5/modules/iwgxfont/iwgxfont.mkf'
p1322
(lp1323
I1
a(dp1324
asS'c:/marmalade/7.5/modules/iwgxfont/h/IwGxFontPreparedData.h'
p1325
(lp1326
I1
ag1313
asS'c:/marmalade/7.5/modules/iwgxfont/h/IwGxFont.h'
p1327
(lp1328
I1
ag1313
asS'c:/marmalade/7.5/modules/iwgxfont/docs/iwgxfont_public.defines.txt'
p1329
(lp1330
I1
ag1313
assS'iwgeom'
p1331
(dp1332
S'c:/marmalade/7.5/modules/iwgeom/h/IwGeomSVec2.h'
p1333
(lp1334
I1
a(dp1335
asS'c:/marmalade/7.5/modules/iwgeom/h/IwGeomSphere.h'
p1336
(lp1337
I1
ag1335
asS'c:/marmalade/7.5/modules/iwgeom/h/IwGeomSVec3.h'
p1338
(lp1339
I1
ag1335
asS'c:/marmalade/7.5/modules/iwgeom/iwgeom.mkf'
p1340
(lp1341
I1
a(dp1342
asS'c:/marmalade/7.5/modules/iwgeom/h/IwGeomSqrt.h'
p1343
(lp1344
I1
ag1335
asS'c:/marmalade/7.5/modules/iwgeom/h/IwGeomFQuat.h'
p1345
(lp1346
I1
ag1335
asS'c:/marmalade/7.5/modules/iwgeom/h/IwGeomQuat.h.tpl'
p1347
(lp1348
I1
ag1335
asS'c:/marmalade/7.5/modules/iwgeom/h/IwGeomVec2.h'
p1349
(lp1350
I1
ag1335
asS'c:/marmalade/7.5/modules/iwgeom/h/IwGeomMat.h'
p1351
(lp1352
I1
ag1335
asS'c:/marmalade/7.5/modules/iwgeom/h/IwGeomVec3.h'
p1353
(lp1354
I1
ag1335
asS'c:/marmalade/7.5/modules/iwgeom/h/IwGeomLegacy.h'
p1355
(lp1356
I1
ag1335
asS'c:/marmalade/7.5/modules/iwgeom/h/IwGeom.h'
p1357
(lp1358
I1
ag1335
asS'c:/marmalade/7.5/modules/iwgeom/h/IwGeomSQuat.h'
p1359
(lp1360
I1
ag1335
asS'c:/marmalade/7.5/modules/iwgeom/h/IwGeomFBBox.h'
p1361
(lp1362
I1
ag1335
asS'c:/marmalade/7.5/modules/iwgeom/h/IwGeomFMat.h'
p1363
(lp1364
I1
ag1335
asS'c:/marmalade/7.5/modules/iwgeom/h/IwGeomPlane.h'
p1365
(lp1366
I1
ag1335
asS'c:/marmalade/7.5/modules/iwgeom/h/IwGeomMat2D.h'
p1367
(lp1368
I1
ag1335
asS'c:/marmalade/7.5/modules/iwgeom/h/IwGeomFVec2.h'
p1369
(lp1370
I1
ag1335
asS'c:/marmalade/7.5/modules/iwgeom/h/IwGeomSVec4.h'
p1371
(lp1372
I1
ag1335
asS'c:/marmalade/7.5/modules/iwgeom/h/IwGeomVec4.h'
p1373
(lp1374
I1
ag1335
asS'c:/marmalade/7.5/modules/iwgeom/h/IwGeomCore.h'
p1375
(lp1376
I1
ag1335
asS'c:/marmalade/7.5/modules/iwgeom/h/IwGeomVec.h.tpl'
p1377
(lp1378
I1
ag1335
asS'c:/marmalade/7.5/modules/iwgeom/h/IwGeomVec.h'
p1379
(lp1380
I1
ag1335
asS'c:/marmalade/7.5/modules/iwgeom/h/IwGeomIntersect.h'
p1381
(lp1382
I1
ag1335
asS'c:/marmalade/7.5/modules/iwgeom/h/IwGeomFVec4.h'
p1383
(lp1384
I1
ag1335
asS'c:/marmalade/7.5/modules/iwgeom/h/IwGeomMat.h.tpl'
p1385
(lp1386
I1
ag1335
asS'c:/marmalade/7.5/modules/iwgeom/h/IwGeomMat2D.h.tpl'
p1387
(lp1388
I1
ag1335
asS'c:/marmalade/7.5/modules/iwgeom/h/IwGeomFMat2D.h'
p1389
(lp1390
I1
ag1335
asS'c:/marmalade/7.5/modules/iwgeom/h/IwGeomMenu.h'
p1391
(lp1392
I1
ag1335
asS'c:/marmalade/7.5/modules/iwgeom/h/IwGeomBBox.h'
p1393
(lp1394
I1
ag1335
asS'c:/marmalade/7.5/modules/iwgeom/h/IwGeomFSphere.h'
p1395
(lp1396
I1
ag1335
asS'c:/marmalade/7.5/modules/iwgeom/h/IwGeomFVec3.h'
p1397
(lp1398
I1
ag1335
asS'c:/marmalade/7.5/modules/iwgeom/h/IwGeomFPlane.h'
p1399
(lp1400
I1
ag1335
asS'c:/marmalade/7.5/modules/iwgeom/docs/iwgeom.config.txt'
p1401
(lp1402
I1
ag1335
asS'c:/marmalade/7.5/modules/iwgeom/h/IwGeomQuat.h'
p1403
(lp1404
I1
ag1335
asS'c:/marmalade/7.5/modules/iwgeom/h/IwGeomFIntersect.h'
p1405
(lp1406
I1
ag1335
assS'iwresmanager'
p1407
(dp1408
S'c:/marmalade/7.5/modules/iwresmanager/h/IwResHandlerITX.h'
p1409
(lp1410
I1
a(dp1411
asS'c:/marmalade/7.5/modules/iwresmanager/h/IwResSerialise.h'
p1412
(lp1413
I1
ag1411
asS'c:/marmalade/7.5/modules/iwresmanager/h/IwResManagerClass.h'
p1414
(lp1415
I1
ag1411
asS'c:/marmalade/7.5/modules/iwresmanager/h/IwResHandlerGROUP.h'
p1416
(lp1417
I1
ag1411
asS'c:/marmalade/7.5/modules/iwresmanager/h/IwResManager.h'
p1418
(lp1419
I1
ag1411
asS'c:/marmalade/7.5/modules/iwresmanager/iwresmanager.mkf'
p1420
(lp1421
I1
a(dp1422
asS'c:/marmalade/7.5/modules/iwresmanager/docs/iwresmanager.config.txt'
p1423
(lp1424
I1
ag1411
asS'c:/marmalade/7.5/modules/iwresmanager/h/IwResGroup.h'
p1425
(lp1426
I1
ag1411
asS'c:/marmalade/7.5/modules/iwresmanager/h/IwResHandler.h'
p1427
(lp1428
I1
ag1411
asS'c:/marmalade/7.5/modules/iwresmanager/h/IwResHandlerImage.h'
p1429
(lp1430
I1
ag1411
assS'iwgx'
p1431
(dp1432
S'c:/marmalade/7.5/modules/iwgx/h/IwDebugPrim.h'
p1433
(lp1434
I1
a(dp1435
asS'c:/marmalade/7.5/modules/iwgx/h/IwMatAnim.h'
p1436
(lp1437
I1
ag1435
asS'c:/marmalade/7.5/modules/iwgx/h/IwTexture.h'
p1438
(lp1439
I1
ag1435
asS'c:/marmalade/7.5/modules/iwgx/h/IwGxFuncTable.h'
p1440
(lp1441
I1
ag1435
asS'c:/marmalade/7.5/modules/iwgx/h/IwResHandlerMTL.h'
p1442
(lp1443
I1
ag1435
asS'c:/marmalade/7.5/modules/iwgx/h/IwGxPrint.h'
p1444
(lp1445
I1
ag1435
asS'c:/marmalade/7.5/modules/iwgx/h/IwGxStream.h'
p1446
(lp1447
I1
ag1435
asS'c:/marmalade/7.5/modules/iwgx/h/IwClip.h'
p1448
(lp1449
I1
ag1435
asS'c:/marmalade/7.5/modules/iwgx/h/IwGxSurface.h'
p1450
(lp1451
I1
ag1435
asS'c:/marmalade/7.5/modules/iwgx/h/IwGxError.h'
p1452
(lp1453
I1
ag1435
asS'c:/marmalade/7.5/modules/iwgx/h/IwGx.h'
p1454
(lp1455
I1
ag1435
asS'c:/marmalade/7.5/modules/iwgx/docs/iwgx_public.defines.txt'
p1456
(lp1457
I1
ag1435
asS'c:/marmalade/7.5/modules/iwgx/h/IwGxDebug.h'
p1458
(lp1459
I1
ag1435
asS'c:/marmalade/7.5/modules/iwgx/h/IwGxShaderTechnique.h'
p1460
(lp1461
I1
ag1435
asS'c:/marmalade/7.5/modules/iwgx/h/IwGxTransformSW.h'
p1462
(lp1463
I1
ag1435
asS'c:/marmalade/7.5/modules/iwgx/h/IwMaterial.h'
p1464
(lp1465
I1
ag1435
asS'c:/marmalade/7.5/modules/iwgx/h/IwGxMetrics.h'
p1466
(lp1467
I1
ag1435
asS'c:/marmalade/7.5/modules/iwgx/h/IwClip.inl'
p1468
(lp1469
I1
ag1435
asS'c:/marmalade/7.5/modules/iwgx/h/IwFColour.h'
p1470
(lp1471
I1
ag1435
asS'c:/marmalade/7.5/modules/iwgx/h/IwGxTypes.h'
p1472
(lp1473
I1
ag1435
asS'c:/marmalade/7.5/modules/iwgx/iwgx.mkf'
p1474
(lp1475
I1
a(dp1476
asS'c:/marmalade/7.5/modules/iwgx/docs/iwgx.config.txt'
p1477
(lp1478
I1
ag1435
asS'c:/marmalade/7.5/modules/iwgx/h/IwColour.h'
p1479
(lp1480
I1
ag1435
asS'c:/marmalade/7.5/modules/iwgx/h/IwGxState.h'
p1481
(lp1482
I1
ag1435
asS'c:/marmalade/7.5/modules/iwgx/h/IwTPage.h'
p1483
(lp1484
I1
ag1435
assS'iw2dscenegraphcore'
p1485
(dp1486
S'c:/marmalade/7.5/modules/iw2dscenegraphcore/iw2dscenegraphcore.mkf'
p1487
(lp1488
I1
a(dp1489
asS'c:/marmalade/7.5/modules/iw2dscenegraphcore/h/Iw2DSceneGraphCore.h'
p1490
(lp1491
I1
a(dp1492
asS'c:/marmalade/7.5/modules/iw2dscenegraphcore/source/Iw2DSceneGraphCore.cpp'
p1493
(lp1494
I1
ag1492
assS'iwutil'
p1495
(dp1496
S'c:/marmalade/7.5/modules/iwutil/h/IwSingleton.h'
p1497
(lp1498
I1
a(dp1499
asS'c:/marmalade/7.5/modules/iwutil/h/IwMath.h'
p1500
(lp1501
I1
ag1499
asS'c:/marmalade/7.5/modules/iwutil/h/IwBuffer.h'
p1502
(lp1503
I1
ag1499
asS'c:/marmalade/7.5/modules/iwutil/h/IwCore.h'
p1504
(lp1505
I1
ag1499
asS'c:/marmalade/7.5/modules/iwutil/h/IwDivide.h'
p1506
(lp1507
I1
ag1499
asS'c:/marmalade/7.5/modules/iwutil/h/IwMemory.h'
p1508
(lp1509
I1
ag1499
asS'c:/marmalade/7.5/modules/iwutil/h/IwImageHelper.h'
p1510
(lp1511
I1
ag1499
asS'c:/marmalade/7.5/modules/iwutil/h/IwManagedList.h'
p1512
(lp1513
I1
ag1499
asS'c:/marmalade/7.5/modules/iwutil/h/IwProfileMenu.h'
p1514
(lp1515
I1
ag1499
asS'c:/marmalade/7.5/modules/iwutil/h/IwClassFactory.h'
p1516
(lp1517
I1
ag1499
asS'c:/marmalade/7.5/modules/iwutil/h/IwDivTable.h'
p1518
(lp1519
I1
ag1499
asS'c:/marmalade/7.5/modules/iwutil/h/IwManaged.h'
p1520
(lp1521
I1
ag1499
asS'c:/marmalade/7.5/modules/iwutil/h/IwTextParseable.h'
p1522
(lp1523
I1
ag1499
asS'c:/marmalade/7.5/modules/iwutil/h/IwChar.h'
p1524
(lp1525
I1
ag1499
asS'c:/marmalade/7.5/modules/iwutil/h/IwRandom.h'
p1526
(lp1527
I1
ag1499
asS'c:/marmalade/7.5/modules/iwutil/h/IwDebug.h'
p1528
(lp1529
I1
ag1499
asS'c:/marmalade/7.5/modules/iwutil/h/IwUTF8.h'
p1530
(lp1531
I1
ag1499
asS'c:/marmalade/7.5/modules/iwutil/docs/iwutil.config.txt'
p1532
(lp1533
I1
ag1499
asS'c:/marmalade/7.5/modules/iwutil/h/IwAllocator.h'
p1534
(lp1535
I1
ag1499
asS'c:/marmalade/7.5/modules/iwutil/h/IwMemBucketHelpers.h'
p1536
(lp1537
I1
ag1499
asS'c:/marmalade/7.5/modules/iwutil/h/IwTextParserITX.h'
p1538
(lp1539
I1
ag1499
asS'c:/marmalade/7.5/modules/iwutil/h/IwKeymap.h'
p1540
(lp1541
I1
ag1499
asS'c:/marmalade/7.5/modules/iwutil/h/IwImage.h'
p1542
(lp1543
I1
ag1499
asS'c:/marmalade/7.5/modules/iwutil/h/IwOptimiseARM.h'
p1544
(lp1545
I1
ag1499
asS'c:/marmalade/7.5/modules/iwutil/h/IwMemBucket.h'
p1546
(lp1547
I1
ag1499
asS'c:/marmalade/7.5/modules/iwutil/h/IwOptimiseSize.h'
p1548
(lp1549
I1
ag1499
asS'c:/marmalade/7.5/modules/iwutil/h/IwRuntime.h'
p1550
(lp1551
I1
ag1499
asS'c:/marmalade/7.5/modules/iwutil/h/IwMemManagerDL.h'
p1552
(lp1553
I1
ag1499
asS'c:/marmalade/7.5/modules/iwutil/h/IwPath.h'
p1554
(lp1555
I1
ag1499
asS'c:/marmalade/7.5/modules/iwutil/h/IwOptimiseSpeed.h'
p1556
(lp1557
I1
ag1499
asS'c:/marmalade/7.5/modules/iwutil/h/IwList.h'
p1558
(lp1559
I1
ag1499
asS'c:/marmalade/7.5/modules/iwutil/h/IwAutoFile.h'
p1560
(lp1561
I1
ag1499
asS'c:/marmalade/7.5/modules/iwutil/h/IwVariableBitField.h'
p1562
(lp1563
I1
ag1499
asS'c:/marmalade/7.5/modules/iwutil/h/IwHashString.h'
p1564
(lp1565
I1
ag1499
asS'c:/marmalade/7.5/modules/iwutil/h/IwOptimiseThumb.h'
p1566
(lp1567
I1
ag1499
asS'c:/marmalade/7.5/modules/iwutil/iwutil.mkf'
p1568
(lp1569
I1
a(dp1570
asS'c:/marmalade/7.5/modules/iwutil/h/IwUtil.h'
p1571
(lp1572
I1
ag1499
asS'c:/marmalade/7.5/modules/iwutil/h/IwString.h'
p1573
(lp1574
I1
ag1499
asS'c:/marmalade/7.5/modules/iwutil/h/IwFile.h'
p1575
(lp1576
I1
ag1499
asS'c:/marmalade/7.5/modules/iwutil/h/IwUncopyable.h'
p1577
(lp1578
I1
ag1499
asS'c:/marmalade/7.5/modules/iwutil/h/IwTextParser.h'
p1579
(lp1580
I1
ag1499
asS'c:/marmalade/7.5/modules/iwutil/h/IwCopyingPtr.h'
p1581
(lp1582
I1
ag1499
asS'c:/marmalade/7.5/modules/iwutil/h/IwEvent.h'
p1583
(lp1584
I1
ag1499
asS'c:/marmalade/7.5/modules/iwutil/h/IwFibre.h'
p1585
(lp1586
I1
ag1499
asS'c:/marmalade/7.5/modules/iwutil/h/IwArray.h'
p1587
(lp1588
I1
ag1499
asS'c:/marmalade/7.5/modules/iwutil/h/IwMenu.h'
p1589
(lp1590
I1
ag1499
asS'c:/marmalade/7.5/modules/iwutil/h/IwTypes.h'
p1591
(lp1592
I1
ag1499
asS'c:/marmalade/7.5/modules/iwutil/h/IwUtilInitTerm.h'
p1593
(lp1594
I1
ag1499
asS'c:/marmalade/7.5/modules/iwutil/h/IwResource.h'
p1595
(lp1596
I1
ag1499
asS'c:/marmalade/7.5/modules/iwutil/h/IwSerialise.h'
p1597
(lp1598
I1
ag1499
asssS'(zlib)'
p1599
(dp1600
g1082
(dp1601
S'c:/marmalade/7.5/modules/third_party/zlib/h/zconf.h'
p1602
(lp1603
I1
a(dp1604
asS'c:/marmalade/7.5/modules/third_party/zlib/h/zlib.h'
p1605
(lp1606
I1
ag1604
assS'c:/marmalade/7.5/modules/third_party/zlib/zlib.mkf'
p1607
(lp1608
I1
a(dp1609
assS'(iwtween)'
p1610
(dp1611
S'c:/marmalade/7.5/modules/iwtween/h/IwTween.h'
p1612
(lp1613
I1
a(dp1614
asS'c:/marmalade/7.5/modules/iwtween/source/IwTween.cpp'
p1615
(lp1616
I1
ag1614
asS'c:/marmalade/7.5/modules/iwtween/iwtween.mkf'
p1617
(lp1618
I1
a(dp1619
assS'(s3e-default)'
p1620
(dp1621
S'c:/marmalade/7.5/s3e/s3e-default.mkf'
p1622
(lp1623
I1
a(dp1624
asssS'files'
p1625
(dp1626
S'IwGxFontPreparedData.h'
p1627
g329
(cmkb_main
File
p1628
g331
Ntp1629
Rp1630
(dp1631
S'flags'
p1632
g1313
sS'group'
p1633
(lp1634
S"'Marmalade Studio'"
p1635
ag1309
asg355
g1325
sbsS'iterator'
p1636
g329
(g1628
g331
Ntp1637
Rp1638
(dp1639
g1632
(dp1640
sg1633
(lp1641
S"'Marmalade System (S3E)'"
p1642
aS'stdc headers'
p1643
aS'c++'
p1644
asg355
S'c:/marmalade/7.5/s3e/h/std/c++/iterator'
p1645
sbsS'IwGL.h'
p1646
g329
(g1628
g331
Ntp1647
Rp1648
(dp1649
g1632
g1292
sg1633
(lp1650
S"'Marmalade Studio'"
p1651
ag1285
asg355
g1290
sbsS's3e.h'
p1652
g329
(g1628
g331
Ntp1653
Rp1654
(dp1655
g1632
g1640
sg1633
(lp1656
g1642
asg355
S'c:/marmalade/7.5/s3e/h/s3e.h'
p1657
sbsS'errno.h'
p1658
g329
(g1628
g331
Ntp1659
Rp1660
(dp1661
g1632
g1640
sg1633
(lp1662
g1642
aS'stdc headers'
p1663
asg355
S'c:/marmalade/7.5/s3e/h/std/errno.h'
p1664
sbsS'IwSingleton.h'
p1665
g329
(g1628
g331
Ntp1666
Rp1667
(dp1668
g1632
g1499
sg1633
(lp1669
S"'Marmalade Studio'"
p1670
ag1495
asg355
g1497
sbsS'dlfcn.h'
p1671
g329
(g1628
g331
Ntp1672
Rp1673
(dp1674
g1632
g1640
sg1633
g1662
sg355
S'c:/marmalade/7.5/s3e/h/std/dlfcn.h'
p1675
sbsS'IwSoundWAV.cpp'
p1676
g329
(g1628
g331
Ntp1677
Rp1678
(dp1679
g1632
g1141
sg1633
(lp1680
g1137
asg355
g1164
sbsS'sched.h'
p1681
g329
(g1628
g331
Ntp1682
Rp1683
(dp1684
g1632
g1640
sg1633
g1662
sg355
S'c:/marmalade/7.5/s3e/h/std/sched.h'
p1685
sbsS'IwSoundPCM.h'
p1686
g329
(g1628
g331
Ntp1687
Rp1688
(dp1689
g1632
g1141
sg1633
g1680
sg355
g1182
sbsS'IwGeomFMat2D.h'
p1690
g329
(g1628
g331
Ntp1691
Rp1692
(dp1693
g1632
g1335
sg1633
(lp1694
S"'Marmalade Studio'"
p1695
ag1331
asg355
g1389
sbsS'cassert'
p1696
g329
(g1628
g331
Ntp1697
Rp1698
(dp1699
g1632
g1640
sg1633
g1641
sg355
S'c:/marmalade/7.5/s3e/h/std/c++/cassert'
p1700
sbsS'grp.h'
p1701
g329
(g1628
g331
Ntp1702
Rp1703
(dp1704
g1632
g1640
sg1633
g1662
sg355
S'c:/marmalade/7.5/s3e/h/std/grp.h'
p1705
sbsS'list'
p1706
g329
(g1628
g331
Ntp1707
Rp1708
(dp1709
g1632
g1640
sg1633
g1641
sg355
S'c:/marmalade/7.5/s3e/h/std/c++/list'
p1710
sbsS'IwSoundSpec.cpp'
p1711
g329
(g1628
g331
Ntp1712
Rp1713
(dp1714
g1632
g1141
sg1633
g1680
sg355
g1170
sbsS'IwGeomMat.h.tpl'
p1715
g329
(g1628
g331
Ntp1716
Rp1717
(dp1718
g1632
g1335
sg1633
g1694
sg355
g1385
sbsS'istream'
p1719
g329
(g1628
g331
Ntp1720
Rp1721
(dp1722
g1632
g1640
sg1633
g1641
sg355
S'c:/marmalade/7.5/s3e/h/std/c++/istream'
p1723
sbsS'jpeglib.h'
p1724
g329
(g1628
g331
Ntp1725
Rp1726
(dp1727
g1632
g1100
sg1633
(lp1728
g1092
ag1082
asg355
g1125
sbsS'iw2d_public.defines.txt'
p1729
g329
(g1628
g331
Ntp1730
Rp1731
(dp1732
g1632
g1301
sg1633
(lp1733
S"'Marmalade Studio'"
p1734
ag1297
asg355
g1299
sbsS'iostream.h'
p1735
g329
(g1628
g331
Ntp1736
Rp1737
(dp1738
g1632
g1640
sg1633
g1641
sg355
S'c:/marmalade/7.5/s3e/h/std/c++/iostream.h'
p1739
sbsS'IwSoundADPCM.h'
p1740
g329
(g1628
g331
Ntp1741
Rp1742
(dp1743
g1632
g1141
sg1633
g1680
sg355
g1142
sbsS'string'
p1744
g329
(g1628
g331
Ntp1745
Rp1746
(dp1747
g1632
g1640
sg1633
g1641
sg355
S'c:/marmalade/7.5/s3e/h/std/c++/string'
p1748
sbsS'IwMemory.h'
p1749
g329
(g1628
g331
Ntp1750
Rp1751
(dp1752
g1632
g1499
sg1633
g1669
sg355
g1508
sbsS'IwGeomPlane.h'
p1753
g329
(g1628
g331
Ntp1754
Rp1755
(dp1756
g1632
g1335
sg1633
g1694
sg355
g1365
sbsS'iw2d.config.txt'
p1757
g329
(g1628
g331
Ntp1758
Rp1759
(dp1760
g1632
g1301
sg1633
g1733
sg355
g1302
sbsS'iomanip'
p1761
g329
(g1628
g331
Ntp1762
Rp1763
(dp1764
g1632
g1640
sg1633
g1641
sg355
S'c:/marmalade/7.5/s3e/h/std/c++/iomanip'
p1765
sbsS'iwgeom.mkf'
p1766
g329
(g1628
g331
Ntp1767
Rp1768
(dp1769
g1632
g1342
sg1633
g1694
sg355
g1340
sbsS'IwGxError.h'
p1770
g329
(g1628
g331
Ntp1771
Rp1772
(dp1773
g1632
g1435
sg1633
(lp1774
S"'Marmalade Studio'"
p1775
ag1431
asg355
g1452
sbsS'IwGeom.h'
p1776
g329
(g1628
g331
Ntp1777
Rp1778
(dp1779
g1632
g1335
sg1633
g1694
sg355
g1357
sbsS'scene.cpp'
p1780
g329
(g1628
g331
Ntp1781
Rp1782
(dp1783
g1632
g1198
sg1633
(lp1784
g1194
asg355
g1205
sbsS'IwGeomVec4.h'
p1785
g329
(g1628
g331
Ntp1786
Rp1787
(dp1788
g1632
g1335
sg1633
g1694
sg355
g1373
sbsS'dir.h'
p1789
g329
(g1628
g331
Ntp1790
Rp1791
(dp1792
g1632
g1640
sg1633
(lp1793
g1642
aS'stdc headers'
p1794
aS'sys'
p1795
asg355
S'c:/marmalade/7.5/s3e/h/std/sys/dir.h'
p1796
sbsS'locale.h'
p1797
g329
(g1628
g331
Ntp1798
Rp1799
(dp1800
g1632
g1640
sg1633
g1662
sg355
S'c:/marmalade/7.5/s3e/h/std/locale.h'
p1801
sbsS'vector'
p1802
g329
(g1628
g331
Ntp1803
Rp1804
(dp1805
g1632
g1640
sg1633
g1641
sg355
S'c:/marmalade/7.5/s3e/h/std/c++/vector'
p1806
sbsS'IwManaged.h'
p1807
g329
(g1628
g331
Ntp1808
Rp1809
(dp1810
g1632
g1499
sg1633
g1669
sg355
g1520
sbsS's3eCompass.h'
p1811
g329
(g1628
g331
Ntp1812
Rp1813
(dp1814
g1632
g1640
sg1633
g1656
sg355
S'c:/marmalade/7.5/s3e/h/s3eCompass.h'
p1815
sbsS'cderror.h'
p1816
g329
(g1628
g331
Ntp1817
Rp1818
(dp1819
g1632
g1100
sg1633
g1728
sg355
g1103
sbsS'climits'
p1820
g329
(g1628
g331
Ntp1821
Rp1822
(dp1823
g1632
g1640
sg1633
g1641
sg355
S'c:/marmalade/7.5/s3e/h/std/c++/climits'
p1824
sbsS's3eVibra.h'
p1825
g329
(g1628
g331
Ntp1826
Rp1827
(dp1828
g1632
g1640
sg1633
g1656
sg355
S'c:/marmalade/7.5/s3e/h/s3eVibra.h'
p1829
sbsS'jversion.h'
p1830
g329
(g1628
g331
Ntp1831
Rp1832
(dp1833
g1632
g1100
sg1633
g1728
sg355
g1121
sbsS'fnmatch.h'
p1834
g329
(g1628
g331
Ntp1835
Rp1836
(dp1837
g1632
g1640
sg1633
g1662
sg355
S'c:/marmalade/7.5/s3e/h/std/fnmatch.h'
p1838
sbsS'IwGxState.h'
p1839
g329
(g1628
g331
Ntp1840
Rp1841
(dp1842
g1632
g1435
sg1633
g1774
sg355
g1481
sbsS'rope'
p1843
g329
(g1628
g331
Ntp1844
Rp1845
(dp1846
g1632
g1640
sg1633
g1641
sg355
S'c:/marmalade/7.5/s3e/h/std/c++/rope'
p1847
sbsS's3eAudio.h'
p1848
g329
(g1628
g331
Ntp1849
Rp1850
(dp1851
g1632
g1640
sg1633
g1656
sg355
S'c:/marmalade/7.5/s3e/h/s3eAudio.h'
p1852
sbsS's3eSurface.h'
p1853
g329
(g1628
g331
Ntp1854
Rp1855
(dp1856
g1632
g1640
sg1633
g1656
sg355
S'c:/marmalade/7.5/s3e/h/s3eSurface.h'
p1857
sbsS'new'
p1858
g329
(g1628
g331
Ntp1859
Rp1860
(dp1861
g1632
g1640
sg1633
g1641
sg355
S'c:/marmalade/7.5/s3e/h/std/c++/new'
p1862
sbsS's3eWindow.h'
p1863
g329
(g1628
g331
Ntp1864
Rp1865
(dp1866
g1632
g1640
sg1633
(lp1867
g1642
aS'Extensions'
p1868
asg355
S'c:/marmalade/7.5/s3e/h/ext/s3eWindow.h'
p1869
sbsS'IwBuffer.h'
p1870
g329
(g1628
g331
Ntp1871
Rp1872
(dp1873
g1632
g1499
sg1633
g1669
sg355
g1502
sbsS'stdio_streambuf'
p1874
g329
(g1628
g331
Ntp1875
Rp1876
(dp1877
g1632
g1640
sg1633
g1641
sg355
S'c:/marmalade/7.5/s3e/h/std/c++/stdio_streambuf'
p1878
sbsS'IwGeomQuat.h.tpl'
p1879
g329
(g1628
g331
Ntp1880
Rp1881
(dp1882
g1632
g1335
sg1633
g1694
sg355
g1347
sbsS's3eOSExec.h'
p1883
g329
(g1628
g331
Ntp1884
Rp1885
(dp1886
g1632
g1640
sg1633
g1867
sg355
S'c:/marmalade/7.5/s3e/h/ext/s3eOSExec.h'
p1887
sbsS'IwGxTransformSW.h'
p1888
g329
(g1628
g331
Ntp1889
Rp1890
(dp1891
g1632
g1435
sg1633
g1774
sg355
g1462
sbsS'unistd.h'
p1892
g329
(g1628
g331
Ntp1893
Rp1894
(dp1895
g1632
g1640
sg1633
g1662
sg355
S'c:/marmalade/7.5/s3e/h/std/unistd.h'
p1896
sbsS'iwgxfont.config.txt'
p1897
g329
(g1628
g331
Ntp1898
Rp1899
(dp1900
g1632
g1313
sg1633
g1634
sg355
g1316
sbsS'gl2platform.h'
p1901
g329
(g1628
g331
Ntp1902
Rp1903
(dp1904
g1632
g1640
sg1633
(lp1905
g1642
aS'GL'
p1906
aS'GLES 2.0'
p1907
asg355
S'c:/marmalade/7.5/s3e/h/GLES2/gl2platform.h'
p1908
sbsS'IwResManagerClass.h'
p1909
g329
(g1628
g331
Ntp1910
Rp1911
(dp1912
g1632
g1411
sg1633
(lp1913
g1271
ag1407
asg355
g1414
sbsS'queue'
p1914
g329
(g1628
g331
Ntp1915
Rp1916
(dp1917
g1632
g1640
sg1633
g1641
sg355
S'c:/marmalade/7.5/s3e/h/std/c++/queue'
p1918
sbsS'time_1.h'
p1919
g329
(g1628
g331
Ntp1920
Rp1921
(dp1922
g1632
g1640
sg1633
g1793
sg355
S'c:/marmalade/7.5/s3e/h/std/sys/time.h'
p1923
sbsS'Iw2D.h'
p1924
g329
(g1628
g331
Ntp1925
Rp1926
(dp1927
g1632
g1301
sg1633
g1733
sg355
g1304
sbsS'IwGeomVec2.h'
p1928
g329
(g1628
g331
Ntp1929
Rp1930
(dp1931
g1632
g1335
sg1633
g1694
sg355
g1349
sbsS'sendfile.h'
p1932
g329
(g1628
g331
Ntp1933
Rp1934
(dp1935
g1632
g1640
sg1633
g1793
sg355
S'c:/marmalade/7.5/s3e/h/std/sys/sendfile.h'
p1936
sbsS'malloc.h'
p1937
g329
(g1628
g331
Ntp1938
Rp1939
(dp1940
g1632
g1640
sg1633
g1662
sg355
S'c:/marmalade/7.5/s3e/h/std/malloc.h'
p1941
sbsS'stdarg.h'
p1942
g329
(g1628
g331
Ntp1943
Rp1944
(dp1945
g1632
g1640
sg1633
g1662
sg355
S'c:/marmalade/7.5/s3e/h/std/stdarg.h'
p1946
sbsS'IwGeomCore.h'
p1947
g329
(g1628
g331
Ntp1948
Rp1949
(dp1950
g1632
g1335
sg1633
g1694
sg355
g1375
sbsS'Iw2DSceneGraph.h'
p1951
g329
(g1628
g331
Ntp1952
Rp1953
(dp1954
g1632
g1277
sg1633
(lp1955
S"'Marmalade Studio'"
p1956
ag1273
asg355
g1280
sbsS'endian.h'
p1957
g329
(g1628
g331
Ntp1958
Rp1959
(dp1960
g1632
g1640
sg1633
g1662
sg355
S'c:/marmalade/7.5/s3e/h/std/endian.h'
p1961
sbsS'gl3ext.h'
p1962
g329
(g1628
g331
Ntp1963
Rp1964
(dp1965
g1632
g1640
sg1633
(lp1966
g1642
aS'GL'
p1967
aS'GLES 3.0'
p1968
asg355
S'c:/marmalade/7.5/s3e/h/GLES3/gl3ext.h'
p1969
sbsS'glob.h'
p1970
g329
(g1628
g331
Ntp1971
Rp1972
(dp1973
g1632
g1640
sg1633
g1662
sg355
S'c:/marmalade/7.5/s3e/h/std/glob.h'
p1974
sbsS'fstream'
p1975
g329
(g1628
g331
Ntp1976
Rp1977
(dp1978
g1632
g1640
sg1633
g1641
sg355
S'c:/marmalade/7.5/s3e/h/std/c++/fstream'
p1979
sbsS's3eCamera.h'
p1980
g329
(g1628
g331
Ntp1981
Rp1982
(dp1983
g1632
g1640
sg1633
g1656
sg355
S'c:/marmalade/7.5/s3e/h/s3eCamera.h'
p1984
sbsS'jconfig.h'
p1985
g329
(g1628
g331
Ntp1986
Rp1987
(dp1988
g1632
g1100
sg1633
g1728
sg355
g1123
sbsS'memory'
p1989
g329
(g1628
g331
Ntp1990
Rp1991
(dp1992
g1632
g1640
sg1633
g1641
sg355
S'c:/marmalade/7.5/s3e/h/std/c++/memory'
p1993
sbsS'egl.h'
p1994
g329
(g1628
g331
Ntp1995
Rp1996
(dp1997
g1632
g1640
sg1633
(lp1998
g1642
aS'GL'
p1999
aS'EGL'
p2000
asg355
S'c:/marmalade/7.5/s3e/h/EGL/egl.h'
p2001
sbsS'egl_1.h'
p2002
g329
(g1628
g331
Ntp2003
Rp2004
(dp2005
g1632
g1640
sg1633
(lp2006
g1642
aS'GL'
p2007
aS'GLES 1.x'
p2008
asg355
S'c:/marmalade/7.5/s3e/h/GLES/egl.h'
p2009
sbsS'IwMemManagerDL.h'
p2010
g329
(g1628
g331
Ntp2011
Rp2012
(dp2013
g1632
g1499
sg1633
g1669
sg355
g1552
sbsS'deque'
p2014
g329
(g1628
g331
Ntp2015
Rp2016
(dp2017
g1632
g1640
sg1633
g1641
sg355
S'c:/marmalade/7.5/s3e/h/std/c++/deque'
p2018
sbsS'IwString.h'
p2019
g329
(g1628
g331
Ntp2020
Rp2021
(dp2022
g1632
g1499
sg1633
g1669
sg355
g1573
sbsS'GameScene.h'
p2023
g329
(g1628
g331
Ntp2024
Rp2025
(dp2026
g1632
g1198
sg1633
g1784
sg355
g1253
sbsS'cwchar'
p2027
g329
(g1628
g331
Ntp2028
Rp2029
(dp2030
g1632
g1640
sg1633
g1641
sg355
S'c:/marmalade/7.5/s3e/h/std/c++/cwchar'
p2031
sbsS'iwutil.mkf'
p2032
g329
(g1628
g331
Ntp2033
Rp2034
(dp2035
g1632
g1570
sg1633
g1669
sg355
g1568
sbsS'csignal'
p2036
g329
(g1628
g331
Ntp2037
Rp2038
(dp2039
g1632
g1640
sg1633
g1641
sg355
S'c:/marmalade/7.5/s3e/h/std/c++/csignal'
p2040
sbsS'pthread_types.h'
p2041
g329
(g1628
g331
Ntp2042
Rp2043
(dp2044
g1632
g1640
sg1633
g1662
sg355
S'c:/marmalade/7.5/s3e/h/std/pthread_types.h'
p2045
sbsS'pthread_alloc'
p2046
g329
(g1628
g331
Ntp2047
Rp2048
(dp2049
g1632
g1640
sg1633
g1641
sg355
S'c:/marmalade/7.5/s3e/h/std/c++/pthread_alloc'
p2050
sbsS'getopt.h'
p2051
g329
(g1628
g331
Ntp2052
Rp2053
(dp2054
g1632
g1640
sg1633
g1662
sg355
S'c:/marmalade/7.5/s3e/h/std/getopt.h'
p2055
sbsS'IwOptimiseARM.h'
p2056
g329
(g1628
g331
Ntp2057
Rp2058
(dp2059
g1632
g1499
sg1633
g1669
sg355
g1544
sbsS'times.h'
p2060
g329
(g1628
g331
Ntp2061
Rp2062
(dp2063
g1632
g1640
sg1633
g1793
sg355
S'c:/marmalade/7.5/s3e/h/std/sys/times.h'
p2064
sbsS'IwGeomFSphere.h'
p2065
g329
(g1628
g331
Ntp2066
Rp2067
(dp2068
g1632
g1335
sg1633
g1694
sg355
g1395
sbsS'functional'
p2069
g329
(g1628
g331
Ntp2070
Rp2071
(dp2072
g1632
g1640
sg1633
g1641
sg355
S'c:/marmalade/7.5/s3e/h/std/c++/functional'
p2073
sbsS'IwTypes.h'
p2074
g329
(g1628
g331
Ntp2075
Rp2076
(dp2077
g1632
g1499
sg1633
g1669
sg355
g1591
sbsS'IwGxMetrics.h'
p2078
g329
(g1628
g331
Ntp2079
Rp2080
(dp2081
g1632
g1435
sg1633
g1774
sg355
g1466
sbsS'audio.cpp'
p2082
g329
(g1628
g331
Ntp2083
Rp2084
(dp2085
g1632
g1198
sg1633
g1784
sg355
g1249
sbsS's3eCompression.h'
p2086
g329
(g1628
g331
Ntp2087
Rp2088
(dp2089
g1632
g1640
sg1633
g1656
sg355
S'c:/marmalade/7.5/s3e/h/s3eCompression.h'
p2090
sbsS'langinfo.h'
p2091
g329
(g1628
g331
Ntp2092
Rp2093
(dp2094
g1632
g1640
sg1633
g1662
sg355
S'c:/marmalade/7.5/s3e/h/std/langinfo.h'
p2095
sbsS's3edebugHeap.h'
p2096
g329
(g1628
g331
Ntp2097
Rp2098
(dp2099
g1632
g1640
sg1633
g1867
sg355
S'c:/marmalade/7.5/s3e/h/ext/s3edebugHeap.h'
p2100
sbsS'AirplayVersion.h'
p2101
g329
(g1628
g331
Ntp2102
Rp2103
(dp2104
g1632
g1640
sg1633
g1656
sg355
S'c:/marmalade/7.5/s3e/h/AirplayVersion.h'
p2105
sbsS'gl2extimg.h'
p2106
g329
(g1628
g331
Ntp2107
Rp2108
(dp2109
g1632
g1640
sg1633
g1905
sg355
S'c:/marmalade/7.5/s3e/h/GLES2/gl2extimg.h'
p2110
sbsS'IwGeomSqrt.h'
p2111
g329
(g1628
g331
Ntp2112
Rp2113
(dp2114
g1632
g1335
sg1633
g1694
sg355
g1343
sbsS'tiniconv_int.h'
p2115
g329
(g1628
g331
Ntp2116
Rp2117
(dp2118
g1632
g1134
sg1633
(lp2119
g1127
asg355
g1132
sbsS'syslog.h'
p2120
g329
(g1628
g331
Ntp2121
Rp2122
(dp2123
g1632
g1640
sg1633
g1662
sg355
S'c:/marmalade/7.5/s3e/h/std/syslog.h'
p2124
sbsS'IwGxFontTypes.h'
p2125
g329
(g1628
g331
Ntp2126
Rp2127
(dp2128
g1632
g1313
sg1633
g1634
sg355
g1314
sbsS'IwGeomFIntersect.h'
p2129
g329
(g1628
g331
Ntp2130
Rp2131
(dp2132
g1632
g1335
sg1633
g1694
sg355
g1405
sbsS'hash_map'
p2133
g329
(g1628
g331
Ntp2134
Rp2135
(dp2136
g1632
g1640
sg1633
g1641
sg355
S'c:/marmalade/7.5/s3e/h/std/c++/hash_map'
p2137
sbsS's3e.mkf'
p2138
g329
(g1628
g331
Ntp2139
Rp2140
(dp2141
g1632
(dp2142
sg1633
g1656
sg355
S'c:/marmalade/7.5/s3e/s3e.mkf'
p2143
sbsS'IwGeomMat2D.h.tpl'
p2144
g329
(g1628
g331
Ntp2145
Rp2146
(dp2147
g1632
g1335
sg1633
g1694
sg355
g1387
sbsS's3eOSReadString.h'
p2148
g329
(g1628
g331
Ntp2149
Rp2150
(dp2151
g1632
g1640
sg1633
g1867
sg355
S'c:/marmalade/7.5/s3e/h/ext/s3eOSReadString.h'
p2152
sbsS'IwSound.h'
p2153
g329
(g1628
g331
Ntp2154
Rp2155
(dp2156
g1632
g1141
sg1633
g1680
sg355
g1176
sbsS'map'
p2157
g329
(g1628
g331
Ntp2158
Rp2159
(dp2160
g1632
g1640
sg1633
g1641
sg355
S'c:/marmalade/7.5/s3e/h/std/c++/map'
p2161
sbsS'iwtween.mkf'
p2162
g329
(g1628
g331
Ntp2163
Rp2164
(dp2165
g1632
g1619
sg1633
(lp2166
g1610
asg355
g1617
sbsS'IwOptimiseSpeed.h'
p2167
g329
(g1628
g331
Ntp2168
Rp2169
(dp2170
g1632
g1499
sg1633
g1669
sg355
g1556
sbsS'ostream'
p2171
g329
(g1628
g331
Ntp2172
Rp2173
(dp2174
g1632
g1640
sg1633
g1641
sg355
S'c:/marmalade/7.5/s3e/h/std/c++/ostream'
p2175
sbsS'msl_string.h'
p2176
g329
(g1628
g331
Ntp2177
Rp2178
(dp2179
g1632
g1640
sg1633
g1641
sg355
S'c:/marmalade/7.5/s3e/h/std/c++/msl_string.h'
p2180
sbsS'select.h'
p2181
g329
(g1628
g331
Ntp2182
Rp2183
(dp2184
g1632
g1640
sg1633
g1793
sg355
S'c:/marmalade/7.5/s3e/h/std/sys/select.h'
p2185
sbsS'hero.cpp'
p2186
g329
(g1628
g331
Ntp2187
Rp2188
(dp2189
g1632
g1198
sg1633
g1784
sg355
g1251
sbsS'zlib.mkf'
p2190
g329
(g1628
g331
Ntp2191
Rp2192
(dp2193
g1632
g1609
sg1633
(lp2194
g1599
asg355
g1607
sbsS'signal.h'
p2195
g329
(g1628
g331
Ntp2196
Rp2197
(dp2198
g1632
g1640
sg1633
g1662
sg355
S'c:/marmalade/7.5/s3e/h/std/signal.h'
p2199
sbsS'sigcontext.h'
p2200
g329
(g1628
g331
Ntp2201
Rp2202
(dp2203
g1632
g1640
sg1633
g1662
sg355
S'c:/marmalade/7.5/s3e/h/std/sigcontext.h'
p2204
sbsS'libpng.mkf'
p2205
g329
(g1628
g331
Ntp2206
Rp2207
(dp2208
g1632
g1091
sg1633
(lp2209
g1080
asg355
g1089
sbsS's3eClipboard.h'
p2210
g329
(g1628
g331
Ntp2211
Rp2212
(dp2213
g1632
g1640
sg1633
g1656
sg355
S'c:/marmalade/7.5/s3e/h/s3eClipboard.h'
p2214
sbsS'IwGxFuncTable.h'
p2215
g329
(g1628
g331
Ntp2216
Rp2217
(dp2218
g1632
g1435
sg1633
g1774
sg355
g1440
sbsS'IwResHandlerGROUP.h'
p2219
g329
(g1628
g331
Ntp2220
Rp2221
(dp2222
g1632
g1411
sg1633
g1913
sg355
g1416
sbsS's3eDebug.h'
p2223
g329
(g1628
g331
Ntp2224
Rp2225
(dp2226
g1632
g1640
sg1633
g1656
sg355
S'c:/marmalade/7.5/s3e/h/s3eDebug.h'
p2227
sbsS'socket.h'
p2228
g329
(g1628
g331
Ntp2229
Rp2230
(dp2231
g1632
g1640
sg1633
g1793
sg355
S'c:/marmalade/7.5/s3e/h/std/sys/socket.h'
p2232
sbsS'glext.h'
p2233
g329
(g1628
g331
Ntp2234
Rp2235
(dp2236
g1632
g1640
sg1633
g2006
sg355
S'c:/marmalade/7.5/s3e/h/GLES/glext.h'
p2237
sbsS'typeinfo.h'
p2238
g329
(g1628
g331
Ntp2239
Rp2240
(dp2241
g1632
g1640
sg1633
g1641
sg355
S'c:/marmalade/7.5/s3e/h/std/c++/typeinfo.h'
p2242
sbsS'typeinfo'
p2243
g329
(g1628
g331
Ntp2244
Rp2245
(dp2246
g1632
g1640
sg1633
g1641
sg355
S'c:/marmalade/7.5/s3e/h/std/c++/typeinfo'
p2247
sbsS'iwsound.config.txt'
p2248
g329
(g1628
g331
Ntp2249
Rp2250
(dp2251
g1632
g1141
sg1633
(lp2252
g1137
ag1148
asg355
g1150
sbsS'fstream.h'
p2253
g329
(g1628
g331
Ntp2254
Rp2255
(dp2256
g1632
g1640
sg1633
g1641
sg355
S'c:/marmalade/7.5/s3e/h/std/c++/fstream.h'
p2257
sbsS'IwGeomMat.h'
p2258
g329
(g1628
g331
Ntp2259
Rp2260
(dp2261
g1632
g1335
sg1633
g1694
sg355
g1351
sbsS's3ePointer.h'
p2262
g329
(g1628
g331
Ntp2263
Rp2264
(dp2265
g1632
g1640
sg1633
g1656
sg355
S'c:/marmalade/7.5/s3e/h/s3ePointer.h'
p2266
sbsS'IwMemBucket.h'
p2267
g329
(g1628
g331
Ntp2268
Rp2269
(dp2270
g1632
g1499
sg1633
g1669
sg355
g1546
sbsS'PVRTexTool.h'
p2271
g329
(g1628
g331
Ntp2272
Rp2273
(dp2274
g1632
g1263
sg1633
(lp2275
g1255
ag1257
asg355
g1266
sbsS's3eGL.h'
p2276
g329
(g1628
g331
Ntp2277
Rp2278
(dp2279
g1632
g1640
sg1633
g1656
sg355
S'c:/marmalade/7.5/s3e/h/s3eGL.h'
p2280
sbsS'IwGeomFVec2.h'
p2281
g329
(g1628
g331
Ntp2282
Rp2283
(dp2284
g1632
g1335
sg1633
g1694
sg355
g1369
sbsS'IwGeomSVec4.h'
p2285
g329
(g1628
g331
Ntp2286
Rp2287
(dp2288
g1632
g1335
sg1633
g1694
sg355
g1371
sbsS'BackgroundEntity.cpp'
p2289
g329
(g1628
g331
Ntp2290
Rp2291
(dp2292
g1632
g1198
sg1633
g1784
sg355
g1243
sbsS'poll.h'
p2293
g329
(g1628
g331
Ntp2294
Rp2295
(dp2296
g1632
g1640
sg1633
g1662
sg355
S'c:/marmalade/7.5/s3e/h/std/poll.h'
p2297
sbsS'IwMatAnim.h'
p2298
g329
(g1628
g331
Ntp2299
Rp2300
(dp2301
g1632
g1435
sg1633
g1774
sg355
g1436
sbsS'IwGeomFVec4.h'
p2302
g329
(g1628
g331
Ntp2303
Rp2304
(dp2305
g1632
g1335
sg1633
g1694
sg355
g1383
sbsS'IwGx.h'
p2306
g329
(g1628
g331
Ntp2307
Rp2308
(dp2309
g1632
g1435
sg1633
g1774
sg355
g1454
sbsS'valarray'
p2310
g329
(g1628
g331
Ntp2311
Rp2312
(dp2313
g1632
g1640
sg1633
g1641
sg355
S'c:/marmalade/7.5/s3e/h/std/c++/valarray'
p2314
sbsS'iosfwd'
p2315
g329
(g1628
g331
Ntp2316
Rp2317
(dp2318
g1632
g1640
sg1633
g1641
sg355
S'c:/marmalade/7.5/s3e/h/std/c++/iosfwd'
p2319
sbsS'gl2.h'
p2320
g329
(g1628
g331
Ntp2321
Rp2322
(dp2323
g1632
g1640
sg1633
g1905
sg355
S'c:/marmalade/7.5/s3e/h/GLES2/gl2.h'
p2324
sbsS'jpegint.h'
p2325
g329
(g1628
g331
Ntp2326
Rp2327
(dp2328
g1632
g1100
sg1633
g1728
sg355
g1115
sbsS'stdiostream.h'
p2329
g329
(g1628
g331
Ntp2330
Rp2331
(dp2332
g1632
g1640
sg1633
g1641
sg355
S'c:/marmalade/7.5/s3e/h/std/c++/stdiostream.h'
p2333
sbsS'mem.h'
p2334
g329
(g1628
g331
Ntp2335
Rp2336
(dp2337
g1632
g1640
sg1633
g1641
sg355
S'c:/marmalade/7.5/s3e/h/std/c++/mem.h'
p2338
sbsS'jerror.h'
p2339
g329
(g1628
g331
Ntp2340
Rp2341
(dp2342
g1632
g1100
sg1633
g1728
sg355
g1098
sbsS'zconf.h'
p2343
g329
(g1628
g331
Ntp2344
Rp2345
(dp2346
g1632
g1604
sg1633
(lp2347
g1599
ag1082
asg355
g1602
sbsS's3e.config.txt'
p2348
g329
(g1628
g331
Ntp2349
Rp2350
(dp2351
g1632
g1640
sg1633
g1656
sg355
S'c:/marmalade/7.5/s3e/s3e.config.txt'
p2352
sbsS'numeric'
p2353
g329
(g1628
g331
Ntp2354
Rp2355
(dp2356
g1632
g1640
sg1633
g1641
sg355
S'c:/marmalade/7.5/s3e/h/std/c++/numeric'
p2357
sbsS'utime.h'
p2358
g329
(g1628
g331
Ntp2359
Rp2360
(dp2361
g1632
g1640
sg1633
g1662
sg355
S'c:/marmalade/7.5/s3e/h/std/utime.h'
p2362
sbsS'jdhuff.h'
p2363
g329
(g1628
g331
Ntp2364
Rp2365
(dp2366
g1632
g1100
sg1633
g1728
sg355
g1101
sbsS'IwResHandlerWAV.cpp'
p2367
g329
(g1628
g331
Ntp2368
Rp2369
(dp2370
g1632
g1141
sg1633
g1680
sg355
g1144
sbsS'un.h'
p2371
g329
(g1628
g331
Ntp2372
Rp2373
(dp2374
g1632
g1640
sg1633
g1793
sg355
S'c:/marmalade/7.5/s3e/h/std/sys/un.h'
p2375
sbsS'IwImage.h'
p2376
g329
(g1628
g331
Ntp2377
Rp2378
(dp2379
g1632
g1499
sg1633
g1669
sg355
g1542
sbsS's3eImagePicker.h'
p2380
g329
(g1628
g331
Ntp2381
Rp2382
(dp2383
g1632
g1640
sg1633
g1867
sg355
S'c:/marmalade/7.5/s3e/h/ext/s3eImagePicker.h'
p2384
sbsS'stdlib.h'
p2385
g329
(g1628
g331
Ntp2386
Rp2387
(dp2388
g1632
g1640
sg1633
g1662
sg355
S'c:/marmalade/7.5/s3e/h/std/stdlib.h'
p2389
sbsS'IwCopyingPtr.h'
p2390
g329
(g1628
g331
Ntp2391
Rp2392
(dp2393
g1632
g1499
sg1633
g1669
sg355
g1581
sbsS'iostream'
p2394
g329
(g1628
g331
Ntp2395
Rp2396
(dp2397
g1632
g1640
sg1633
g1641
sg355
S'c:/marmalade/7.5/s3e/h/std/c++/iostream'
p2398
sbsS'png.h'
p2399
g329
(g1628
g331
Ntp2400
Rp2401
(dp2402
g1632
g1086
sg1633
(lp2403
g1080
ag1082
asg355
g1084
sbsS'stddef.h'
p2404
g329
(g1628
g331
Ntp2405
Rp2406
(dp2407
g1632
g1640
sg1633
g1662
sg355
S'c:/marmalade/7.5/s3e/h/std/stddef.h'
p2408
sbsS'setjmp_win32.h'
p2409
g329
(g1628
g331
Ntp2410
Rp2411
(dp2412
g1632
g1640
sg1633
g1662
sg355
S'c:/marmalade/7.5/s3e/h/std/setjmp_win32.h'
p2413
sbsS'pauseMenu.h'
p2414
g329
(g1628
g331
Ntp2415
Rp2416
(dp2417
g1632
g1198
sg1633
g1784
sg355
g1241
sbsS'IwGxPrint.h'
p2418
g329
(g1628
g331
Ntp2419
Rp2420
(dp2421
g1632
g1435
sg1633
g1774
sg355
g1444
sbsS'iwgx_public.defines.txt'
p2422
g329
(g1628
g331
Ntp2423
Rp2424
(dp2425
g1632
g1435
sg1633
g1774
sg355
g1456
sbsS'streambuf.h'
p2426
g329
(g1628
g331
Ntp2427
Rp2428
(dp2429
g1632
g1640
sg1633
g1641
sg355
S'c:/marmalade/7.5/s3e/h/std/c++/streambuf.h'
p2430
sbsS'resources.cpp'
p2431
g329
(g1628
g331
Ntp2432
Rp2433
(dp2434
g1632
g1198
sg1633
g1784
sg355
g1227
sbsS'IwGeomFPlane.h'
p2435
g329
(g1628
g331
Ntp2436
Rp2437
(dp2438
g1632
g1335
sg1633
g1694
sg355
g1399
sbsS'wchar.h'
p2439
g329
(g1628
g331
Ntp2440
Rp2441
(dp2442
g1632
g1640
sg1633
g1662
sg355
S'c:/marmalade/7.5/s3e/h/std/wchar.h'
p2443
sbsS's3eCameraCapture.h'
p2444
g329
(g1628
g331
Ntp2445
Rp2446
(dp2447
g1632
g1640
sg1633
g1867
sg355
S'c:/marmalade/7.5/s3e/h/ext/s3eCameraCapture.h'
p2448
sbsS'eglext.h'
p2449
g329
(g1628
g331
Ntp2450
Rp2451
(dp2452
g1632
g1640
sg1633
g1998
sg355
S'c:/marmalade/7.5/s3e/h/EGL/eglext.h'
p2453
sbsS'IwResHandlerImage.h'
p2454
g329
(g1628
g331
Ntp2455
Rp2456
(dp2457
g1632
g1411
sg1633
g1913
sg355
g1429
sbsS'strstream.h'
p2458
g329
(g1628
g331
Ntp2459
Rp2460
(dp2461
g1632
g1640
sg1633
g1641
sg355
S'c:/marmalade/7.5/s3e/h/std/c++/strstream.h'
p2462
sbsS'tiniconv.h'
p2463
g329
(g1628
g331
Ntp2464
Rp2465
(dp2466
g1632
g1134
sg1633
g2119
sg355
g1135
sbsS'IwGLExt.h'
p2467
g329
(g1628
g331
Ntp2468
Rp2469
(dp2470
g1632
g1292
sg1633
g1650
sg355
g1295
sbsS'app.icf'
p2471
g329
(g1628
g331
Ntp2472
Rp2473
(dp2474
g1632
(dp2475
sg1633
g4
sg355
S'c:/Marmalade/7.5/examples/GameTutorial/CPP/marm1/data/app.icf'
p2476
sbsS'IwClassFactory.h'
p2477
g329
(g1628
g331
Ntp2478
Rp2479
(dp2480
g1632
g1499
sg1633
g1669
sg355
g1516
sbsS'file.h'
p2481
g329
(g1628
g331
Ntp2482
Rp2483
(dp2484
g1632
g1640
sg1633
g1793
sg355
S'c:/marmalade/7.5/s3e/h/std/sys/file.h'
p2485
sbsS'cstring'
p2486
g329
(g1628
g331
Ntp2487
Rp2488
(dp2489
g1632
g1640
sg1633
g1641
sg355
S'c:/marmalade/7.5/s3e/h/std/c++/cstring'
p2490
sbsS'IwSoundInst.cpp'
p2491
g329
(g1628
g331
Ntp2492
Rp2493
(dp2494
g1632
g1141
sg1633
g1680
sg355
g1166
sbsS'iwutil.config.txt'
p2495
g329
(g1628
g331
Ntp2496
Rp2497
(dp2498
g1632
g1499
sg1633
g1669
sg355
g1532
sbsS's3eSMS.h'
p2499
g329
(g1628
g331
Ntp2500
Rp2501
(dp2502
g1632
g1640
sg1633
g1867
sg355
S'c:/marmalade/7.5/s3e/h/ext/s3eSMS.h'
p2503
sbsS'limits.h'
p2504
g329
(g1628
g331
Ntp2505
Rp2506
(dp2507
g1632
g1640
sg1633
g1662
sg355
S'c:/marmalade/7.5/s3e/h/std/limits.h'
p2508
sbsS'scene.h'
p2509
g329
(g1628
g331
Ntp2510
Rp2511
(dp2512
g1632
g1198
sg1633
g1784
sg355
g1247
sbsS'IwMaterial.h'
p2513
g329
(g1628
g331
Ntp2514
Rp2515
(dp2516
g1632
g1435
sg1633
g1774
sg355
g1464
sbsS'PVRTexTool_interface.cpp'
p2517
g329
(g1628
g331
Ntp2518
Rp2519
(dp2520
g1632
g1263
sg1633
(lp2521
g1255
ag1257
ag1259
asg355
g1264
sbsS'IwGxSurface.h'
p2522
g329
(g1628
g331
Ntp2523
Rp2524
(dp2525
g1632
g1435
sg1633
g1774
sg355
g1450
sbsS's3eSocket.h'
p2526
g329
(g1628
g331
Ntp2527
Rp2528
(dp2529
g1632
g1640
sg1633
g1656
sg355
S'c:/marmalade/7.5/s3e/h/s3eSocket.h'
p2530
sbsS'IwAutoFile.h'
p2531
g329
(g1628
g331
Ntp2532
Rp2533
(dp2534
g1632
g1499
sg1633
g1669
sg355
g1560
sbsS'ipc.h'
p2535
g329
(g1628
g331
Ntp2536
Rp2537
(dp2538
g1632
g1640
sg1633
g1793
sg355
S'c:/marmalade/7.5/s3e/h/std/sys/ipc.h'
p2539
sbsS'poll_1.h'
p2540
g329
(g1628
g331
Ntp2541
Rp2542
(dp2543
g1632
g1640
sg1633
g1793
sg355
S'c:/marmalade/7.5/s3e/h/std/sys/poll.h'
p2544
sbsS's3eThread.h'
p2545
g329
(g1628
g331
Ntp2546
Rp2547
(dp2548
g1632
g1640
sg1633
g1656
sg355
S'c:/marmalade/7.5/s3e/h/s3eThread.h'
p2549
sbsS'ucontext.h'
p2550
g329
(g1628
g331
Ntp2551
Rp2552
(dp2553
g1632
g1640
sg1633
g1662
sg355
S'c:/marmalade/7.5/s3e/h/std/ucontext.h'
p2554
sbsS'time.h'
p2555
g329
(g1628
g331
Ntp2556
Rp2557
(dp2558
g1632
g1640
sg1633
g1662
sg355
S'c:/marmalade/7.5/s3e/h/std/time.h'
p2559
sbsS'jchuff.h'
p2560
g329
(g1628
g331
Ntp2561
Rp2562
(dp2563
g1632
g1100
sg1633
g1728
sg355
g1117
sbsS'IwSoundPCM.cpp'
p2564
g329
(g1628
g331
Ntp2565
Rp2566
(dp2567
g1632
g1141
sg1633
g1680
sg355
g1162
sbsS's3eSoundRecord.h'
p2568
g329
(g1628
g331
Ntp2569
Rp2570
(dp2571
g1632
g1640
sg1633
g1656
sg355
S'c:/marmalade/7.5/s3e/h/s3eSoundRecord.h'
p2572
sbsS'IwFibre.h'
p2573
g329
(g1628
g331
Ntp2574
Rp2575
(dp2576
g1632
g1499
sg1633
g1669
sg355
g1585
sbsS's3eVersion.h'
p2577
g329
(g1628
g331
Ntp2578
Rp2579
(dp2580
g1632
g1640
sg1633
g1656
sg355
S'c:/marmalade/7.5/s3e/h/s3eVersion.h'
p2581
sbsS'input.cpp'
p2582
g329
(g1628
g331
Ntp2583
Rp2584
(dp2585
g1632
g1198
sg1633
g1784
sg355
g1219
sbsS'IwSoundGroup.h'
p2586
g329
(g1628
g331
Ntp2587
Rp2588
(dp2589
g1632
g1141
sg1633
g1680
sg355
g1187
sbsS'IwSoundWAV.h'
p2590
g329
(g1628
g331
Ntp2591
Rp2592
(dp2593
g1632
g1141
sg1633
g1680
sg355
g1168
sbsS'IwGxFontGlyph.h'
p2594
g329
(g1628
g331
Ntp2595
Rp2596
(dp2597
g1632
g1313
sg1633
g1634
sg355
g1311
sbsS's3eTypes.h'
p2598
g329
(g1628
g331
Ntp2599
Rp2600
(dp2601
g1632
g1640
sg1633
g1656
sg355
S'c:/marmalade/7.5/s3e/h/s3eTypes.h'
p2602
sbsS'IwSoundSpec.h'
p2603
g329
(g1628
g331
Ntp2604
Rp2605
(dp2606
g1632
g1141
sg1633
g1680
sg355
g1156
sbsS'signal_2.h'
p2607
g329
(g1628
g331
Ntp2608
Rp2609
(dp2610
g1632
g1640
sg1633
g1641
sg355
S'c:/marmalade/7.5/s3e/h/std/c++/signal.h'
p2611
sbsS'termios.h'
p2612
g329
(g1628
g331
Ntp2613
Rp2614
(dp2615
g1632
g1640
sg1633
g1662
sg355
S'c:/marmalade/7.5/s3e/h/std/termios.h'
p2616
sbsS'iw2dscenegraph.mkf'
p2617
g329
(g1628
g331
Ntp2618
Rp2619
(dp2620
g1632
g1284
sg1633
g1955
sg355
g1282
sbsS'slist'
p2621
g329
(g1628
g331
Ntp2622
Rp2623
(dp2624
g1632
g1640
sg1633
g1641
sg355
S'c:/marmalade/7.5/s3e/h/std/c++/slist'
p2625
sbsS'cstdlib'
p2626
g329
(g1628
g331
Ntp2627
Rp2628
(dp2629
g1632
g1640
sg1633
g1641
sg355
S'c:/marmalade/7.5/s3e/h/std/c++/cstdlib'
p2630
sbsS's3eLocation.h'
p2631
g329
(g1628
g331
Ntp2632
Rp2633
(dp2634
g1632
g1640
sg1633
g1656
sg355
S'c:/marmalade/7.5/s3e/h/s3eLocation.h'
p2635
sbsS'IwMemBucketHelpers.h'
p2636
g329
(g1628
g331
Ntp2637
Rp2638
(dp2639
g1632
g1499
sg1633
g1669
sg355
g1536
sbsS's3eHash.h'
p2640
g329
(g1628
g331
Ntp2641
Rp2642
(dp2643
g1632
g1640
sg1633
g1656
sg355
S'c:/marmalade/7.5/s3e/h/s3eHash.h'
p2644
sbsS'IwSoundGroup.cpp'
p2645
g329
(g1628
g331
Ntp2646
Rp2647
(dp2648
g1632
g1141
sg1633
g1680
sg355
g1139
sbsS'Enemymanager.h'
p2649
g329
(g1628
g331
Ntp2650
Rp2651
(dp2652
g1632
g1198
sg1633
g1784
sg355
g1233
sbsS'IwGeomFMat.h'
p2653
g329
(g1628
g331
Ntp2654
Rp2655
(dp2656
g1632
g1335
sg1633
g1694
sg355
g1363
sbsS'type_traits.h'
p2657
g329
(g1628
g331
Ntp2658
Rp2659
(dp2660
g1632
g1640
sg1633
g1641
sg355
S'c:/marmalade/7.5/s3e/h/std/c++/type_traits.h'
p2661
sbsS's3eAtomic.h'
p2662
g329
(g1628
g331
Ntp2663
Rp2664
(dp2665
g1632
g1640
sg1633
g1656
sg355
S'c:/marmalade/7.5/s3e/h/s3eAtomic.h'
p2666
sbsS'IwMenu.h'
p2667
g329
(g1628
g331
Ntp2668
Rp2669
(dp2670
g1632
g1499
sg1633
g1669
sg355
g1589
sbsS'IwResHandlerITX.h'
p2671
g329
(g1628
g331
Ntp2672
Rp2673
(dp2674
g1632
g1411
sg1633
g1913
sg355
g1409
sbsS'IwSoundData.h'
p2675
g329
(g1628
g331
Ntp2676
Rp2677
(dp2678
g1632
g1141
sg1633
g1680
sg355
g1180
sbsS'IwArray.h'
p2679
g329
(g1628
g331
Ntp2680
Rp2681
(dp2682
g1632
g1499
sg1633
g1669
sg355
g1587
sbsS'IwUTF8.h'
p2683
g329
(g1628
g331
Ntp2684
Rp2685
(dp2686
g1632
g1499
sg1633
g1669
sg355
g1530
sbsS'math_rvct.h'
p2687
g329
(g1628
g331
Ntp2688
Rp2689
(dp2690
g1632
g1640
sg1633
g1662
sg355
S'c:/marmalade/7.5/s3e/h/std/math_rvct.h'
p2691
sbsS'IwUtil.h'
p2692
g329
(g1628
g331
Ntp2693
Rp2694
(dp2695
g1632
g1499
sg1633
g1669
sg355
g1571
sbsS'IwFColour.h'
p2696
g329
(g1628
g331
Ntp2697
Rp2698
(dp2699
g1632
g1435
sg1633
g1774
sg355
g1470
sbsS'wctype.h'
p2700
g329
(g1628
g331
Ntp2701
Rp2702
(dp2703
g1632
g1640
sg1633
g1662
sg355
S'c:/marmalade/7.5/s3e/h/std/wctype.h'
p2704
sbsS'mainMenu.h'
p2705
g329
(g1628
g331
Ntp2706
Rp2707
(dp2708
g1632
g1198
sg1633
g1784
sg355
g1196
sbsS'cstddef'
p2709
g329
(g1628
g331
Ntp2710
Rp2711
(dp2712
g1632
g1640
sg1633
g1641
sg355
S'c:/marmalade/7.5/s3e/h/std/c++/cstddef'
p2713
sbsS'assert.h'
p2714
g329
(g1628
g331
Ntp2715
Rp2716
(dp2717
g1632
g1640
sg1633
g1662
sg355
S'c:/marmalade/7.5/s3e/h/std/assert.h'
p2718
sbsS'mman.h'
p2719
g329
(g1628
g331
Ntp2720
Rp2721
(dp2722
g1632
g1640
sg1633
g1793
sg355
S'c:/marmalade/7.5/s3e/h/std/sys/mman.h'
p2723
sbsS'IwRandom.h'
p2724
g329
(g1628
g331
Ntp2725
Rp2726
(dp2727
g1632
g1499
sg1633
g1669
sg355
g1526
sbsS'libgen.h'
p2728
g329
(g1628
g331
Ntp2729
Rp2730
(dp2731
g1632
g1640
sg1633
g1662
sg355
S'c:/marmalade/7.5/s3e/h/std/libgen.h'
p2732
sbsS'utsname.h'
p2733
g329
(g1628
g331
Ntp2734
Rp2735
(dp2736
g1632
g1640
sg1633
g1793
sg355
S'c:/marmalade/7.5/s3e/h/std/sys/utsname.h'
p2737
sbsS'wait.h'
p2738
g329
(g1628
g331
Ntp2739
Rp2740
(dp2741
g1632
g1640
sg1633
g1793
sg355
S'c:/marmalade/7.5/s3e/h/std/sys/wait.h'
p2742
sbsS'param.h'
p2743
g329
(g1628
g331
Ntp2744
Rp2745
(dp2746
g1632
g1640
sg1633
g1793
sg355
S'c:/marmalade/7.5/s3e/h/std/sys/param.h'
p2747
sbsS'IwDivide.h'
p2748
g329
(g1628
g331
Ntp2749
Rp2750
(dp2751
g1632
g1499
sg1633
g1669
sg355
g1506
sbsS'Iw2DSceneGraphCore.cpp'
p2752
g329
(g1628
g331
Ntp2753
Rp2754
(dp2755
g1632
g1492
sg1633
(lp2756
S"'Marmalade Studio'"
p2757
ag1485
asg355
g1493
sbsS'IwResManager.h'
p2758
g329
(g1628
g331
Ntp2759
Rp2760
(dp2761
g1632
g1411
sg1633
g1913
sg355
g1418
sbsS'IwSoundManager.h'
p2762
g329
(g1628
g331
Ntp2763
Rp2764
(dp2765
g1632
g1141
sg1633
g1680
sg355
g1160
sbsS'cwctype'
p2766
g329
(g1628
g331
Ntp2767
Rp2768
(dp2769
g1632
g1640
sg1633
g1641
sg355
S'c:/marmalade/7.5/s3e/h/std/c++/cwctype'
p2770
sbsS'set'
p2771
g329
(g1628
g331
Ntp2772
Rp2773
(dp2774
g1632
g1640
sg1633
g1641
sg355
S'c:/marmalade/7.5/s3e/h/std/c++/set'
p2775
sbsS'IwGeomSQuat.h'
p2776
g329
(g1628
g331
Ntp2777
Rp2778
(dp2779
g1632
g1335
sg1633
g1694
sg355
g1359
sbsS'locale'
p2780
g329
(g1628
g331
Ntp2781
Rp2782
(dp2783
g1632
g1640
sg1633
g1641
sg355
S'c:/marmalade/7.5/s3e/h/std/c++/locale'
p2784
sbsS'cstdio'
p2785
g329
(g1628
g331
Ntp2786
Rp2787
(dp2788
g1632
g1640
sg1633
g1641
sg355
S'c:/marmalade/7.5/s3e/h/std/c++/cstdio'
p2789
sbsS'cdjpeg.h'
p2790
g329
(g1628
g331
Ntp2791
Rp2792
(dp2793
g1632
g1100
sg1633
g1728
sg355
g1119
sbsS'audio.h'
p2794
g329
(g1628
g331
Ntp2795
Rp2796
(dp2797
g1632
g1198
sg1633
g1784
sg355
g1213
sbsS'IwList.h'
p2798
g329
(g1628
g331
Ntp2799
Rp2800
(dp2801
g1632
g1499
sg1633
g1669
sg355
g1558
sbsS'pauseMenu.cpp'
p2802
g329
(g1628
g331
Ntp2803
Rp2804
(dp2805
g1632
g1198
sg1633
g1784
sg355
g1245
sbsS'inttypes.h'
p2806
g329
(g1628
g331
Ntp2807
Rp2808
(dp2809
g1632
g1640
sg1633
g1662
sg355
S'c:/marmalade/7.5/s3e/h/std/inttypes.h'
p2810
sbsS'dirent.h'
p2811
g329
(g1628
g331
Ntp2812
Rp2813
(dp2814
g1632
g1640
sg1633
g1662
sg355
S'c:/marmalade/7.5/s3e/h/std/dirent.h'
p2815
sbsS'IwGeomVec3.h'
p2816
g329
(g1628
g331
Ntp2817
Rp2818
(dp2819
g1632
g1335
sg1633
g1694
sg355
g1353
sbsS'transupp.h'
p2820
g329
(g1628
g331
Ntp2821
Rp2822
(dp2823
g1632
g1100
sg1633
g1728
sg355
g1105
sbsS'IwMath.h'
p2824
g329
(g1628
g331
Ntp2825
Rp2826
(dp2827
g1632
g1499
sg1633
g1669
sg355
g1500
sbsS'IwGeomQuat.h'
p2828
g329
(g1628
g331
Ntp2829
Rp2830
(dp2831
g1632
g1335
sg1633
g1694
sg355
g1403
sbsS'glplatform.h'
p2832
g329
(g1628
g331
Ntp2833
Rp2834
(dp2835
g1632
g1640
sg1633
g2006
sg355
S'c:/marmalade/7.5/s3e/h/GLES/glplatform.h'
p2836
sbsS's3e-default.mkf'
p2837
g329
(g1628
g331
Ntp2838
Rp2839
(dp2840
g1632
g1624
sg1633
(lp2841
g1620
asg355
g1622
sbsS'iwgl.config.txt'
p2842
g329
(g1628
g331
Ntp2843
Rp2844
(dp2845
g1632
g1292
sg1633
g1650
sg355
g1293
sbsS'bitset'
p2846
g329
(g1628
g331
Ntp2847
Rp2848
(dp2849
g1632
g1640
sg1633
g1641
sg355
S'c:/marmalade/7.5/s3e/h/std/c++/bitset'
p2850
sbsS'alloca.h'
p2851
g329
(g1628
g331
Ntp2852
Rp2853
(dp2854
g1632
g1640
sg1633
g1662
sg355
S'c:/marmalade/7.5/s3e/h/std/alloca.h'
p2855
sbsS'IwResHandler.h'
p2856
g329
(g1628
g331
Ntp2857
Rp2858
(dp2859
g1632
g1411
sg1633
g1913
sg355
g1427
sbsS'IwResHandlerMTL.h'
p2860
g329
(g1628
g331
Ntp2861
Rp2862
(dp2863
g1632
g1435
sg1633
g1774
sg355
g1442
sbsS'IwRuntime.h'
p2864
g329
(g1628
g331
Ntp2865
Rp2866
(dp2867
g1632
g1499
sg1633
g1669
sg355
g1550
sbsS'enemy.cpp'
p2868
g329
(g1628
g331
Ntp2869
Rp2870
(dp2871
g1632
g1198
sg1633
g1784
sg355
g1225
sbsS'limits'
p2872
g329
(g1628
g331
Ntp2873
Rp2874
(dp2875
g1632
g1640
sg1633
g1641
sg355
S'c:/marmalade/7.5/s3e/h/std/c++/limits'
p2876
sbsS'IwGeomBBox.h'
p2877
g329
(g1628
g331
Ntp2878
Rp2879
(dp2880
g1632
g1335
sg1633
g1694
sg355
g1393
sbsS's3eContacts.h'
p2881
g329
(g1628
g331
Ntp2882
Rp2883
(dp2884
g1632
g1640
sg1633
g1656
sg355
S'c:/marmalade/7.5/s3e/h/s3eContacts.h'
p2885
sbsS's3eLicense.h'
p2886
g329
(g1628
g331
Ntp2887
Rp2888
(dp2889
g1632
g1640
sg1633
g1656
sg355
S'c:/marmalade/7.5/s3e/h/s3eLicense.h'
p2890
sbsS'iwgx.config.txt'
p2891
g329
(g1628
g331
Ntp2892
Rp2893
(dp2894
g1632
g1435
sg1633
g1774
sg355
g1477
sbsS'IwTextParser.h'
p2895
g329
(g1628
g331
Ntp2896
Rp2897
(dp2898
g1632
g1499
sg1633
g1669
sg355
g1579
sbsS's3eTimer.h'
p2899
g329
(g1628
g331
Ntp2900
Rp2901
(dp2902
g1632
g1640
sg1633
g1656
sg355
S'c:/marmalade/7.5/s3e/h/s3eTimer.h'
p2903
sbsS'IwGeomVec.h'
p2904
g329
(g1628
g331
Ntp2905
Rp2906
(dp2907
g1632
g1335
sg1633
g1694
sg355
g1379
sbsS'IwSerialise.h'
p2908
g329
(g1628
g331
Ntp2909
Rp2910
(dp2911
g1632
g1499
sg1633
g1669
sg355
g1597
sbsS'cstdarg'
p2912
g329
(g1628
g331
Ntp2913
Rp2914
(dp2915
g1632
g1640
sg1633
g1641
sg355
S'c:/marmalade/7.5/s3e/h/std/c++/cstdarg'
p2916
sbsS'gl2ext.h'
p2917
g329
(g1628
g331
Ntp2918
Rp2919
(dp2920
g1632
g1640
sg1633
g1905
sg355
S'c:/marmalade/7.5/s3e/h/GLES2/gl2ext.h'
p2921
sbsS'BackgroundEntity.h'
p2922
g329
(g1628
g331
Ntp2923
Rp2924
(dp2925
g1632
g1198
sg1633
g1784
sg355
g1239
sbsS'IwChar.h'
p2926
g329
(g1628
g331
Ntp2927
Rp2928
(dp2929
g1632
g1499
sg1633
g1669
sg355
g1524
sbsS's3eSound.h'
p2930
g329
(g1628
g331
Ntp2931
Rp2932
(dp2933
g1632
g1640
sg1633
g1656
sg355
S'c:/marmalade/7.5/s3e/h/s3eSound.h'
p2934
sbsS's3eIOSBackgroundAudio.h'
p2935
g329
(g1628
g331
Ntp2936
Rp2937
(dp2938
g1632
g1640
sg1633
g1867
sg355
S'c:/marmalade/7.5/s3e/h/ext/s3eIOSBackgroundAudio.h'
p2939
sbsS'exception.h'
p2940
g329
(g1628
g331
Ntp2941
Rp2942
(dp2943
g1632
g1640
sg1633
g1641
sg355
S'c:/marmalade/7.5/s3e/h/std/c++/exception.h'
p2944
sbsS'iwgeom.config.txt'
p2945
g329
(g1628
g331
Ntp2946
Rp2947
(dp2948
g1632
g1335
sg1633
g1694
sg355
g1401
sbsS'Shark.h'
p2949
g329
(g1628
g331
Ntp2950
Rp2951
(dp2952
g1632
g1198
sg1633
g1784
sg355
g1229
sbsS'iwgx.mkf'
p2953
g329
(g1628
g331
Ntp2954
Rp2955
(dp2956
g1632
g1476
sg1633
g1774
sg355
g1474
sbsS'gl.h'
p2957
g329
(g1628
g331
Ntp2958
Rp2959
(dp2960
g1632
g1640
sg1633
g2006
sg355
S'c:/marmalade/7.5/s3e/h/GLES/gl.h'
p2961
sbsS'zlib.h'
p2962
g329
(g1628
g331
Ntp2963
Rp2964
(dp2965
g1632
g1604
sg1633
g2347
sg355
g1605
sbsS'temp_defines_release.h'
p2966
g329
(g1628
g331
Ntp2967
Rp2968
(dp2969
g1632
(lp2970
sg1633
(lp2971
S"'generated files'"
p2972
asg355
S'c:/Marmalade/7.5/examples/GameTutorial/CPP/marm1/build_stage4_vc12/temp_defines_release.h'
p2973
sbsS'iwgl.mkf'
p2974
g329
(g1628
g331
Ntp2975
Rp2976
(dp2977
g1632
g1289
sg1633
g1650
sg355
g1287
sbsS'IwColour.h'
p2978
g329
(g1628
g331
Ntp2979
Rp2980
(dp2981
g1632
g1435
sg1633
g1774
sg355
g1479
sbsS's3eLibrary.h'
p2982
g329
(g1628
g331
Ntp2983
Rp2984
(dp2985
g1632
g1640
sg1633
g1867
sg355
S'c:/marmalade/7.5/s3e/h/ext/s3eLibrary.h'
p2986
sbsS'types.h'
p2987
g329
(g1628
g331
Ntp2988
Rp2989
(dp2990
g1632
g1640
sg1633
g1793
sg355
S'c:/marmalade/7.5/s3e/h/std/sys/types.h'
p2991
sbsS'ifaddrs.h'
p2992
g329
(g1628
g331
Ntp2993
Rp2994
(dp2995
g1632
g1640
sg1633
g1662
sg355
S'c:/marmalade/7.5/s3e/h/std/ifaddrs.h'
p2996
sbsS'strstream'
p2997
g329
(g1628
g331
Ntp2998
Rp2999
(dp3000
g1632
g1640
sg1633
g1641
sg355
S'c:/marmalade/7.5/s3e/h/std/c++/strstream'
p3001
sbsS'IwTween.cpp'
p3002
g329
(g1628
g331
Ntp3003
Rp3004
(dp3005
g1632
g1614
sg1633
g2166
sg355
g1615
sbsS'exception'
p3006
g329
(g1628
g331
Ntp3007
Rp3008
(dp3009
g1632
g1640
sg1633
g1641
sg355
S'c:/marmalade/7.5/s3e/h/std/c++/exception'
p3010
sbsS'Enemymanager.cpp'
p3011
g329
(g1628
g331
Ntp3012
Rp3013
(dp3014
g1632
g1198
sg1633
g1784
sg355
g1207
sbsS'rlocks.h'
p3015
g329
(g1628
g331
Ntp3016
Rp3017
(dp3018
g1632
g1640
sg1633
g1641
sg355
S'c:/marmalade/7.5/s3e/h/std/c++/rlocks.h'
p3019
sbsS'ioctl.h'
p3020
g329
(g1628
g331
Ntp3021
Rp3022
(dp3023
g1632
g1640
sg1633
g1793
sg355
S'c:/marmalade/7.5/s3e/h/std/sys/ioctl.h'
p3024
sbsS'sem.h'
p3025
g329
(g1628
g331
Ntp3026
Rp3027
(dp3028
g1632
g1640
sg1633
g1793
sg355
S'c:/marmalade/7.5/s3e/h/std/sys/sem.h'
p3029
sbsS'jinclude.h'
p3030
g329
(g1628
g331
Ntp3031
Rp3032
(dp3033
g1632
g1100
sg1633
g1728
sg355
g1107
sbsS'IwEvent.h'
p3034
g329
(g1628
g331
Ntp3035
Rp3036
(dp3037
g1632
g1499
sg1633
g1669
sg355
g1583
sbsS'IwOptimiseSize.h'
p3038
g329
(g1628
g331
Ntp3039
Rp3040
(dp3041
g1632
g1499
sg1633
g1669
sg355
g1548
sbsS'iwgxfont_public.defines.txt'
p3042
g329
(g1628
g331
Ntp3043
Rp3044
(dp3045
g1632
g1313
sg1633
g1634
sg355
g1329
sbsS'iconv.h'
p3046
g329
(g1628
g331
Ntp3047
Rp3048
(dp3049
g1632
g1640
sg1633
g1662
sg355
S'c:/marmalade/7.5/s3e/h/std/iconv.h'
p3050
sbsS's3eDevice.h'
p3051
g329
(g1628
g331
Ntp3052
Rp3053
(dp3054
g1632
g1640
sg1633
g1656
sg355
S'c:/marmalade/7.5/s3e/h/s3eDevice.h'
p3055
sbsS'IwGeomSphere.h'
p3056
g329
(g1628
g331
Ntp3057
Rp3058
(dp3059
g1632
g1335
sg1633
g1694
sg355
g1336
sbsS'tiniconv.mkf'
p3060
g329
(g1628
g331
Ntp3061
Rp3062
(dp3063
g1632
g1131
sg1633
g2119
sg355
g1129
sbsS'iw2dscenegraph.defines.txt'
p3064
g329
(g1628
g331
Ntp3065
Rp3066
(dp3067
g1632
g1277
sg1633
g1955
sg355
g1278
sbsS'jdct.h'
p3068
g329
(g1628
g331
Ntp3069
Rp3070
(dp3071
g1632
g1100
sg1633
g1728
sg355
g1111
sbsS'cctype'
p3072
g329
(g1628
g331
Ntp3073
Rp3074
(dp3075
g1632
g1640
sg1633
g1641
sg355
S'c:/marmalade/7.5/s3e/h/std/c++/cctype'
p3076
sbsS'IwSoundADPCM.cpp'
p3077
g329
(g1628
g331
Ntp3078
Rp3079
(dp3080
g1632
g1141
sg1633
g1680
sg355
g1174
sbsS's3eConfig.h'
p3081
g329
(g1628
g331
Ntp3082
Rp3083
(dp3084
g1632
g1640
sg1633
g1656
sg355
S'c:/marmalade/7.5/s3e/h/s3eConfig.h'
p3085
sbsS'IwHashString.h'
p3086
g329
(g1628
g331
Ntp3087
Rp3088
(dp3089
g1632
g1499
sg1633
g1669
sg355
g1564
sbsS'stat.h'
p3090
g329
(g1628
g331
Ntp3091
Rp3092
(dp3093
g1632
g1640
sg1633
g1793
sg355
S'c:/marmalade/7.5/s3e/h/std/sys/stat.h'
p3094
sbsS'byteswap.h'
p3095
g329
(g1628
g331
Ntp3096
Rp3097
(dp3098
g1632
g1640
sg1633
g1662
sg355
S'c:/marmalade/7.5/s3e/h/std/byteswap.h'
p3099
sbsS'iwresmanager.mkf'
p3100
g329
(g1628
g331
Ntp3101
Rp3102
(dp3103
g1632
g1422
sg1633
g1913
sg355
g1420
sbsS'IwUtilInitTerm.h'
p3104
g329
(g1628
g331
Ntp3105
Rp3106
(dp3107
g1632
g1499
sg1633
g1669
sg355
g1593
sbsS'pthread_1.h'
p3108
g329
(g1628
g331
Ntp3109
Rp3110
(dp3111
g1632
g1640
sg1633
g1641
sg355
S'c:/marmalade/7.5/s3e/h/std/c++/pthread.h'
p3112
sbsS'iw2d.mkf'
p3113
g329
(g1628
g331
Ntp3114
Rp3115
(dp3116
g1632
g1308
sg1633
g1733
sg355
g1306
sbsS'complex'
p3117
g329
(g1628
g331
Ntp3118
Rp3119
(dp3120
g1632
g1640
sg1633
g1641
sg355
S'c:/marmalade/7.5/s3e/h/std/c++/complex'
p3121
sbsS'algorithm'
p3122
g329
(g1628
g331
Ntp3123
Rp3124
(dp3125
g1632
g1640
sg1633
g1641
sg355
S'c:/marmalade/7.5/s3e/h/std/c++/algorithm'
p3126
sbsS's3e.icf'
p3127
g329
(g1628
g331
Ntp3128
Rp3129
(dp3130
g1632
g1640
sg1633
g1656
sg355
S'c:/marmalade/7.5/s3e/s3e.icf'
p3131
sbsS'resources.h'
p3132
g329
(g1628
g331
Ntp3133
Rp3134
(dp3135
g1632
g1198
sg1633
g1784
sg355
g1215
sbsS'IwGxFontState.h'
p3136
g329
(g1628
g331
Ntp3137
Rp3138
(dp3139
g1632
g1313
sg1633
g1634
sg355
g1318
sbsS'marmaladeexampleresources.mkf'
p3140
g329
(g1628
g331
Ntp3141
Rp3142
(dp3143
g1632
g1193
sg1633
(lp3144
g1189
asg355
g1191
sbsS'stdio.h'
p3145
g329
(g1628
g331
Ntp3146
Rp3147
(dp3148
g1632
g1640
sg1633
g1662
sg355
S'c:/marmalade/7.5/s3e/h/std/stdio.h'
p3149
sbsS'jmemsys.h'
p3150
g329
(g1628
g331
Ntp3151
Rp3152
(dp3153
g1632
g1100
sg1633
g1728
sg355
g1113
sbsS'ios'
p3154
g329
(g1628
g331
Ntp3155
Rp3156
(dp3157
g1632
g1640
sg1633
g1641
sg355
S'c:/marmalade/7.5/s3e/h/std/c++/ios'
p3158
sbsS'IwTween.h'
p3159
g329
(g1628
g331
Ntp3160
Rp3161
(dp3162
g1632
g1614
sg1633
g2166
sg355
g1612
sbsS'PVRTexTool.defines.txt'
p3163
g329
(g1628
g331
Ntp3164
Rp3165
(dp3166
g1632
g1263
sg1633
g2521
sg355
g1261
sbsS'stack'
p3167
g329
(g1628
g331
Ntp3168
Rp3169
(dp3170
g1632
g1640
sg1633
g1641
sg355
S'c:/marmalade/7.5/s3e/h/std/c++/stack'
p3171
sbsS'IwSoundParams.h'
p3172
g329
(g1628
g331
Ntp3173
Rp3174
(dp3175
g1632
g1141
sg1633
g1680
sg355
g1172
sbsS'new.h'
p3176
g329
(g1628
g331
Ntp3177
Rp3178
(dp3179
g1632
g1640
sg1633
g1641
sg355
S'c:/marmalade/7.5/s3e/h/std/c++/new.h'
p3180
sbsS's3eEMail.h'
p3181
g329
(g1628
g331
Ntp3182
Rp3183
(dp3184
g1632
g1640
sg1633
g1867
sg355
S'c:/marmalade/7.5/s3e/h/ext/s3eEMail.h'
p3185
sbsS's3eVideo.h'
p3186
g329
(g1628
g331
Ntp3187
Rp3188
(dp3189
g1632
g1640
sg1633
g1656
sg355
S'c:/marmalade/7.5/s3e/h/s3eVideo.h'
p3190
sbsS'pngconf.h'
p3191
g329
(g1628
g331
Ntp3192
Rp3193
(dp3194
g1632
g1086
sg1633
g2403
sg355
g1087
sbsS'pwd.h'
p3195
g329
(g1628
g331
Ntp3196
Rp3197
(dp3198
g1632
g1640
sg1633
g1662
sg355
S'c:/marmalade/7.5/s3e/h/std/pwd.h'
p3199
sbsS'IwOptimiseThumb.h'
p3200
g329
(g1628
g331
Ntp3201
Rp3202
(dp3203
g1632
g1499
sg1633
g1669
sg355
g1566
sbsS'gl3.h'
p3204
g329
(g1628
g331
Ntp3205
Rp3206
(dp3207
g1632
g1640
sg1633
g1966
sg355
S'c:/marmalade/7.5/s3e/h/GLES3/gl3.h'
p3208
sbsS'IwClip.h'
p3209
g329
(g1628
g331
Ntp3210
Rp3211
(dp3212
g1632
g1435
sg1633
g1774
sg355
g1448
sbsS'IwSoundInst.h'
p3213
g329
(g1628
g331
Ntp3214
Rp3215
(dp3216
g1632
g1141
sg1633
g1680
sg355
g1152
sbsS'iwresmanager.config.txt'
p3217
g329
(g1628
g331
Ntp3218
Rp3219
(dp3220
g1632
g1411
sg1633
g1913
sg355
g1423
sbsS'IwGxShaderTechnique.h'
p3221
g329
(g1628
g331
Ntp3222
Rp3223
(dp3224
g1632
g1435
sg1633
g1774
sg355
g1460
sbsS'IwCore.h'
p3225
g329
(g1628
g331
Ntp3226
Rp3227
(dp3228
g1632
g1499
sg1633
g1669
sg355
g1504
sbsS'cfloat'
p3229
g329
(g1628
g331
Ntp3230
Rp3231
(dp3232
g1632
g1640
sg1633
g1641
sg355
S'c:/marmalade/7.5/s3e/h/std/c++/cfloat'
p3233
sbsS'IwGeomMat2D.h'
p3234
g329
(g1628
g331
Ntp3235
Rp3236
(dp3237
g1632
g1335
sg1633
g1694
sg355
g1367
sbsS'IwAllocator.h'
p3238
g329
(g1628
g331
Ntp3239
Rp3240
(dp3241
g1632
g1499
sg1633
g1669
sg355
g1534
sbsS'Levelmanager.cpp'
p3242
g329
(g1628
g331
Ntp3243
Rp3244
(dp3245
g1632
g1198
sg1633
g1784
sg355
g1235
sbsS'IwPath.h'
p3246
g329
(g1628
g331
Ntp3247
Rp3248
(dp3249
g1632
g1499
sg1633
g1669
sg355
g1554
sbsS'iwgxfont.mkf'
p3250
g329
(g1628
g331
Ntp3251
Rp3252
(dp3253
g1632
g1324
sg1633
g1634
sg355
g1322
sbsS'IwTexture.h'
p3254
g329
(g1628
g331
Ntp3255
Rp3256
(dp3257
g1632
g1435
sg1633
g1774
sg355
g1438
sbsS'IwGeomVec.h.tpl'
p3258
g329
(g1628
g331
Ntp3259
Rp3260
(dp3261
g1632
g1335
sg1633
g1694
sg355
g1377
sbsS's3eAccelerometer.h'
p3262
g329
(g1628
g331
Ntp3263
Rp3264
(dp3265
g1632
g1640
sg1633
g1656
sg355
S'c:/marmalade/7.5/s3e/h/s3eAccelerometer.h'
p3266
sbsS'setjmp.h'
p3267
g329
(g1628
g331
Ntp3268
Rp3269
(dp3270
g1632
g1640
sg1633
g1662
sg355
S'c:/marmalade/7.5/s3e/h/std/setjmp.h'
p3271
sbsS'IwSoundParams.cpp'
p3272
g329
(g1628
g331
Ntp3273
Rp3274
(dp3275
g1632
g1141
sg1633
g1680
sg355
g1158
sbsS'IwFile.h'
p3276
g329
(g1628
g331
Ntp3277
Rp3278
(dp3279
g1632
g1499
sg1633
g1669
sg355
g1575
sbsS'IwTextParseable.h'
p3280
g329
(g1628
g331
Ntp3281
Rp3282
(dp3283
g1632
g1499
sg1633
g1669
sg355
g1522
sbsS'istream.h'
p3284
g329
(g1628
g331
Ntp3285
Rp3286
(dp3287
g1632
g1640
sg1633
g1641
sg355
S'c:/marmalade/7.5/s3e/h/std/c++/istream.h'
p3288
sbsS'Level.h'
p3289
g329
(g1628
g331
Ntp3290
Rp3291
(dp3292
g1632
g1198
sg1633
g1784
sg355
g1209
sbsS'stdint.h'
p3293
g329
(g1628
g331
Ntp3294
Rp3295
(dp3296
g1632
g1640
sg1633
g1662
sg355
S'c:/marmalade/7.5/s3e/h/std/stdint.h'
p3297
sbsS'semaphore.h'
p3298
g329
(g1628
g331
Ntp3299
Rp3300
(dp3301
g1632
g1640
sg1633
g1662
sg355
S'c:/marmalade/7.5/s3e/h/std/semaphore.h'
p3302
sbsS'ctime'
p3303
g329
(g1628
g331
Ntp3304
Rp3305
(dp3306
g1632
g1640
sg1633
g1641
sg355
S'c:/marmalade/7.5/s3e/h/std/c++/ctime'
p3307
sbsS'sstream'
p3308
g329
(g1628
g331
Ntp3309
Rp3310
(dp3311
g1632
g1640
sg1633
g1641
sg355
S'c:/marmalade/7.5/s3e/h/std/c++/sstream'
p3312
sbsS'IwGeomFBBox.h'
p3313
g329
(g1628
g331
Ntp3314
Rp3315
(dp3316
g1632
g1335
sg1633
g1694
sg355
g1361
sbsS'IwDebugPrim.h'
p3317
g329
(g1628
g331
Ntp3318
Rp3319
(dp3320
g1632
g1435
sg1633
g1774
sg355
g1433
sbsS'GameScene.cpp'
p3321
g329
(g1628
g331
Ntp3322
Rp3323
(dp3324
g1632
g1198
sg1633
g1784
sg355
g1237
sbsS'IwGxFontContainer.h'
p3325
g329
(g1628
g331
Ntp3326
Rp3327
(dp3328
g1632
g1313
sg1633
g1634
sg355
g1320
sbsS'IwGeomSVec3.h'
p3329
g329
(g1628
g331
Ntp3330
Rp3331
(dp3332
g1632
g1335
sg1633
g1694
sg355
g1338
sbsS'hero.h'
p3333
g329
(g1628
g331
Ntp3334
Rp3335
(dp3336
g1632
g1198
sg1633
g1784
sg355
g1203
sbsS'iw2dscenegraphcore.mkf'
p3337
g329
(g1628
g331
Ntp3338
Rp3339
(dp3340
g1632
g1489
sg1633
g2756
sg355
g1487
sbsS's3eExt.h'
p3341
g329
(g1628
g331
Ntp3342
Rp3343
(dp3344
g1632
g1640
sg1633
g1656
sg355
S'c:/marmalade/7.5/s3e/h/s3eExt.h'
p3345
sbsS'IwGeomFVec3.h'
p3346
g329
(g1628
g331
Ntp3347
Rp3348
(dp3349
g1632
g1335
sg1633
g1694
sg355
g1397
sbsS'streambuf'
p3350
g329
(g1628
g331
Ntp3351
Rp3352
(dp3353
g1632
g1640
sg1633
g1641
sg355
S'c:/marmalade/7.5/s3e/h/std/c++/streambuf'
p3354
sbsS's3eMetrics.h'
p3355
g329
(g1628
g331
Ntp3356
Rp3357
(dp3358
g1632
g1640
sg1633
g1867
sg355
S'c:/marmalade/7.5/s3e/h/ext/s3eMetrics.h'
p3359
sbsS'Shark.cpp'
p3360
g329
(g1628
g331
Ntp3361
Rp3362
(dp3363
g1632
g1198
sg1633
g1784
sg355
g1223
sbsS'IwGxFont.h'
p3364
g329
(g1628
g331
Ntp3365
Rp3366
(dp3367
g1632
g1313
sg1633
g1634
sg355
g1327
sbsS's3eSecureStorage.h'
p3368
g329
(g1628
g331
Ntp3369
Rp3370
(dp3371
g1632
g1640
sg1633
g1656
sg355
S'c:/marmalade/7.5/s3e/h/s3eSecureStorage.h'
p3372
sbsS'string.h'
p3373
g329
(g1628
g331
Ntp3374
Rp3375
(dp3376
g1632
g1640
sg1633
g1662
sg355
S'c:/marmalade/7.5/s3e/h/std/string.h'
p3377
sbsS'IwResource.h'
p3378
g329
(g1628
g331
Ntp3379
Rp3380
(dp3381
g1632
g1499
sg1633
g1669
sg355
g1595
sbsS'IwGeomSVec2.h'
p3382
g329
(g1628
g331
Ntp3383
Rp3384
(dp3385
g1632
g1335
sg1633
g1694
sg355
g1333
sbsS'libjpeg.mkf'
p3386
g329
(g1628
g331
Ntp3387
Rp3388
(dp3389
g1632
g1096
sg1633
(lp3390
g1092
asg355
g1094
sbsS'IwGxDebug.h'
p3391
g329
(g1628
g331
Ntp3392
Rp3393
(dp3394
g1632
g1435
sg1633
g1774
sg355
g1458
sbsS'float.h'
p3395
g329
(g1628
g331
Ntp3396
Rp3397
(dp3398
g1632
g1640
sg1633
g1662
sg355
S'c:/marmalade/7.5/s3e/h/std/float.h'
p3399
sbsS'iomanip.h'
p3400
g329
(g1628
g331
Ntp3401
Rp3402
(dp3403
g1632
g1640
sg1633
g1641
sg355
S'c:/marmalade/7.5/s3e/h/std/c++/iomanip.h'
p3404
sbsS'enemy.h'
p3405
g329
(g1628
g331
Ntp3406
Rp3407
(dp3408
g1632
g1198
sg1633
g1784
sg355
g1201
sbsS'IwKeymap.h'
p3409
g329
(g1628
g331
Ntp3410
Rp3411
(dp3412
g1632
g1499
sg1633
g1669
sg355
g1540
sbsS'IwDebug.h'
p3413
g329
(g1628
g331
Ntp3414
Rp3415
(dp3416
g1632
g1499
sg1633
g1669
sg355
g1528
sbsS'IwVariableBitField.h'
p3417
g329
(g1628
g331
Ntp3418
Rp3419
(dp3420
g1632
g1499
sg1633
g1669
sg355
g1562
sbsS'IwGeomMenu.h'
p3421
g329
(g1628
g331
Ntp3422
Rp3423
(dp3424
g1632
g1335
sg1633
g1694
sg355
g1391
sbsS'IwDivTable.h'
p3425
g329
(g1628
g331
Ntp3426
Rp3427
(dp3428
g1632
g1499
sg1633
g1669
sg355
g1518
sbsS'ctype.h'
p3429
g329
(g1628
g331
Ntp3430
Rp3431
(dp3432
g1632
g1640
sg1633
g1662
sg355
S'c:/marmalade/7.5/s3e/h/std/ctype.h'
p3433
sbsS'mainMenu.cpp'
p3434
g329
(g1628
g331
Ntp3435
Rp3436
(dp3437
g1632
g1198
sg1633
g1784
sg355
g1217
sbsS'IwResGroup.h'
p3438
g329
(g1628
g331
Ntp3439
Rp3440
(dp3441
g1632
g1411
sg1633
g1913
sg355
g1425
sbsS'signal_1.h'
p3442
g329
(g1628
g331
Ntp3443
Rp3444
(dp3445
g1632
g1640
sg1633
g1793
sg355
S'c:/marmalade/7.5/s3e/h/std/sys/signal.h'
p3446
sbsS'IwSoundData.cpp'
p3447
g329
(g1628
g331
Ntp3448
Rp3449
(dp3450
g1632
g1141
sg1633
g1680
sg355
g1178
sbsS'main.cpp'
p3451
g329
(g1628
g331
Ntp3452
Rp3453
(dp3454
g1632
g1198
sg1633
g1784
sg355
g1221
sbsS'shm.h'
p3455
g329
(g1628
g331
Ntp3456
Rp3457
(dp3458
g1632
g1640
sg1633
g1793
sg355
S'c:/marmalade/7.5/s3e/h/std/sys/shm.h'
p3459
sbsS'IwManagedList.h'
p3460
g329
(g1628
g331
Ntp3461
Rp3462
(dp3463
g1632
g1499
sg1633
g1669
sg355
g1512
sbsS'prctl.h'
p3464
g329
(g1628
g331
Ntp3465
Rp3466
(dp3467
g1632
g1640
sg1633
g1793
sg355
S'c:/marmalade/7.5/s3e/h/std/sys/prctl.h'
p3468
sbsS'IwGxStream.h'
p3469
g329
(g1628
g331
Ntp3470
Rp3471
(dp3472
g1632
g1435
sg1633
g1774
sg355
g1446
sbsS'temp_defines_debug.h'
p3473
g329
(g1628
g331
Ntp3474
Rp3475
(dp3476
g1632
(lp3477
sg1633
(lp3478
g2972
asg355
S'c:/Marmalade/7.5/examples/GameTutorial/CPP/marm1/build_stage4_vc12/temp_defines_debug.h'
p3479
sbsS'utility'
p3480
g329
(g1628
g331
Ntp3481
Rp3482
(dp3483
g1632
g1640
sg1633
g1641
sg355
S'c:/marmalade/7.5/s3e/h/std/c++/utility'
p3484
sbsS'input.h'
p3485
g329
(g1628
g331
Ntp3486
Rp3487
(dp3488
g1632
g1198
sg1633
g1784
sg355
g1211
sbsS'Levelmanager.h'
p3489
g329
(g1628
g331
Ntp3490
Rp3491
(dp3492
g1632
g1198
sg1633
g1784
sg355
g1231
sbsS'IwGeomLegacy.h'
p3493
g329
(g1628
g331
Ntp3494
Rp3495
(dp3496
g1632
g1335
sg1633
g1694
sg355
g1355
sbsS'IwTPage.h'
p3497
g329
(g1628
g331
Ntp3498
Rp3499
(dp3500
g1632
g1435
sg1633
g1774
sg355
g1483
sbsS'IwResSerialise.h'
p3501
g329
(g1628
g331
Ntp3502
Rp3503
(dp3504
g1632
g1411
sg1633
g1913
sg355
g1412
sbsS's3eCrypto.h'
p3505
g329
(g1628
g331
Ntp3506
Rp3507
(dp3508
g1632
g1640
sg1633
g1656
sg355
S'c:/marmalade/7.5/s3e/h/s3eCrypto.h'
p3509
sbsS's3eKeyboard.h'
p3510
g329
(g1628
g331
Ntp3511
Rp3512
(dp3513
g1632
g1640
sg1633
g1656
sg355
S'c:/marmalade/7.5/s3e/h/s3eKeyboard.h'
p3514
sbsS'fcntl.h'
p3515
g329
(g1628
g331
Ntp3516
Rp3517
(dp3518
g1632
g1640
sg1633
g1662
sg355
S'c:/marmalade/7.5/s3e/h/std/fcntl.h'
p3519
sbsS'Iw2DSceneGraphCore.h'
p3520
g329
(g1628
g331
Ntp3521
Rp3522
(dp3523
g1632
g1492
sg1633
g2756
sg355
g1490
sbsS'memory.h'
p3524
g329
(g1628
g331
Ntp3525
Rp3526
(dp3527
g1632
g1640
sg1633
g1662
sg355
S'c:/marmalade/7.5/s3e/h/std/memory.h'
p3528
sbsS'pthread.h'
p3529
g329
(g1628
g331
Ntp3530
Rp3531
(dp3532
g1632
g1640
sg1633
g1662
sg355
S'c:/marmalade/7.5/s3e/h/std/pthread.h'
p3533
sbsS'IwGeomIntersect.h'
p3534
g329
(g1628
g331
Ntp3535
Rp3536
(dp3537
g1632
g1335
sg1633
g1694
sg355
g1381
sbsS'IwTextParserITX.h'
p3538
g329
(g1628
g331
Ntp3539
Rp3540
(dp3541
g1632
g1499
sg1633
g1669
sg355
g1538
sbsS'IwClip.inl'
p3542
g329
(g1628
g331
Ntp3543
Rp3544
(dp3545
g1632
g1435
sg1633
g1774
sg355
g1468
sbsS'Iw2DSceneGraph.cpp'
p3546
g329
(g1628
g331
Ntp3547
Rp3548
(dp3549
g1632
g1277
sg1633
g1955
sg355
g1275
sbsS'ostream.h'
p3550
g329
(g1628
g331
Ntp3551
Rp3552
(dp3553
g1632
g1640
sg1633
g1641
sg355
S'c:/marmalade/7.5/s3e/h/std/c++/ostream.h'
p3554
sbsS'stl_user_config.h'
p3555
g329
(g1628
g331
Ntp3556
Rp3557
(dp3558
g1632
g1640
sg1633
g1641
sg355
S'c:/marmalade/7.5/s3e/h/std/c++/stl_user_config.h'
p3559
sbsS'IwProfileMenu.h'
p3560
g329
(g1628
g331
Ntp3561
Rp3562
(dp3563
g1632
g1499
sg1633
g1669
sg355
g1514
sbsS'MarmaladeVersion.h'
p3564
g329
(g1628
g331
Ntp3565
Rp3566
(dp3567
g1632
g1640
sg1633
g1656
sg355
S'c:/marmalade/7.5/s3e/h/MarmaladeVersion.h'
p3568
sbsS'IwResHandlerWAV.h'
p3569
g329
(g1628
g331
Ntp3570
Rp3571
(dp3572
g1632
g1141
sg1633
g1680
sg355
g1146
sbsS'gl3platform.h'
p3573
g329
(g1628
g331
Ntp3574
Rp3575
(dp3576
g1632
g1640
sg1633
g1966
sg355
S'c:/marmalade/7.5/s3e/h/GLES3/gl3platform.h'
p3577
sbsS'ios.h'
p3578
g329
(g1628
g331
Ntp3579
Rp3580
(dp3581
g1632
g1640
sg1633
g1641
sg355
S'c:/marmalade/7.5/s3e/h/std/c++/ios.h'
p3582
sbsS'IwImageHelper.h'
p3583
g329
(g1628
g331
Ntp3584
Rp3585
(dp3586
g1632
g1499
sg1633
g1669
sg355
g1510
sbsS'hash_set'
p3587
g329
(g1628
g331
Ntp3588
Rp3589
(dp3590
g1632
g1640
sg1633
g1641
sg355
S'c:/marmalade/7.5/s3e/h/std/c++/hash_set'
p3591
sbsS'IwGeomFQuat.h'
p3592
g329
(g1628
g331
Ntp3593
Rp3594
(dp3595
g1632
g1335
sg1633
g1694
sg355
g1345
sbsS'jmorecfg.h'
p3596
g329
(g1628
g331
Ntp3597
Rp3598
(dp3599
g1632
g1100
sg1633
g1728
sg355
g1109
sbsS'eglplatform.h'
p3600
g329
(g1628
g331
Ntp3601
Rp3602
(dp3603
g1632
g1640
sg1633
g1998
sg355
S'c:/marmalade/7.5/s3e/h/EGL/eglplatform.h'
p3604
sbsS'cmath'
p3605
g329
(g1628
g331
Ntp3606
Rp3607
(dp3608
g1632
g1640
sg1633
g1641
sg355
S'c:/marmalade/7.5/s3e/h/std/c++/cmath'
p3609
sbsS'math_gcc.h'
p3610
g329
(g1628
g331
Ntp3611
Rp3612
(dp3613
g1632
g1640
sg1633
g1662
sg355
S'c:/marmalade/7.5/s3e/h/std/math_gcc.h'
p3614
sbsS's3eMemory.h'
p3615
g329
(g1628
g331
Ntp3616
Rp3617
(dp3618
g1632
g1640
sg1633
g1656
sg355
S'c:/marmalade/7.5/s3e/h/s3eMemory.h'
p3619
sbsS'strings.h'
p3620
g329
(g1628
g331
Ntp3621
Rp3622
(dp3623
g1632
g1640
sg1633
g1662
sg355
S'c:/marmalade/7.5/s3e/h/std/strings.h'
p3624
sbsS's3eFile.h'
p3625
g329
(g1628
g331
Ntp3626
Rp3627
(dp3628
g1632
g1640
sg1633
g1656
sg355
S'c:/marmalade/7.5/s3e/h/s3eFile.h'
p3629
sbsS'IwGxTypes.h'
p3630
g329
(g1628
g331
Ntp3631
Rp3632
(dp3633
g1632
g1435
sg1633
g1774
sg355
g1472
sbsS'cerrno'
p3634
g329
(g1628
g331
Ntp3635
Rp3636
(dp3637
g1632
g1640
sg1633
g1641
sg355
S'c:/marmalade/7.5/s3e/h/std/c++/cerrno'
p3638
sbsS'IwSoundManager.cpp'
p3639
g329
(g1628
g331
Ntp3640
Rp3641
(dp3642
g1632
g1141
sg1633
g1680
sg355
g1154
sbsS'main.h'
p3643
g329
(g1628
g331
Ntp3644
Rp3645
(dp3646
g1632
g1198
sg1633
g1784
sg355
g1199
sbsS'soundengine.mkf'
p3647
g329
(g1628
g331
Ntp3648
Rp3649
(dp3650
g1632
g1186
sg1633
g1680
sg355
g1184
sbsS'resource.h'
p3651
g329
(g1628
g331
Ntp3652
Rp3653
(dp3654
g1632
g1640
sg1633
g1793
sg355
S'c:/marmalade/7.5/s3e/h/std/sys/resource.h'
p3655
sbsS'clocale'
p3656
g329
(g1628
g331
Ntp3657
Rp3658
(dp3659
g1632
g1640
sg1633
g1641
sg355
S'c:/marmalade/7.5/s3e/h/std/c++/clocale'
p3660
sbsS'pvrtextool.mkf'
p3661
g329
(g1628
g331
Ntp3662
Rp3663
(dp3664
g1632
g1270
sg1633
g2275
sg355
g1268
sbsS'csetjmp'
p3665
g329
(g1628
g331
Ntp3666
Rp3667
(dp3668
g1632
g1640
sg1633
g1641
sg355
S'c:/marmalade/7.5/s3e/h/std/c++/csetjmp'
p3669
sbsS'netdb.h'
p3670
g329
(g1628
g331
Ntp3671
Rp3672
(dp3673
g1632
g1640
sg1633
g1662
sg355
S'c:/marmalade/7.5/s3e/h/std/netdb.h'
p3674
sbsS's3eAndroidJNI.h'
p3675
g329
(g1628
g331
Ntp3676
Rp3677
(dp3678
g1632
g1640
sg1633
g1867
sg355
S'c:/marmalade/7.5/s3e/h/ext/s3eAndroidJNI.h'
p3679
sbsS'stdexcept'
p3680
g329
(g1628
g331
Ntp3681
Rp3682
(dp3683
g1632
g1640
sg1633
g1641
sg355
S'c:/marmalade/7.5/s3e/h/std/c++/stdexcept'
p3684
sbsS'math.h'
p3685
g329
(g1628
g331
Ntp3686
Rp3687
(dp3688
g1632
g1640
sg1633
g1662
sg355
S'c:/marmalade/7.5/s3e/h/std/math.h'
p3689
sbsS'stdbool.h'
p3690
g329
(g1628
g331
Ntp3691
Rp3692
(dp3693
g1632
g1640
sg1633
g1662
sg355
S'c:/marmalade/7.5/s3e/h/std/stdbool.h'
p3694
sbsS'uio.h'
p3695
g329
(g1628
g331
Ntp3696
Rp3697
(dp3698
g1632
g1640
sg1633
g1793
sg355
S'c:/marmalade/7.5/s3e/h/std/sys/uio.h'
p3699
sbsS'IwUncopyable.h'
p3700
g329
(g1628
g331
Ntp3701
Rp3702
(dp3703
g1632
g1499
sg1633
g1669
sg355
g1577
sbssS'juice_build_type'
p3704
g4
sS'tests'
p3705
(lp3706
sS'project_name'
p3707
g337
sS'root_file'
p3708
g135
sS'current_root'
p3709
S'c:/Marmalade/7.5/examples/GameTutorial/CPP/marm1'
p3710
sS'dependencies'
p3711
(lp3712
sS'include_paths'
p3713
(lp3714
S'c:/marmalade/7.5/modules/iw2d/h'
p3715
aS'c:/marmalade/7.5/modules/iwgx/h'
p3716
aS'c:/marmalade/7.5/modules/iwgl/h'
p3717
aS'c:/marmalade/7.5/modules/iwutil/h'
p3718
aS'c:/marmalade/7.5/modules/third_party/libjpeg/h'
p3719
aS'c:/marmalade/7.5/modules/third_party/zlib/h'
p3720
aS'c:/marmalade/7.5/modules/third_party/libpng/h'
p3721
aS'c:/marmalade/7.5/modules/iwgeom/h'
p3722
aS'c:/marmalade/7.5/modules/iwresmanager/h'
p3723
aS'c:/marmalade/7.5/extensions/pvrtextool/h'
p3724
aS'c:/marmalade/7.5/modules/iwgxfont/h'
p3725
aS'c:/marmalade/7.5/modules/third_party/tiniconv/source'
p3726
aS'c:/marmalade/7.5/modules/iw2dscenegraph/h'
p3727
aS'c:/marmalade/7.5/modules/iw2dscenegraphcore/h'
p3728
aS'c:/marmalade/7.5/modules/iwtween/h'
p3729
aS'c:/marmalade/7.5/examples/gametutorial/cpp/modules/soundengine/h'
p3730
aS'c:/marmalade/7.5/examples/gametutorial/cpp/modules/soundengine/source'
p3731
aS'c:/marmalade/7.5/s3e/h'
p3732
aS'c:/marmalade/7.5/s3e/h/ext'
p3733
aS'c:/marmalade/7.5/s3e/h/std'
p3734
aS'c:/marmalade/7.5/s3e/h/std/c++'
p3735
aS'c:/marmalade/7.5/s3e/h/ext_legacy'
p3736
aS'c:/marmalade/7.5/s3e/h/legacy'
p3737
asS'weak_frameworks'
p3738
(lp3739
sS'extprojects'
p3740
(dp3741
sg599
(dp3742
g593
(lp3743
(S'c:/Marmalade/7.5/examples/GameTutorial/CPP/marm1/data/audio'
p3744
S'audio'
p3745
I0
tp3746
a(S'c:/Marmalade/7.5/examples/GameTutorial/CPP/marm1/data/textures'
p3747
S'textures'
p3748
I0
tp3749
a(S'c:/Marmalade/7.5/examples/GameTutorial/CPP/marm1/data/fonts'
p3750
S'fonts'
p3751
I0
tp3752
a(S'c:/Marmalade/7.5/examples/GameTutorial/CPP/marm1/data-ram/data-gles1,c:/Marmalade/7.5/examples/GameTutorial/CPP/marm1/data'
p3753
S'.'
p3754
I0
tp3755
assS'macro_types'
p3756
(dp3757
g528
I1
sg529
I0
sg530
I0
sg531
I0
sg533
I0
sg534
I0
sg535
I0
sg536
I0
sg537
I0
sg539
I0
sg540
I0
sg541
I0
sg542
I0
sg543
I0
sg545
I0
sg547
I0
sg548
I0
sg549
I0
sg550
I0
sg551
I0
sg552
I0
sg553
I0
sg554
I0
sg555
I1
sg556
I0
sg557
I0
sg558
I0
sg559
I0
sg560
I01
sg561
I1
sg562
I0
sg563
I0
sg564
I0
sg565
I0
sg566
I0
sg567
I0
sg568
I0
ssS'commands'
p3758
(lp3759
sg601
(g1073
S'VC12'
p3760
S'X86ARMAARCH64'
p3761
tp3762
sS'build_libs'
p3763
(dp3764
sg603
g0
sS'frameworks'
p3765
(lp3766
sS'environ'
p3767
(dp3768
sS'target_name_debug'
p3769
g337
sS'builders'
p3770
(dp3771
g593
(dp3772
S'.S'
p3773
(dp3774
S'gcc_aarch64'
p3775
(lp3776
S'.obj'
p3777
aS'echo AARCH64 Assembling(GCC) ${SOURCE}...'
p3778
aS'c:/marmalade/7.5/s3e\\gcc\\win32\\aarch64\\bin\\aarch64-none-elf-gcc -c -o ${TARGET} ${SOURCE}'
p3779
asS'rvct'
p3780
(lp3781
g3777
aS'echo ARM Assembling(RVCT) ${SOURCE}...'
p3782
aS'c:/marmalade/7.5/s3e\\rvct\\bin\\armasm -o ${TARGET} ${SOURCE}'
p3783
asg451
(lp3784
g3777
aS'echo ARM Assembling(GCC) ${SOURCE}...'
p3785
aS'c:/marmalade/7.5/s3e\\gcc\\win32\\arm\\bin\\arm-none-eabi-gcc -c -o ${TARGET} ${SOURCE}'
p3786
asS'ppu'
p3787
(lp3788
S'.a'
p3789
aS'echo PPU Assembling(SNC) ${SOURCE}...'
p3790
aS'c:/marmalade/7.5/s3e\\rvct\\bin\\armasm -o ${TARGET} ${SOURCE}'
p3791
assS'.s'
p3792
g3774
sS'.vp'
p3793
(lp3794
NaS'"C:/Marmalade/7.5/s3e/python/python.exe" "c:/marmalade/7.5/modules/iwgx/tools/compile_shaders.py" ${SOURCE}'
p3795
asssS'extproject_names'
p3796
(lp3797
sbtp3798
.