((dp0
S'arm_dbg_args'
p1
S'-via:"c:\\Marmalade\\7.5\\examples\\GameTutorial\\CPP\\marm1\\build_stage4_vc12\\Stage4_vc12_arm_debug.via" -qemu'
p2
sS'game-icf'
p3
S''
p4
sS'dist'
p5
NsS'csproj'
p6
g4
sS'module_path_append'
p7
NsS'global_path'
p8
S'c:\\marmalade\\7.5\\examples\\gametutorial\\cpp'
p9
sS'system_path'
p10
S'c:\\marmalade\\7.5\\s3e\\makefile_builder'
p11
sS'android_x86_dbg_args'
p12
S'../../tools/DeployTool/DeployTool.exe --dir "c:\\Marmalade\\7.5\\examples\\GameTutorial\\CPP\\marm1\\build_stage4_vc12"'
p13
sS'aarch64-arch-mod'
p14
g4
sS'no-emit'
p15
NsS'arm-float-abi'
p16
g4
sS'arm_rel_rtsm_args'
p17
S'-via:"c:\\Marmalade\\7.5\\examples\\GameTutorial\\CPP\\marm1\\build_stage4_vc12\\Stage4_vc12_arm_release.via" -qemu'
p18
sS'amd64'
p19
NsS'line-width'
p20
I80
sS'gcc_dbg_args'
p21
S'-via:"c:\\Marmalade\\7.5\\examples\\GameTutorial\\CPP\\marm1\\build_stage4_vc12\\Stage4_vc12_gcc_debug.via" -qemu'
p22
sS'android-x86'
p23
NsS'x86_dbg_exe'
p24
S'c:/marmalade/7.5/s3e\\win32\\s3e_simulator_debug.exe'
p25
sS'disable-runtime-checks'
p26
NsS'release'
p27
NsS'no-make'
p28
NsS'xcode-x86-build-settings'
p29
g4
sS'optimise-size'
p30
NsS'fat'
p31
NsS'output-name-debug'
p32
g4
sS'arm-fpu'
p33
g4
sS'proj_name'
p34
S'Stage4_vc12'
p35
sS'rvct-version'
p36
S'none'
p37
sS'compiler'
p38
g4
sS'execute'
p39
NsS'compile-static'
p40
NsS'msvc-project'
p41
I01
sS'buildenv'
p42
S'VC12'
p43
sS'quick'
p44
NsS'module_path'
p45
(lp46
S'c:/Marmalade/7.5/examples/GameTutorial/CPP/modules'
p47
asS'mkf_default'
p48
S's3e-default.mkf'
p49
sS'use-release-std-libs'
p50
NsS'using_perforce'
p51
I00
sS'tizen-x86'
p52
NsS'mips-s3e'
p53
NsS's3e-api-lib-name'
p54
S's3e_api_iwgl'
p55
sS'ios-no-pic'
p56
NsS'shared-arm-lib'
p57
NsS'arm-cpu'
p58
g4
sS'compile-thumb'
p59
NsS'no-ide'
p60
NsS'msvc-version'
p61
S'6.0'
p62
sS'arm'
p63
NsS'builddir'
p64
g4
sS'compile-debug-as-release'
p65
I0
sS'arm-arch'
p66
g4
sS'brief'
p67
NsS'dll'
p68
NsS'buildenv-toolset'
p69
g4
sS'version'
p70
NsS'aarch64-arch'
p71
g4
sS'ccache'
p72
I0
sS'offline'
p73
NsS'ios-version'
p74
g4
sS'hub_data'
p75
g4
sS'fake_vc_call'
p76
I01
sS'jobs'
p77
I0
sS'linkflags'
p78
NsS'gcc_aarch64_dbg_args'
p79
g13
sS'debug'
p80
NsS'xcode-build-order'
p81
g4
sS'gcc_aarch64_rel_rtsm_args'
p82
S'-via:"c:\\Marmalade\\7.5\\examples\\GameTutorial\\CPP\\marm1\\build_stage4_vc12\\Stage4_vc12_gcc_aarch64_release.via" -qemu'
p83
sS'gcc_rel_rtsm_args'
p84
S'-via:"c:\\Marmalade\\7.5\\examples\\GameTutorial\\CPP\\marm1\\build_stage4_vc12\\Stage4_vc12_gcc_release.via" -qemu'
p85
sS'done_defaults'
p86
I1
sS'path'
p87
NsS's3e-data-dir'
p88
S'c:/Marmalade/7.5/examples/GameTutorial/CPP/marm1\\data'
p89
sS'enable-exceptions'
p90
NsS'osx-dll'
p91
NsS'extension'
p92
g4
sS'no-vc6'
p93
NsS'aarch64'
p94
NsS'win32-console'
p95
NsS'dist-format'
p96
g4
sS's3e-force-arch'
p97
NsS'dump_defines'
p98
NsS'use-shared-std-libs'
p99
NsS'gcc-version'
p100
g4
sS'x86_dbg_args'
p101
S'-via:"c:\\Marmalade\\7.5\\examples\\GameTutorial\\CPP\\marm1\\build_stage4_vc12\\Stage4_vc12_debug.via"'
p102
sS'tizen_x86_dbg_args'
p103
g13
sS'arm-debugger'
p104
g4
sS'use_temp_extension'
p105
NsS'verbose'
p106
I0
sS'log'
p107
NsS'no-strip'
p108
NsS'rebuild'
p109
NsS'mips_dbg_args'
p110
g13
sS'win32-simulator-dll'
p111
NsS'strict'
p112
NsS'xcode-aarch64-build-settings'
p113
g4
sS'enable-global-path'
p114
NsS'gcc_aarch64_rel_args'
p115
g13
sS'cflags'
p116
(lp117
S'-std=gnu++0x'
p118
asS'dist-dir'
p119
g4
sS'xcode-arm-build-settings'
p120
g4
sS'jflags'
p121
NsS'csprojSDKRefs'
p122
g4
sS'tizen_x86_rel_exe'
p123
S'c:\\marmalade\\7.5\\s3e\\makefile_builder\\tool_launcher.exe'
p124
sS'test-assets'
p125
S'Default'
p126
sS'distcc'
p127
NsS'external-compiler'
p128
NsS'no-distcc'
p129
NsS'preinclude'
p130
NsS'using_sdk'
p131
I01
sS'nologo'
p132
NsS'warn-level'
p133
I2
sS'mips_dbg_exe'
p134
g124
sS'mkb_in'
p135
S'c:/Marmalade/7.5/examples/GameTutorial/CPP/marm1/Stage4.mkb'
p136
sS'tizen_x86_dbg_exe'
p137
g124
sS'arm_dbg_exe'
p138
S'c:/marmalade/7.5/s3e\\bin\\armdebug.exe'
p139
sS'mdev-first'
p140
NsS'csprojDLLRef'
p141
NsS'tizen_x86_rel_args'
p142
g13
sS'android_x86_dbg_exe'
p143
g124
sS'test-config'
p144
g4
sS'list-targets'
p145
NsS'arm_rel_exe'
p146
g124
sS'arm_rel_args'
p147
g13
sS'makedeps'
p148
NsS'android_x86_rel_exe'
p149
g124
sS'default-buildenv'
p150
S'vc12'
p151
sS'x86_rel_exe'
p152
g25
sS'preprocess-java'
p153
NsS'mips_rel_args'
p154
g13
sS'defines'
p155
NsS'lib'
p156
NsS'non-interactive'
p157
NsS'global_argv'
p158
(lp159
S'C:\\Marmalade\\7.5\\s3e\\makefile_builder\\mkb.py'
p160
aS'c:/Marmalade/7.5/examples/GameTutorial/CPP/marm1/Stage4.mkb'
p161
aS'--buildenv=VC12'
p162
aS'--test-assets'
p163
ag126
aS'--fake-vc-call'
p164
aS'--default-buildenv=vc12'
p165
aS'--msvc-project'
p166
asS'make'
p167
NsS'optimise-speed'
p168
NsS'internal'
p169
NsS'enable-stdinc'
p170
NsS'deploy-only'
p171
NsS'x86'
p172
NsS'deploy'
p173
g4
sS'x86_run_exe'
p174
S'c:/marmalade/7.5/s3e\\win32\\s3e_console.exe'
p175
sS'cxxflags'
p176
NsS'x86_rel_args'
p177
S'-via:"c:\\Marmalade\\7.5\\examples\\GameTutorial\\CPP\\marm1\\build_stage4_vc12\\Stage4_vc12_release.via"'
p178
sS'gcc_rel_args'
p179
g13
sS'mips'
p180
NsS'xcode-build-settings'
p181
g4
sS'incredibuild'
p182
NsS'strict-compile'
p183
NsS'use-auto-subdirs'
p184
NsS'mips_rel_exe'
p185
g124
sS'android_x86_rel_args'
p186
g13
sS'app-icf'
p187
g4
sS'deployargs'
p188
NsS'iosnativedebug'
p189
NsS'use_prebuilt'
p190
NsS'mkf_in'
p191
(lp192
S'c:\\marmalade\\7.5\\s3e\\s3e-default.mkf'
p193
aS'c:\\marmalade\\7.5\\modules\\iw2d\\iw2d.mkf'
p194
aS'c:\\marmalade\\7.5\\modules\\iwgx\\iwgx.mkf'
p195
aS'c:\\marmalade\\7.5\\modules\\iwgl\\iwgl.mkf'
p196
aS'c:\\marmalade\\7.5\\modules\\iwutil\\iwutil.mkf'
p197
aS'c:\\marmalade\\7.5\\modules\\third_party\\libjpeg\\libjpeg.mkf'
p198
aS'c:\\marmalade\\7.5\\modules\\third_party\\libpng\\libpng.mkf'
p199
aS'c:\\marmalade\\7.5\\modules\\third_party\\zlib\\zlib.mkf'
p200
aS'c:\\marmalade\\7.5\\modules\\iwgeom\\iwgeom.mkf'
p201
aS'c:\\marmalade\\7.5\\modules\\iwresmanager\\iwresmanager.mkf'
p202
aS'c:\\marmalade\\7.5\\extensions\\pvrtextool\\pvrtextool.mkf'
p203
aS'c:\\marmalade\\7.5\\modules\\iwgxfont\\iwgxfont.mkf'
p204
aS'c:\\marmalade\\7.5\\modules\\third_party\\tiniconv\\tiniconv.mkf'
p205
aS'c:\\marmalade\\7.5\\modules\\iw2dscenegraph\\iw2dscenegraph.mkf'
p206
aS'c:\\marmalade\\7.5\\modules\\iw2dscenegraphcore\\iw2dscenegraphcore.mkf'
p207
aS'c:\\marmalade\\7.5\\modules\\iwtween\\iwtween.mkf'
p208
aS'c:\\marmalade\\7.5\\examples\\gametutorial\\cpp\\modules\\soundengine\\soundengine.mkf'
p209
aS'c:\\marmalade\\7.5\\examples\\marmaladeexampleresources\\marmaladeexampleresources.mkf'
p210
asS'strict-mkb'
p211
NsS'executeargs'
p212
NsS'clean'
p213
NsS'no-asm'
p214
NsS'output-name'
p215
g4
sS'no-modules'
p216
NsS'find_define'
p217
g4
s(dp218
S'c:\\marmalade\\7.5\\s3e\\makefile_builder\\templates\\vc7_suo.pyc'
p219
F1424160376.0
sS'c:\\marmalade\\7.5\\s3e\\makefile_builder\\templates\\ws81_vcxproj.pyc'
p220
F1424160380.0
sS'c:\\marmalade\\7.5\\s3e\\makefile_builder\\plugins\\s3e_ws8.pyc'
p221
F1424160376.0
sS'c:\\marmalade\\7.5\\s3e\\makefile_builder\\templates'
p222
F1424630747.758857
sS'c:\\marmalade\\7.5\\s3e\\makefile_builder\\templates\\qmake.py'
p223
F1424159312.0
sS'c:\\marmalade\\7.5\\s3e\\makefile_builder\\templates\\vc10_user.pyc'
p224
F1424160378.0
sS'c:\\marmalade\\7.5\\s3e\\makefile_builder\\plugins'
p225
F1424631019.086376
sS'c:\\marmalade\\7.5\\s3e\\makefile_builder\\mkb_main.pyc'
p226
F1424160376.0
sS'c:\\marmalade\\7.5\\s3e\\makefile_builder\\templates\\mips_linker_script'
p227
F1424159312.0
sS'c:\\marmalade\\7.5\\s3e\\makefile_builder\\plugins\\XcodeEmitter.py'
p228
F1424159310.0
sS'c:\\marmalade\\7.5\\s3e\\makefile_builder\\mkb.py'
p229
F1424159310.0
sS'c:\\marmalade\\7.5\\s3e\\makefile_builder\\templates\\ws81_ext_sln.pyc'
p230
F1424160380.0
sS'c:\\marmalade\\7.5\\s3e\\makefile_builder\\templates\\win32_dsp.pyc'
p231
F1424160376.0
sS'c:\\marmalade\\7.5\\s3e\\makefile_builder\\templates\\ws8_csproj.pyc'
p232
F1424160380.0
sS'c:\\marmalade\\7.5\\s3e\\makefile_builder\\deployment.pyc'
p233
F1424160376.0
sS'c:\\marmalade\\7.5\\s3e\\makefile_builder\\plugins\\win32_vc6.pyc'
p234
F1424160376.0
sS'c:\\marmalade\\7.5\\s3e\\makefile_builder\\plugins\\osx_xcode.pyc'
p235
F1424160376.0
sS'c:\\marmalade\\7.5\\s3e\\makefile_builder\\plugins\\null.pyc'
p236
F1424160376.0
sS'c:\\marmalade\\7.5\\s3e\\makefile_builder\\templates\\wp81_csproj.pyc'
p237
F1424160380.0
sS'c:\\marmalade\\7.5\\s3e\\makefile_builder\\templates\\qmake_user.py'
p238
F1424159312.0
sS'c:\\marmalade\\7.5\\s3e\\makefile_builder\\templates\\vc6_opt.pyc'
p239
F1424160376.0
sS'c:\\marmalade\\7.5\\s3e\\makefile_builder\\plugins\\vc7_utils.pyc'
p240
F1424160376.0
sS'c:\\marmalade\\7.5\\s3e\\makefile_builder\\templates\\wp81_vcxproj.pyc'
p241
F1424160380.0
sS'c:\\marmalade\\7.5\\s3e\\makefile_builder\\templates\\win32_vcxproj.pyc'
p242
F1424160378.0
sS'c:\\marmalade\\7.5\\s3e\\makefile_builder\\templates\\ws8_ext_sln.pyc'
p243
F1424160380.0
sS'c:\\marmalade\\7.5\\s3e\\makefile_builder\\templates\\ws8_ext_csproj.pyc'
p244
F1424160380.0
sS'c:\\marmalade\\7.5\\s3e\\makefile_builder\\templates\\wp8_ext_csproj.pyc'
p245
F1424160378.0
sS'c:\\marmalade\\7.5\\s3e\\makefile_builder\\plugins\\s3e_wp8.pyc'
p246
F1424160376.0
sS'c:\\marmalade\\7.5\\s3e\\makefile_builder\\templates\\ws81_csproj.pyc'
p247
F1424160380.0
sS'c:\\marmalade\\7.5\\s3e\\makefile_builder\\docs\\deprecated.options.txt'
p248
F1424159310.0
sS'c:\\marmalade\\7.5\\s3e\\makefile_builder\\plugins\\s3e_make.pyc'
p249
F1424160376.0
sS'c:\\marmalade\\7.5\\s3e\\makefile_builder\\templates\\win8_ext_csproj.pyc'
p250
F1424160378.0
sS'c:\\marmalade\\7.5\\s3e\\makefile_builder\\mkb_parser.pyc'
p251
F1424160376.0
sS'c:\\marmalade\\7.5\\s3e\\makefile_builder\\plugins\\s3e_web.pyc'
p252
F1424160376.0
sS'c:\\marmalade\\7.5\\s3e\\makefile_builder\\docs\\mkb.defines.txt'
p253
F1424159310.0
sS'c:\\marmalade\\7.5\\s3e\\makefile_builder\\plugins\\osx_scons.pyc'
p254
F1424160376.0
sS'c:\\marmalade\\7.5\\s3e\\makefile_builder\\plugins\\ws81_ws81.pyc'
p255
F1424160376.0
sS'c:\\marmalade\\7.5\\s3e\\makefile_builder\\plugins\\s3e_qmake.py'
p256
F1424159312.0
sS'c:\\marmalade\\7.5\\s3e\\makefile_builder\\templates\\win8_csproj.pyc'
p257
F1424160378.0
sS'c:\\marmalade\\7.5\\s3e\\makefile_builder\\plugins\\s3e_vc6.pyc'
p258
F1424160376.0
sS'c:\\marmalade\\7.5\\s3e\\makefile_builder\\plugins\\wp81_wp81.pyc'
p259
F1424160376.0
sS'c:\\marmalade\\7.5\\s3e\\makefile_builder\\templates\\wp81_csproj_user.pyc'
p260
F1424160380.0
sS'c:\\marmalade\\7.5\\s3e\\makefile_builder\\templates\\win32_dsw.pyc'
p261
F1424160376.0
sS'c:\\marmalade\\7.5\\s3e\\makefile_builder\\templates\\xcode4.xcscheme'
p262
F1424159312.0
sS'c:\\marmalade\\7.5\\s3e\\makefile_builder\\templates\\template.opt'
p263
F1424159312.0
sS'c:\\marmalade\\7.5\\s3e\\makefile_builder\\templates\\template.suo'
p264
F1424159312.0
sS'c:\\marmalade\\7.5\\s3e\\makefile_builder\\templates\\linker_script'
p265
F1424159312.0
sS'c:\\marmalade\\7.5\\s3e\\makefile_builder\\templates\\gdb_start.txt'
p266
F1424159312.0
sS'c:\\marmalade\\7.5\\s3e\\makefile_builder\\mkb_launcher.exe'
p267
F1424159548.0
sS'c:\\marmalade\\7.5\\s3e\\makefile_builder\\templates\\scons.pyc'
p268
F1424160376.0
sS'c:\\marmalade\\7.5\\s3e\\makefile_builder\\docs\\parse_options.pyc'
p269
F1424160380.0
sS'c:\\marmalade\\7.5\\s3e\\makefile_builder\\templates\\xcode4_arm.xcscheme'
p270
F1424159312.0
sS'c:\\marmalade\\7.5\\s3e\\makefile_builder\\plugins\\VisualStudioEmitter.pyc'
p271
F1424160376.0
sS'c:\\marmalade\\7.5\\s3e\\makefile_builder\\plugins\\s3e_xcode.pyc'
p272
F1424631019.087376
sS'c:\\marmalade\\7.5\\s3e\\makefile_builder\\plugins\\Emitter.pyc'
p273
F1424160376.0
sS'c:\\marmalade\\7.5\\s3e\\makefile_builder\\templates\\ws8_sln.pyc'
p274
F1424160380.0
sS'c:\\marmalade\\7.5\\s3e\\makefile_builder\\tool_launcher.exe'
p275
F1424159548.0
sS'c:\\marmalade\\7.5\\s3e\\makefile_builder\\templates\\wp8_sln.pyc'
p276
F1424160378.0
sS'c:\\marmalade\\7.5\\s3e\\makefile_builder\\mkb_upstream.pyc'
p277
F1424160376.0
sS'c:\\marmalade\\7.5\\s3e\\makefile_builder\\templates\\ws81_csproj_user.pyc'
p278
F1424160380.0
sS'c:\\marmalade\\7.5\\s3e\\makefile_builder\\templates\\win32_sln.pyc'
p279
F1424160376.0
sS'c:\\marmalade\\7.5\\s3e\\makefile_builder\\templates\\xcode4_DeployTool.xcscheme'
p280
F1424159312.0
sS'c:\\marmalade\\7.5\\s3e\\makefile_builder\\plugins\\deploy.pyc'
p281
F1424160376.0
sS'c:\\marmalade\\7.5\\s3e\\makefile_builder\\plugins\\s3e_win8.pyc'
p282
F1424160376.0
sS'c:\\marmalade\\7.5\\s3e\\makefile_builder\\plugins\\iphone.pyc'
p283
F1424160376.0
sS'c:\\marmalade\\7.5\\s3e\\makefile_builder\\plugins\\Win8Emitter.pyc'
p284
F1424160376.0
sS'c:\\marmalade\\7.5\\s3e\\makefile_builder\\plugins\\s3e_qmake.pyc'
p285
F1424631018.9523683
sS'c:\\marmalade\\7.5\\s3e\\makefile_builder\\docs'
p286
F1424630747.7758577
sS'c:\\marmalade\\7.5\\s3e\\makefile_builder\\mkb_globals.pyc'
p287
F1424160376.0
sS'c:\\marmalade\\7.5\\s3e\\makefile_builder\\plugins\\win8_utils.pyc'
p288
F1424160376.0
sS'c:\\marmalade\\7.5\\s3e\\makefile_builder\\plugins\\xcode4_schememanagement.py'
p289
F1424159312.0
sS'c:\\marmalade\\7.5\\s3e\\makefile_builder\\templates\\wp81_ext_sln.pyc'
p290
F1424160380.0
sS'c:\\marmalade\\7.5\\s3e\\makefile_builder\\templates\\make.py'
p291
F1424159312.0
sS'c:\\marmalade\\7.5\\s3e\\makefile_builder\\templates\\ws81_ext_csproj.pyc'
p292
F1424160380.0
sS'c:\\marmalade\\7.5\\s3e\\makefile_builder\\plugins\\s3e_xcode.py'
p293
F1424159312.0
sS'c:\\marmalade\\7.5\\s3e\\makefile_builder\\plugins\\XcodeEmitter.pyc'
p294
F1424631018.8013597
sS'c:\\marmalade\\7.5\\s3e\\makefile_builder\\docs\\deployment_options.txt'
p295
F1424159310.0
sS'c:\\marmalade\\7.5\\s3e\\makefile_builder\\templates\\win8_sln.pyc'
p296
F1424160378.0
sS'c:\\marmalade\\7.5\\s3e\\makefile_builder\\plugins\\java.pyc'
p297
F1424160376.0
sS'c:\\marmalade\\7.5\\s3e\\makefile_builder\\plugins\\xcode4_schememanagement.pyc'
p298
F1424631018.80836
sS'c:\\marmalade\\7.5\\s3e\\makefile_builder\\plugins\\SConsEmitter.pyc'
p299
F1424160376.0
sS'c:\\marmalade\\7.5\\s3e\\makefile_builder\\templates\\win32_vcproj.pyc'
p300
F1424160378.0
sS'c:\\marmalade\\7.5\\s3e\\makefile_builder\\plugins\\wp8_wp8.pyc'
p301
F1424160376.0
sS'c:\\marmalade\\7.5\\s3e\\makefile_builder\\templates\\MainWindow.xib'
p302
F1424159312.0
sS'c:\\marmalade\\7.5\\s3e\\makefile_builder\\mkb_util.pyc'
p303
F1424160376.0
sS'c:\\marmalade\\7.5\\s3e\\makefile_builder\\templates\\vc8_user.pyc'
p304
F1424160378.0
sS'c:\\marmalade\\7.5\\s3e\\makefile_builder\\templates\\Info.plist'
p305
F1424159312.0
sS'c:\\marmalade\\7.5\\s3e\\makefile_builder\\templates\\wp8_csproj_user.pyc'
p306
F1424160378.0
sS'c:\\marmalade\\7.5\\s3e\\makefile_builder\\docs\\deprecated.defines.txt'
p307
F1424159310.0
sS'c:\\marmalade\\7.5\\s3e\\makefile_builder\\templates\\ws8_csproj_user.pyc'
p308
F1424160380.0
sS'c:\\marmalade\\7.5\\s3e\\makefile_builder\\plugins\\S3EEmitter.pyc'
p309
F1424160376.0
sS'c:\\marmalade\\7.5\\s3e\\makefile_builder\\templates\\rvct_linker_script'
p310
F1424159312.0
sS'c:\\marmalade\\7.5\\s3e\\makefile_builder\\templates\\xcode_pbxuser.py'
p311
F1424159312.0
sS'c:\\marmalade\\7.5\\s3e\\makefile_builder\\docs\\options.txt'
p312
F1424159310.0
sS'c:\\marmalade\\7.5\\s3e\\makefile_builder\\templates\\wp81_sln.pyc'
p313
F1424160380.0
sS'c:\\marmalade\\7.5\\s3e\\makefile_builder\\templates\\ws81_sln.pyc'
p314
F1424160380.0
sS'c:\\marmalade\\7.5\\s3e\\makefile_builder\\plugins\\vc6_utils.pyc'
p315
F1424160376.0
sS'c:\\marmalade\\7.5\\s3e\\makefile_builder\\templates\\wp81_ext_csproj.pyc'
p316
F1424160380.0
sS'c:\\marmalade\\7.5\\s3e\\makefile_builder\\plugins\\s3e_wp81.pyc'
p317
F1424160376.0
sS'c:\\marmalade\\7.5\\s3e\\makefile_builder\\templates\\aarch64_linker_script'
p318
F1424159312.0
sS'c:\\marmalade\\7.5\\s3e\\makefile_builder\\templates\\ws8_vcxproj.pyc'
p319
F1424160380.0
sS'c:\\marmalade\\7.5\\s3e\\makefile_builder\\plugins\\MakeEmitter.pyc'
p320
F1424160376.0
sS'c:\\marmalade\\7.5\\s3e\\makefile_builder\\templates\\win32_vcxproj_filters.pyc'
p321
F1424160378.0
sS'c:\\marmalade\\7.5\\s3e\\makefile_builder\\templates\\xcode.py'
p322
F1424159312.0
sS'c:\\marmalade\\7.5\\s3e\\makefile_builder\\plugins\\s3e_ws81.pyc'
p323
F1424160376.0
sS'c:\\marmalade\\7.5\\s3e\\makefile_builder\\plugins\\linux_scons.pyc'
p324
F1424160376.0
sS'c:\\marmalade\\7.5\\s3e\\makefile_builder\\templates\\win8_vcxproj.pyc'
p325
F1424160378.0
sS'c:\\marmalade\\7.5\\s3e\\makefile_builder\\plugins\\s3e_scons.pyc'
p326
F1424160376.0
sS'c:\\marmalade\\7.5\\s3e\\makefile_builder\\templates\\wp8_csproj.pyc'
p327
F1424160378.0
sS'c:\\marmalade\\7.5\\s3e\\makefile_builder\\templates\\win8_csproj_user.pyc'
p328
F1424160378.0
sS'c:\\marmalade\\7.5\\s3e\\makefile_builder\\plugins\\ws8_ws8.pyc'
p329
F1424160376.0
sS'c:\\marmalade\\7.5\\s3e\\makefile_builder\\templates\\wp8_vcxproj.pyc'
p330
F1424160378.0
sS'c:\\marmalade\\7.5\\s3e\\makefile_builder\\mkb_option.pyc'
p331
F1424160376.0
sccopy_reg
_reconstructor
p332
(cmkb_main
MkbFile
p333
c__builtin__
object
p334
Ntp335
Rp336
(dp337
g5
(lp338
sS'target_name'
p339
S'Stage4'
p340
sS'current_file'
p341
g136
sS'package_path'
p342
(lp343
sS'post_build'
p344
(lp345
(lp346
S'c:/marmalade/7.5/s3e/tools'
p347
aS'C:\\Marmalade\\7.5\\s3e\\python\\python.exe .\\process_map.py "$(TargetPath)"'
p348
aa(S'c:\\marmalade\\7.5\\s3e\\bin'
p349
S'"s3e_plink" -l "$(TargetPath)" '
p350
g172
tp351
asS'librarys'
p352
(lp353
g332
(cmkb_main
Library
p354
g334
Ntp355
Rp356
(dp357
S'name'
p358
S'vc6_compat.lib'
p359
sS'expand_name'
p360
I00
sS'include_spec_rvct_objs'
p361
(lp362
sS'include_all_objs'
p363
I00
sS'share_arm'
p364
I00
sS'arch'
p365
S'x86'
p366
sS'nodebug'
p367
I00
sg38
Nsbag332
(g354
g334
Ntp368
Rp369
(dp370
g358
S'iw2d'
p371
sg360
I01
sg361
(lp372
sg363
Nsg364
Nsg365
Nsg367
I00
sg38
Nsbag332
(g354
g334
Ntp373
Rp374
(dp375
g358
S'ATI_Compress_MT_VC7.lib'
p376
sg360
I00
sg361
g372
sg363
Nsg364
Nsg365
S'x86'
p377
sg367
I00
sg38
Nsbag332
(g354
g334
Ntp378
Rp379
(dp380
g358
S'iwgx'
p381
sg360
I01
sg361
g372
sg363
Nsg364
Nsg365
Nsg367
I00
sg38
Nsbag332
(g354
g334
Ntp382
Rp383
(dp384
g358
S'iwgl'
p385
sg360
I01
sg361
g372
sg363
Nsg364
Nsg365
Nsg367
I00
sg38
Nsbag332
(g354
g334
Ntp386
Rp387
(dp388
g358
S'iwutil'
p389
sg360
I01
sg361
g372
sg363
Nsg364
Nsg365
Nsg367
I00
sg38
Nsbag332
(g354
g334
Ntp390
Rp391
(dp392
g358
S'jpeg'
p393
sg360
I01
sg361
g372
sg363
Nsg364
Nsg365
Nsg367
I00
sg38
Nsbag332
(g354
g334
Ntp394
Rp395
(dp396
g358
S'z'
p397
sg360
I01
sg361
g372
sg363
Nsg364
Nsg365
Nsg367
I00
sg38
Nsbag332
(g354
g334
Ntp398
Rp399
(dp400
g358
S'png'
p401
sg360
I01
sg361
g372
sg363
Nsg364
Nsg365
Nsg367
I00
sg38
Nsbag332
(g354
g334
Ntp402
Rp403
(dp404
g358
S'iwgeom'
p405
sg360
I01
sg361
g372
sg363
Nsg364
Nsg365
Nsg367
I00
sg38
Nsbag332
(g354
g334
Ntp406
Rp407
(dp408
g358
S'iwresmanager'
p409
sg360
I01
sg361
g372
sg363
Nsg364
Nsg365
Nsg367
I00
sg38
Nsbag332
(g354
g334
Ntp410
Rp411
(dp412
g358
S'iwgxfont'
p413
sg360
I01
sg361
g372
sg363
Nsg364
Nsg365
Nsg367
I00
sg38
Nsbag332
(g354
g334
Ntp414
Rp415
(dp416
g358
S'tiniconv'
p417
sg360
I01
sg361
g372
sg363
Nsg364
Nsg365
Nsg367
I00
sg38
Nsbag332
(g354
g334
Ntp418
Rp419
(dp420
g358
S's3e_cpp'
p421
sg360
I01
sg361
g362
sg363
I00
sg364
I00
sg365
Nsg367
I00
sg38
Nsbag332
(g354
g334
Ntp422
Rp423
(dp424
g358
S's3e'
p425
sg360
I01
sg361
(lp426
S'iwcrt.o'
p427
asg363
I00
sg364
I00
sg365
Nsg367
I00
sg38
Nsbag332
(g354
g334
Ntp428
Rp429
(dp430
g358
g55
sg360
I01
sg361
g362
sg363
I00
sg364
I00
sg365
S'x86'
p431
sg367
I01
sg38
Nsbag332
(g354
g334
Ntp432
Rp433
(dp434
g358
g55
sg360
I01
sg361
g362
sg363
I00
sg364
I00
sg365
S'!x86'
p435
sg367
I01
sg38
Nsbag332
(g354
g334
Ntp436
Rp437
(dp438
g358
S'stdc++'
p439
sg360
I00
sg361
g362
sg363
I00
sg364
I00
sg365
S'mips'
p440
sg367
I00
sg38
Nsbag332
(g354
g334
Ntp441
Rp442
(dp443
g358
S'c'
p444
sg360
I00
sg361
g362
sg363
I00
sg364
I00
sg365
S'mips'
p445
sg367
I00
sg38
Nsbag332
(g354
g334
Ntp446
Rp447
(dp448
g358
S'm'
p449
sg360
I00
sg361
g362
sg363
I00
sg364
I00
sg365
S'mips'
p450
sg367
I00
sg38
Nsbag332
(g354
g334
Ntp451
Rp452
(dp453
g358
S'gcc'
p454
sg360
I00
sg361
g362
sg363
I00
sg364
I00
sg365
S'mips'
p455
sg367
I00
sg38
Nsbag332
(g354
g334
Ntp456
Rp457
(dp458
g358
S'stdc++'
p459
sg360
I00
sg361
g362
sg363
I00
sg364
I00
sg365
S'gcc_x86_android'
p460
sg367
I00
sg38
Nsbag332
(g354
g334
Ntp461
Rp462
(dp463
g358
g444
sg360
I00
sg361
g362
sg363
I00
sg364
I00
sg365
S'gcc_x86_android'
p464
sg367
I00
sg38
Nsbag332
(g354
g334
Ntp465
Rp466
(dp467
g358
g449
sg360
I00
sg361
g362
sg363
I00
sg364
I00
sg365
S'gcc_x86_android'
p468
sg367
I00
sg38
Nsbag332
(g354
g334
Ntp469
Rp470
(dp471
g358
g454
sg360
I00
sg361
g362
sg363
I00
sg364
I00
sg365
S'gcc_x86_android'
p472
sg367
I00
sg38
NsbasS'library_paths'
p473
(lp474
g332
(cmkb_main
LibraryPath
p475
g334
Ntp476
Rp477
(dp478
S'expand_path'
p479
I01
sg358
S'c:/marmalade/7.5/modules/iw2d'
p480
sbag332
(g475
g334
Ntp481
Rp482
(dp483
g479
I00
sg358
S'c:/marmalade/7.5/modules/iwgx/atitools'
p484
sbag332
(g475
g334
Ntp485
Rp486
(dp487
g479
I01
sg358
S'c:/marmalade/7.5/modules/iwgx'
p488
sbag332
(g475
g334
Ntp489
Rp490
(dp491
g479
I01
sg358
S'c:/marmalade/7.5/modules/iwgl'
p492
sbag332
(g475
g334
Ntp493
Rp494
(dp495
g479
I01
sg358
S'c:/marmalade/7.5/modules/iwutil'
p496
sbag332
(g475
g334
Ntp497
Rp498
(dp499
g479
I01
sg358
S'c:/marmalade/7.5/modules/third_party/libjpeg'
p500
sbag332
(g475
g334
Ntp501
Rp502
(dp503
g479
I01
sg358
S'c:/marmalade/7.5/modules/third_party/zlib'
p504
sbag332
(g475
g334
Ntp505
Rp506
(dp507
g479
I01
sg358
S'c:/marmalade/7.5/modules/third_party/libpng'
p508
sbag332
(g475
g334
Ntp509
Rp510
(dp511
g479
I01
sg358
S'c:/marmalade/7.5/modules/iwgeom'
p512
sbag332
(g475
g334
Ntp513
Rp514
(dp515
g479
I01
sg358
S'c:/marmalade/7.5/modules/iwresmanager'
p516
sbag332
(g475
g334
Ntp517
Rp518
(dp519
g479
I01
sg358
S'c:/marmalade/7.5/modules/iwgxfont'
p520
sbag332
(g475
g334
Ntp521
Rp522
(dp523
g479
I01
sg358
S'c:/marmalade/7.5/modules/third_party/tiniconv'
p524
sbag332
(g475
g334
Ntp525
Rp526
(dp527
g479
I01
sg358
S'c:/marmalade/7.5/s3e'
p528
sbasS'macros'
p529
(dp530
S'IW_USE_CALLSTACK'
p531
NsS'IW_MKF_IWGEOM'
p532
NsS'I3D_PLATFORM_S3E'
p533
NsS'IW_TRACE_CHANNEL_PVRTEXTOOL_VERBOSE'
p534
S'2'
p535
sS'IW_MKF_LIBJPEG'
p536
NsS'I3D_OS_S3E'
p537
NsS'IW_MKF_PVRTEXTOOL'
p538
NsS'IW_MKF_TINICONV'
p539
NsS'IW_APP_VERSION'
p540
S'"1.0"'
p541
sS'__S3E__'
p542
NsS'IW_MKF_IWRESMANAGER'
p543
NsS'IW_MKF_IWUTIL'
p544
NsS'IW_PLATFORM_S3E'
p545
NsS'IW_ASSERTION_CHANNEL_2D'
p546
S'1'
p547
sS'IW_APP_NAME'
p548
S'"Stage4"'
p549
sS'IW_MKF_MARMALADEEXAMPLERESOURCES'
p550
NsS'IW_MKF_IWGXFONT'
p551
NsS'IW_MKF_IWTWEEN'
p552
NsS'IW_MKF_ZLIB'
p553
NsS'IW_MKF_S3E_DEFAULT'
p554
NsS'IW_MKF_IWGX'
p555
NsS'IW_MKF_IW2DSCENEGRAPH'
p556
NsS'IW_MKF_SOUNDENGINE'
p557
NsS'IW_USE_ASSERTIONS'
p558
NsS'_CRT_SECURE_NO_DEPRECATE'
p559
NsS'IW_MKF_IWGL'
p560
NsS'IW_MKF_LIBPNG'
p561
NsS'IW_TRACE_CHANNEL_IW_2DSCENEGRAPH'
p562
g547
sS'IW_DEBUG'
p563
NsS'IW_USE_TRACING'
p564
NsS'IW_ASSERTION_CHANNEL_IW_2DSCENEGRAPH'
p565
g547
sS'IW_TRACE_CHANNEL_PVRTEXTOOL'
p566
g547
sS'IW_SDK'
p567
NsS'S3E_INCLUDE_LEGACY'
p568
NsS'IW_MKF_IW2DSCENEGRAPHCORE'
p569
NsS'IW_MKF_IW2D'
p570
NsS'IW_ASSERTION_CHANNEL_PVRTEXTOOL'
p571
g547
ssS'done_warnings'
p572
(dp573
sS'subprojects'
p574
(dp575
g195
S'iwgx'
p576
sg204
S'iwgxfont'
p577
sg193
S's3e-default.mkf'
p578
sg207
S'../iw2dscenegraphcore'
p579
sg200
S'zlib'
p580
sg202
S'iwresmanager'
p581
sg205
S'tiniconv'
p582
sg198
S'libjpeg'
p583
sg194
S'iw2d'
p584
sg210
S'../../../MarmaladeExampleResources'
p585
sg197
S'iwutil'
p586
sg208
S'iwtween'
p587
sg199
S'libpng'
p588
sg206
S'iw2dscenegraph'
p589
sg209
S'SoundEngine'
p590
sg196
S'iwgl'
p591
sg201
S'iwgeom'
p592
sg203
S'PVRTexTool'
p593
ssS'deployments'
p594
(dp595
S'Default'
p596
g332
(cdeployment
Deployment
p597
g334
Ntp598
Rp599
(dp600
S'got_version'
p601
I0
sS'assets'
p602
g596
sS'mkb'
p603
g336
sS'target'
p604
Nsg365
(lp605
sS'options'
p606
(dp607
S'iphone-link-lib'
p608
(lp609
sS'game-icf'
p610
NsS'android-tm'
p611
NsS'winmobile-icon32'
p612
NsS'ws8-logo-image150x150'
p613
NsS'wp81-logo-image150x150'
p614
NsS'android-keystore'
p615
NsS'osx-ext-dll'
p616
(lp617
S'c:/marmalade/7.5/extensions/pvrtextool/lib/osx/libPVRTexTool.dylib'
p618
asS'iphone-provisioning-profile'
p619
NsS'ws8-splash-screen-image620x300'
p620
NsS'wp81-extra-pri'
p621
(lp622
sS'ws8-ext-capabilities'
p623
(lp624
sS'android-icon-hdpi'
p625
NsS'iphone-ipad-only'
p626
NsS'iphone-splash-full-orient'
p627
NsS'wp8-tile-fliptemplate-supports-large'
p628
NsS'iphone-show-status-bar'
p629
NsS'roku-requires-mkv'
p630
NsS'long-caption'
p631
NsS'android-pkgname'
p632
NsS'wp81-publisher-display-name'
p633
NsS'blackberry-permissions-read-device-identifying-information'
p634
NsS'ws81-certificate-end-date'
p635
NsS'psp-dlgcontentid'
p636
NsS'iphone-minimum-ios-version'
p637
NsS'target-folder'
p638
NsS'tizen-dist1-CA-path'
p639
NsS'symbian-icon2-format'
p640
NsS'tizen-author-key'
p641
NsS'firefoxos-icon-128X128'
p642
NsS'iphone-region'
p643
NsS'uiq3-icon3-mask'
p644
NsS'brew-encoding'
p645
NsS'android-x86'
p646
NsS'nds-initialcode'
p647
NsS'iphone-persistent-wifi'
p648
NsS'psp-snd0'
p649
NsS'roku-icon-focus-hd'
p650
NsS'osx-appid'
p651
NsS'winmobile-install-folder'
p652
NsS'android-external-res'
p653
(lp654
sS'ws8-product-version'
p655
NsS'brew-priviledges'
p656
NsS'iphone-info-plist-override'
p657
NsS'iphone-icon-ipad'
p658
NsS'iphone-skip-icon-generation'
p659
NsS'roku-hidden'
p660
NsS'psp-titlename'
p661
NsS'wp81-product-version'
p662
NsS'symbian-icon1-mask'
p663
NsS'psp-parentallevel'
p664
NsS'iphone-launch-storyboard'
p665
NsS'splashscreen-use-all'
p666
NsS'wp8-author'
p667
NsS'symbian-disable-ecompxl'
p668
NsS'splashscreen-auto-onblack'
p669
NsS'iphone-icon-dir'
p670
NsS'iphone-icon-extra'
p671
NsS'win32-ext-dll'
p672
(lp673
S'c:/marmalade/7.5/extensions/pvrtextool/lib/win32/PVRTexTool.dll'
p674
asS'iphone-development-key'
p675
NsS'winmobile-icon48'
p676
NsS'android-unsigned'
p677
NsS'osx-appstore-category'
p678
NsS'version-revision'
p679
NsS'roku-icon-focus-sd'
p680
NsS'ws81-product-version'
p681
NsS'winmobile-png90'
p682
NsS'iphone-icon-ipad-high-res'
p683
NsS'iphone-disable-ipad'
p684
NsS'ws81-splash-screen-background'
p685
NsS'wp8-ext-capabilities'
p686
(lp687
sS'brew-icon-large'
p688
NsS'symbian-icon1-mask-black'
p689
NsS'ws8-extra-res'
p690
(lp691
sS'iphone-bundle-localisations'
p692
NsS'winmobile-png60'
p693
NsS'blackberry-permissions-access-shared'
p694
NsS'blackberry-author'
p695
NsS'android-icon-xxxhdpi'
p696
NsS'olddeploytoolstyle'
p697
NsS'android_icon_gallery'
p698
NsS'wp81-splash-screen-background'
p699
NsS'winmobile-cab-compress'
p700
NsS'iphone-info-plist'
p701
NsS'ws81-ext-managed-dll'
p702
(lp703
sS'playbook-cskpass'
p704
NsS'win32-icon'
p705
NsS'symbian-key'
p706
NsS'app-icf'
p707
NsS'blackberry-storepass'
p708
NsS'wp8-tile-fliptemplate-back-title'
p709
NsS'brew-compress-loader'
p710
NsS'iphone-testflight'
p711
NsS'win32-pref-windowposy'
p712
NsS'win32-pref-windowposx'
p713
NsS'roku-requires-audiometadata'
p714
NsS'wp8-exclude-low-mem'
p715
NsS'iphone-icon-ipad-search-high-res'
p716
NsS'iphone-link-libdir'
p717
(lp718
sS'wp81-ext-capabilities'
p719
(lp720
sS'blackberry-permissions-read-geolocation'
p721
NsS'ws81-ext-device-capabilities'
p722
(lp723
sS'tizen-signed'
p724
NsS'android-extra-application-manifest'
p725
(lp726
sS'ws8-ext-native-dll'
p727
(lp728
sS'symbian-icon2-mask'
p729
NsS'iphone-launch-extra'
p730
NsS'webos-memory'
p731
NsS'android-keypass'
p732
NsS'name'
p733
NsS'uiq3-icon2-format'
p734
NsS'roku-splash-screen-sd'
p735
NsS'auto-derbh'
p736
NsS'roku-icon-side-sd'
p737
NsS'android-external-assets'
p738
(lp739
sS'nds-publicsavedatasize'
p740
NsS'splashscreen'
p741
S'c:/marmalade/7.5/examples/marmaladeexampleresources/resources/splashscreens'
p742
sS'brew-mif'
p743
NsS'iphone-icon-settings-high-res'
p744
NsS'android-manifest'
p745
NsS'ws81-splash-screen-image620x300'
p746
NsS'wp81-product-name'
p747
NsS's3e-compression'
p748
NsS'tizen-author-password'
p749
NsS'wp8-tile-fliptemplate-back-content'
p750
NsS'blackberry-extra-descriptor'
p751
(lp752
sS'symbian-icon1'
p753
NsS'symbian-icon2'
p754
NsS'nds-makercode'
p755
NsS'android-extra-styles-file'
p756
NsS'wp81-publisher-id'
p757
NsS'nds-bannertitle-jp'
p758
NsS'wp81-logo-image44x44'
p759
NsS'osx-sign-for-store'
p760
NsS'symbian7-uid'
p761
NsS'wp8-tile-fliptemplate-large-back-content'
p762
NsS'wp81-phone-publisher-id'
p763
NsS'nds-bannertitle-cn'
p764
NsS'iphone-distribution-key'
p765
NsS'android-icon-gallery'
p766
NsS'blackberry-keystore'
p767
NsS'iphone-nosign'
p768
NsS'caption'
p769
NsS'android-extra-manifest'
p770
(lp771
sS'wp81-ext-sdk-ref'
p772
(lp773
sS'android-icon-xxhdpi'
p774
NsS'version-minor'
p775
NsS'iphone-skip-launch-generation'
p776
NsS'iphone-link-libdirs'
p777
(lp778
sS'iphone-icon-large'
p779
NsS'symbian-keypwd'
p780
NsS'symbian8-uid'
p781
NsS'symbian-cert-key'
p782
NsS'winmobile-ampd-part-number'
p783
NsS'arch'
p784
NsS'nds-romheadertemplate'
p785
NsS'webos-icon'
p786
NsS'wp81-ext-device-capabilities'
p787
(lp788
sS'psp-dlgprotectdocument'
p789
NsS'ws8-splash-screen-background'
p790
NsS'android-icon-mdpi'
p791
NsS'nds-icon'
p792
NsS'ws8-custom-manifest-fill'
p793
NsS'iphone-development-cert'
p794
NsS'and'
p795
NsS'symbian-icon2-mask-black'
p796
NsS'blackberry-phone-icon'
p797
NsS'iphone-enable-4inch-retina'
p798
NsS'ws8-custom-manifest'
p799
NsS'version-major'
p800
NsS'wp8-genre-isgame'
p801
NsS'uiq3-uid'
p802
NsS'iphone-splash-retina-generate'
p803
NsS'tizen-hw-acceleration'
p804
NsS'iphone_bundle_localisations'
p805
NsS'tizen-dist1-key'
p806
NsS'wp81-custom-manifest-fill'
p807
NsS'wp8-custom-manifest'
p808
NsS'nds-bannertitle-ge'
p809
NsS'iphone-sign-for-distribution'
p810
NsS'wp8-tile-fliptemplate-medium-back-image'
p811
NsS'wp8-publisher-id'
p812
NsS'icon'
p813
S'c:/marmalade/7.5/examples/marmaladeexampleresources/resources/icons'
p814
sS'wp8-exclude-wxga'
p815
NsS'wp81-identity-name'
p816
NsS'uiq3-icon2-mask'
p817
NsS'iphone-splashscreen-portrait'
p818
NsS'iphone-icon-high-res'
p819
NsS'ws81-distribution-pfx-password'
p820
NsS'playbook-author'
p821
NsS'android-icon-xhdpi'
p822
NsS'linux-ext-lib'
p823
(lp824
sS'blackberry-permissions-access-internet'
p825
NsS'wp8-exclude-720p'
p826
NsS'lgtv-use-drm'
p827
NsS'symbian-platsecflags'
p828
NsS'ws8-description'
p829
NsS'blackberry-playbook-icon'
p830
NsS'copyright'
p831
NsS'ws8-distribution-pfx-password'
p832
NsS'win32-gles-directory'
p833
NsS'version'
p834
NsS'iphone-uiviewcontroller-based-status-bar'
p835
NsS'ws81-logo-image150x150'
p836
NsS'osx-signing-identity-app'
p837
NsS'tizen-project-url'
p838
NsS'symbian-icon-svg'
p839
NsS'android-aliasname'
p840
NsS'psp-dlgmanual'
p841
NsS'brew-uid'
p842
NsS'symbian-locationsupport'
p843
NsS'wp81-logo-image50x50'
p844
NsS'ws8-ext-managed-dll'
p845
(lp846
sS'nds-bannertitle-it'
p847
NsS'ws81-custom-manifest-fill'
p848
NsS'ws8-ext-sdk-manifest-part'
p849
(lp850
sS'uiq3-icon1-mask'
p851
NsS'winmobile-icon16'
p852
NsS'ws8-product-name'
p853
NsS'blackberry-cskpass'
p854
NsS'winmobile-start-menu-folder'
p855
NsS'brew-clsid'
p856
NsS'roku-requires-bluetooth'
p857
NsS'iphone-default-development-profile'
p858
NsS'ws8-ext-device-capabilities'
p859
(lp860
sS'blackberry-permissions-use-camera'
p861
NsS'ws81-extra-pri'
p862
(lp863
sS'iphone-prerendered-icon'
p864
NsS'iphone-appid'
p865
NsS'ws8-identity-name'
p866
NsS'tizen-dist2-CA-path'
p867
NsS'android-external-jars'
p868
(lp869
sS'winmobile-icon64'
p870
NsS'blackberry-permissions-post-notification'
p871
NsS'winmobile-setup-dll'
p872
NsS'firefoxos-manifest'
p873
NsS'win8-winrt-extra-res'
p874
(lp875
sS'wp81-ext-sdk-manifest-part'
p876
(lp877
sS'symbian9-uid'
p878
NsS'iphone-icon-ipad-ios7'
p879
NsS'winmobile-trace-file'
p880
NsS'roku-splash-color'
p881
NsS'psp-appversion'
p882
NsS'ws8-publisher-id'
p883
NsS'android-supports-gl-texture'
p884
(lp885
sS'winmobile-png45'
p886
NsS'wp81-extra-res'
p887
(lp888
sS'android-storepass'
p889
NsS'osx-signing-identity-inst'
p890
NsS'android-custom-activity'
p891
NsS'psp-discversion'
p892
NsS'wp81-ext-managed-dll'
p893
(lp894
sS'psp-copyright'
p895
NsS'embed-icf'
p896
NsS'tizen-manifest'
p897
NsS'osx-icon'
p898
NsS'webos-appinfo'
p899
NsS'psp-dlghealthwarning'
p900
NsS'webos-appid'
p901
NsS'roku-icon-side-hd'
p902
NsS'iphone-icon-ipad-search-high-res-ios7'
p903
NsS'iphone-extra-plist'
p904
(lp905
sS'ws81-ext-sdk-manifest-part'
p906
(lp907
sS'loader_name_prefix'
p908
NsS'iphone-launch-dir'
p909
NsS'nds-titlename'
p910
NsS'ws81-logo-image50x50'
p911
NsS'wp81-custom-manifest'
p912
NsS'osx-entitlements-plist'
p913
NsS'psp-dlgicon0'
p914
NsS'winmobile-nouninstall'
p915
NsS'psp-discid'
p916
NsS'tizen-dist2-password'
p917
NsS'ws8-ext-sdk-ref'
p918
(lp919
sS'iphone-extra-string'
p920
(lp921
sS'version-string'
p922
NsS'iphone-icon-high-res-ios7'
p923
NsS'blackberry-permissions-record-audio'
p924
NsS'ws8-certificate-end-date'
p925
NsS'tizen-so'
p926
(lp927
sS'wp8-tile-fliptemplate-small-image'
p928
NsS'playbook-authorid'
p929
NsS'iphone-signing-identity'
p930
NsS'roku-persist-quota'
p931
NsS'nds-bannertitle-fr'
p932
NsS'ws8-distribution-pfx'
p933
NsS'ws8-publisher-display-name'
p934
NsS'brew-icon-small'
p935
NsS'psp-dlgpic2'
p936
NsS'psp-dlgpic0'
p937
NsS'psp-pic0'
p938
NsS'psp-pic1'
p939
NsS'win32-pref-windowtitle'
p940
NsS'psp-icon0'
p941
NsS'psp-icon1'
p942
NsS'ws81-identity-name'
p943
NsS'winmobile-icon'
p944
NsS'iphone-no-splash'
p945
NsS'iphone-splash'
p946
NsS'iphone-app-fonts'
p947
NsS'wp8-ext-native-dll'
p948
(lp949
sS'wp81-splash-screen-image480x800'
p950
NsS'ws81-distribution-cer'
p951
NsS'iphone-backgroundmode-audio'
p952
NsS'uiq3-icon2'
p953
NsS'uiq3-icon3'
p954
NsS'uiq3-icon1'
p955
NsS'uiq3-icon1-format'
p956
NsS'ws8-logo-image50x50'
p957
NsS'iphone-icon-ipad-search'
p958
NsS'symbian-run-on-install'
p959
NsS'wp81-description'
p960
NsS'ws81-publisher-display-name'
p961
NsS'firefoxos-xulrunner'
p962
NsS'symbian-soundrecordsupport'
p963
NsS'nds-bannertitle-sp'
p964
NsS'psp-producer'
p965
NsS'iphone-apple-wwdr-cert'
p966
NsS'android-icon-nonstandard'
p967
NsS'win32-pref-processtitle'
p968
NsS'nds-bannertitle-hn'
p969
NsS'tizen-dist2-key'
p970
NsS'brew-depends'
p971
NsS'ws81-custom-manifest'
p972
NsS'iphone-allow-launch-rotation'
p973
NsS'iphone-icon-ipad-search-ios7'
p974
NsS'brew-icon-medium'
p975
NsS'iphone-bundle-url-name'
p976
NsS'wp8-tile-fliptemplate-large-front-image'
p977
NsS'tizen-dist2-CA-root-path'
p978
NsS'ws81-description'
p979
NsS'uiq3-icon3-format'
p980
NsS'ws81-logo-image30x30'
p981
NsS'win8-phone-extra-res'
p982
(lp983
sS'iphone-signing-host'
p984
NsS'tizen-icon'
p985
NsS'osx-info-plist'
p986
NsS'symbian-icon1-format'
p987
NsS'ws81-distribution-pfx'
p988
NsS'blackberry-authorid'
p989
NsS'ws81-publisher-id'
p990
NsS'win8-store-extra-res'
p991
(lp992
sS'wp8-description'
p993
NsS'iphone-link-opts'
p994
(lp995
sS'ws81-ext-sdk-ref'
p996
(lp997
sS'roku-splash-min-time'
p998
NsS'wp8-tile-fliptemplate-medium-front-image'
p999
NsS'iphone-disable-launch-images'
p1000
NsS'provider'
p1001
NsS'playbook-keystore'
p1002
NsS'tizen-appid'
p1003
NsS'wp8-extra-res'
p1004
(lp1005
sS'symbian-osexecsupport'
p1006
NsS'android-install-location'
p1007
NsS'nds-privatesavedatasize'
p1008
NsS'iphone-disable-testflight'
p1009
NsS'playbook-storepass'
p1010
NsS'android-icon-ldpi'
p1011
NsS'manufacturer'
p1012
NsS'itunes-artwork'
p1013
NsS'iphone-extra-sections'
p1014
NsS'ws81-product-name'
p1015
NsS'ws81-ext-native-dll'
p1016
(lp1017
sS'ws8-extra-pri'
p1018
(lp1019
sS'wp8-product-id'
p1020
NsS'ws8-logo-image30x30'
p1021
NsS'wp8-ext-managed-dll'
p1022
(lp1023
sS'iphone-splashscreen-landscape'
p1024
NsS'symbian-maxheapsize'
p1025
NsS'android-extra-packages'
p1026
(lp1027
sS'priv-sign-key'
p1028
NsS'networking'
p1029
NsS'android-icon'
p1030
NsS'iphone-icon-settings'
p1031
NsS'wp81-phone-product-id'
p1032
NsS'firefoxos-icon-60X60'
p1033
NsS'iphone-distribution-cert'
p1034
NsS'android_extra_strings'
p1035
NsS'nds-bannertitle-en'
p1036
NsS'wp8-tile-fliptemplate-title'
p1037
NsS'android-so'
p1038
(lp1039
sS'wp8-higher-mem'
p1040
NsS'wp8-ext-sdk-ref'
p1041
(lp1042
sS'wp8-fast-resume-mode'
p1043
NsS'roku-splash-screen-hd'
p1044
NsS'iphone-bundle-url-schemes'
p1045
NsS'roku-screensaver-private'
p1046
NsS'osx-extra-res'
p1047
(lp1048
sS'ws81-extra-res'
p1049
(lp1050
sS'playbook-icon'
p1051
NsS'uid'
p1052
NsS'pkguid-as-uid'
p1053
NsS'wp81-ext-native-dll'
p1054
(lp1055
sS'tizen-dist1-password'
p1056
NsS'roku-screensaver-title'
p1057
NsS'osx-minimum-osx-version'
p1058
NsS'symbian-cert'
p1059
NsS'iphone-icon'
p1060
NsS'ws81-ext-capabilities'
p1061
(lp1062
sS'ws8-distribution-cer'
p1063
NsS'playbook-access-shared'
p1064
NsS'iphone-icon-ipad-high-res-ios7'
p1065
NsS'iphone-link-libs'
p1066
(lp1067
sS'wp8-exclude-wvga'
p1068
NsS'assets'
p1069
NsS'wp8-tile-fliptemplate-large-back-image'
p1070
NsS'wp8-custom-manifest-fill'
p1071
NsS'pub-sign-key'
p1072
NsS'android-extra-strings'
p1073
NsS'tizen-author-CA-path'
p1074
Nssg358
g596
sbssS'platform'
p1075
S'S3E'
p1076
sg70
S'1.0'
p1077
sS'arcade_platform'
p1078
g4
sS'extensions'
p1079
(dp1080
sS'source_groups_tree'
p1081
(dp1082
S'(libpng)'
p1083
(dp1084
S'h'
p1085
(dp1086
S'c:/marmalade/7.5/modules/third_party/libpng/h/png.h'
p1087
(lp1088
I1
a(dp1089
asS'c:/marmalade/7.5/modules/third_party/libpng/h/pngconf.h'
p1090
(lp1091
I1
ag1089
assS'c:/marmalade/7.5/modules/third_party/libpng/libpng.mkf'
p1092
(lp1093
I1
a(dp1094
assS'(libjpeg)'
p1095
(dp1096
S'c:/marmalade/7.5/modules/third_party/libjpeg/libjpeg.mkf'
p1097
(lp1098
I1
a(dp1099
asg1085
(dp1100
S'c:/marmalade/7.5/modules/third_party/libjpeg/h/jerror.h'
p1101
(lp1102
I1
a(dp1103
asS'c:/marmalade/7.5/modules/third_party/libjpeg/h/jdhuff.h'
p1104
(lp1105
I1
ag1103
asS'c:/marmalade/7.5/modules/third_party/libjpeg/h/cderror.h'
p1106
(lp1107
I1
ag1103
asS'c:/marmalade/7.5/modules/third_party/libjpeg/h/transupp.h'
p1108
(lp1109
I1
ag1103
asS'c:/marmalade/7.5/modules/third_party/libjpeg/h/jinclude.h'
p1110
(lp1111
I1
ag1103
asS'c:/marmalade/7.5/modules/third_party/libjpeg/h/jmorecfg.h'
p1112
(lp1113
I1
ag1103
asS'c:/marmalade/7.5/modules/third_party/libjpeg/h/jdct.h'
p1114
(lp1115
I1
ag1103
asS'c:/marmalade/7.5/modules/third_party/libjpeg/h/jmemsys.h'
p1116
(lp1117
I1
ag1103
asS'c:/marmalade/7.5/modules/third_party/libjpeg/h/jpegint.h'
p1118
(lp1119
I1
ag1103
asS'c:/marmalade/7.5/modules/third_party/libjpeg/h/jchuff.h'
p1120
(lp1121
I1
ag1103
asS'c:/marmalade/7.5/modules/third_party/libjpeg/h/cdjpeg.h'
p1122
(lp1123
I1
ag1103
asS'c:/marmalade/7.5/modules/third_party/libjpeg/h/jversion.h'
p1124
(lp1125
I1
ag1103
asS'c:/marmalade/7.5/modules/third_party/libjpeg/h/jconfig.h'
p1126
(lp1127
I1
ag1103
asS'c:/marmalade/7.5/modules/third_party/libjpeg/h/jpeglib.h'
p1128
(lp1129
I1
ag1103
asssS'(tiniconv)'
p1130
(dp1131
S'c:/marmalade/7.5/modules/third_party/tiniconv/tiniconv.mkf'
p1132
(lp1133
I1
a(dp1134
asS'c:/marmalade/7.5/modules/third_party/tiniconv/source/tiniconv_int.h'
p1135
(lp1136
I1
a(dp1137
asS'c:/marmalade/7.5/modules/third_party/tiniconv/source/tiniconv.h'
p1138
(lp1139
I1
ag1137
assS'(SoundEngine)'
p1140
(dp1141
S'c:/marmalade/7.5/examples/gametutorial/cpp/modules/soundengine/source/IwSoundGroup.cpp'
p1142
(lp1143
I1
a(dp1144
asS'c:/marmalade/7.5/examples/gametutorial/cpp/modules/soundengine/h/IwSoundADPCM.h'
p1145
(lp1146
I1
ag1144
asS'c:/marmalade/7.5/examples/gametutorial/cpp/modules/soundengine/source/IwResHandlerWAV.cpp'
p1147
(lp1148
I1
ag1144
asS'c:/marmalade/7.5/examples/gametutorial/cpp/modules/soundengine/h/IwResHandlerWAV.h'
p1149
(lp1150
I1
ag1144
asS'Docs'
p1151
(dp1152
S'c:/marmalade/7.5/examples/gametutorial/cpp/modules/soundengine/docs/iwsound.config.txt'
p1153
(lp1154
I1
ag1144
assS'c:/marmalade/7.5/examples/gametutorial/cpp/modules/soundengine/h/IwSoundInst.h'
p1155
(lp1156
I1
ag1144
asS'c:/marmalade/7.5/examples/gametutorial/cpp/modules/soundengine/source/IwSoundManager.cpp'
p1157
(lp1158
I1
ag1144
asS'c:/marmalade/7.5/examples/gametutorial/cpp/modules/soundengine/h/IwSoundSpec.h'
p1159
(lp1160
I1
ag1144
asS'c:/marmalade/7.5/examples/gametutorial/cpp/modules/soundengine/source/IwSoundParams.cpp'
p1161
(lp1162
I1
ag1144
asS'c:/marmalade/7.5/examples/gametutorial/cpp/modules/soundengine/h/IwSoundManager.h'
p1163
(lp1164
I1
ag1144
asS'c:/marmalade/7.5/examples/gametutorial/cpp/modules/soundengine/source/IwSoundPCM.cpp'
p1165
(lp1166
I1
ag1144
asS'c:/marmalade/7.5/examples/gametutorial/cpp/modules/soundengine/source/IwSoundWAV.cpp'
p1167
(lp1168
I1
ag1144
asS'c:/marmalade/7.5/examples/gametutorial/cpp/modules/soundengine/source/IwSoundInst.cpp'
p1169
(lp1170
I1
ag1144
asS'c:/marmalade/7.5/examples/gametutorial/cpp/modules/soundengine/h/IwSoundWAV.h'
p1171
(lp1172
I1
ag1144
asS'c:/marmalade/7.5/examples/gametutorial/cpp/modules/soundengine/source/IwSoundSpec.cpp'
p1173
(lp1174
I1
ag1144
asS'c:/marmalade/7.5/examples/gametutorial/cpp/modules/soundengine/h/IwSoundParams.h'
p1175
(lp1176
I1
ag1144
asS'c:/marmalade/7.5/examples/gametutorial/cpp/modules/soundengine/source/IwSoundADPCM.cpp'
p1177
(lp1178
I1
ag1144
asS'c:/marmalade/7.5/examples/gametutorial/cpp/modules/soundengine/h/IwSound.h'
p1179
(lp1180
I1
ag1144
asS'c:/marmalade/7.5/examples/gametutorial/cpp/modules/soundengine/source/IwSoundData.cpp'
p1181
(lp1182
I1
ag1144
asS'c:/marmalade/7.5/examples/gametutorial/cpp/modules/soundengine/h/IwSoundData.h'
p1183
(lp1184
I1
ag1144
asS'c:/marmalade/7.5/examples/gametutorial/cpp/modules/soundengine/h/IwSoundPCM.h'
p1185
(lp1186
I1
ag1144
asS'c:/marmalade/7.5/examples/gametutorial/cpp/modules/soundengine/soundengine.mkf'
p1187
(lp1188
I1
a(dp1189
asS'c:/marmalade/7.5/examples/gametutorial/cpp/modules/soundengine/h/IwSoundGroup.h'
p1190
(lp1191
I1
ag1144
assS'(MarmaladeExampleResources)'
p1192
(dp1193
S'c:/marmalade/7.5/examples/marmaladeexampleresources/marmaladeexampleresources.mkf'
p1194
(lp1195
I1
a(dp1196
assS'source'
p1197
(dp1198
S'c:/Marmalade/7.5/examples/GameTutorial/CPP/marm1/source/mainMenu.h'
p1199
(lp1200
I1
a(dp1201
asS'c:/Marmalade/7.5/examples/GameTutorial/CPP/marm1/source/main.h'
p1202
(lp1203
I1
ag1201
asS'c:/Marmalade/7.5/examples/GameTutorial/CPP/marm1/source/enemy.h'
p1204
(lp1205
I1
ag1201
asS'c:/Marmalade/7.5/examples/GameTutorial/CPP/marm1/source/hero.h'
p1206
(lp1207
I1
ag1201
asS'c:/Marmalade/7.5/examples/GameTutorial/CPP/marm1/source/scene.cpp'
p1208
(lp1209
I1
ag1201
asS'c:/Marmalade/7.5/examples/GameTutorial/CPP/marm1/source/Enemymanager.cpp'
p1210
(lp1211
I1
ag1201
asS'c:/Marmalade/7.5/examples/GameTutorial/CPP/marm1/source/Level.h'
p1212
(lp1213
I1
ag1201
asS'c:/Marmalade/7.5/examples/GameTutorial/CPP/marm1/source/input.h'
p1214
(lp1215
I1
ag1201
asS'c:/Marmalade/7.5/examples/GameTutorial/CPP/marm1/source/audio.h'
p1216
(lp1217
I1
ag1201
asS'c:/Marmalade/7.5/examples/GameTutorial/CPP/marm1/source/resources.h'
p1218
(lp1219
I1
ag1201
asS'c:/Marmalade/7.5/examples/GameTutorial/CPP/marm1/source/mainMenu.cpp'
p1220
(lp1221
I1
ag1201
asS'c:/Marmalade/7.5/examples/GameTutorial/CPP/marm1/source/input.cpp'
p1222
(lp1223
I1
ag1201
asS'c:/Marmalade/7.5/examples/GameTutorial/CPP/marm1/source/main.cpp'
p1224
(lp1225
I1
ag1201
asS'c:/Marmalade/7.5/examples/GameTutorial/CPP/marm1/source/Shark.cpp'
p1226
(lp1227
I1
ag1201
asS'c:/Marmalade/7.5/examples/GameTutorial/CPP/marm1/source/enemy.cpp'
p1228
(lp1229
I1
ag1201
asS'c:/Marmalade/7.5/examples/GameTutorial/CPP/marm1/source/resources.cpp'
p1230
(lp1231
I1
ag1201
asS'c:/Marmalade/7.5/examples/GameTutorial/CPP/marm1/source/Shark.h'
p1232
(lp1233
I1
ag1201
asS'c:/Marmalade/7.5/examples/GameTutorial/CPP/marm1/source/Levelmanager.h'
p1234
(lp1235
I1
ag1201
asS'c:/Marmalade/7.5/examples/GameTutorial/CPP/marm1/source/Enemymanager.h'
p1236
(lp1237
I1
ag1201
asS'c:/Marmalade/7.5/examples/GameTutorial/CPP/marm1/source/Levelmanager.cpp'
p1238
(lp1239
I1
ag1201
asS'c:/Marmalade/7.5/examples/GameTutorial/CPP/marm1/source/audio.cpp'
p1240
(lp1241
I1
ag1201
asS'c:/Marmalade/7.5/examples/GameTutorial/CPP/marm1/source/pauseMenu.h'
p1242
(lp1243
I1
ag1201
asS'c:/Marmalade/7.5/examples/GameTutorial/CPP/marm1/source/pauseMenu.cpp'
p1244
(lp1245
I1
ag1201
asS'c:/Marmalade/7.5/examples/GameTutorial/CPP/marm1/source/scene.h'
p1246
(lp1247
I1
ag1201
asS'c:/Marmalade/7.5/examples/GameTutorial/CPP/marm1/source/GameScene.cpp'
p1248
(lp1249
I1
ag1201
asS'c:/Marmalade/7.5/examples/GameTutorial/CPP/marm1/source/hero.cpp'
p1250
(lp1251
I1
ag1201
asS'c:/Marmalade/7.5/examples/GameTutorial/CPP/marm1/source/GameScene.h'
p1252
(lp1253
I1
ag1201
assS'Extensions'
p1254
(dp1255
S'PVRTexTool'
p1256
(dp1257
S'interface'
p1258
(dp1259
S'c:/marmalade/7.5/extensions/pvrtextool/interface/PVRTexTool.defines.txt'
p1260
(lp1261
I1
a(dp1262
asS'c:/marmalade/7.5/extensions/pvrtextool/interface/PVRTexTool_interface.cpp'
p1263
(lp1264
I1
ag1262
assS'c:/marmalade/7.5/extensions/pvrtextool/h/PVRTexTool.h'
p1265
(lp1266
I1
ag1262
asS'c:/marmalade/7.5/extensions/pvrtextool/pvrtextool.mkf'
p1267
(lp1268
I1
a(dp1269
asssS"'Marmalade Studio'"
p1270
(dp1271
S'iw2dscenegraph'
p1272
(dp1273
S'c:/marmalade/7.5/modules/iw2dscenegraph/source/Iw2DSceneGraph.cpp'
p1274
(lp1275
I1
a(dp1276
asS'c:/marmalade/7.5/modules/iw2dscenegraph/docs/iw2dscenegraph.defines.txt'
p1277
(lp1278
I1
ag1276
asS'c:/marmalade/7.5/modules/iw2dscenegraph/h/Iw2DSceneGraph.h'
p1279
(lp1280
I1
ag1276
asS'c:/marmalade/7.5/modules/iw2dscenegraph/iw2dscenegraph.mkf'
p1281
(lp1282
I1
a(dp1283
assS'iwgl'
p1284
(dp1285
S'c:/marmalade/7.5/modules/iwgl/iwgl.mkf'
p1286
(lp1287
I1
a(dp1288
asS'c:/marmalade/7.5/modules/iwgl/h/IwGL.h'
p1289
(lp1290
I1
a(dp1291
asS'c:/marmalade/7.5/modules/iwgl/docs/iwgl.config.txt'
p1292
(lp1293
I1
ag1291
asS'c:/marmalade/7.5/modules/iwgl/h/IwGLExt.h'
p1294
(lp1295
I1
ag1291
assS'iw2d'
p1296
(dp1297
S'c:/marmalade/7.5/modules/iw2d/docs/iw2d_public.defines.txt'
p1298
(lp1299
I1
a(dp1300
asS'c:/marmalade/7.5/modules/iw2d/docs/iw2d.config.txt'
p1301
(lp1302
I1
ag1300
asS'c:/marmalade/7.5/modules/iw2d/h/Iw2D.h'
p1303
(lp1304
I1
ag1300
asS'c:/marmalade/7.5/modules/iw2d/iw2d.mkf'
p1305
(lp1306
I1
a(dp1307
assS'iwgxfont'
p1308
(dp1309
S'c:/marmalade/7.5/modules/iwgxfont/h/IwGxFontGlyph.h'
p1310
(lp1311
I1
a(dp1312
asS'c:/marmalade/7.5/modules/iwgxfont/h/IwGxFontTypes.h'
p1313
(lp1314
I1
ag1312
asS'c:/marmalade/7.5/modules/iwgxfont/docs/iwgxfont.config.txt'
p1315
(lp1316
I1
ag1312
asS'c:/marmalade/7.5/modules/iwgxfont/h/IwGxFontState.h'
p1317
(lp1318
I1
ag1312
asS'c:/marmalade/7.5/modules/iwgxfont/h/IwGxFontContainer.h'
p1319
(lp1320
I1
ag1312
asS'c:/marmalade/7.5/modules/iwgxfont/iwgxfont.mkf'
p1321
(lp1322
I1
a(dp1323
asS'c:/marmalade/7.5/modules/iwgxfont/h/IwGxFontPreparedData.h'
p1324
(lp1325
I1
ag1312
asS'c:/marmalade/7.5/modules/iwgxfont/h/IwGxFont.h'
p1326
(lp1327
I1
ag1312
asS'c:/marmalade/7.5/modules/iwgxfont/docs/iwgxfont_public.defines.txt'
p1328
(lp1329
I1
ag1312
assS'iwgeom'
p1330
(dp1331
S'c:/marmalade/7.5/modules/iwgeom/h/IwGeomSVec2.h'
p1332
(lp1333
I1
a(dp1334
asS'c:/marmalade/7.5/modules/iwgeom/h/IwGeomSphere.h'
p1335
(lp1336
I1
ag1334
asS'c:/marmalade/7.5/modules/iwgeom/h/IwGeomSVec3.h'
p1337
(lp1338
I1
ag1334
asS'c:/marmalade/7.5/modules/iwgeom/iwgeom.mkf'
p1339
(lp1340
I1
a(dp1341
asS'c:/marmalade/7.5/modules/iwgeom/h/IwGeomSqrt.h'
p1342
(lp1343
I1
ag1334
asS'c:/marmalade/7.5/modules/iwgeom/h/IwGeomFQuat.h'
p1344
(lp1345
I1
ag1334
asS'c:/marmalade/7.5/modules/iwgeom/h/IwGeomQuat.h.tpl'
p1346
(lp1347
I1
ag1334
asS'c:/marmalade/7.5/modules/iwgeom/h/IwGeomVec2.h'
p1348
(lp1349
I1
ag1334
asS'c:/marmalade/7.5/modules/iwgeom/h/IwGeomMat.h'
p1350
(lp1351
I1
ag1334
asS'c:/marmalade/7.5/modules/iwgeom/h/IwGeomVec3.h'
p1352
(lp1353
I1
ag1334
asS'c:/marmalade/7.5/modules/iwgeom/h/IwGeomLegacy.h'
p1354
(lp1355
I1
ag1334
asS'c:/marmalade/7.5/modules/iwgeom/h/IwGeom.h'
p1356
(lp1357
I1
ag1334
asS'c:/marmalade/7.5/modules/iwgeom/h/IwGeomSQuat.h'
p1358
(lp1359
I1
ag1334
asS'c:/marmalade/7.5/modules/iwgeom/h/IwGeomFBBox.h'
p1360
(lp1361
I1
ag1334
asS'c:/marmalade/7.5/modules/iwgeom/h/IwGeomFMat.h'
p1362
(lp1363
I1
ag1334
asS'c:/marmalade/7.5/modules/iwgeom/h/IwGeomPlane.h'
p1364
(lp1365
I1
ag1334
asS'c:/marmalade/7.5/modules/iwgeom/h/IwGeomMat2D.h'
p1366
(lp1367
I1
ag1334
asS'c:/marmalade/7.5/modules/iwgeom/h/IwGeomFVec2.h'
p1368
(lp1369
I1
ag1334
asS'c:/marmalade/7.5/modules/iwgeom/h/IwGeomSVec4.h'
p1370
(lp1371
I1
ag1334
asS'c:/marmalade/7.5/modules/iwgeom/h/IwGeomVec4.h'
p1372
(lp1373
I1
ag1334
asS'c:/marmalade/7.5/modules/iwgeom/h/IwGeomCore.h'
p1374
(lp1375
I1
ag1334
asS'c:/marmalade/7.5/modules/iwgeom/h/IwGeomVec.h.tpl'
p1376
(lp1377
I1
ag1334
asS'c:/marmalade/7.5/modules/iwgeom/h/IwGeomVec.h'
p1378
(lp1379
I1
ag1334
asS'c:/marmalade/7.5/modules/iwgeom/h/IwGeomIntersect.h'
p1380
(lp1381
I1
ag1334
asS'c:/marmalade/7.5/modules/iwgeom/h/IwGeomFVec4.h'
p1382
(lp1383
I1
ag1334
asS'c:/marmalade/7.5/modules/iwgeom/h/IwGeomMat.h.tpl'
p1384
(lp1385
I1
ag1334
asS'c:/marmalade/7.5/modules/iwgeom/h/IwGeomMat2D.h.tpl'
p1386
(lp1387
I1
ag1334
asS'c:/marmalade/7.5/modules/iwgeom/h/IwGeomFMat2D.h'
p1388
(lp1389
I1
ag1334
asS'c:/marmalade/7.5/modules/iwgeom/h/IwGeomMenu.h'
p1390
(lp1391
I1
ag1334
asS'c:/marmalade/7.5/modules/iwgeom/h/IwGeomBBox.h'
p1392
(lp1393
I1
ag1334
asS'c:/marmalade/7.5/modules/iwgeom/h/IwGeomFSphere.h'
p1394
(lp1395
I1
ag1334
asS'c:/marmalade/7.5/modules/iwgeom/h/IwGeomFVec3.h'
p1396
(lp1397
I1
ag1334
asS'c:/marmalade/7.5/modules/iwgeom/h/IwGeomFPlane.h'
p1398
(lp1399
I1
ag1334
asS'c:/marmalade/7.5/modules/iwgeom/docs/iwgeom.config.txt'
p1400
(lp1401
I1
ag1334
asS'c:/marmalade/7.5/modules/iwgeom/h/IwGeomQuat.h'
p1402
(lp1403
I1
ag1334
asS'c:/marmalade/7.5/modules/iwgeom/h/IwGeomFIntersect.h'
p1404
(lp1405
I1
ag1334
assS'iwresmanager'
p1406
(dp1407
S'c:/marmalade/7.5/modules/iwresmanager/h/IwResHandlerITX.h'
p1408
(lp1409
I1
a(dp1410
asS'c:/marmalade/7.5/modules/iwresmanager/h/IwResSerialise.h'
p1411
(lp1412
I1
ag1410
asS'c:/marmalade/7.5/modules/iwresmanager/h/IwResManagerClass.h'
p1413
(lp1414
I1
ag1410
asS'c:/marmalade/7.5/modules/iwresmanager/h/IwResHandlerGROUP.h'
p1415
(lp1416
I1
ag1410
asS'c:/marmalade/7.5/modules/iwresmanager/h/IwResManager.h'
p1417
(lp1418
I1
ag1410
asS'c:/marmalade/7.5/modules/iwresmanager/iwresmanager.mkf'
p1419
(lp1420
I1
a(dp1421
asS'c:/marmalade/7.5/modules/iwresmanager/docs/iwresmanager.config.txt'
p1422
(lp1423
I1
ag1410
asS'c:/marmalade/7.5/modules/iwresmanager/h/IwResGroup.h'
p1424
(lp1425
I1
ag1410
asS'c:/marmalade/7.5/modules/iwresmanager/h/IwResHandler.h'
p1426
(lp1427
I1
ag1410
asS'c:/marmalade/7.5/modules/iwresmanager/h/IwResHandlerImage.h'
p1428
(lp1429
I1
ag1410
assS'iwgx'
p1430
(dp1431
S'c:/marmalade/7.5/modules/iwgx/h/IwDebugPrim.h'
p1432
(lp1433
I1
a(dp1434
asS'c:/marmalade/7.5/modules/iwgx/h/IwMatAnim.h'
p1435
(lp1436
I1
ag1434
asS'c:/marmalade/7.5/modules/iwgx/h/IwTexture.h'
p1437
(lp1438
I1
ag1434
asS'c:/marmalade/7.5/modules/iwgx/h/IwGxFuncTable.h'
p1439
(lp1440
I1
ag1434
asS'c:/marmalade/7.5/modules/iwgx/h/IwResHandlerMTL.h'
p1441
(lp1442
I1
ag1434
asS'c:/marmalade/7.5/modules/iwgx/h/IwGxPrint.h'
p1443
(lp1444
I1
ag1434
asS'c:/marmalade/7.5/modules/iwgx/h/IwGxStream.h'
p1445
(lp1446
I1
ag1434
asS'c:/marmalade/7.5/modules/iwgx/h/IwClip.h'
p1447
(lp1448
I1
ag1434
asS'c:/marmalade/7.5/modules/iwgx/h/IwGxSurface.h'
p1449
(lp1450
I1
ag1434
asS'c:/marmalade/7.5/modules/iwgx/h/IwGxError.h'
p1451
(lp1452
I1
ag1434
asS'c:/marmalade/7.5/modules/iwgx/h/IwGx.h'
p1453
(lp1454
I1
ag1434
asS'c:/marmalade/7.5/modules/iwgx/docs/iwgx_public.defines.txt'
p1455
(lp1456
I1
ag1434
asS'c:/marmalade/7.5/modules/iwgx/h/IwGxDebug.h'
p1457
(lp1458
I1
ag1434
asS'c:/marmalade/7.5/modules/iwgx/h/IwGxShaderTechnique.h'
p1459
(lp1460
I1
ag1434
asS'c:/marmalade/7.5/modules/iwgx/h/IwGxTransformSW.h'
p1461
(lp1462
I1
ag1434
asS'c:/marmalade/7.5/modules/iwgx/h/IwMaterial.h'
p1463
(lp1464
I1
ag1434
asS'c:/marmalade/7.5/modules/iwgx/h/IwGxMetrics.h'
p1465
(lp1466
I1
ag1434
asS'c:/marmalade/7.5/modules/iwgx/h/IwClip.inl'
p1467
(lp1468
I1
ag1434
asS'c:/marmalade/7.5/modules/iwgx/h/IwFColour.h'
p1469
(lp1470
I1
ag1434
asS'c:/marmalade/7.5/modules/iwgx/h/IwGxTypes.h'
p1471
(lp1472
I1
ag1434
asS'c:/marmalade/7.5/modules/iwgx/iwgx.mkf'
p1473
(lp1474
I1
a(dp1475
asS'c:/marmalade/7.5/modules/iwgx/docs/iwgx.config.txt'
p1476
(lp1477
I1
ag1434
asS'c:/marmalade/7.5/modules/iwgx/h/IwColour.h'
p1478
(lp1479
I1
ag1434
asS'c:/marmalade/7.5/modules/iwgx/h/IwGxState.h'
p1480
(lp1481
I1
ag1434
asS'c:/marmalade/7.5/modules/iwgx/h/IwTPage.h'
p1482
(lp1483
I1
ag1434
assS'iw2dscenegraphcore'
p1484
(dp1485
S'c:/marmalade/7.5/modules/iw2dscenegraphcore/iw2dscenegraphcore.mkf'
p1486
(lp1487
I1
a(dp1488
asS'c:/marmalade/7.5/modules/iw2dscenegraphcore/h/Iw2DSceneGraphCore.h'
p1489
(lp1490
I1
a(dp1491
asS'c:/marmalade/7.5/modules/iw2dscenegraphcore/source/Iw2DSceneGraphCore.cpp'
p1492
(lp1493
I1
ag1491
assS'iwutil'
p1494
(dp1495
S'c:/marmalade/7.5/modules/iwutil/h/IwSingleton.h'
p1496
(lp1497
I1
a(dp1498
asS'c:/marmalade/7.5/modules/iwutil/h/IwMath.h'
p1499
(lp1500
I1
ag1498
asS'c:/marmalade/7.5/modules/iwutil/h/IwBuffer.h'
p1501
(lp1502
I1
ag1498
asS'c:/marmalade/7.5/modules/iwutil/h/IwCore.h'
p1503
(lp1504
I1
ag1498
asS'c:/marmalade/7.5/modules/iwutil/h/IwDivide.h'
p1505
(lp1506
I1
ag1498
asS'c:/marmalade/7.5/modules/iwutil/h/IwMemory.h'
p1507
(lp1508
I1
ag1498
asS'c:/marmalade/7.5/modules/iwutil/h/IwImageHelper.h'
p1509
(lp1510
I1
ag1498
asS'c:/marmalade/7.5/modules/iwutil/h/IwManagedList.h'
p1511
(lp1512
I1
ag1498
asS'c:/marmalade/7.5/modules/iwutil/h/IwProfileMenu.h'
p1513
(lp1514
I1
ag1498
asS'c:/marmalade/7.5/modules/iwutil/h/IwClassFactory.h'
p1515
(lp1516
I1
ag1498
asS'c:/marmalade/7.5/modules/iwutil/h/IwDivTable.h'
p1517
(lp1518
I1
ag1498
asS'c:/marmalade/7.5/modules/iwutil/h/IwManaged.h'
p1519
(lp1520
I1
ag1498
asS'c:/marmalade/7.5/modules/iwutil/h/IwTextParseable.h'
p1521
(lp1522
I1
ag1498
asS'c:/marmalade/7.5/modules/iwutil/h/IwChar.h'
p1523
(lp1524
I1
ag1498
asS'c:/marmalade/7.5/modules/iwutil/h/IwRandom.h'
p1525
(lp1526
I1
ag1498
asS'c:/marmalade/7.5/modules/iwutil/h/IwDebug.h'
p1527
(lp1528
I1
ag1498
asS'c:/marmalade/7.5/modules/iwutil/h/IwUTF8.h'
p1529
(lp1530
I1
ag1498
asS'c:/marmalade/7.5/modules/iwutil/docs/iwutil.config.txt'
p1531
(lp1532
I1
ag1498
asS'c:/marmalade/7.5/modules/iwutil/h/IwAllocator.h'
p1533
(lp1534
I1
ag1498
asS'c:/marmalade/7.5/modules/iwutil/h/IwMemBucketHelpers.h'
p1535
(lp1536
I1
ag1498
asS'c:/marmalade/7.5/modules/iwutil/h/IwTextParserITX.h'
p1537
(lp1538
I1
ag1498
asS'c:/marmalade/7.5/modules/iwutil/h/IwKeymap.h'
p1539
(lp1540
I1
ag1498
asS'c:/marmalade/7.5/modules/iwutil/h/IwImage.h'
p1541
(lp1542
I1
ag1498
asS'c:/marmalade/7.5/modules/iwutil/h/IwOptimiseARM.h'
p1543
(lp1544
I1
ag1498
asS'c:/marmalade/7.5/modules/iwutil/h/IwMemBucket.h'
p1545
(lp1546
I1
ag1498
asS'c:/marmalade/7.5/modules/iwutil/h/IwOptimiseSize.h'
p1547
(lp1548
I1
ag1498
asS'c:/marmalade/7.5/modules/iwutil/h/IwRuntime.h'
p1549
(lp1550
I1
ag1498
asS'c:/marmalade/7.5/modules/iwutil/h/IwMemManagerDL.h'
p1551
(lp1552
I1
ag1498
asS'c:/marmalade/7.5/modules/iwutil/h/IwPath.h'
p1553
(lp1554
I1
ag1498
asS'c:/marmalade/7.5/modules/iwutil/h/IwOptimiseSpeed.h'
p1555
(lp1556
I1
ag1498
asS'c:/marmalade/7.5/modules/iwutil/h/IwList.h'
p1557
(lp1558
I1
ag1498
asS'c:/marmalade/7.5/modules/iwutil/h/IwAutoFile.h'
p1559
(lp1560
I1
ag1498
asS'c:/marmalade/7.5/modules/iwutil/h/IwVariableBitField.h'
p1561
(lp1562
I1
ag1498
asS'c:/marmalade/7.5/modules/iwutil/h/IwHashString.h'
p1563
(lp1564
I1
ag1498
asS'c:/marmalade/7.5/modules/iwutil/h/IwOptimiseThumb.h'
p1565
(lp1566
I1
ag1498
asS'c:/marmalade/7.5/modules/iwutil/iwutil.mkf'
p1567
(lp1568
I1
a(dp1569
asS'c:/marmalade/7.5/modules/iwutil/h/IwUtil.h'
p1570
(lp1571
I1
ag1498
asS'c:/marmalade/7.5/modules/iwutil/h/IwString.h'
p1572
(lp1573
I1
ag1498
asS'c:/marmalade/7.5/modules/iwutil/h/IwFile.h'
p1574
(lp1575
I1
ag1498
asS'c:/marmalade/7.5/modules/iwutil/h/IwUncopyable.h'
p1576
(lp1577
I1
ag1498
asS'c:/marmalade/7.5/modules/iwutil/h/IwTextParser.h'
p1578
(lp1579
I1
ag1498
asS'c:/marmalade/7.5/modules/iwutil/h/IwCopyingPtr.h'
p1580
(lp1581
I1
ag1498
asS'c:/marmalade/7.5/modules/iwutil/h/IwEvent.h'
p1582
(lp1583
I1
ag1498
asS'c:/marmalade/7.5/modules/iwutil/h/IwFibre.h'
p1584
(lp1585
I1
ag1498
asS'c:/marmalade/7.5/modules/iwutil/h/IwArray.h'
p1586
(lp1587
I1
ag1498
asS'c:/marmalade/7.5/modules/iwutil/h/IwMenu.h'
p1588
(lp1589
I1
ag1498
asS'c:/marmalade/7.5/modules/iwutil/h/IwTypes.h'
p1590
(lp1591
I1
ag1498
asS'c:/marmalade/7.5/modules/iwutil/h/IwUtilInitTerm.h'
p1592
(lp1593
I1
ag1498
asS'c:/marmalade/7.5/modules/iwutil/h/IwResource.h'
p1594
(lp1595
I1
ag1498
asS'c:/marmalade/7.5/modules/iwutil/h/IwSerialise.h'
p1596
(lp1597
I1
ag1498
asssS'(zlib)'
p1598
(dp1599
g1085
(dp1600
S'c:/marmalade/7.5/modules/third_party/zlib/h/zconf.h'
p1601
(lp1602
I1
a(dp1603
asS'c:/marmalade/7.5/modules/third_party/zlib/h/zlib.h'
p1604
(lp1605
I1
ag1603
assS'c:/marmalade/7.5/modules/third_party/zlib/zlib.mkf'
p1606
(lp1607
I1
a(dp1608
assS'(iwtween)'
p1609
(dp1610
S'c:/marmalade/7.5/modules/iwtween/h/IwTween.h'
p1611
(lp1612
I1
a(dp1613
asS'c:/marmalade/7.5/modules/iwtween/source/IwTween.cpp'
p1614
(lp1615
I1
ag1613
asS'c:/marmalade/7.5/modules/iwtween/iwtween.mkf'
p1616
(lp1617
I1
a(dp1618
assS'(s3e-default)'
p1619
(dp1620
S'c:/marmalade/7.5/s3e/s3e-default.mkf'
p1621
(lp1622
I1
a(dp1623
asssS'files'
p1624
(dp1625
S'IwGxFontPreparedData.h'
p1626
g332
(cmkb_main
File
p1627
g334
Ntp1628
Rp1629
(dp1630
S'flags'
p1631
g1312
sS'group'
p1632
(lp1633
S"'Marmalade Studio'"
p1634
ag1308
asg358
g1324
sbsS'iterator'
p1635
g332
(g1627
g334
Ntp1636
Rp1637
(dp1638
g1631
(dp1639
sg1632
(lp1640
S"'Marmalade System (S3E)'"
p1641
aS'stdc headers'
p1642
aS'c++'
p1643
asg358
S'c:/marmalade/7.5/s3e/h/std/c++/iterator'
p1644
sbsS'IwGL.h'
p1645
g332
(g1627
g334
Ntp1646
Rp1647
(dp1648
g1631
g1291
sg1632
(lp1649
S"'Marmalade Studio'"
p1650
ag1284
asg358
g1289
sbsS's3e.h'
p1651
g332
(g1627
g334
Ntp1652
Rp1653
(dp1654
g1631
g1639
sg1632
(lp1655
g1641
asg358
S'c:/marmalade/7.5/s3e/h/s3e.h'
p1656
sbsS'errno.h'
p1657
g332
(g1627
g334
Ntp1658
Rp1659
(dp1660
g1631
g1639
sg1632
(lp1661
g1641
aS'stdc headers'
p1662
asg358
S'c:/marmalade/7.5/s3e/h/std/errno.h'
p1663
sbsS'IwSingleton.h'
p1664
g332
(g1627
g334
Ntp1665
Rp1666
(dp1667
g1631
g1498
sg1632
(lp1668
S"'Marmalade Studio'"
p1669
ag1494
asg358
g1496
sbsS'dlfcn.h'
p1670
g332
(g1627
g334
Ntp1671
Rp1672
(dp1673
g1631
g1639
sg1632
g1661
sg358
S'c:/marmalade/7.5/s3e/h/std/dlfcn.h'
p1674
sbsS'IwSoundWAV.cpp'
p1675
g332
(g1627
g334
Ntp1676
Rp1677
(dp1678
g1631
g1144
sg1632
(lp1679
g1140
asg358
g1167
sbsS'sched.h'
p1680
g332
(g1627
g334
Ntp1681
Rp1682
(dp1683
g1631
g1639
sg1632
g1661
sg358
S'c:/marmalade/7.5/s3e/h/std/sched.h'
p1684
sbsS'IwSoundPCM.h'
p1685
g332
(g1627
g334
Ntp1686
Rp1687
(dp1688
g1631
g1144
sg1632
g1679
sg358
g1185
sbsS'IwGeomFMat2D.h'
p1689
g332
(g1627
g334
Ntp1690
Rp1691
(dp1692
g1631
g1334
sg1632
(lp1693
S"'Marmalade Studio'"
p1694
ag1330
asg358
g1388
sbsS'cassert'
p1695
g332
(g1627
g334
Ntp1696
Rp1697
(dp1698
g1631
g1639
sg1632
g1640
sg358
S'c:/marmalade/7.5/s3e/h/std/c++/cassert'
p1699
sbsS'grp.h'
p1700
g332
(g1627
g334
Ntp1701
Rp1702
(dp1703
g1631
g1639
sg1632
g1661
sg358
S'c:/marmalade/7.5/s3e/h/std/grp.h'
p1704
sbsS'list'
p1705
g332
(g1627
g334
Ntp1706
Rp1707
(dp1708
g1631
g1639
sg1632
g1640
sg358
S'c:/marmalade/7.5/s3e/h/std/c++/list'
p1709
sbsS'IwSoundSpec.cpp'
p1710
g332
(g1627
g334
Ntp1711
Rp1712
(dp1713
g1631
g1144
sg1632
g1679
sg358
g1173
sbsS'IwGeomMat.h.tpl'
p1714
g332
(g1627
g334
Ntp1715
Rp1716
(dp1717
g1631
g1334
sg1632
g1693
sg358
g1384
sbsS'istream'
p1718
g332
(g1627
g334
Ntp1719
Rp1720
(dp1721
g1631
g1639
sg1632
g1640
sg358
S'c:/marmalade/7.5/s3e/h/std/c++/istream'
p1722
sbsS'jpeglib.h'
p1723
g332
(g1627
g334
Ntp1724
Rp1725
(dp1726
g1631
g1103
sg1632
(lp1727
g1095
ag1085
asg358
g1128
sbsS'iw2d_public.defines.txt'
p1728
g332
(g1627
g334
Ntp1729
Rp1730
(dp1731
g1631
g1300
sg1632
(lp1732
S"'Marmalade Studio'"
p1733
ag1296
asg358
g1298
sbsS'iostream.h'
p1734
g332
(g1627
g334
Ntp1735
Rp1736
(dp1737
g1631
g1639
sg1632
g1640
sg358
S'c:/marmalade/7.5/s3e/h/std/c++/iostream.h'
p1738
sbsS'IwSoundADPCM.h'
p1739
g332
(g1627
g334
Ntp1740
Rp1741
(dp1742
g1631
g1144
sg1632
g1679
sg358
g1145
sbsS'string'
p1743
g332
(g1627
g334
Ntp1744
Rp1745
(dp1746
g1631
g1639
sg1632
g1640
sg358
S'c:/marmalade/7.5/s3e/h/std/c++/string'
p1747
sbsS'IwMemory.h'
p1748
g332
(g1627
g334
Ntp1749
Rp1750
(dp1751
g1631
g1498
sg1632
g1668
sg358
g1507
sbsS'IwGeomPlane.h'
p1752
g332
(g1627
g334
Ntp1753
Rp1754
(dp1755
g1631
g1334
sg1632
g1693
sg358
g1364
sbsS'iw2d.config.txt'
p1756
g332
(g1627
g334
Ntp1757
Rp1758
(dp1759
g1631
g1300
sg1632
g1732
sg358
g1301
sbsS'iomanip'
p1760
g332
(g1627
g334
Ntp1761
Rp1762
(dp1763
g1631
g1639
sg1632
g1640
sg358
S'c:/marmalade/7.5/s3e/h/std/c++/iomanip'
p1764
sbsS'iwgeom.mkf'
p1765
g332
(g1627
g334
Ntp1766
Rp1767
(dp1768
g1631
g1341
sg1632
g1693
sg358
g1339
sbsS'IwGxError.h'
p1769
g332
(g1627
g334
Ntp1770
Rp1771
(dp1772
g1631
g1434
sg1632
(lp1773
S"'Marmalade Studio'"
p1774
ag1430
asg358
g1451
sbsS'IwGeom.h'
p1775
g332
(g1627
g334
Ntp1776
Rp1777
(dp1778
g1631
g1334
sg1632
g1693
sg358
g1356
sbsS'scene.cpp'
p1779
g332
(g1627
g334
Ntp1780
Rp1781
(dp1782
g1631
g1201
sg1632
(lp1783
g1197
asg358
g1208
sbsS'IwGeomVec4.h'
p1784
g332
(g1627
g334
Ntp1785
Rp1786
(dp1787
g1631
g1334
sg1632
g1693
sg358
g1372
sbsS'dir.h'
p1788
g332
(g1627
g334
Ntp1789
Rp1790
(dp1791
g1631
g1639
sg1632
(lp1792
g1641
aS'stdc headers'
p1793
aS'sys'
p1794
asg358
S'c:/marmalade/7.5/s3e/h/std/sys/dir.h'
p1795
sbsS'locale.h'
p1796
g332
(g1627
g334
Ntp1797
Rp1798
(dp1799
g1631
g1639
sg1632
g1661
sg358
S'c:/marmalade/7.5/s3e/h/std/locale.h'
p1800
sbsS'vector'
p1801
g332
(g1627
g334
Ntp1802
Rp1803
(dp1804
g1631
g1639
sg1632
g1640
sg358
S'c:/marmalade/7.5/s3e/h/std/c++/vector'
p1805
sbsS'IwManaged.h'
p1806
g332
(g1627
g334
Ntp1807
Rp1808
(dp1809
g1631
g1498
sg1632
g1668
sg358
g1519
sbsS's3eCompass.h'
p1810
g332
(g1627
g334
Ntp1811
Rp1812
(dp1813
g1631
g1639
sg1632
g1655
sg358
S'c:/marmalade/7.5/s3e/h/s3eCompass.h'
p1814
sbsS'cderror.h'
p1815
g332
(g1627
g334
Ntp1816
Rp1817
(dp1818
g1631
g1103
sg1632
g1727
sg358
g1106
sbsS'climits'
p1819
g332
(g1627
g334
Ntp1820
Rp1821
(dp1822
g1631
g1639
sg1632
g1640
sg358
S'c:/marmalade/7.5/s3e/h/std/c++/climits'
p1823
sbsS's3eVibra.h'
p1824
g332
(g1627
g334
Ntp1825
Rp1826
(dp1827
g1631
g1639
sg1632
g1655
sg358
S'c:/marmalade/7.5/s3e/h/s3eVibra.h'
p1828
sbsS'jversion.h'
p1829
g332
(g1627
g334
Ntp1830
Rp1831
(dp1832
g1631
g1103
sg1632
g1727
sg358
g1124
sbsS'fnmatch.h'
p1833
g332
(g1627
g334
Ntp1834
Rp1835
(dp1836
g1631
g1639
sg1632
g1661
sg358
S'c:/marmalade/7.5/s3e/h/std/fnmatch.h'
p1837
sbsS'IwGxState.h'
p1838
g332
(g1627
g334
Ntp1839
Rp1840
(dp1841
g1631
g1434
sg1632
g1773
sg358
g1480
sbsS'rope'
p1842
g332
(g1627
g334
Ntp1843
Rp1844
(dp1845
g1631
g1639
sg1632
g1640
sg358
S'c:/marmalade/7.5/s3e/h/std/c++/rope'
p1846
sbsS's3eAudio.h'
p1847
g332
(g1627
g334
Ntp1848
Rp1849
(dp1850
g1631
g1639
sg1632
g1655
sg358
S'c:/marmalade/7.5/s3e/h/s3eAudio.h'
p1851
sbsS's3eSurface.h'
p1852
g332
(g1627
g334
Ntp1853
Rp1854
(dp1855
g1631
g1639
sg1632
g1655
sg358
S'c:/marmalade/7.5/s3e/h/s3eSurface.h'
p1856
sbsS'new'
p1857
g332
(g1627
g334
Ntp1858
Rp1859
(dp1860
g1631
g1639
sg1632
g1640
sg358
S'c:/marmalade/7.5/s3e/h/std/c++/new'
p1861
sbsS's3eWindow.h'
p1862
g332
(g1627
g334
Ntp1863
Rp1864
(dp1865
g1631
g1639
sg1632
(lp1866
g1641
aS'Extensions'
p1867
asg358
S'c:/marmalade/7.5/s3e/h/ext/s3eWindow.h'
p1868
sbsS'IwBuffer.h'
p1869
g332
(g1627
g334
Ntp1870
Rp1871
(dp1872
g1631
g1498
sg1632
g1668
sg358
g1501
sbsS'stdio_streambuf'
p1873
g332
(g1627
g334
Ntp1874
Rp1875
(dp1876
g1631
g1639
sg1632
g1640
sg358
S'c:/marmalade/7.5/s3e/h/std/c++/stdio_streambuf'
p1877
sbsS'IwGeomQuat.h.tpl'
p1878
g332
(g1627
g334
Ntp1879
Rp1880
(dp1881
g1631
g1334
sg1632
g1693
sg358
g1346
sbsS's3eOSExec.h'
p1882
g332
(g1627
g334
Ntp1883
Rp1884
(dp1885
g1631
g1639
sg1632
g1866
sg358
S'c:/marmalade/7.5/s3e/h/ext/s3eOSExec.h'
p1886
sbsS'IwGxTransformSW.h'
p1887
g332
(g1627
g334
Ntp1888
Rp1889
(dp1890
g1631
g1434
sg1632
g1773
sg358
g1461
sbsS'IwGxMetrics.h'
p1891
g332
(g1627
g334
Ntp1892
Rp1893
(dp1894
g1631
g1434
sg1632
g1773
sg358
g1465
sbsS'iwgxfont.config.txt'
p1895
g332
(g1627
g334
Ntp1896
Rp1897
(dp1898
g1631
g1312
sg1632
g1633
sg358
g1315
sbsS'gl2platform.h'
p1899
g332
(g1627
g334
Ntp1900
Rp1901
(dp1902
g1631
g1639
sg1632
(lp1903
g1641
aS'GL'
p1904
aS'GLES 2.0'
p1905
asg358
S'c:/marmalade/7.5/s3e/h/GLES2/gl2platform.h'
p1906
sbsS'IwResManagerClass.h'
p1907
g332
(g1627
g334
Ntp1908
Rp1909
(dp1910
g1631
g1410
sg1632
(lp1911
g1270
ag1406
asg358
g1413
sbsS'queue'
p1912
g332
(g1627
g334
Ntp1913
Rp1914
(dp1915
g1631
g1639
sg1632
g1640
sg358
S'c:/marmalade/7.5/s3e/h/std/c++/queue'
p1916
sbsS'time_1.h'
p1917
g332
(g1627
g334
Ntp1918
Rp1919
(dp1920
g1631
g1639
sg1632
g1792
sg358
S'c:/marmalade/7.5/s3e/h/std/sys/time.h'
p1921
sbsS'Iw2D.h'
p1922
g332
(g1627
g334
Ntp1923
Rp1924
(dp1925
g1631
g1300
sg1632
g1732
sg358
g1303
sbsS'IwGeomVec2.h'
p1926
g332
(g1627
g334
Ntp1927
Rp1928
(dp1929
g1631
g1334
sg1632
g1693
sg358
g1348
sbsS'sendfile.h'
p1930
g332
(g1627
g334
Ntp1931
Rp1932
(dp1933
g1631
g1639
sg1632
g1792
sg358
S'c:/marmalade/7.5/s3e/h/std/sys/sendfile.h'
p1934
sbsS'malloc.h'
p1935
g332
(g1627
g334
Ntp1936
Rp1937
(dp1938
g1631
g1639
sg1632
g1661
sg358
S'c:/marmalade/7.5/s3e/h/std/malloc.h'
p1939
sbsS'stdarg.h'
p1940
g332
(g1627
g334
Ntp1941
Rp1942
(dp1943
g1631
g1639
sg1632
g1661
sg358
S'c:/marmalade/7.5/s3e/h/std/stdarg.h'
p1944
sbsS'IwGeomCore.h'
p1945
g332
(g1627
g334
Ntp1946
Rp1947
(dp1948
g1631
g1334
sg1632
g1693
sg358
g1374
sbsS'Iw2DSceneGraph.h'
p1949
g332
(g1627
g334
Ntp1950
Rp1951
(dp1952
g1631
g1276
sg1632
(lp1953
S"'Marmalade Studio'"
p1954
ag1272
asg358
g1279
sbsS'endian.h'
p1955
g332
(g1627
g334
Ntp1956
Rp1957
(dp1958
g1631
g1639
sg1632
g1661
sg358
S'c:/marmalade/7.5/s3e/h/std/endian.h'
p1959
sbsS'gl3ext.h'
p1960
g332
(g1627
g334
Ntp1961
Rp1962
(dp1963
g1631
g1639
sg1632
(lp1964
g1641
aS'GL'
p1965
aS'GLES 3.0'
p1966
asg358
S'c:/marmalade/7.5/s3e/h/GLES3/gl3ext.h'
p1967
sbsS'glob.h'
p1968
g332
(g1627
g334
Ntp1969
Rp1970
(dp1971
g1631
g1639
sg1632
g1661
sg358
S'c:/marmalade/7.5/s3e/h/std/glob.h'
p1972
sbsS'fstream'
p1973
g332
(g1627
g334
Ntp1974
Rp1975
(dp1976
g1631
g1639
sg1632
g1640
sg358
S'c:/marmalade/7.5/s3e/h/std/c++/fstream'
p1977
sbsS's3eCamera.h'
p1978
g332
(g1627
g334
Ntp1979
Rp1980
(dp1981
g1631
g1639
sg1632
g1655
sg358
S'c:/marmalade/7.5/s3e/h/s3eCamera.h'
p1982
sbsS'jconfig.h'
p1983
g332
(g1627
g334
Ntp1984
Rp1985
(dp1986
g1631
g1103
sg1632
g1727
sg358
g1126
sbsS'memory'
p1987
g332
(g1627
g334
Ntp1988
Rp1989
(dp1990
g1631
g1639
sg1632
g1640
sg358
S'c:/marmalade/7.5/s3e/h/std/c++/memory'
p1991
sbsS'egl.h'
p1992
g332
(g1627
g334
Ntp1993
Rp1994
(dp1995
g1631
g1639
sg1632
(lp1996
g1641
aS'GL'
p1997
aS'EGL'
p1998
asg358
S'c:/marmalade/7.5/s3e/h/EGL/egl.h'
p1999
sbsS'egl_1.h'
p2000
g332
(g1627
g334
Ntp2001
Rp2002
(dp2003
g1631
g1639
sg1632
(lp2004
g1641
aS'GL'
p2005
aS'GLES 1.x'
p2006
asg358
S'c:/marmalade/7.5/s3e/h/GLES/egl.h'
p2007
sbsS'IwMemManagerDL.h'
p2008
g332
(g1627
g334
Ntp2009
Rp2010
(dp2011
g1631
g1498
sg1632
g1668
sg358
g1551
sbsS'deque'
p2012
g332
(g1627
g334
Ntp2013
Rp2014
(dp2015
g1631
g1639
sg1632
g1640
sg358
S'c:/marmalade/7.5/s3e/h/std/c++/deque'
p2016
sbsS'IwString.h'
p2017
g332
(g1627
g334
Ntp2018
Rp2019
(dp2020
g1631
g1498
sg1632
g1668
sg358
g1572
sbsS'GameScene.h'
p2021
g332
(g1627
g334
Ntp2022
Rp2023
(dp2024
g1631
g1201
sg1632
g1783
sg358
g1252
sbsS'cwchar'
p2025
g332
(g1627
g334
Ntp2026
Rp2027
(dp2028
g1631
g1639
sg1632
g1640
sg358
S'c:/marmalade/7.5/s3e/h/std/c++/cwchar'
p2029
sbsS'iwutil.mkf'
p2030
g332
(g1627
g334
Ntp2031
Rp2032
(dp2033
g1631
g1569
sg1632
g1668
sg358
g1567
sbsS'csignal'
p2034
g332
(g1627
g334
Ntp2035
Rp2036
(dp2037
g1631
g1639
sg1632
g1640
sg358
S'c:/marmalade/7.5/s3e/h/std/c++/csignal'
p2038
sbsS'pthread_types.h'
p2039
g332
(g1627
g334
Ntp2040
Rp2041
(dp2042
g1631
g1639
sg1632
g1661
sg358
S'c:/marmalade/7.5/s3e/h/std/pthread_types.h'
p2043
sbsS'pthread_alloc'
p2044
g332
(g1627
g334
Ntp2045
Rp2046
(dp2047
g1631
g1639
sg1632
g1640
sg358
S'c:/marmalade/7.5/s3e/h/std/c++/pthread_alloc'
p2048
sbsS'getopt.h'
p2049
g332
(g1627
g334
Ntp2050
Rp2051
(dp2052
g1631
g1639
sg1632
g1661
sg358
S'c:/marmalade/7.5/s3e/h/std/getopt.h'
p2053
sbsS'IwOptimiseARM.h'
p2054
g332
(g1627
g334
Ntp2055
Rp2056
(dp2057
g1631
g1498
sg1632
g1668
sg358
g1543
sbsS'times.h'
p2058
g332
(g1627
g334
Ntp2059
Rp2060
(dp2061
g1631
g1639
sg1632
g1792
sg358
S'c:/marmalade/7.5/s3e/h/std/sys/times.h'
p2062
sbsS'IwGeomFSphere.h'
p2063
g332
(g1627
g334
Ntp2064
Rp2065
(dp2066
g1631
g1334
sg1632
g1693
sg358
g1394
sbsS'functional'
p2067
g332
(g1627
g334
Ntp2068
Rp2069
(dp2070
g1631
g1639
sg1632
g1640
sg358
S'c:/marmalade/7.5/s3e/h/std/c++/functional'
p2071
sbsS'IwTypes.h'
p2072
g332
(g1627
g334
Ntp2073
Rp2074
(dp2075
g1631
g1498
sg1632
g1668
sg358
g1590
sbsS'unistd.h'
p2076
g332
(g1627
g334
Ntp2077
Rp2078
(dp2079
g1631
g1639
sg1632
g1661
sg358
S'c:/marmalade/7.5/s3e/h/std/unistd.h'
p2080
sbsS'audio.cpp'
p2081
g332
(g1627
g334
Ntp2082
Rp2083
(dp2084
g1631
g1201
sg1632
g1783
sg358
g1240
sbsS's3eCompression.h'
p2085
g332
(g1627
g334
Ntp2086
Rp2087
(dp2088
g1631
g1639
sg1632
g1655
sg358
S'c:/marmalade/7.5/s3e/h/s3eCompression.h'
p2089
sbsS'langinfo.h'
p2090
g332
(g1627
g334
Ntp2091
Rp2092
(dp2093
g1631
g1639
sg1632
g1661
sg358
S'c:/marmalade/7.5/s3e/h/std/langinfo.h'
p2094
sbsS's3edebugHeap.h'
p2095
g332
(g1627
g334
Ntp2096
Rp2097
(dp2098
g1631
g1639
sg1632
g1866
sg358
S'c:/marmalade/7.5/s3e/h/ext/s3edebugHeap.h'
p2099
sbsS'AirplayVersion.h'
p2100
g332
(g1627
g334
Ntp2101
Rp2102
(dp2103
g1631
g1639
sg1632
g1655
sg358
S'c:/marmalade/7.5/s3e/h/AirplayVersion.h'
p2104
sbsS'gl2extimg.h'
p2105
g332
(g1627
g334
Ntp2106
Rp2107
(dp2108
g1631
g1639
sg1632
g1903
sg358
S'c:/marmalade/7.5/s3e/h/GLES2/gl2extimg.h'
p2109
sbsS'IwGeomSqrt.h'
p2110
g332
(g1627
g334
Ntp2111
Rp2112
(dp2113
g1631
g1334
sg1632
g1693
sg358
g1342
sbsS'tiniconv_int.h'
p2114
g332
(g1627
g334
Ntp2115
Rp2116
(dp2117
g1631
g1137
sg1632
(lp2118
g1130
asg358
g1135
sbsS'syslog.h'
p2119
g332
(g1627
g334
Ntp2120
Rp2121
(dp2122
g1631
g1639
sg1632
g1661
sg358
S'c:/marmalade/7.5/s3e/h/std/syslog.h'
p2123
sbsS'IwGxFontTypes.h'
p2124
g332
(g1627
g334
Ntp2125
Rp2126
(dp2127
g1631
g1312
sg1632
g1633
sg358
g1313
sbsS'IwGeomFIntersect.h'
p2128
g332
(g1627
g334
Ntp2129
Rp2130
(dp2131
g1631
g1334
sg1632
g1693
sg358
g1404
sbsS'hash_map'
p2132
g332
(g1627
g334
Ntp2133
Rp2134
(dp2135
g1631
g1639
sg1632
g1640
sg358
S'c:/marmalade/7.5/s3e/h/std/c++/hash_map'
p2136
sbsS's3e.mkf'
p2137
g332
(g1627
g334
Ntp2138
Rp2139
(dp2140
g1631
(dp2141
sg1632
g1655
sg358
S'c:/marmalade/7.5/s3e/s3e.mkf'
p2142
sbsS'IwGeomMat2D.h.tpl'
p2143
g332
(g1627
g334
Ntp2144
Rp2145
(dp2146
g1631
g1334
sg1632
g1693
sg358
g1386
sbsS's3eOSReadString.h'
p2147
g332
(g1627
g334
Ntp2148
Rp2149
(dp2150
g1631
g1639
sg1632
g1866
sg358
S'c:/marmalade/7.5/s3e/h/ext/s3eOSReadString.h'
p2151
sbsS'IwSound.h'
p2152
g332
(g1627
g334
Ntp2153
Rp2154
(dp2155
g1631
g1144
sg1632
g1679
sg358
g1179
sbsS'map'
p2156
g332
(g1627
g334
Ntp2157
Rp2158
(dp2159
g1631
g1639
sg1632
g1640
sg358
S'c:/marmalade/7.5/s3e/h/std/c++/map'
p2160
sbsS'iwtween.mkf'
p2161
g332
(g1627
g334
Ntp2162
Rp2163
(dp2164
g1631
g1618
sg1632
(lp2165
g1609
asg358
g1616
sbsS'IwOptimiseSpeed.h'
p2166
g332
(g1627
g334
Ntp2167
Rp2168
(dp2169
g1631
g1498
sg1632
g1668
sg358
g1555
sbsS'ostream'
p2170
g332
(g1627
g334
Ntp2171
Rp2172
(dp2173
g1631
g1639
sg1632
g1640
sg358
S'c:/marmalade/7.5/s3e/h/std/c++/ostream'
p2174
sbsS'msl_string.h'
p2175
g332
(g1627
g334
Ntp2176
Rp2177
(dp2178
g1631
g1639
sg1632
g1640
sg358
S'c:/marmalade/7.5/s3e/h/std/c++/msl_string.h'
p2179
sbsS'select.h'
p2180
g332
(g1627
g334
Ntp2181
Rp2182
(dp2183
g1631
g1639
sg1632
g1792
sg358
S'c:/marmalade/7.5/s3e/h/std/sys/select.h'
p2184
sbsS'hero.cpp'
p2185
g332
(g1627
g334
Ntp2186
Rp2187
(dp2188
g1631
g1201
sg1632
g1783
sg358
g1250
sbsS'zlib.mkf'
p2189
g332
(g1627
g334
Ntp2190
Rp2191
(dp2192
g1631
g1608
sg1632
(lp2193
g1598
asg358
g1606
sbsS'signal.h'
p2194
g332
(g1627
g334
Ntp2195
Rp2196
(dp2197
g1631
g1639
sg1632
g1661
sg358
S'c:/marmalade/7.5/s3e/h/std/signal.h'
p2198
sbsS'sigcontext.h'
p2199
g332
(g1627
g334
Ntp2200
Rp2201
(dp2202
g1631
g1639
sg1632
g1661
sg358
S'c:/marmalade/7.5/s3e/h/std/sigcontext.h'
p2203
sbsS'libpng.mkf'
p2204
g332
(g1627
g334
Ntp2205
Rp2206
(dp2207
g1631
g1094
sg1632
(lp2208
g1083
asg358
g1092
sbsS's3eClipboard.h'
p2209
g332
(g1627
g334
Ntp2210
Rp2211
(dp2212
g1631
g1639
sg1632
g1655
sg358
S'c:/marmalade/7.5/s3e/h/s3eClipboard.h'
p2213
sbsS'IwGxFuncTable.h'
p2214
g332
(g1627
g334
Ntp2215
Rp2216
(dp2217
g1631
g1434
sg1632
g1773
sg358
g1439
sbsS'IwResHandlerGROUP.h'
p2218
g332
(g1627
g334
Ntp2219
Rp2220
(dp2221
g1631
g1410
sg1632
g1911
sg358
g1415
sbsS's3eDebug.h'
p2222
g332
(g1627
g334
Ntp2223
Rp2224
(dp2225
g1631
g1639
sg1632
g1655
sg358
S'c:/marmalade/7.5/s3e/h/s3eDebug.h'
p2226
sbsS'socket.h'
p2227
g332
(g1627
g334
Ntp2228
Rp2229
(dp2230
g1631
g1639
sg1632
g1792
sg358
S'c:/marmalade/7.5/s3e/h/std/sys/socket.h'
p2231
sbsS'glext.h'
p2232
g332
(g1627
g334
Ntp2233
Rp2234
(dp2235
g1631
g1639
sg1632
g2004
sg358
S'c:/marmalade/7.5/s3e/h/GLES/glext.h'
p2236
sbsS'typeinfo.h'
p2237
g332
(g1627
g334
Ntp2238
Rp2239
(dp2240
g1631
g1639
sg1632
g1640
sg358
S'c:/marmalade/7.5/s3e/h/std/c++/typeinfo.h'
p2241
sbsS'typeinfo'
p2242
g332
(g1627
g334
Ntp2243
Rp2244
(dp2245
g1631
g1639
sg1632
g1640
sg358
S'c:/marmalade/7.5/s3e/h/std/c++/typeinfo'
p2246
sbsS'iwsound.config.txt'
p2247
g332
(g1627
g334
Ntp2248
Rp2249
(dp2250
g1631
g1144
sg1632
(lp2251
g1140
ag1151
asg358
g1153
sbsS'fstream.h'
p2252
g332
(g1627
g334
Ntp2253
Rp2254
(dp2255
g1631
g1639
sg1632
g1640
sg358
S'c:/marmalade/7.5/s3e/h/std/c++/fstream.h'
p2256
sbsS'IwGeomMat.h'
p2257
g332
(g1627
g334
Ntp2258
Rp2259
(dp2260
g1631
g1334
sg1632
g1693
sg358
g1350
sbsS's3ePointer.h'
p2261
g332
(g1627
g334
Ntp2262
Rp2263
(dp2264
g1631
g1639
sg1632
g1655
sg358
S'c:/marmalade/7.5/s3e/h/s3ePointer.h'
p2265
sbsS'IwMemBucket.h'
p2266
g332
(g1627
g334
Ntp2267
Rp2268
(dp2269
g1631
g1498
sg1632
g1668
sg358
g1545
sbsS'PVRTexTool.h'
p2270
g332
(g1627
g334
Ntp2271
Rp2272
(dp2273
g1631
g1262
sg1632
(lp2274
g1254
ag1256
asg358
g1265
sbsS's3eGL.h'
p2275
g332
(g1627
g334
Ntp2276
Rp2277
(dp2278
g1631
g1639
sg1632
g1655
sg358
S'c:/marmalade/7.5/s3e/h/s3eGL.h'
p2279
sbsS'IwGeomFVec2.h'
p2280
g332
(g1627
g334
Ntp2281
Rp2282
(dp2283
g1631
g1334
sg1632
g1693
sg358
g1368
sbsS'IwGeomSVec4.h'
p2284
g332
(g1627
g334
Ntp2285
Rp2286
(dp2287
g1631
g1334
sg1632
g1693
sg358
g1370
sbsS'poll.h'
p2288
g332
(g1627
g334
Ntp2289
Rp2290
(dp2291
g1631
g1639
sg1632
g1661
sg358
S'c:/marmalade/7.5/s3e/h/std/poll.h'
p2292
sbsS'IwMatAnim.h'
p2293
g332
(g1627
g334
Ntp2294
Rp2295
(dp2296
g1631
g1434
sg1632
g1773
sg358
g1435
sbsS'IwGeomFVec4.h'
p2297
g332
(g1627
g334
Ntp2298
Rp2299
(dp2300
g1631
g1334
sg1632
g1693
sg358
g1382
sbsS'IwGx.h'
p2301
g332
(g1627
g334
Ntp2302
Rp2303
(dp2304
g1631
g1434
sg1632
g1773
sg358
g1453
sbsS'valarray'
p2305
g332
(g1627
g334
Ntp2306
Rp2307
(dp2308
g1631
g1639
sg1632
g1640
sg358
S'c:/marmalade/7.5/s3e/h/std/c++/valarray'
p2309
sbsS'iosfwd'
p2310
g332
(g1627
g334
Ntp2311
Rp2312
(dp2313
g1631
g1639
sg1632
g1640
sg358
S'c:/marmalade/7.5/s3e/h/std/c++/iosfwd'
p2314
sbsS'gl2.h'
p2315
g332
(g1627
g334
Ntp2316
Rp2317
(dp2318
g1631
g1639
sg1632
g1903
sg358
S'c:/marmalade/7.5/s3e/h/GLES2/gl2.h'
p2319
sbsS'jpegint.h'
p2320
g332
(g1627
g334
Ntp2321
Rp2322
(dp2323
g1631
g1103
sg1632
g1727
sg358
g1118
sbsS'stdiostream.h'
p2324
g332
(g1627
g334
Ntp2325
Rp2326
(dp2327
g1631
g1639
sg1632
g1640
sg358
S'c:/marmalade/7.5/s3e/h/std/c++/stdiostream.h'
p2328
sbsS'mem.h'
p2329
g332
(g1627
g334
Ntp2330
Rp2331
(dp2332
g1631
g1639
sg1632
g1640
sg358
S'c:/marmalade/7.5/s3e/h/std/c++/mem.h'
p2333
sbsS'jerror.h'
p2334
g332
(g1627
g334
Ntp2335
Rp2336
(dp2337
g1631
g1103
sg1632
g1727
sg358
g1101
sbsS'zconf.h'
p2338
g332
(g1627
g334
Ntp2339
Rp2340
(dp2341
g1631
g1603
sg1632
(lp2342
g1598
ag1085
asg358
g1601
sbsS's3e.config.txt'
p2343
g332
(g1627
g334
Ntp2344
Rp2345
(dp2346
g1631
g1639
sg1632
g1655
sg358
S'c:/marmalade/7.5/s3e/s3e.config.txt'
p2347
sbsS'numeric'
p2348
g332
(g1627
g334
Ntp2349
Rp2350
(dp2351
g1631
g1639
sg1632
g1640
sg358
S'c:/marmalade/7.5/s3e/h/std/c++/numeric'
p2352
sbsS'utime.h'
p2353
g332
(g1627
g334
Ntp2354
Rp2355
(dp2356
g1631
g1639
sg1632
g1661
sg358
S'c:/marmalade/7.5/s3e/h/std/utime.h'
p2357
sbsS'jdhuff.h'
p2358
g332
(g1627
g334
Ntp2359
Rp2360
(dp2361
g1631
g1103
sg1632
g1727
sg358
g1104
sbsS'IwResHandlerWAV.cpp'
p2362
g332
(g1627
g334
Ntp2363
Rp2364
(dp2365
g1631
g1144
sg1632
g1679
sg358
g1147
sbsS'un.h'
p2366
g332
(g1627
g334
Ntp2367
Rp2368
(dp2369
g1631
g1639
sg1632
g1792
sg358
S'c:/marmalade/7.5/s3e/h/std/sys/un.h'
p2370
sbsS'IwImage.h'
p2371
g332
(g1627
g334
Ntp2372
Rp2373
(dp2374
g1631
g1498
sg1632
g1668
sg358
g1541
sbsS's3eImagePicker.h'
p2375
g332
(g1627
g334
Ntp2376
Rp2377
(dp2378
g1631
g1639
sg1632
g1866
sg358
S'c:/marmalade/7.5/s3e/h/ext/s3eImagePicker.h'
p2379
sbsS'stdlib.h'
p2380
g332
(g1627
g334
Ntp2381
Rp2382
(dp2383
g1631
g1639
sg1632
g1661
sg358
S'c:/marmalade/7.5/s3e/h/std/stdlib.h'
p2384
sbsS'IwCopyingPtr.h'
p2385
g332
(g1627
g334
Ntp2386
Rp2387
(dp2388
g1631
g1498
sg1632
g1668
sg358
g1580
sbsS'iostream'
p2389
g332
(g1627
g334
Ntp2390
Rp2391
(dp2392
g1631
g1639
sg1632
g1640
sg358
S'c:/marmalade/7.5/s3e/h/std/c++/iostream'
p2393
sbsS'png.h'
p2394
g332
(g1627
g334
Ntp2395
Rp2396
(dp2397
g1631
g1089
sg1632
(lp2398
g1083
ag1085
asg358
g1087
sbsS'stddef.h'
p2399
g332
(g1627
g334
Ntp2400
Rp2401
(dp2402
g1631
g1639
sg1632
g1661
sg358
S'c:/marmalade/7.5/s3e/h/std/stddef.h'
p2403
sbsS'setjmp_win32.h'
p2404
g332
(g1627
g334
Ntp2405
Rp2406
(dp2407
g1631
g1639
sg1632
g1661
sg358
S'c:/marmalade/7.5/s3e/h/std/setjmp_win32.h'
p2408
sbsS'pauseMenu.h'
p2409
g332
(g1627
g334
Ntp2410
Rp2411
(dp2412
g1631
g1201
sg1632
g1783
sg358
g1242
sbsS'IwGxPrint.h'
p2413
g332
(g1627
g334
Ntp2414
Rp2415
(dp2416
g1631
g1434
sg1632
g1773
sg358
g1443
sbsS'iwgx_public.defines.txt'
p2417
g332
(g1627
g334
Ntp2418
Rp2419
(dp2420
g1631
g1434
sg1632
g1773
sg358
g1455
sbsS'streambuf.h'
p2421
g332
(g1627
g334
Ntp2422
Rp2423
(dp2424
g1631
g1639
sg1632
g1640
sg358
S'c:/marmalade/7.5/s3e/h/std/c++/streambuf.h'
p2425
sbsS'resources.cpp'
p2426
g332
(g1627
g334
Ntp2427
Rp2428
(dp2429
g1631
g1201
sg1632
g1783
sg358
g1230
sbsS'IwGeomFPlane.h'
p2430
g332
(g1627
g334
Ntp2431
Rp2432
(dp2433
g1631
g1334
sg1632
g1693
sg358
g1398
sbsS'wchar.h'
p2434
g332
(g1627
g334
Ntp2435
Rp2436
(dp2437
g1631
g1639
sg1632
g1661
sg358
S'c:/marmalade/7.5/s3e/h/std/wchar.h'
p2438
sbsS's3eCameraCapture.h'
p2439
g332
(g1627
g334
Ntp2440
Rp2441
(dp2442
g1631
g1639
sg1632
g1866
sg358
S'c:/marmalade/7.5/s3e/h/ext/s3eCameraCapture.h'
p2443
sbsS'eglext.h'
p2444
g332
(g1627
g334
Ntp2445
Rp2446
(dp2447
g1631
g1639
sg1632
g1996
sg358
S'c:/marmalade/7.5/s3e/h/EGL/eglext.h'
p2448
sbsS'IwResHandlerImage.h'
p2449
g332
(g1627
g334
Ntp2450
Rp2451
(dp2452
g1631
g1410
sg1632
g1911
sg358
g1428
sbsS'strstream.h'
p2453
g332
(g1627
g334
Ntp2454
Rp2455
(dp2456
g1631
g1639
sg1632
g1640
sg358
S'c:/marmalade/7.5/s3e/h/std/c++/strstream.h'
p2457
sbsS'tiniconv.h'
p2458
g332
(g1627
g334
Ntp2459
Rp2460
(dp2461
g1631
g1137
sg1632
g2118
sg358
g1138
sbsS'IwGLExt.h'
p2462
g332
(g1627
g334
Ntp2463
Rp2464
(dp2465
g1631
g1291
sg1632
g1649
sg358
g1294
sbsS'app.icf'
p2466
g332
(g1627
g334
Ntp2467
Rp2468
(dp2469
g1631
(dp2470
sg1632
g4
sg358
S'c:/Marmalade/7.5/examples/GameTutorial/CPP/marm1/data/app.icf'
p2471
sbsS'IwClassFactory.h'
p2472
g332
(g1627
g334
Ntp2473
Rp2474
(dp2475
g1631
g1498
sg1632
g1668
sg358
g1515
sbsS'file.h'
p2476
g332
(g1627
g334
Ntp2477
Rp2478
(dp2479
g1631
g1639
sg1632
g1792
sg358
S'c:/marmalade/7.5/s3e/h/std/sys/file.h'
p2480
sbsS'cstring'
p2481
g332
(g1627
g334
Ntp2482
Rp2483
(dp2484
g1631
g1639
sg1632
g1640
sg358
S'c:/marmalade/7.5/s3e/h/std/c++/cstring'
p2485
sbsS'IwSoundInst.cpp'
p2486
g332
(g1627
g334
Ntp2487
Rp2488
(dp2489
g1631
g1144
sg1632
g1679
sg358
g1169
sbsS'iwutil.config.txt'
p2490
g332
(g1627
g334
Ntp2491
Rp2492
(dp2493
g1631
g1498
sg1632
g1668
sg358
g1531
sbsS's3eSMS.h'
p2494
g332
(g1627
g334
Ntp2495
Rp2496
(dp2497
g1631
g1639
sg1632
g1866
sg358
S'c:/marmalade/7.5/s3e/h/ext/s3eSMS.h'
p2498
sbsS'limits.h'
p2499
g332
(g1627
g334
Ntp2500
Rp2501
(dp2502
g1631
g1639
sg1632
g1661
sg358
S'c:/marmalade/7.5/s3e/h/std/limits.h'
p2503
sbsS'scene.h'
p2504
g332
(g1627
g334
Ntp2505
Rp2506
(dp2507
g1631
g1201
sg1632
g1783
sg358
g1246
sbsS'IwMaterial.h'
p2508
g332
(g1627
g334
Ntp2509
Rp2510
(dp2511
g1631
g1434
sg1632
g1773
sg358
g1463
sbsS'PVRTexTool_interface.cpp'
p2512
g332
(g1627
g334
Ntp2513
Rp2514
(dp2515
g1631
g1262
sg1632
(lp2516
g1254
ag1256
ag1258
asg358
g1263
sbsS'IwGxSurface.h'
p2517
g332
(g1627
g334
Ntp2518
Rp2519
(dp2520
g1631
g1434
sg1632
g1773
sg358
g1449
sbsS's3eSocket.h'
p2521
g332
(g1627
g334
Ntp2522
Rp2523
(dp2524
g1631
g1639
sg1632
g1655
sg358
S'c:/marmalade/7.5/s3e/h/s3eSocket.h'
p2525
sbsS'IwAutoFile.h'
p2526
g332
(g1627
g334
Ntp2527
Rp2528
(dp2529
g1631
g1498
sg1632
g1668
sg358
g1559
sbsS'ipc.h'
p2530
g332
(g1627
g334
Ntp2531
Rp2532
(dp2533
g1631
g1639
sg1632
g1792
sg358
S'c:/marmalade/7.5/s3e/h/std/sys/ipc.h'
p2534
sbsS'poll_1.h'
p2535
g332
(g1627
g334
Ntp2536
Rp2537
(dp2538
g1631
g1639
sg1632
g1792
sg358
S'c:/marmalade/7.5/s3e/h/std/sys/poll.h'
p2539
sbsS's3eThread.h'
p2540
g332
(g1627
g334
Ntp2541
Rp2542
(dp2543
g1631
g1639
sg1632
g1655
sg358
S'c:/marmalade/7.5/s3e/h/s3eThread.h'
p2544
sbsS'ucontext.h'
p2545
g332
(g1627
g334
Ntp2546
Rp2547
(dp2548
g1631
g1639
sg1632
g1661
sg358
S'c:/marmalade/7.5/s3e/h/std/ucontext.h'
p2549
sbsS'time.h'
p2550
g332
(g1627
g334
Ntp2551
Rp2552
(dp2553
g1631
g1639
sg1632
g1661
sg358
S'c:/marmalade/7.5/s3e/h/std/time.h'
p2554
sbsS'jchuff.h'
p2555
g332
(g1627
g334
Ntp2556
Rp2557
(dp2558
g1631
g1103
sg1632
g1727
sg358
g1120
sbsS'IwSoundPCM.cpp'
p2559
g332
(g1627
g334
Ntp2560
Rp2561
(dp2562
g1631
g1144
sg1632
g1679
sg358
g1165
sbsS's3eSoundRecord.h'
p2563
g332
(g1627
g334
Ntp2564
Rp2565
(dp2566
g1631
g1639
sg1632
g1655
sg358
S'c:/marmalade/7.5/s3e/h/s3eSoundRecord.h'
p2567
sbsS'IwFibre.h'
p2568
g332
(g1627
g334
Ntp2569
Rp2570
(dp2571
g1631
g1498
sg1632
g1668
sg358
g1584
sbsS's3eVersion.h'
p2572
g332
(g1627
g334
Ntp2573
Rp2574
(dp2575
g1631
g1639
sg1632
g1655
sg358
S'c:/marmalade/7.5/s3e/h/s3eVersion.h'
p2576
sbsS'input.cpp'
p2577
g332
(g1627
g334
Ntp2578
Rp2579
(dp2580
g1631
g1201
sg1632
g1783
sg358
g1222
sbsS'IwSoundGroup.h'
p2581
g332
(g1627
g334
Ntp2582
Rp2583
(dp2584
g1631
g1144
sg1632
g1679
sg358
g1190
sbsS'IwSoundWAV.h'
p2585
g332
(g1627
g334
Ntp2586
Rp2587
(dp2588
g1631
g1144
sg1632
g1679
sg358
g1171
sbsS'IwGxFontGlyph.h'
p2589
g332
(g1627
g334
Ntp2590
Rp2591
(dp2592
g1631
g1312
sg1632
g1633
sg358
g1310
sbsS's3eTypes.h'
p2593
g332
(g1627
g334
Ntp2594
Rp2595
(dp2596
g1631
g1639
sg1632
g1655
sg358
S'c:/marmalade/7.5/s3e/h/s3eTypes.h'
p2597
sbsS'IwSoundSpec.h'
p2598
g332
(g1627
g334
Ntp2599
Rp2600
(dp2601
g1631
g1144
sg1632
g1679
sg358
g1159
sbsS'signal_2.h'
p2602
g332
(g1627
g334
Ntp2603
Rp2604
(dp2605
g1631
g1639
sg1632
g1640
sg358
S'c:/marmalade/7.5/s3e/h/std/c++/signal.h'
p2606
sbsS'termios.h'
p2607
g332
(g1627
g334
Ntp2608
Rp2609
(dp2610
g1631
g1639
sg1632
g1661
sg358
S'c:/marmalade/7.5/s3e/h/std/termios.h'
p2611
sbsS'iw2dscenegraph.mkf'
p2612
g332
(g1627
g334
Ntp2613
Rp2614
(dp2615
g1631
g1283
sg1632
g1953
sg358
g1281
sbsS'slist'
p2616
g332
(g1627
g334
Ntp2617
Rp2618
(dp2619
g1631
g1639
sg1632
g1640
sg358
S'c:/marmalade/7.5/s3e/h/std/c++/slist'
p2620
sbsS'cstdlib'
p2621
g332
(g1627
g334
Ntp2622
Rp2623
(dp2624
g1631
g1639
sg1632
g1640
sg358
S'c:/marmalade/7.5/s3e/h/std/c++/cstdlib'
p2625
sbsS's3eLocation.h'
p2626
g332
(g1627
g334
Ntp2627
Rp2628
(dp2629
g1631
g1639
sg1632
g1655
sg358
S'c:/marmalade/7.5/s3e/h/s3eLocation.h'
p2630
sbsS'IwMemBucketHelpers.h'
p2631
g332
(g1627
g334
Ntp2632
Rp2633
(dp2634
g1631
g1498
sg1632
g1668
sg358
g1535
sbsS's3eHash.h'
p2635
g332
(g1627
g334
Ntp2636
Rp2637
(dp2638
g1631
g1639
sg1632
g1655
sg358
S'c:/marmalade/7.5/s3e/h/s3eHash.h'
p2639
sbsS'IwSoundGroup.cpp'
p2640
g332
(g1627
g334
Ntp2641
Rp2642
(dp2643
g1631
g1144
sg1632
g1679
sg358
g1142
sbsS'Enemymanager.h'
p2644
g332
(g1627
g334
Ntp2645
Rp2646
(dp2647
g1631
g1201
sg1632
g1783
sg358
g1236
sbsS'IwGeomFMat.h'
p2648
g332
(g1627
g334
Ntp2649
Rp2650
(dp2651
g1631
g1334
sg1632
g1693
sg358
g1362
sbsS'type_traits.h'
p2652
g332
(g1627
g334
Ntp2653
Rp2654
(dp2655
g1631
g1639
sg1632
g1640
sg358
S'c:/marmalade/7.5/s3e/h/std/c++/type_traits.h'
p2656
sbsS's3eAtomic.h'
p2657
g332
(g1627
g334
Ntp2658
Rp2659
(dp2660
g1631
g1639
sg1632
g1655
sg358
S'c:/marmalade/7.5/s3e/h/s3eAtomic.h'
p2661
sbsS'IwMenu.h'
p2662
g332
(g1627
g334
Ntp2663
Rp2664
(dp2665
g1631
g1498
sg1632
g1668
sg358
g1588
sbsS'IwResHandlerITX.h'
p2666
g332
(g1627
g334
Ntp2667
Rp2668
(dp2669
g1631
g1410
sg1632
g1911
sg358
g1408
sbsS'IwSoundData.h'
p2670
g332
(g1627
g334
Ntp2671
Rp2672
(dp2673
g1631
g1144
sg1632
g1679
sg358
g1183
sbsS'IwArray.h'
p2674
g332
(g1627
g334
Ntp2675
Rp2676
(dp2677
g1631
g1498
sg1632
g1668
sg358
g1586
sbsS'IwUTF8.h'
p2678
g332
(g1627
g334
Ntp2679
Rp2680
(dp2681
g1631
g1498
sg1632
g1668
sg358
g1529
sbsS'math_rvct.h'
p2682
g332
(g1627
g334
Ntp2683
Rp2684
(dp2685
g1631
g1639
sg1632
g1661
sg358
S'c:/marmalade/7.5/s3e/h/std/math_rvct.h'
p2686
sbsS'IwUtil.h'
p2687
g332
(g1627
g334
Ntp2688
Rp2689
(dp2690
g1631
g1498
sg1632
g1668
sg358
g1570
sbsS'IwFColour.h'
p2691
g332
(g1627
g334
Ntp2692
Rp2693
(dp2694
g1631
g1434
sg1632
g1773
sg358
g1469
sbsS'wctype.h'
p2695
g332
(g1627
g334
Ntp2696
Rp2697
(dp2698
g1631
g1639
sg1632
g1661
sg358
S'c:/marmalade/7.5/s3e/h/std/wctype.h'
p2699
sbsS'mainMenu.h'
p2700
g332
(g1627
g334
Ntp2701
Rp2702
(dp2703
g1631
g1201
sg1632
g1783
sg358
g1199
sbsS'cstddef'
p2704
g332
(g1627
g334
Ntp2705
Rp2706
(dp2707
g1631
g1639
sg1632
g1640
sg358
S'c:/marmalade/7.5/s3e/h/std/c++/cstddef'
p2708
sbsS'assert.h'
p2709
g332
(g1627
g334
Ntp2710
Rp2711
(dp2712
g1631
g1639
sg1632
g1661
sg358
S'c:/marmalade/7.5/s3e/h/std/assert.h'
p2713
sbsS'mman.h'
p2714
g332
(g1627
g334
Ntp2715
Rp2716
(dp2717
g1631
g1639
sg1632
g1792
sg358
S'c:/marmalade/7.5/s3e/h/std/sys/mman.h'
p2718
sbsS'IwRandom.h'
p2719
g332
(g1627
g334
Ntp2720
Rp2721
(dp2722
g1631
g1498
sg1632
g1668
sg358
g1525
sbsS'libgen.h'
p2723
g332
(g1627
g334
Ntp2724
Rp2725
(dp2726
g1631
g1639
sg1632
g1661
sg358
S'c:/marmalade/7.5/s3e/h/std/libgen.h'
p2727
sbsS'utsname.h'
p2728
g332
(g1627
g334
Ntp2729
Rp2730
(dp2731
g1631
g1639
sg1632
g1792
sg358
S'c:/marmalade/7.5/s3e/h/std/sys/utsname.h'
p2732
sbsS'wait.h'
p2733
g332
(g1627
g334
Ntp2734
Rp2735
(dp2736
g1631
g1639
sg1632
g1792
sg358
S'c:/marmalade/7.5/s3e/h/std/sys/wait.h'
p2737
sbsS'param.h'
p2738
g332
(g1627
g334
Ntp2739
Rp2740
(dp2741
g1631
g1639
sg1632
g1792
sg358
S'c:/marmalade/7.5/s3e/h/std/sys/param.h'
p2742
sbsS'IwDivide.h'
p2743
g332
(g1627
g334
Ntp2744
Rp2745
(dp2746
g1631
g1498
sg1632
g1668
sg358
g1505
sbsS'Iw2DSceneGraphCore.cpp'
p2747
g332
(g1627
g334
Ntp2748
Rp2749
(dp2750
g1631
g1491
sg1632
(lp2751
S"'Marmalade Studio'"
p2752
ag1484
asg358
g1492
sbsS'IwResManager.h'
p2753
g332
(g1627
g334
Ntp2754
Rp2755
(dp2756
g1631
g1410
sg1632
g1911
sg358
g1417
sbsS'IwSoundManager.h'
p2757
g332
(g1627
g334
Ntp2758
Rp2759
(dp2760
g1631
g1144
sg1632
g1679
sg358
g1163
sbsS'cwctype'
p2761
g332
(g1627
g334
Ntp2762
Rp2763
(dp2764
g1631
g1639
sg1632
g1640
sg358
S'c:/marmalade/7.5/s3e/h/std/c++/cwctype'
p2765
sbsS'set'
p2766
g332
(g1627
g334
Ntp2767
Rp2768
(dp2769
g1631
g1639
sg1632
g1640
sg358
S'c:/marmalade/7.5/s3e/h/std/c++/set'
p2770
sbsS'IwGeomSQuat.h'
p2771
g332
(g1627
g334
Ntp2772
Rp2773
(dp2774
g1631
g1334
sg1632
g1693
sg358
g1358
sbsS'locale'
p2775
g332
(g1627
g334
Ntp2776
Rp2777
(dp2778
g1631
g1639
sg1632
g1640
sg358
S'c:/marmalade/7.5/s3e/h/std/c++/locale'
p2779
sbsS'cstdio'
p2780
g332
(g1627
g334
Ntp2781
Rp2782
(dp2783
g1631
g1639
sg1632
g1640
sg358
S'c:/marmalade/7.5/s3e/h/std/c++/cstdio'
p2784
sbsS'cdjpeg.h'
p2785
g332
(g1627
g334
Ntp2786
Rp2787
(dp2788
g1631
g1103
sg1632
g1727
sg358
g1122
sbsS'audio.h'
p2789
g332
(g1627
g334
Ntp2790
Rp2791
(dp2792
g1631
g1201
sg1632
g1783
sg358
g1216
sbsS'IwList.h'
p2793
g332
(g1627
g334
Ntp2794
Rp2795
(dp2796
g1631
g1498
sg1632
g1668
sg358
g1557
sbsS'pauseMenu.cpp'
p2797
g332
(g1627
g334
Ntp2798
Rp2799
(dp2800
g1631
g1201
sg1632
g1783
sg358
g1244
sbsS'inttypes.h'
p2801
g332
(g1627
g334
Ntp2802
Rp2803
(dp2804
g1631
g1639
sg1632
g1661
sg358
S'c:/marmalade/7.5/s3e/h/std/inttypes.h'
p2805
sbsS'dirent.h'
p2806
g332
(g1627
g334
Ntp2807
Rp2808
(dp2809
g1631
g1639
sg1632
g1661
sg358
S'c:/marmalade/7.5/s3e/h/std/dirent.h'
p2810
sbsS'IwGeomVec3.h'
p2811
g332
(g1627
g334
Ntp2812
Rp2813
(dp2814
g1631
g1334
sg1632
g1693
sg358
g1352
sbsS'transupp.h'
p2815
g332
(g1627
g334
Ntp2816
Rp2817
(dp2818
g1631
g1103
sg1632
g1727
sg358
g1108
sbsS'IwMath.h'
p2819
g332
(g1627
g334
Ntp2820
Rp2821
(dp2822
g1631
g1498
sg1632
g1668
sg358
g1499
sbsS'IwGeomQuat.h'
p2823
g332
(g1627
g334
Ntp2824
Rp2825
(dp2826
g1631
g1334
sg1632
g1693
sg358
g1402
sbsS'glplatform.h'
p2827
g332
(g1627
g334
Ntp2828
Rp2829
(dp2830
g1631
g1639
sg1632
g2004
sg358
S'c:/marmalade/7.5/s3e/h/GLES/glplatform.h'
p2831
sbsS's3e-default.mkf'
p2832
g332
(g1627
g334
Ntp2833
Rp2834
(dp2835
g1631
g1623
sg1632
(lp2836
g1619
asg358
g1621
sbsS'iwgl.config.txt'
p2837
g332
(g1627
g334
Ntp2838
Rp2839
(dp2840
g1631
g1291
sg1632
g1649
sg358
g1292
sbsS'bitset'
p2841
g332
(g1627
g334
Ntp2842
Rp2843
(dp2844
g1631
g1639
sg1632
g1640
sg358
S'c:/marmalade/7.5/s3e/h/std/c++/bitset'
p2845
sbsS'alloca.h'
p2846
g332
(g1627
g334
Ntp2847
Rp2848
(dp2849
g1631
g1639
sg1632
g1661
sg358
S'c:/marmalade/7.5/s3e/h/std/alloca.h'
p2850
sbsS'IwResHandler.h'
p2851
g332
(g1627
g334
Ntp2852
Rp2853
(dp2854
g1631
g1410
sg1632
g1911
sg358
g1426
sbsS'IwResHandlerMTL.h'
p2855
g332
(g1627
g334
Ntp2856
Rp2857
(dp2858
g1631
g1434
sg1632
g1773
sg358
g1441
sbsS'IwRuntime.h'
p2859
g332
(g1627
g334
Ntp2860
Rp2861
(dp2862
g1631
g1498
sg1632
g1668
sg358
g1549
sbsS'enemy.cpp'
p2863
g332
(g1627
g334
Ntp2864
Rp2865
(dp2866
g1631
g1201
sg1632
g1783
sg358
g1228
sbsS'limits'
p2867
g332
(g1627
g334
Ntp2868
Rp2869
(dp2870
g1631
g1639
sg1632
g1640
sg358
S'c:/marmalade/7.5/s3e/h/std/c++/limits'
p2871
sbsS'IwGeomBBox.h'
p2872
g332
(g1627
g334
Ntp2873
Rp2874
(dp2875
g1631
g1334
sg1632
g1693
sg358
g1392
sbsS's3eContacts.h'
p2876
g332
(g1627
g334
Ntp2877
Rp2878
(dp2879
g1631
g1639
sg1632
g1655
sg358
S'c:/marmalade/7.5/s3e/h/s3eContacts.h'
p2880
sbsS's3eLicense.h'
p2881
g332
(g1627
g334
Ntp2882
Rp2883
(dp2884
g1631
g1639
sg1632
g1655
sg358
S'c:/marmalade/7.5/s3e/h/s3eLicense.h'
p2885
sbsS'iwgx.config.txt'
p2886
g332
(g1627
g334
Ntp2887
Rp2888
(dp2889
g1631
g1434
sg1632
g1773
sg358
g1476
sbsS'IwTextParser.h'
p2890
g332
(g1627
g334
Ntp2891
Rp2892
(dp2893
g1631
g1498
sg1632
g1668
sg358
g1578
sbsS's3eTimer.h'
p2894
g332
(g1627
g334
Ntp2895
Rp2896
(dp2897
g1631
g1639
sg1632
g1655
sg358
S'c:/marmalade/7.5/s3e/h/s3eTimer.h'
p2898
sbsS'IwGeomVec.h'
p2899
g332
(g1627
g334
Ntp2900
Rp2901
(dp2902
g1631
g1334
sg1632
g1693
sg358
g1378
sbsS'IwSerialise.h'
p2903
g332
(g1627
g334
Ntp2904
Rp2905
(dp2906
g1631
g1498
sg1632
g1668
sg358
g1596
sbsS'cstdarg'
p2907
g332
(g1627
g334
Ntp2908
Rp2909
(dp2910
g1631
g1639
sg1632
g1640
sg358
S'c:/marmalade/7.5/s3e/h/std/c++/cstdarg'
p2911
sbsS'gl2ext.h'
p2912
g332
(g1627
g334
Ntp2913
Rp2914
(dp2915
g1631
g1639
sg1632
g1903
sg358
S'c:/marmalade/7.5/s3e/h/GLES2/gl2ext.h'
p2916
sbsS'IwChar.h'
p2917
g332
(g1627
g334
Ntp2918
Rp2919
(dp2920
g1631
g1498
sg1632
g1668
sg358
g1523
sbsS's3eSound.h'
p2921
g332
(g1627
g334
Ntp2922
Rp2923
(dp2924
g1631
g1639
sg1632
g1655
sg358
S'c:/marmalade/7.5/s3e/h/s3eSound.h'
p2925
sbsS's3eIOSBackgroundAudio.h'
p2926
g332
(g1627
g334
Ntp2927
Rp2928
(dp2929
g1631
g1639
sg1632
g1866
sg358
S'c:/marmalade/7.5/s3e/h/ext/s3eIOSBackgroundAudio.h'
p2930
sbsS'exception.h'
p2931
g332
(g1627
g334
Ntp2932
Rp2933
(dp2934
g1631
g1639
sg1632
g1640
sg358
S'c:/marmalade/7.5/s3e/h/std/c++/exception.h'
p2935
sbsS'iwgeom.config.txt'
p2936
g332
(g1627
g334
Ntp2937
Rp2938
(dp2939
g1631
g1334
sg1632
g1693
sg358
g1400
sbsS'Shark.h'
p2940
g332
(g1627
g334
Ntp2941
Rp2942
(dp2943
g1631
g1201
sg1632
g1783
sg358
g1232
sbsS'iwgx.mkf'
p2944
g332
(g1627
g334
Ntp2945
Rp2946
(dp2947
g1631
g1475
sg1632
g1773
sg358
g1473
sbsS'gl.h'
p2948
g332
(g1627
g334
Ntp2949
Rp2950
(dp2951
g1631
g1639
sg1632
g2004
sg358
S'c:/marmalade/7.5/s3e/h/GLES/gl.h'
p2952
sbsS'zlib.h'
p2953
g332
(g1627
g334
Ntp2954
Rp2955
(dp2956
g1631
g1603
sg1632
g2342
sg358
g1604
sbsS'temp_defines_release.h'
p2957
g332
(g1627
g334
Ntp2958
Rp2959
(dp2960
g1631
(lp2961
sg1632
(lp2962
S"'generated files'"
p2963
asg358
S'c:/Marmalade/7.5/examples/GameTutorial/CPP/marm1/build_stage4_vc12/temp_defines_release.h'
p2964
sbsS'iwgl.mkf'
p2965
g332
(g1627
g334
Ntp2966
Rp2967
(dp2968
g1631
g1288
sg1632
g1649
sg358
g1286
sbsS'IwColour.h'
p2969
g332
(g1627
g334
Ntp2970
Rp2971
(dp2972
g1631
g1434
sg1632
g1773
sg358
g1478
sbsS's3eLibrary.h'
p2973
g332
(g1627
g334
Ntp2974
Rp2975
(dp2976
g1631
g1639
sg1632
g1866
sg358
S'c:/marmalade/7.5/s3e/h/ext/s3eLibrary.h'
p2977
sbsS'types.h'
p2978
g332
(g1627
g334
Ntp2979
Rp2980
(dp2981
g1631
g1639
sg1632
g1792
sg358
S'c:/marmalade/7.5/s3e/h/std/sys/types.h'
p2982
sbsS'ifaddrs.h'
p2983
g332
(g1627
g334
Ntp2984
Rp2985
(dp2986
g1631
g1639
sg1632
g1661
sg358
S'c:/marmalade/7.5/s3e/h/std/ifaddrs.h'
p2987
sbsS'strstream'
p2988
g332
(g1627
g334
Ntp2989
Rp2990
(dp2991
g1631
g1639
sg1632
g1640
sg358
S'c:/marmalade/7.5/s3e/h/std/c++/strstream'
p2992
sbsS'IwTween.cpp'
p2993
g332
(g1627
g334
Ntp2994
Rp2995
(dp2996
g1631
g1613
sg1632
g2165
sg358
g1614
sbsS'exception'
p2997
g332
(g1627
g334
Ntp2998
Rp2999
(dp3000
g1631
g1639
sg1632
g1640
sg358
S'c:/marmalade/7.5/s3e/h/std/c++/exception'
p3001
sbsS'Enemymanager.cpp'
p3002
g332
(g1627
g334
Ntp3003
Rp3004
(dp3005
g1631
g1201
sg1632
g1783
sg358
g1210
sbsS'rlocks.h'
p3006
g332
(g1627
g334
Ntp3007
Rp3008
(dp3009
g1631
g1639
sg1632
g1640
sg358
S'c:/marmalade/7.5/s3e/h/std/c++/rlocks.h'
p3010
sbsS'ioctl.h'
p3011
g332
(g1627
g334
Ntp3012
Rp3013
(dp3014
g1631
g1639
sg1632
g1792
sg358
S'c:/marmalade/7.5/s3e/h/std/sys/ioctl.h'
p3015
sbsS'sem.h'
p3016
g332
(g1627
g334
Ntp3017
Rp3018
(dp3019
g1631
g1639
sg1632
g1792
sg358
S'c:/marmalade/7.5/s3e/h/std/sys/sem.h'
p3020
sbsS'jinclude.h'
p3021
g332
(g1627
g334
Ntp3022
Rp3023
(dp3024
g1631
g1103
sg1632
g1727
sg358
g1110
sbsS'IwEvent.h'
p3025
g332
(g1627
g334
Ntp3026
Rp3027
(dp3028
g1631
g1498
sg1632
g1668
sg358
g1582
sbsS'IwOptimiseSize.h'
p3029
g332
(g1627
g334
Ntp3030
Rp3031
(dp3032
g1631
g1498
sg1632
g1668
sg358
g1547
sbsS'iwgxfont_public.defines.txt'
p3033
g332
(g1627
g334
Ntp3034
Rp3035
(dp3036
g1631
g1312
sg1632
g1633
sg358
g1328
sbsS'iconv.h'
p3037
g332
(g1627
g334
Ntp3038
Rp3039
(dp3040
g1631
g1639
sg1632
g1661
sg358
S'c:/marmalade/7.5/s3e/h/std/iconv.h'
p3041
sbsS's3eDevice.h'
p3042
g332
(g1627
g334
Ntp3043
Rp3044
(dp3045
g1631
g1639
sg1632
g1655
sg358
S'c:/marmalade/7.5/s3e/h/s3eDevice.h'
p3046
sbsS'IwGeomSphere.h'
p3047
g332
(g1627
g334
Ntp3048
Rp3049
(dp3050
g1631
g1334
sg1632
g1693
sg358
g1335
sbsS'tiniconv.mkf'
p3051
g332
(g1627
g334
Ntp3052
Rp3053
(dp3054
g1631
g1134
sg1632
g2118
sg358
g1132
sbsS'iw2dscenegraph.defines.txt'
p3055
g332
(g1627
g334
Ntp3056
Rp3057
(dp3058
g1631
g1276
sg1632
g1953
sg358
g1277
sbsS'jdct.h'
p3059
g332
(g1627
g334
Ntp3060
Rp3061
(dp3062
g1631
g1103
sg1632
g1727
sg358
g1114
sbsS'cctype'
p3063
g332
(g1627
g334
Ntp3064
Rp3065
(dp3066
g1631
g1639
sg1632
g1640
sg358
S'c:/marmalade/7.5/s3e/h/std/c++/cctype'
p3067
sbsS'IwSoundADPCM.cpp'
p3068
g332
(g1627
g334
Ntp3069
Rp3070
(dp3071
g1631
g1144
sg1632
g1679
sg358
g1177
sbsS's3eConfig.h'
p3072
g332
(g1627
g334
Ntp3073
Rp3074
(dp3075
g1631
g1639
sg1632
g1655
sg358
S'c:/marmalade/7.5/s3e/h/s3eConfig.h'
p3076
sbsS'IwHashString.h'
p3077
g332
(g1627
g334
Ntp3078
Rp3079
(dp3080
g1631
g1498
sg1632
g1668
sg358
g1563
sbsS'stat.h'
p3081
g332
(g1627
g334
Ntp3082
Rp3083
(dp3084
g1631
g1639
sg1632
g1792
sg358
S'c:/marmalade/7.5/s3e/h/std/sys/stat.h'
p3085
sbsS'byteswap.h'
p3086
g332
(g1627
g334
Ntp3087
Rp3088
(dp3089
g1631
g1639
sg1632
g1661
sg358
S'c:/marmalade/7.5/s3e/h/std/byteswap.h'
p3090
sbsS'iwresmanager.mkf'
p3091
g332
(g1627
g334
Ntp3092
Rp3093
(dp3094
g1631
g1421
sg1632
g1911
sg358
g1419
sbsS'IwUtilInitTerm.h'
p3095
g332
(g1627
g334
Ntp3096
Rp3097
(dp3098
g1631
g1498
sg1632
g1668
sg358
g1592
sbsS'pthread_1.h'
p3099
g332
(g1627
g334
Ntp3100
Rp3101
(dp3102
g1631
g1639
sg1632
g1640
sg358
S'c:/marmalade/7.5/s3e/h/std/c++/pthread.h'
p3103
sbsS'iw2d.mkf'
p3104
g332
(g1627
g334
Ntp3105
Rp3106
(dp3107
g1631
g1307
sg1632
g1732
sg358
g1305
sbsS'complex'
p3108
g332
(g1627
g334
Ntp3109
Rp3110
(dp3111
g1631
g1639
sg1632
g1640
sg358
S'c:/marmalade/7.5/s3e/h/std/c++/complex'
p3112
sbsS'algorithm'
p3113
g332
(g1627
g334
Ntp3114
Rp3115
(dp3116
g1631
g1639
sg1632
g1640
sg358
S'c:/marmalade/7.5/s3e/h/std/c++/algorithm'
p3117
sbsS's3e.icf'
p3118
g332
(g1627
g334
Ntp3119
Rp3120
(dp3121
g1631
g1639
sg1632
g1655
sg358
S'c:/marmalade/7.5/s3e/s3e.icf'
p3122
sbsS'resources.h'
p3123
g332
(g1627
g334
Ntp3124
Rp3125
(dp3126
g1631
g1201
sg1632
g1783
sg358
g1218
sbsS'IwGxFontState.h'
p3127
g332
(g1627
g334
Ntp3128
Rp3129
(dp3130
g1631
g1312
sg1632
g1633
sg358
g1317
sbsS'marmaladeexampleresources.mkf'
p3131
g332
(g1627
g334
Ntp3132
Rp3133
(dp3134
g1631
g1196
sg1632
(lp3135
g1192
asg358
g1194
sbsS'stdio.h'
p3136
g332
(g1627
g334
Ntp3137
Rp3138
(dp3139
g1631
g1639
sg1632
g1661
sg358
S'c:/marmalade/7.5/s3e/h/std/stdio.h'
p3140
sbsS'jmemsys.h'
p3141
g332
(g1627
g334
Ntp3142
Rp3143
(dp3144
g1631
g1103
sg1632
g1727
sg358
g1116
sbsS'ios'
p3145
g332
(g1627
g334
Ntp3146
Rp3147
(dp3148
g1631
g1639
sg1632
g1640
sg358
S'c:/marmalade/7.5/s3e/h/std/c++/ios'
p3149
sbsS'IwTween.h'
p3150
g332
(g1627
g334
Ntp3151
Rp3152
(dp3153
g1631
g1613
sg1632
g2165
sg358
g1611
sbsS'PVRTexTool.defines.txt'
p3154
g332
(g1627
g334
Ntp3155
Rp3156
(dp3157
g1631
g1262
sg1632
g2516
sg358
g1260
sbsS'stack'
p3158
g332
(g1627
g334
Ntp3159
Rp3160
(dp3161
g1631
g1639
sg1632
g1640
sg358
S'c:/marmalade/7.5/s3e/h/std/c++/stack'
p3162
sbsS'IwSoundParams.h'
p3163
g332
(g1627
g334
Ntp3164
Rp3165
(dp3166
g1631
g1144
sg1632
g1679
sg358
g1175
sbsS'new.h'
p3167
g332
(g1627
g334
Ntp3168
Rp3169
(dp3170
g1631
g1639
sg1632
g1640
sg358
S'c:/marmalade/7.5/s3e/h/std/c++/new.h'
p3171
sbsS's3eEMail.h'
p3172
g332
(g1627
g334
Ntp3173
Rp3174
(dp3175
g1631
g1639
sg1632
g1866
sg358
S'c:/marmalade/7.5/s3e/h/ext/s3eEMail.h'
p3176
sbsS's3eVideo.h'
p3177
g332
(g1627
g334
Ntp3178
Rp3179
(dp3180
g1631
g1639
sg1632
g1655
sg358
S'c:/marmalade/7.5/s3e/h/s3eVideo.h'
p3181
sbsS'pngconf.h'
p3182
g332
(g1627
g334
Ntp3183
Rp3184
(dp3185
g1631
g1089
sg1632
g2398
sg358
g1090
sbsS'pwd.h'
p3186
g332
(g1627
g334
Ntp3187
Rp3188
(dp3189
g1631
g1639
sg1632
g1661
sg358
S'c:/marmalade/7.5/s3e/h/std/pwd.h'
p3190
sbsS'IwOptimiseThumb.h'
p3191
g332
(g1627
g334
Ntp3192
Rp3193
(dp3194
g1631
g1498
sg1632
g1668
sg358
g1565
sbsS'gl3.h'
p3195
g332
(g1627
g334
Ntp3196
Rp3197
(dp3198
g1631
g1639
sg1632
g1964
sg358
S'c:/marmalade/7.5/s3e/h/GLES3/gl3.h'
p3199
sbsS'IwClip.h'
p3200
g332
(g1627
g334
Ntp3201
Rp3202
(dp3203
g1631
g1434
sg1632
g1773
sg358
g1447
sbsS'IwSoundInst.h'
p3204
g332
(g1627
g334
Ntp3205
Rp3206
(dp3207
g1631
g1144
sg1632
g1679
sg358
g1155
sbsS'iwresmanager.config.txt'
p3208
g332
(g1627
g334
Ntp3209
Rp3210
(dp3211
g1631
g1410
sg1632
g1911
sg358
g1422
sbsS'IwGxShaderTechnique.h'
p3212
g332
(g1627
g334
Ntp3213
Rp3214
(dp3215
g1631
g1434
sg1632
g1773
sg358
g1459
sbsS'IwCore.h'
p3216
g332
(g1627
g334
Ntp3217
Rp3218
(dp3219
g1631
g1498
sg1632
g1668
sg358
g1503
sbsS'cfloat'
p3220
g332
(g1627
g334
Ntp3221
Rp3222
(dp3223
g1631
g1639
sg1632
g1640
sg358
S'c:/marmalade/7.5/s3e/h/std/c++/cfloat'
p3224
sbsS'IwGeomMat2D.h'
p3225
g332
(g1627
g334
Ntp3226
Rp3227
(dp3228
g1631
g1334
sg1632
g1693
sg358
g1366
sbsS'IwAllocator.h'
p3229
g332
(g1627
g334
Ntp3230
Rp3231
(dp3232
g1631
g1498
sg1632
g1668
sg358
g1533
sbsS'Levelmanager.cpp'
p3233
g332
(g1627
g334
Ntp3234
Rp3235
(dp3236
g1631
g1201
sg1632
g1783
sg358
g1238
sbsS'IwPath.h'
p3237
g332
(g1627
g334
Ntp3238
Rp3239
(dp3240
g1631
g1498
sg1632
g1668
sg358
g1553
sbsS'iwgxfont.mkf'
p3241
g332
(g1627
g334
Ntp3242
Rp3243
(dp3244
g1631
g1323
sg1632
g1633
sg358
g1321
sbsS'IwTexture.h'
p3245
g332
(g1627
g334
Ntp3246
Rp3247
(dp3248
g1631
g1434
sg1632
g1773
sg358
g1437
sbsS'IwGeomVec.h.tpl'
p3249
g332
(g1627
g334
Ntp3250
Rp3251
(dp3252
g1631
g1334
sg1632
g1693
sg358
g1376
sbsS's3eAccelerometer.h'
p3253
g332
(g1627
g334
Ntp3254
Rp3255
(dp3256
g1631
g1639
sg1632
g1655
sg358
S'c:/marmalade/7.5/s3e/h/s3eAccelerometer.h'
p3257
sbsS'setjmp.h'
p3258
g332
(g1627
g334
Ntp3259
Rp3260
(dp3261
g1631
g1639
sg1632
g1661
sg358
S'c:/marmalade/7.5/s3e/h/std/setjmp.h'
p3262
sbsS'IwSoundParams.cpp'
p3263
g332
(g1627
g334
Ntp3264
Rp3265
(dp3266
g1631
g1144
sg1632
g1679
sg358
g1161
sbsS'IwFile.h'
p3267
g332
(g1627
g334
Ntp3268
Rp3269
(dp3270
g1631
g1498
sg1632
g1668
sg358
g1574
sbsS'IwTextParseable.h'
p3271
g332
(g1627
g334
Ntp3272
Rp3273
(dp3274
g1631
g1498
sg1632
g1668
sg358
g1521
sbsS'istream.h'
p3275
g332
(g1627
g334
Ntp3276
Rp3277
(dp3278
g1631
g1639
sg1632
g1640
sg358
S'c:/marmalade/7.5/s3e/h/std/c++/istream.h'
p3279
sbsS'Level.h'
p3280
g332
(g1627
g334
Ntp3281
Rp3282
(dp3283
g1631
g1201
sg1632
g1783
sg358
g1212
sbsS'stdint.h'
p3284
g332
(g1627
g334
Ntp3285
Rp3286
(dp3287
g1631
g1639
sg1632
g1661
sg358
S'c:/marmalade/7.5/s3e/h/std/stdint.h'
p3288
sbsS'semaphore.h'
p3289
g332
(g1627
g334
Ntp3290
Rp3291
(dp3292
g1631
g1639
sg1632
g1661
sg358
S'c:/marmalade/7.5/s3e/h/std/semaphore.h'
p3293
sbsS'ctime'
p3294
g332
(g1627
g334
Ntp3295
Rp3296
(dp3297
g1631
g1639
sg1632
g1640
sg358
S'c:/marmalade/7.5/s3e/h/std/c++/ctime'
p3298
sbsS'sstream'
p3299
g332
(g1627
g334
Ntp3300
Rp3301
(dp3302
g1631
g1639
sg1632
g1640
sg358
S'c:/marmalade/7.5/s3e/h/std/c++/sstream'
p3303
sbsS'IwGeomFBBox.h'
p3304
g332
(g1627
g334
Ntp3305
Rp3306
(dp3307
g1631
g1334
sg1632
g1693
sg358
g1360
sbsS'IwDebugPrim.h'
p3308
g332
(g1627
g334
Ntp3309
Rp3310
(dp3311
g1631
g1434
sg1632
g1773
sg358
g1432
sbsS'GameScene.cpp'
p3312
g332
(g1627
g334
Ntp3313
Rp3314
(dp3315
g1631
g1201
sg1632
g1783
sg358
g1248
sbsS'IwGxFontContainer.h'
p3316
g332
(g1627
g334
Ntp3317
Rp3318
(dp3319
g1631
g1312
sg1632
g1633
sg358
g1319
sbsS'IwGeomSVec3.h'
p3320
g332
(g1627
g334
Ntp3321
Rp3322
(dp3323
g1631
g1334
sg1632
g1693
sg358
g1337
sbsS'hero.h'
p3324
g332
(g1627
g334
Ntp3325
Rp3326
(dp3327
g1631
g1201
sg1632
g1783
sg358
g1206
sbsS'iw2dscenegraphcore.mkf'
p3328
g332
(g1627
g334
Ntp3329
Rp3330
(dp3331
g1631
g1488
sg1632
g2751
sg358
g1486
sbsS's3eExt.h'
p3332
g332
(g1627
g334
Ntp3333
Rp3334
(dp3335
g1631
g1639
sg1632
g1655
sg358
S'c:/marmalade/7.5/s3e/h/s3eExt.h'
p3336
sbsS'IwGeomFVec3.h'
p3337
g332
(g1627
g334
Ntp3338
Rp3339
(dp3340
g1631
g1334
sg1632
g1693
sg358
g1396
sbsS'streambuf'
p3341
g332
(g1627
g334
Ntp3342
Rp3343
(dp3344
g1631
g1639
sg1632
g1640
sg358
S'c:/marmalade/7.5/s3e/h/std/c++/streambuf'
p3345
sbsS's3eMetrics.h'
p3346
g332
(g1627
g334
Ntp3347
Rp3348
(dp3349
g1631
g1639
sg1632
g1866
sg358
S'c:/marmalade/7.5/s3e/h/ext/s3eMetrics.h'
p3350
sbsS'Shark.cpp'
p3351
g332
(g1627
g334
Ntp3352
Rp3353
(dp3354
g1631
g1201
sg1632
g1783
sg358
g1226
sbsS'IwGxFont.h'
p3355
g332
(g1627
g334
Ntp3356
Rp3357
(dp3358
g1631
g1312
sg1632
g1633
sg358
g1326
sbsS's3eSecureStorage.h'
p3359
g332
(g1627
g334
Ntp3360
Rp3361
(dp3362
g1631
g1639
sg1632
g1655
sg358
S'c:/marmalade/7.5/s3e/h/s3eSecureStorage.h'
p3363
sbsS'string.h'
p3364
g332
(g1627
g334
Ntp3365
Rp3366
(dp3367
g1631
g1639
sg1632
g1661
sg358
S'c:/marmalade/7.5/s3e/h/std/string.h'
p3368
sbsS'IwResource.h'
p3369
g332
(g1627
g334
Ntp3370
Rp3371
(dp3372
g1631
g1498
sg1632
g1668
sg358
g1594
sbsS'IwGeomSVec2.h'
p3373
g332
(g1627
g334
Ntp3374
Rp3375
(dp3376
g1631
g1334
sg1632
g1693
sg358
g1332
sbsS'libjpeg.mkf'
p3377
g332
(g1627
g334
Ntp3378
Rp3379
(dp3380
g1631
g1099
sg1632
(lp3381
g1095
asg358
g1097
sbsS'IwGxDebug.h'
p3382
g332
(g1627
g334
Ntp3383
Rp3384
(dp3385
g1631
g1434
sg1632
g1773
sg358
g1457
sbsS'float.h'
p3386
g332
(g1627
g334
Ntp3387
Rp3388
(dp3389
g1631
g1639
sg1632
g1661
sg358
S'c:/marmalade/7.5/s3e/h/std/float.h'
p3390
sbsS'iomanip.h'
p3391
g332
(g1627
g334
Ntp3392
Rp3393
(dp3394
g1631
g1639
sg1632
g1640
sg358
S'c:/marmalade/7.5/s3e/h/std/c++/iomanip.h'
p3395
sbsS'enemy.h'
p3396
g332
(g1627
g334
Ntp3397
Rp3398
(dp3399
g1631
g1201
sg1632
g1783
sg358
g1204
sbsS'IwKeymap.h'
p3400
g332
(g1627
g334
Ntp3401
Rp3402
(dp3403
g1631
g1498
sg1632
g1668
sg358
g1539
sbsS'IwDebug.h'
p3404
g332
(g1627
g334
Ntp3405
Rp3406
(dp3407
g1631
g1498
sg1632
g1668
sg358
g1527
sbsS'IwVariableBitField.h'
p3408
g332
(g1627
g334
Ntp3409
Rp3410
(dp3411
g1631
g1498
sg1632
g1668
sg358
g1561
sbsS'IwGeomMenu.h'
p3412
g332
(g1627
g334
Ntp3413
Rp3414
(dp3415
g1631
g1334
sg1632
g1693
sg358
g1390
sbsS'IwDivTable.h'
p3416
g332
(g1627
g334
Ntp3417
Rp3418
(dp3419
g1631
g1498
sg1632
g1668
sg358
g1517
sbsS'ctype.h'
p3420
g332
(g1627
g334
Ntp3421
Rp3422
(dp3423
g1631
g1639
sg1632
g1661
sg358
S'c:/marmalade/7.5/s3e/h/std/ctype.h'
p3424
sbsS'mainMenu.cpp'
p3425
g332
(g1627
g334
Ntp3426
Rp3427
(dp3428
g1631
g1201
sg1632
g1783
sg358
g1220
sbsS'IwResGroup.h'
p3429
g332
(g1627
g334
Ntp3430
Rp3431
(dp3432
g1631
g1410
sg1632
g1911
sg358
g1424
sbsS'signal_1.h'
p3433
g332
(g1627
g334
Ntp3434
Rp3435
(dp3436
g1631
g1639
sg1632
g1792
sg358
S'c:/marmalade/7.5/s3e/h/std/sys/signal.h'
p3437
sbsS'IwSoundData.cpp'
p3438
g332
(g1627
g334
Ntp3439
Rp3440
(dp3441
g1631
g1144
sg1632
g1679
sg358
g1181
sbsS'main.cpp'
p3442
g332
(g1627
g334
Ntp3443
Rp3444
(dp3445
g1631
g1201
sg1632
g1783
sg358
g1224
sbsS'shm.h'
p3446
g332
(g1627
g334
Ntp3447
Rp3448
(dp3449
g1631
g1639
sg1632
g1792
sg358
S'c:/marmalade/7.5/s3e/h/std/sys/shm.h'
p3450
sbsS'IwManagedList.h'
p3451
g332
(g1627
g334
Ntp3452
Rp3453
(dp3454
g1631
g1498
sg1632
g1668
sg358
g1511
sbsS'prctl.h'
p3455
g332
(g1627
g334
Ntp3456
Rp3457
(dp3458
g1631
g1639
sg1632
g1792
sg358
S'c:/marmalade/7.5/s3e/h/std/sys/prctl.h'
p3459
sbsS'IwGxStream.h'
p3460
g332
(g1627
g334
Ntp3461
Rp3462
(dp3463
g1631
g1434
sg1632
g1773
sg358
g1445
sbsS'temp_defines_debug.h'
p3464
g332
(g1627
g334
Ntp3465
Rp3466
(dp3467
g1631
(lp3468
sg1632
(lp3469
g2963
asg358
S'c:/Marmalade/7.5/examples/GameTutorial/CPP/marm1/build_stage4_vc12/temp_defines_debug.h'
p3470
sbsS'utility'
p3471
g332
(g1627
g334
Ntp3472
Rp3473
(dp3474
g1631
g1639
sg1632
g1640
sg358
S'c:/marmalade/7.5/s3e/h/std/c++/utility'
p3475
sbsS'input.h'
p3476
g332
(g1627
g334
Ntp3477
Rp3478
(dp3479
g1631
g1201
sg1632
g1783
sg358
g1214
sbsS'Levelmanager.h'
p3480
g332
(g1627
g334
Ntp3481
Rp3482
(dp3483
g1631
g1201
sg1632
g1783
sg358
g1234
sbsS'IwGeomLegacy.h'
p3484
g332
(g1627
g334
Ntp3485
Rp3486
(dp3487
g1631
g1334
sg1632
g1693
sg358
g1354
sbsS'IwTPage.h'
p3488
g332
(g1627
g334
Ntp3489
Rp3490
(dp3491
g1631
g1434
sg1632
g1773
sg358
g1482
sbsS'IwResSerialise.h'
p3492
g332
(g1627
g334
Ntp3493
Rp3494
(dp3495
g1631
g1410
sg1632
g1911
sg358
g1411
sbsS's3eCrypto.h'
p3496
g332
(g1627
g334
Ntp3497
Rp3498
(dp3499
g1631
g1639
sg1632
g1655
sg358
S'c:/marmalade/7.5/s3e/h/s3eCrypto.h'
p3500
sbsS's3eKeyboard.h'
p3501
g332
(g1627
g334
Ntp3502
Rp3503
(dp3504
g1631
g1639
sg1632
g1655
sg358
S'c:/marmalade/7.5/s3e/h/s3eKeyboard.h'
p3505
sbsS'fcntl.h'
p3506
g332
(g1627
g334
Ntp3507
Rp3508
(dp3509
g1631
g1639
sg1632
g1661
sg358
S'c:/marmalade/7.5/s3e/h/std/fcntl.h'
p3510
sbsS'Iw2DSceneGraphCore.h'
p3511
g332
(g1627
g334
Ntp3512
Rp3513
(dp3514
g1631
g1491
sg1632
g2751
sg358
g1489
sbsS'memory.h'
p3515
g332
(g1627
g334
Ntp3516
Rp3517
(dp3518
g1631
g1639
sg1632
g1661
sg358
S'c:/marmalade/7.5/s3e/h/std/memory.h'
p3519
sbsS'pthread.h'
p3520
g332
(g1627
g334
Ntp3521
Rp3522
(dp3523
g1631
g1639
sg1632
g1661
sg358
S'c:/marmalade/7.5/s3e/h/std/pthread.h'
p3524
sbsS'IwGeomIntersect.h'
p3525
g332
(g1627
g334
Ntp3526
Rp3527
(dp3528
g1631
g1334
sg1632
g1693
sg358
g1380
sbsS'IwTextParserITX.h'
p3529
g332
(g1627
g334
Ntp3530
Rp3531
(dp3532
g1631
g1498
sg1632
g1668
sg358
g1537
sbsS'IwClip.inl'
p3533
g332
(g1627
g334
Ntp3534
Rp3535
(dp3536
g1631
g1434
sg1632
g1773
sg358
g1467
sbsS'Iw2DSceneGraph.cpp'
p3537
g332
(g1627
g334
Ntp3538
Rp3539
(dp3540
g1631
g1276
sg1632
g1953
sg358
g1274
sbsS'ostream.h'
p3541
g332
(g1627
g334
Ntp3542
Rp3543
(dp3544
g1631
g1639
sg1632
g1640
sg358
S'c:/marmalade/7.5/s3e/h/std/c++/ostream.h'
p3545
sbsS'stl_user_config.h'
p3546
g332
(g1627
g334
Ntp3547
Rp3548
(dp3549
g1631
g1639
sg1632
g1640
sg358
S'c:/marmalade/7.5/s3e/h/std/c++/stl_user_config.h'
p3550
sbsS'IwProfileMenu.h'
p3551
g332
(g1627
g334
Ntp3552
Rp3553
(dp3554
g1631
g1498
sg1632
g1668
sg358
g1513
sbsS'MarmaladeVersion.h'
p3555
g332
(g1627
g334
Ntp3556
Rp3557
(dp3558
g1631
g1639
sg1632
g1655
sg358
S'c:/marmalade/7.5/s3e/h/MarmaladeVersion.h'
p3559
sbsS'IwResHandlerWAV.h'
p3560
g332
(g1627
g334
Ntp3561
Rp3562
(dp3563
g1631
g1144
sg1632
g1679
sg358
g1149
sbsS'gl3platform.h'
p3564
g332
(g1627
g334
Ntp3565
Rp3566
(dp3567
g1631
g1639
sg1632
g1964
sg358
S'c:/marmalade/7.5/s3e/h/GLES3/gl3platform.h'
p3568
sbsS'ios.h'
p3569
g332
(g1627
g334
Ntp3570
Rp3571
(dp3572
g1631
g1639
sg1632
g1640
sg358
S'c:/marmalade/7.5/s3e/h/std/c++/ios.h'
p3573
sbsS'IwImageHelper.h'
p3574
g332
(g1627
g334
Ntp3575
Rp3576
(dp3577
g1631
g1498
sg1632
g1668
sg358
g1509
sbsS'hash_set'
p3578
g332
(g1627
g334
Ntp3579
Rp3580
(dp3581
g1631
g1639
sg1632
g1640
sg358
S'c:/marmalade/7.5/s3e/h/std/c++/hash_set'
p3582
sbsS'IwGeomFQuat.h'
p3583
g332
(g1627
g334
Ntp3584
Rp3585
(dp3586
g1631
g1334
sg1632
g1693
sg358
g1344
sbsS'jmorecfg.h'
p3587
g332
(g1627
g334
Ntp3588
Rp3589
(dp3590
g1631
g1103
sg1632
g1727
sg358
g1112
sbsS'eglplatform.h'
p3591
g332
(g1627
g334
Ntp3592
Rp3593
(dp3594
g1631
g1639
sg1632
g1996
sg358
S'c:/marmalade/7.5/s3e/h/EGL/eglplatform.h'
p3595
sbsS'cmath'
p3596
g332
(g1627
g334
Ntp3597
Rp3598
(dp3599
g1631
g1639
sg1632
g1640
sg358
S'c:/marmalade/7.5/s3e/h/std/c++/cmath'
p3600
sbsS'math_gcc.h'
p3601
g332
(g1627
g334
Ntp3602
Rp3603
(dp3604
g1631
g1639
sg1632
g1661
sg358
S'c:/marmalade/7.5/s3e/h/std/math_gcc.h'
p3605
sbsS's3eMemory.h'
p3606
g332
(g1627
g334
Ntp3607
Rp3608
(dp3609
g1631
g1639
sg1632
g1655
sg358
S'c:/marmalade/7.5/s3e/h/s3eMemory.h'
p3610
sbsS'strings.h'
p3611
g332
(g1627
g334
Ntp3612
Rp3613
(dp3614
g1631
g1639
sg1632
g1661
sg358
S'c:/marmalade/7.5/s3e/h/std/strings.h'
p3615
sbsS's3eFile.h'
p3616
g332
(g1627
g334
Ntp3617
Rp3618
(dp3619
g1631
g1639
sg1632
g1655
sg358
S'c:/marmalade/7.5/s3e/h/s3eFile.h'
p3620
sbsS'IwGxTypes.h'
p3621
g332
(g1627
g334
Ntp3622
Rp3623
(dp3624
g1631
g1434
sg1632
g1773
sg358
g1471
sbsS'cerrno'
p3625
g332
(g1627
g334
Ntp3626
Rp3627
(dp3628
g1631
g1639
sg1632
g1640
sg358
S'c:/marmalade/7.5/s3e/h/std/c++/cerrno'
p3629
sbsS'IwSoundManager.cpp'
p3630
g332
(g1627
g334
Ntp3631
Rp3632
(dp3633
g1631
g1144
sg1632
g1679
sg358
g1157
sbsS'main.h'
p3634
g332
(g1627
g334
Ntp3635
Rp3636
(dp3637
g1631
g1201
sg1632
g1783
sg358
g1202
sbsS'soundengine.mkf'
p3638
g332
(g1627
g334
Ntp3639
Rp3640
(dp3641
g1631
g1189
sg1632
g1679
sg358
g1187
sbsS'resource.h'
p3642
g332
(g1627
g334
Ntp3643
Rp3644
(dp3645
g1631
g1639
sg1632
g1792
sg358
S'c:/marmalade/7.5/s3e/h/std/sys/resource.h'
p3646
sbsS'clocale'
p3647
g332
(g1627
g334
Ntp3648
Rp3649
(dp3650
g1631
g1639
sg1632
g1640
sg358
S'c:/marmalade/7.5/s3e/h/std/c++/clocale'
p3651
sbsS'pvrtextool.mkf'
p3652
g332
(g1627
g334
Ntp3653
Rp3654
(dp3655
g1631
g1269
sg1632
g2274
sg358
g1267
sbsS'csetjmp'
p3656
g332
(g1627
g334
Ntp3657
Rp3658
(dp3659
g1631
g1639
sg1632
g1640
sg358
S'c:/marmalade/7.5/s3e/h/std/c++/csetjmp'
p3660
sbsS'netdb.h'
p3661
g332
(g1627
g334
Ntp3662
Rp3663
(dp3664
g1631
g1639
sg1632
g1661
sg358
S'c:/marmalade/7.5/s3e/h/std/netdb.h'
p3665
sbsS's3eAndroidJNI.h'
p3666
g332
(g1627
g334
Ntp3667
Rp3668
(dp3669
g1631
g1639
sg1632
g1866
sg358
S'c:/marmalade/7.5/s3e/h/ext/s3eAndroidJNI.h'
p3670
sbsS'stdexcept'
p3671
g332
(g1627
g334
Ntp3672
Rp3673
(dp3674
g1631
g1639
sg1632
g1640
sg358
S'c:/marmalade/7.5/s3e/h/std/c++/stdexcept'
p3675
sbsS'math.h'
p3676
g332
(g1627
g334
Ntp3677
Rp3678
(dp3679
g1631
g1639
sg1632
g1661
sg358
S'c:/marmalade/7.5/s3e/h/std/math.h'
p3680
sbsS'stdbool.h'
p3681
g332
(g1627
g334
Ntp3682
Rp3683
(dp3684
g1631
g1639
sg1632
g1661
sg358
S'c:/marmalade/7.5/s3e/h/std/stdbool.h'
p3685
sbsS'uio.h'
p3686
g332
(g1627
g334
Ntp3687
Rp3688
(dp3689
g1631
g1639
sg1632
g1792
sg358
S'c:/marmalade/7.5/s3e/h/std/sys/uio.h'
p3690
sbsS'IwUncopyable.h'
p3691
g332
(g1627
g334
Ntp3692
Rp3693
(dp3694
g1631
g1498
sg1632
g1668
sg358
g1576
sbssS'juice_build_type'
p3695
g4
sS'tests'
p3696
(lp3697
sS'project_name'
p3698
g340
sS'root_file'
p3699
g136
sS'current_root'
p3700
S'c:/Marmalade/7.5/examples/GameTutorial/CPP/marm1'
p3701
sS'dependencies'
p3702
(lp3703
sS'include_paths'
p3704
(lp3705
S'c:/marmalade/7.5/modules/iw2d/h'
p3706
aS'c:/marmalade/7.5/modules/iwgx/h'
p3707
aS'c:/marmalade/7.5/modules/iwgl/h'
p3708
aS'c:/marmalade/7.5/modules/iwutil/h'
p3709
aS'c:/marmalade/7.5/modules/third_party/libjpeg/h'
p3710
aS'c:/marmalade/7.5/modules/third_party/zlib/h'
p3711
aS'c:/marmalade/7.5/modules/third_party/libpng/h'
p3712
aS'c:/marmalade/7.5/modules/iwgeom/h'
p3713
aS'c:/marmalade/7.5/modules/iwresmanager/h'
p3714
aS'c:/marmalade/7.5/extensions/pvrtextool/h'
p3715
aS'c:/marmalade/7.5/modules/iwgxfont/h'
p3716
aS'c:/marmalade/7.5/modules/third_party/tiniconv/source'
p3717
aS'c:/marmalade/7.5/modules/iw2dscenegraph/h'
p3718
aS'c:/marmalade/7.5/modules/iw2dscenegraphcore/h'
p3719
aS'c:/marmalade/7.5/modules/iwtween/h'
p3720
aS'c:/marmalade/7.5/examples/gametutorial/cpp/modules/soundengine/h'
p3721
aS'c:/marmalade/7.5/examples/gametutorial/cpp/modules/soundengine/source'
p3722
aS'c:/marmalade/7.5/s3e/h'
p3723
aS'c:/marmalade/7.5/s3e/h/ext'
p3724
aS'c:/marmalade/7.5/s3e/h/std'
p3725
aS'c:/marmalade/7.5/s3e/h/std/c++'
p3726
aS'c:/marmalade/7.5/s3e/h/ext_legacy'
p3727
aS'c:/marmalade/7.5/s3e/h/legacy'
p3728
asS'weak_frameworks'
p3729
(lp3730
sS'extprojects'
p3731
(dp3732
sg602
(dp3733
g596
(lp3734
(S'c:/Marmalade/7.5/examples/GameTutorial/CPP/marm1/data/audio'
p3735
S'audio'
p3736
I0
tp3737
a(S'c:/Marmalade/7.5/examples/GameTutorial/CPP/marm1/data/textures'
p3738
S'textures'
p3739
I0
tp3740
a(S'c:/Marmalade/7.5/examples/GameTutorial/CPP/marm1/data/fonts'
p3741
S'fonts'
p3742
I0
tp3743
a(S'c:/Marmalade/7.5/examples/GameTutorial/CPP/marm1/data-ram/data-gles1,c:/Marmalade/7.5/examples/GameTutorial/CPP/marm1/data'
p3744
S'.'
p3745
I0
tp3746
assS'macro_types'
p3747
(dp3748
g531
I1
sg532
I0
sg533
I0
sg534
I0
sg536
I0
sg537
I0
sg538
I0
sg539
I0
sg540
I0
sg542
I0
sg543
I0
sg544
I0
sg545
I0
sg546
I0
sg548
I0
sg550
I0
sg551
I0
sg552
I0
sg553
I0
sg554
I0
sg555
I0
sg556
I0
sg557
I0
sg558
I1
sg559
I0
sg560
I0
sg561
I0
sg562
I0
sg563
I01
sg564
I1
sg565
I0
sg566
I0
sg567
I0
sg568
I0
sg569
I0
sg570
I0
sg571
I0
ssS'commands'
p3749
(lp3750
sg604
(g1076
S'VC12'
p3751
S'X86ARMAARCH64'
p3752
tp3753
sS'build_libs'
p3754
(dp3755
sg606
g0
sS'frameworks'
p3756
(lp3757
sS'environ'
p3758
(dp3759
sS'target_name_debug'
p3760
g340
sS'builders'
p3761
(dp3762
g596
(dp3763
S'.S'
p3764
(dp3765
S'gcc_aarch64'
p3766
(lp3767
S'.obj'
p3768
aS'echo AARCH64 Assembling(GCC) ${SOURCE}...'
p3769
aS'c:/marmalade/7.5/s3e\\gcc\\win32\\aarch64\\bin\\aarch64-none-elf-gcc -c -o ${TARGET} ${SOURCE}'
p3770
asS'rvct'
p3771
(lp3772
g3768
aS'echo ARM Assembling(RVCT) ${SOURCE}...'
p3773
aS'c:/marmalade/7.5/s3e\\rvct\\bin\\armasm -o ${TARGET} ${SOURCE}'
p3774
asg454
(lp3775
g3768
aS'echo ARM Assembling(GCC) ${SOURCE}...'
p3776
aS'c:/marmalade/7.5/s3e\\gcc\\win32\\arm\\bin\\arm-none-eabi-gcc -c -o ${TARGET} ${SOURCE}'
p3777
asS'ppu'
p3778
(lp3779
S'.a'
p3780
aS'echo PPU Assembling(SNC) ${SOURCE}...'
p3781
aS'c:/marmalade/7.5/s3e\\rvct\\bin\\armasm -o ${TARGET} ${SOURCE}'
p3782
assS'.s'
p3783
g3765
sS'.vp'
p3784
(lp3785
NaS'"C:/Marmalade/7.5/s3e/python/python.exe" "c:/marmalade/7.5/modules/iwgx/tools/compile_shaders.py" ${SOURCE}'
p3786
asssS'extproject_names'
p3787
(lp3788
sbtp3789
.