((dp0
S'arm_dbg_args'
p1
S'-via:"c:\\Marmalade\\7.5\\examples\\GameTutorial\\CPP\\marm1\\build_stage4_vc12\\Stage4_vc12_arm_debug.via" -qemu'
p2
sS'game-icf'
p3
S''
p4
sS'dist'
p5
NsS'csproj'
p6
g4
sS'module_path_append'
p7
NsS'global_path'
p8
S'c:\\marmalade\\7.5\\examples\\gametutorial\\cpp'
p9
sS'system_path'
p10
S'c:\\marmalade\\7.5\\s3e\\makefile_builder'
p11
sS'android_x86_dbg_args'
p12
S'../../tools/DeployTool/DeployTool.exe --dir "c:\\Marmalade\\7.5\\examples\\GameTutorial\\CPP\\marm1\\build_stage4_vc12"'
p13
sS'aarch64-arch-mod'
p14
g4
sS'no-emit'
p15
NsS'arm-float-abi'
p16
g4
sS'arm_rel_rtsm_args'
p17
S'-via:"c:\\Marmalade\\7.5\\examples\\GameTutorial\\CPP\\marm1\\build_stage4_vc12\\Stage4_vc12_arm_release.via" -qemu'
p18
sS'amd64'
p19
NsS'line-width'
p20
I80
sS'gcc_dbg_args'
p21
S'-via:"c:\\Marmalade\\7.5\\examples\\GameTutorial\\CPP\\marm1\\build_stage4_vc12\\Stage4_vc12_gcc_debug.via" -qemu'
p22
sS'android-x86'
p23
NsS'x86_dbg_exe'
p24
S'c:/marmalade/7.5/s3e\\win32\\s3e_simulator_debug.exe'
p25
sS'disable-runtime-checks'
p26
NsS'release'
p27
NsS'no-make'
p28
NsS'xcode-x86-build-settings'
p29
g4
sS'optimise-size'
p30
NsS'fat'
p31
NsS'output-name-debug'
p32
g4
sS'arm-fpu'
p33
g4
sS'proj_name'
p34
S'Stage4_vc12'
p35
sS'rvct-version'
p36
S'none'
p37
sS'compiler'
p38
g4
sS'execute'
p39
NsS'compile-static'
p40
NsS'msvc-project'
p41
I01
sS'buildenv'
p42
S'VC12'
p43
sS'quick'
p44
NsS'module_path'
p45
(lp46
S'c:/Marmalade/7.5/examples/GameTutorial/CPP/modules'
p47
asS'mkf_default'
p48
S's3e-default.mkf'
p49
sS'use-release-std-libs'
p50
NsS'using_perforce'
p51
I00
sS'tizen-x86'
p52
NsS'mips-s3e'
p53
NsS's3e-api-lib-name'
p54
S's3e_api_iwgl'
p55
sS'ios-no-pic'
p56
NsS'shared-arm-lib'
p57
NsS'arm-cpu'
p58
g4
sS'compile-thumb'
p59
NsS'no-ide'
p60
NsS'msvc-version'
p61
S'6.0'
p62
sS'arm'
p63
NsS'builddir'
p64
g4
sS'compile-debug-as-release'
p65
I0
sS'arm-arch'
p66
g4
sS'brief'
p67
NsS'dll'
p68
NsS'buildenv-toolset'
p69
g4
sS'version'
p70
NsS'aarch64-arch'
p71
g4
sS'ccache'
p72
I0
sS'offline'
p73
NsS'ios-version'
p74
g4
sS'hub_data'
p75
g4
sS'fake_vc_call'
p76
I01
sS'jobs'
p77
I0
sS'linkflags'
p78
NsS'gcc_aarch64_dbg_args'
p79
g13
sS'debug'
p80
NsS'xcode-build-order'
p81
g4
sS'gcc_aarch64_rel_rtsm_args'
p82
S'-via:"c:\\Marmalade\\7.5\\examples\\GameTutorial\\CPP\\marm1\\build_stage4_vc12\\Stage4_vc12_gcc_aarch64_release.via" -qemu'
p83
sS'gcc_rel_rtsm_args'
p84
S'-via:"c:\\Marmalade\\7.5\\examples\\GameTutorial\\CPP\\marm1\\build_stage4_vc12\\Stage4_vc12_gcc_release.via" -qemu'
p85
sS'done_defaults'
p86
I1
sS'path'
p87
NsS's3e-data-dir'
p88
S'c:/Marmalade/7.5/examples/GameTutorial/CPP/marm1\\data'
p89
sS'enable-exceptions'
p90
NsS'osx-dll'
p91
NsS'extension'
p92
g4
sS'no-vc6'
p93
NsS'aarch64'
p94
NsS'win32-console'
p95
NsS'dist-format'
p96
g4
sS's3e-force-arch'
p97
NsS'dump_defines'
p98
NsS'use-shared-std-libs'
p99
NsS'gcc-version'
p100
g4
sS'x86_dbg_args'
p101
S'-via:"c:\\Marmalade\\7.5\\examples\\GameTutorial\\CPP\\marm1\\build_stage4_vc12\\Stage4_vc12_debug.via"'
p102
sS'tizen_x86_dbg_args'
p103
g13
sS'arm-debugger'
p104
g4
sS'use_temp_extension'
p105
NsS'verbose'
p106
I0
sS'log'
p107
NsS'no-strip'
p108
NsS'rebuild'
p109
NsS'mips_dbg_args'
p110
g13
sS'win32-simulator-dll'
p111
NsS'strict'
p112
NsS'xcode-aarch64-build-settings'
p113
g4
sS'enable-global-path'
p114
NsS'gcc_aarch64_rel_args'
p115
g13
sS'cflags'
p116
(lp117
S'-std=gnu++0x'
p118
asS'dist-dir'
p119
g4
sS'xcode-arm-build-settings'
p120
g4
sS'jflags'
p121
NsS'csprojSDKRefs'
p122
g4
sS'tizen_x86_rel_exe'
p123
S'c:\\marmalade\\7.5\\s3e\\makefile_builder\\tool_launcher.exe'
p124
sS'test-assets'
p125
g4
sS'distcc'
p126
NsS'external-compiler'
p127
NsS'no-distcc'
p128
NsS'preinclude'
p129
NsS'using_sdk'
p130
I01
sS'nologo'
p131
NsS'warn-level'
p132
I2
sS'mips_dbg_exe'
p133
g124
sS'mkb_in'
p134
S'c:/Marmalade/7.5/examples/GameTutorial/CPP/marm1/Stage4.mkb'
p135
sS'tizen_x86_dbg_exe'
p136
g124
sS'arm_dbg_exe'
p137
S'c:/marmalade/7.5/s3e\\bin\\armdebug.exe'
p138
sS'mdev-first'
p139
NsS'csprojDLLRef'
p140
NsS'tizen_x86_rel_args'
p141
g13
sS'android_x86_dbg_exe'
p142
g124
sS'test-config'
p143
g4
sS'list-targets'
p144
NsS'arm_rel_exe'
p145
g124
sS'arm_rel_args'
p146
g13
sS'makedeps'
p147
NsS'android_x86_rel_exe'
p148
g124
sS'default-buildenv'
p149
S'vc12'
p150
sS'x86_rel_exe'
p151
g25
sS'preprocess-java'
p152
NsS'mips_rel_args'
p153
g13
sS'defines'
p154
NsS'lib'
p155
NsS'non-interactive'
p156
NsS'global_argv'
p157
(lp158
S'C:\\Marmalade\\7.5\\s3e\\makefile_builder\\mkb.py'
p159
aS'c:/Marmalade/7.5/examples/GameTutorial/CPP/marm1/Stage4.mkb'
p160
aS'--buildenv=VC12'
p161
aS'--fake-vc-call'
p162
aS'--default-buildenv=vc12'
p163
aS'--msvc-project'
p164
asS'make'
p165
NsS'optimise-speed'
p166
NsS'internal'
p167
NsS'enable-stdinc'
p168
NsS'deploy-only'
p169
NsS'x86'
p170
NsS'deploy'
p171
g4
sS'x86_run_exe'
p172
S'c:/marmalade/7.5/s3e\\win32\\s3e_console.exe'
p173
sS'cxxflags'
p174
NsS'x86_rel_args'
p175
S'-via:"c:\\Marmalade\\7.5\\examples\\GameTutorial\\CPP\\marm1\\build_stage4_vc12\\Stage4_vc12_release.via"'
p176
sS'gcc_rel_args'
p177
g13
sS'mips'
p178
NsS'xcode-build-settings'
p179
g4
sS'incredibuild'
p180
NsS'strict-compile'
p181
NsS'use-auto-subdirs'
p182
NsS'mips_rel_exe'
p183
g124
sS'android_x86_rel_args'
p184
g13
sS'app-icf'
p185
g4
sS'deployargs'
p186
NsS'iosnativedebug'
p187
NsS'use_prebuilt'
p188
NsS'mkf_in'
p189
(lp190
S'c:\\marmalade\\7.5\\s3e\\s3e-default.mkf'
p191
aS'c:\\marmalade\\7.5\\modules\\iw2d\\iw2d.mkf'
p192
aS'c:\\marmalade\\7.5\\modules\\iwgx\\iwgx.mkf'
p193
aS'c:\\marmalade\\7.5\\modules\\iwgl\\iwgl.mkf'
p194
aS'c:\\marmalade\\7.5\\modules\\iwutil\\iwutil.mkf'
p195
aS'c:\\marmalade\\7.5\\modules\\third_party\\libjpeg\\libjpeg.mkf'
p196
aS'c:\\marmalade\\7.5\\modules\\third_party\\libpng\\libpng.mkf'
p197
aS'c:\\marmalade\\7.5\\modules\\third_party\\zlib\\zlib.mkf'
p198
aS'c:\\marmalade\\7.5\\modules\\iwgeom\\iwgeom.mkf'
p199
aS'c:\\marmalade\\7.5\\modules\\iwresmanager\\iwresmanager.mkf'
p200
aS'c:\\marmalade\\7.5\\extensions\\pvrtextool\\pvrtextool.mkf'
p201
aS'c:\\marmalade\\7.5\\modules\\iwgxfont\\iwgxfont.mkf'
p202
aS'c:\\marmalade\\7.5\\modules\\third_party\\tiniconv\\tiniconv.mkf'
p203
aS'c:\\marmalade\\7.5\\modules\\iw2dscenegraph\\iw2dscenegraph.mkf'
p204
aS'c:\\marmalade\\7.5\\modules\\iw2dscenegraphcore\\iw2dscenegraphcore.mkf'
p205
aS'c:\\marmalade\\7.5\\modules\\iwtween\\iwtween.mkf'
p206
aS'c:\\marmalade\\7.5\\examples\\gametutorial\\cpp\\modules\\soundengine\\soundengine.mkf'
p207
aS'c:\\marmalade\\7.5\\examples\\marmaladeexampleresources\\marmaladeexampleresources.mkf'
p208
asS'strict-mkb'
p209
NsS'executeargs'
p210
NsS'clean'
p211
NsS'no-asm'
p212
NsS'output-name'
p213
g4
sS'no-modules'
p214
NsS'find_define'
p215
g4
s(dp216
S'c:\\marmalade\\7.5\\s3e\\makefile_builder\\templates\\vc7_suo.pyc'
p217
F1424160376.0
sS'c:\\marmalade\\7.5\\s3e\\makefile_builder\\templates\\ws81_vcxproj.pyc'
p218
F1424160380.0
sS'c:\\marmalade\\7.5\\s3e\\makefile_builder\\plugins\\s3e_ws8.pyc'
p219
F1424160376.0
sS'c:\\marmalade\\7.5\\s3e\\makefile_builder\\templates'
p220
F1424630747.758857
sS'c:\\marmalade\\7.5\\s3e\\makefile_builder\\templates\\qmake.py'
p221
F1424159312.0
sS'c:\\marmalade\\7.5\\s3e\\makefile_builder\\templates\\vc10_user.pyc'
p222
F1424160378.0
sS'c:\\marmalade\\7.5\\s3e\\makefile_builder\\plugins'
p223
F1424631019.086376
sS'c:\\marmalade\\7.5\\s3e\\makefile_builder\\mkb_main.pyc'
p224
F1424160376.0
sS'c:\\marmalade\\7.5\\s3e\\makefile_builder\\templates\\mips_linker_script'
p225
F1424159312.0
sS'c:\\marmalade\\7.5\\s3e\\makefile_builder\\plugins\\XcodeEmitter.py'
p226
F1424159310.0
sS'c:\\marmalade\\7.5\\s3e\\makefile_builder\\mkb.py'
p227
F1424159310.0
sS'c:\\marmalade\\7.5\\s3e\\makefile_builder\\templates\\ws81_ext_sln.pyc'
p228
F1424160380.0
sS'c:\\marmalade\\7.5\\s3e\\makefile_builder\\templates\\win32_dsp.pyc'
p229
F1424160376.0
sS'c:\\marmalade\\7.5\\s3e\\makefile_builder\\templates\\ws8_csproj.pyc'
p230
F1424160380.0
sS'c:\\marmalade\\7.5\\s3e\\makefile_builder\\deployment.pyc'
p231
F1424160376.0
sS'c:\\marmalade\\7.5\\s3e\\makefile_builder\\plugins\\win32_vc6.pyc'
p232
F1424160376.0
sS'c:\\marmalade\\7.5\\s3e\\makefile_builder\\plugins\\osx_xcode.pyc'
p233
F1424160376.0
sS'c:\\marmalade\\7.5\\s3e\\makefile_builder\\plugins\\null.pyc'
p234
F1424160376.0
sS'c:\\marmalade\\7.5\\s3e\\makefile_builder\\templates\\wp81_csproj.pyc'
p235
F1424160380.0
sS'c:\\marmalade\\7.5\\s3e\\makefile_builder\\templates\\qmake_user.py'
p236
F1424159312.0
sS'c:\\marmalade\\7.5\\s3e\\makefile_builder\\templates\\vc6_opt.pyc'
p237
F1424160376.0
sS'c:\\marmalade\\7.5\\s3e\\makefile_builder\\plugins\\vc7_utils.pyc'
p238
F1424160376.0
sS'c:\\marmalade\\7.5\\s3e\\makefile_builder\\templates\\wp81_vcxproj.pyc'
p239
F1424160380.0
sS'c:\\marmalade\\7.5\\s3e\\makefile_builder\\templates\\win32_vcxproj.pyc'
p240
F1424160378.0
sS'c:\\marmalade\\7.5\\s3e\\makefile_builder\\templates\\ws8_ext_sln.pyc'
p241
F1424160380.0
sS'c:\\marmalade\\7.5\\s3e\\makefile_builder\\templates\\ws8_ext_csproj.pyc'
p242
F1424160380.0
sS'c:\\marmalade\\7.5\\s3e\\makefile_builder\\templates\\wp8_ext_csproj.pyc'
p243
F1424160378.0
sS'c:\\marmalade\\7.5\\s3e\\makefile_builder\\plugins\\s3e_wp8.pyc'
p244
F1424160376.0
sS'c:\\marmalade\\7.5\\s3e\\makefile_builder\\templates\\ws81_csproj.pyc'
p245
F1424160380.0
sS'c:\\marmalade\\7.5\\s3e\\makefile_builder\\docs\\deprecated.options.txt'
p246
F1424159310.0
sS'c:\\marmalade\\7.5\\s3e\\makefile_builder\\plugins\\s3e_make.pyc'
p247
F1424160376.0
sS'c:\\marmalade\\7.5\\s3e\\makefile_builder\\templates\\win8_ext_csproj.pyc'
p248
F1424160378.0
sS'c:\\marmalade\\7.5\\s3e\\makefile_builder\\mkb_parser.pyc'
p249
F1424160376.0
sS'c:\\marmalade\\7.5\\s3e\\makefile_builder\\plugins\\s3e_web.pyc'
p250
F1424160376.0
sS'c:\\marmalade\\7.5\\s3e\\makefile_builder\\docs\\mkb.defines.txt'
p251
F1424159310.0
sS'c:\\marmalade\\7.5\\s3e\\makefile_builder\\plugins\\osx_scons.pyc'
p252
F1424160376.0
sS'c:\\marmalade\\7.5\\s3e\\makefile_builder\\plugins\\ws81_ws81.pyc'
p253
F1424160376.0
sS'c:\\marmalade\\7.5\\s3e\\makefile_builder\\plugins\\s3e_qmake.py'
p254
F1424159312.0
sS'c:\\marmalade\\7.5\\s3e\\makefile_builder\\templates\\win8_csproj.pyc'
p255
F1424160378.0
sS'c:\\marmalade\\7.5\\s3e\\makefile_builder\\plugins\\s3e_vc6.pyc'
p256
F1424160376.0
sS'c:\\marmalade\\7.5\\s3e\\makefile_builder\\plugins\\wp81_wp81.pyc'
p257
F1424160376.0
sS'c:\\marmalade\\7.5\\s3e\\makefile_builder\\templates\\wp81_csproj_user.pyc'
p258
F1424160380.0
sS'c:\\marmalade\\7.5\\s3e\\makefile_builder\\templates\\win32_dsw.pyc'
p259
F1424160376.0
sS'c:\\marmalade\\7.5\\s3e\\makefile_builder\\templates\\xcode4.xcscheme'
p260
F1424159312.0
sS'c:\\marmalade\\7.5\\s3e\\makefile_builder\\templates\\template.opt'
p261
F1424159312.0
sS'c:\\marmalade\\7.5\\s3e\\makefile_builder\\templates\\template.suo'
p262
F1424159312.0
sS'c:\\marmalade\\7.5\\s3e\\makefile_builder\\templates\\linker_script'
p263
F1424159312.0
sS'c:\\marmalade\\7.5\\s3e\\makefile_builder\\templates\\gdb_start.txt'
p264
F1424159312.0
sS'c:\\marmalade\\7.5\\s3e\\makefile_builder\\mkb_launcher.exe'
p265
F1424159548.0
sS'c:\\marmalade\\7.5\\s3e\\makefile_builder\\templates\\scons.pyc'
p266
F1424160376.0
sS'c:\\marmalade\\7.5\\s3e\\makefile_builder\\docs\\parse_options.pyc'
p267
F1424160380.0
sS'c:\\marmalade\\7.5\\s3e\\makefile_builder\\templates\\xcode4_arm.xcscheme'
p268
F1424159312.0
sS'c:\\marmalade\\7.5\\s3e\\makefile_builder\\plugins\\VisualStudioEmitter.pyc'
p269
F1424160376.0
sS'c:\\marmalade\\7.5\\s3e\\makefile_builder\\plugins\\s3e_xcode.pyc'
p270
F1424631019.087376
sS'c:\\marmalade\\7.5\\s3e\\makefile_builder\\plugins\\Emitter.pyc'
p271
F1424160376.0
sS'c:\\marmalade\\7.5\\s3e\\makefile_builder\\templates\\ws8_sln.pyc'
p272
F1424160380.0
sS'c:\\marmalade\\7.5\\s3e\\makefile_builder\\tool_launcher.exe'
p273
F1424159548.0
sS'c:\\marmalade\\7.5\\s3e\\makefile_builder\\templates\\wp8_sln.pyc'
p274
F1424160378.0
sS'c:\\marmalade\\7.5\\s3e\\makefile_builder\\mkb_upstream.pyc'
p275
F1424160376.0
sS'c:\\marmalade\\7.5\\s3e\\makefile_builder\\templates\\ws81_csproj_user.pyc'
p276
F1424160380.0
sS'c:\\marmalade\\7.5\\s3e\\makefile_builder\\templates\\win32_sln.pyc'
p277
F1424160376.0
sS'c:\\marmalade\\7.5\\s3e\\makefile_builder\\templates\\xcode4_DeployTool.xcscheme'
p278
F1424159312.0
sS'c:\\marmalade\\7.5\\s3e\\makefile_builder\\plugins\\deploy.pyc'
p279
F1424160376.0
sS'c:\\marmalade\\7.5\\s3e\\makefile_builder\\plugins\\s3e_win8.pyc'
p280
F1424160376.0
sS'c:\\marmalade\\7.5\\s3e\\makefile_builder\\plugins\\iphone.pyc'
p281
F1424160376.0
sS'c:\\marmalade\\7.5\\s3e\\makefile_builder\\plugins\\Win8Emitter.pyc'
p282
F1424160376.0
sS'c:\\marmalade\\7.5\\s3e\\makefile_builder\\plugins\\s3e_qmake.pyc'
p283
F1424631018.9523683
sS'c:\\marmalade\\7.5\\s3e\\makefile_builder\\docs'
p284
F1424630747.7758577
sS'c:\\marmalade\\7.5\\s3e\\makefile_builder\\mkb_globals.pyc'
p285
F1424160376.0
sS'c:\\marmalade\\7.5\\s3e\\makefile_builder\\plugins\\win8_utils.pyc'
p286
F1424160376.0
sS'c:\\marmalade\\7.5\\s3e\\makefile_builder\\plugins\\xcode4_schememanagement.py'
p287
F1424159312.0
sS'c:\\marmalade\\7.5\\s3e\\makefile_builder\\templates\\wp81_ext_sln.pyc'
p288
F1424160380.0
sS'c:\\marmalade\\7.5\\s3e\\makefile_builder\\templates\\make.py'
p289
F1424159312.0
sS'c:\\marmalade\\7.5\\s3e\\makefile_builder\\templates\\ws81_ext_csproj.pyc'
p290
F1424160380.0
sS'c:\\marmalade\\7.5\\s3e\\makefile_builder\\plugins\\s3e_xcode.py'
p291
F1424159312.0
sS'c:\\marmalade\\7.5\\s3e\\makefile_builder\\plugins\\XcodeEmitter.pyc'
p292
F1424631018.8013597
sS'c:\\marmalade\\7.5\\s3e\\makefile_builder\\docs\\deployment_options.txt'
p293
F1424159310.0
sS'c:\\marmalade\\7.5\\s3e\\makefile_builder\\templates\\win8_sln.pyc'
p294
F1424160378.0
sS'c:\\marmalade\\7.5\\s3e\\makefile_builder\\plugins\\java.pyc'
p295
F1424160376.0
sS'c:\\marmalade\\7.5\\s3e\\makefile_builder\\plugins\\xcode4_schememanagement.pyc'
p296
F1424631018.80836
sS'c:\\marmalade\\7.5\\s3e\\makefile_builder\\plugins\\SConsEmitter.pyc'
p297
F1424160376.0
sS'c:\\marmalade\\7.5\\s3e\\makefile_builder\\templates\\win32_vcproj.pyc'
p298
F1424160378.0
sS'c:\\marmalade\\7.5\\s3e\\makefile_builder\\plugins\\wp8_wp8.pyc'
p299
F1424160376.0
sS'c:\\marmalade\\7.5\\s3e\\makefile_builder\\templates\\MainWindow.xib'
p300
F1424159312.0
sS'c:\\marmalade\\7.5\\s3e\\makefile_builder\\mkb_util.pyc'
p301
F1424160376.0
sS'c:\\marmalade\\7.5\\s3e\\makefile_builder\\templates\\vc8_user.pyc'
p302
F1424160378.0
sS'c:\\marmalade\\7.5\\s3e\\makefile_builder\\templates\\Info.plist'
p303
F1424159312.0
sS'c:\\marmalade\\7.5\\s3e\\makefile_builder\\templates\\wp8_csproj_user.pyc'
p304
F1424160378.0
sS'c:\\marmalade\\7.5\\s3e\\makefile_builder\\docs\\deprecated.defines.txt'
p305
F1424159310.0
sS'c:\\marmalade\\7.5\\s3e\\makefile_builder\\templates\\ws8_csproj_user.pyc'
p306
F1424160380.0
sS'c:\\marmalade\\7.5\\s3e\\makefile_builder\\plugins\\S3EEmitter.pyc'
p307
F1424160376.0
sS'c:\\marmalade\\7.5\\s3e\\makefile_builder\\templates\\rvct_linker_script'
p308
F1424159312.0
sS'c:\\marmalade\\7.5\\s3e\\makefile_builder\\templates\\xcode_pbxuser.py'
p309
F1424159312.0
sS'c:\\marmalade\\7.5\\s3e\\makefile_builder\\docs\\options.txt'
p310
F1424159310.0
sS'c:\\marmalade\\7.5\\s3e\\makefile_builder\\templates\\wp81_sln.pyc'
p311
F1424160380.0
sS'c:\\marmalade\\7.5\\s3e\\makefile_builder\\templates\\ws81_sln.pyc'
p312
F1424160380.0
sS'c:\\marmalade\\7.5\\s3e\\makefile_builder\\plugins\\vc6_utils.pyc'
p313
F1424160376.0
sS'c:\\marmalade\\7.5\\s3e\\makefile_builder\\templates\\wp81_ext_csproj.pyc'
p314
F1424160380.0
sS'c:\\marmalade\\7.5\\s3e\\makefile_builder\\plugins\\s3e_wp81.pyc'
p315
F1424160376.0
sS'c:\\marmalade\\7.5\\s3e\\makefile_builder\\templates\\aarch64_linker_script'
p316
F1424159312.0
sS'c:\\marmalade\\7.5\\s3e\\makefile_builder\\templates\\ws8_vcxproj.pyc'
p317
F1424160380.0
sS'c:\\marmalade\\7.5\\s3e\\makefile_builder\\plugins\\MakeEmitter.pyc'
p318
F1424160376.0
sS'c:\\marmalade\\7.5\\s3e\\makefile_builder\\templates\\win32_vcxproj_filters.pyc'
p319
F1424160378.0
sS'c:\\marmalade\\7.5\\s3e\\makefile_builder\\templates\\xcode.py'
p320
F1424159312.0
sS'c:\\marmalade\\7.5\\s3e\\makefile_builder\\plugins\\s3e_ws81.pyc'
p321
F1424160376.0
sS'c:\\marmalade\\7.5\\s3e\\makefile_builder\\plugins\\linux_scons.pyc'
p322
F1424160376.0
sS'c:\\marmalade\\7.5\\s3e\\makefile_builder\\templates\\win8_vcxproj.pyc'
p323
F1424160378.0
sS'c:\\marmalade\\7.5\\s3e\\makefile_builder\\plugins\\s3e_scons.pyc'
p324
F1424160376.0
sS'c:\\marmalade\\7.5\\s3e\\makefile_builder\\templates\\wp8_csproj.pyc'
p325
F1424160378.0
sS'c:\\marmalade\\7.5\\s3e\\makefile_builder\\templates\\win8_csproj_user.pyc'
p326
F1424160378.0
sS'c:\\marmalade\\7.5\\s3e\\makefile_builder\\plugins\\ws8_ws8.pyc'
p327
F1424160376.0
sS'c:\\marmalade\\7.5\\s3e\\makefile_builder\\templates\\wp8_vcxproj.pyc'
p328
F1424160378.0
sS'c:\\marmalade\\7.5\\s3e\\makefile_builder\\mkb_option.pyc'
p329
F1424160376.0
sccopy_reg
_reconstructor
p330
(cmkb_main
MkbFile
p331
c__builtin__
object
p332
Ntp333
Rp334
(dp335
g5
(lp336
sS'target_name'
p337
S'Stage4'
p338
sS'current_file'
p339
g135
sS'package_path'
p340
(lp341
sS'post_build'
p342
(lp343
(lp344
S'c:/marmalade/7.5/s3e/tools'
p345
aS'C:\\Marmalade\\7.5\\s3e\\python\\python.exe .\\process_map.py "$(TargetPath)"'
p346
aa(S'c:\\marmalade\\7.5\\s3e\\bin'
p347
S'"s3e_plink" -l "$(TargetPath)" '
p348
g170
tp349
asS'librarys'
p350
(lp351
g330
(cmkb_main
Library
p352
g332
Ntp353
Rp354
(dp355
S'name'
p356
S'vc6_compat.lib'
p357
sS'expand_name'
p358
I00
sS'include_spec_rvct_objs'
p359
(lp360
sS'include_all_objs'
p361
I00
sS'share_arm'
p362
I00
sS'arch'
p363
S'x86'
p364
sS'nodebug'
p365
I00
sg38
Nsbag330
(g352
g332
Ntp366
Rp367
(dp368
g356
S'iw2d'
p369
sg358
I01
sg359
(lp370
sg361
Nsg362
Nsg363
Nsg365
I00
sg38
Nsbag330
(g352
g332
Ntp371
Rp372
(dp373
g356
S'ATI_Compress_MT_VC7.lib'
p374
sg358
I00
sg359
g370
sg361
Nsg362
Nsg363
S'x86'
p375
sg365
I00
sg38
Nsbag330
(g352
g332
Ntp376
Rp377
(dp378
g356
S'iwgx'
p379
sg358
I01
sg359
g370
sg361
Nsg362
Nsg363
Nsg365
I00
sg38
Nsbag330
(g352
g332
Ntp380
Rp381
(dp382
g356
S'iwgl'
p383
sg358
I01
sg359
g370
sg361
Nsg362
Nsg363
Nsg365
I00
sg38
Nsbag330
(g352
g332
Ntp384
Rp385
(dp386
g356
S'iwutil'
p387
sg358
I01
sg359
g370
sg361
Nsg362
Nsg363
Nsg365
I00
sg38
Nsbag330
(g352
g332
Ntp388
Rp389
(dp390
g356
S'jpeg'
p391
sg358
I01
sg359
g370
sg361
Nsg362
Nsg363
Nsg365
I00
sg38
Nsbag330
(g352
g332
Ntp392
Rp393
(dp394
g356
S'z'
p395
sg358
I01
sg359
g370
sg361
Nsg362
Nsg363
Nsg365
I00
sg38
Nsbag330
(g352
g332
Ntp396
Rp397
(dp398
g356
S'png'
p399
sg358
I01
sg359
g370
sg361
Nsg362
Nsg363
Nsg365
I00
sg38
Nsbag330
(g352
g332
Ntp400
Rp401
(dp402
g356
S'iwgeom'
p403
sg358
I01
sg359
g370
sg361
Nsg362
Nsg363
Nsg365
I00
sg38
Nsbag330
(g352
g332
Ntp404
Rp405
(dp406
g356
S'iwresmanager'
p407
sg358
I01
sg359
g370
sg361
Nsg362
Nsg363
Nsg365
I00
sg38
Nsbag330
(g352
g332
Ntp408
Rp409
(dp410
g356
S'iwgxfont'
p411
sg358
I01
sg359
g370
sg361
Nsg362
Nsg363
Nsg365
I00
sg38
Nsbag330
(g352
g332
Ntp412
Rp413
(dp414
g356
S'tiniconv'
p415
sg358
I01
sg359
g370
sg361
Nsg362
Nsg363
Nsg365
I00
sg38
Nsbag330
(g352
g332
Ntp416
Rp417
(dp418
g356
S's3e_cpp'
p419
sg358
I01
sg359
g360
sg361
I00
sg362
I00
sg363
Nsg365
I00
sg38
Nsbag330
(g352
g332
Ntp420
Rp421
(dp422
g356
S's3e'
p423
sg358
I01
sg359
(lp424
S'iwcrt.o'
p425
asg361
I00
sg362
I00
sg363
Nsg365
I00
sg38
Nsbag330
(g352
g332
Ntp426
Rp427
(dp428
g356
g55
sg358
I01
sg359
g360
sg361
I00
sg362
I00
sg363
S'x86'
p429
sg365
I01
sg38
Nsbag330
(g352
g332
Ntp430
Rp431
(dp432
g356
g55
sg358
I01
sg359
g360
sg361
I00
sg362
I00
sg363
S'!x86'
p433
sg365
I01
sg38
Nsbag330
(g352
g332
Ntp434
Rp435
(dp436
g356
S'stdc++'
p437
sg358
I00
sg359
g360
sg361
I00
sg362
I00
sg363
S'mips'
p438
sg365
I00
sg38
Nsbag330
(g352
g332
Ntp439
Rp440
(dp441
g356
S'c'
p442
sg358
I00
sg359
g360
sg361
I00
sg362
I00
sg363
S'mips'
p443
sg365
I00
sg38
Nsbag330
(g352
g332
Ntp444
Rp445
(dp446
g356
S'm'
p447
sg358
I00
sg359
g360
sg361
I00
sg362
I00
sg363
S'mips'
p448
sg365
I00
sg38
Nsbag330
(g352
g332
Ntp449
Rp450
(dp451
g356
S'gcc'
p452
sg358
I00
sg359
g360
sg361
I00
sg362
I00
sg363
S'mips'
p453
sg365
I00
sg38
Nsbag330
(g352
g332
Ntp454
Rp455
(dp456
g356
S'stdc++'
p457
sg358
I00
sg359
g360
sg361
I00
sg362
I00
sg363
S'gcc_x86_android'
p458
sg365
I00
sg38
Nsbag330
(g352
g332
Ntp459
Rp460
(dp461
g356
g442
sg358
I00
sg359
g360
sg361
I00
sg362
I00
sg363
S'gcc_x86_android'
p462
sg365
I00
sg38
Nsbag330
(g352
g332
Ntp463
Rp464
(dp465
g356
g447
sg358
I00
sg359
g360
sg361
I00
sg362
I00
sg363
S'gcc_x86_android'
p466
sg365
I00
sg38
Nsbag330
(g352
g332
Ntp467
Rp468
(dp469
g356
g452
sg358
I00
sg359
g360
sg361
I00
sg362
I00
sg363
S'gcc_x86_android'
p470
sg365
I00
sg38
NsbasS'library_paths'
p471
(lp472
g330
(cmkb_main
LibraryPath
p473
g332
Ntp474
Rp475
(dp476
S'expand_path'
p477
I01
sg356
S'c:/marmalade/7.5/modules/iw2d'
p478
sbag330
(g473
g332
Ntp479
Rp480
(dp481
g477
I00
sg356
S'c:/marmalade/7.5/modules/iwgx/atitools'
p482
sbag330
(g473
g332
Ntp483
Rp484
(dp485
g477
I01
sg356
S'c:/marmalade/7.5/modules/iwgx'
p486
sbag330
(g473
g332
Ntp487
Rp488
(dp489
g477
I01
sg356
S'c:/marmalade/7.5/modules/iwgl'
p490
sbag330
(g473
g332
Ntp491
Rp492
(dp493
g477
I01
sg356
S'c:/marmalade/7.5/modules/iwutil'
p494
sbag330
(g473
g332
Ntp495
Rp496
(dp497
g477
I01
sg356
S'c:/marmalade/7.5/modules/third_party/libjpeg'
p498
sbag330
(g473
g332
Ntp499
Rp500
(dp501
g477
I01
sg356
S'c:/marmalade/7.5/modules/third_party/zlib'
p502
sbag330
(g473
g332
Ntp503
Rp504
(dp505
g477
I01
sg356
S'c:/marmalade/7.5/modules/third_party/libpng'
p506
sbag330
(g473
g332
Ntp507
Rp508
(dp509
g477
I01
sg356
S'c:/marmalade/7.5/modules/iwgeom'
p510
sbag330
(g473
g332
Ntp511
Rp512
(dp513
g477
I01
sg356
S'c:/marmalade/7.5/modules/iwresmanager'
p514
sbag330
(g473
g332
Ntp515
Rp516
(dp517
g477
I01
sg356
S'c:/marmalade/7.5/modules/iwgxfont'
p518
sbag330
(g473
g332
Ntp519
Rp520
(dp521
g477
I01
sg356
S'c:/marmalade/7.5/modules/third_party/tiniconv'
p522
sbag330
(g473
g332
Ntp523
Rp524
(dp525
g477
I01
sg356
S'c:/marmalade/7.5/s3e'
p526
sbasS'macros'
p527
(dp528
S'IW_USE_CALLSTACK'
p529
NsS'IW_MKF_IWGEOM'
p530
NsS'I3D_PLATFORM_S3E'
p531
NsS'IW_TRACE_CHANNEL_PVRTEXTOOL_VERBOSE'
p532
S'2'
p533
sS'IW_MKF_LIBJPEG'
p534
NsS'I3D_OS_S3E'
p535
NsS'IW_MKF_PVRTEXTOOL'
p536
NsS'IW_MKF_TINICONV'
p537
NsS'IW_APP_VERSION'
p538
S'"1.0"'
p539
sS'__S3E__'
p540
NsS'IW_MKF_IWRESMANAGER'
p541
NsS'IW_MKF_IWUTIL'
p542
NsS'IW_PLATFORM_S3E'
p543
NsS'IW_ASSERTION_CHANNEL_2D'
p544
S'1'
p545
sS'IW_APP_NAME'
p546
S'"Stage4"'
p547
sS'IW_MKF_MARMALADEEXAMPLERESOURCES'
p548
NsS'IW_MKF_IWGXFONT'
p549
NsS'IW_MKF_IWTWEEN'
p550
NsS'IW_MKF_ZLIB'
p551
NsS'IW_MKF_S3E_DEFAULT'
p552
NsS'IW_MKF_IWGX'
p553
NsS'IW_MKF_IW2DSCENEGRAPH'
p554
NsS'IW_MKF_SOUNDENGINE'
p555
NsS'IW_USE_ASSERTIONS'
p556
NsS'_CRT_SECURE_NO_DEPRECATE'
p557
NsS'IW_MKF_IWGL'
p558
NsS'IW_MKF_LIBPNG'
p559
NsS'IW_TRACE_CHANNEL_IW_2DSCENEGRAPH'
p560
g545
sS'IW_DEBUG'
p561
NsS'IW_USE_TRACING'
p562
NsS'IW_ASSERTION_CHANNEL_IW_2DSCENEGRAPH'
p563
g545
sS'IW_TRACE_CHANNEL_PVRTEXTOOL'
p564
g545
sS'IW_SDK'
p565
NsS'S3E_INCLUDE_LEGACY'
p566
NsS'IW_MKF_IW2DSCENEGRAPHCORE'
p567
NsS'IW_MKF_IW2D'
p568
NsS'IW_ASSERTION_CHANNEL_PVRTEXTOOL'
p569
g545
ssS'done_warnings'
p570
(dp571
sS'subprojects'
p572
(dp573
g193
S'iwgx'
p574
sg202
S'iwgxfont'
p575
sg191
S's3e-default.mkf'
p576
sg205
S'../iw2dscenegraphcore'
p577
sg198
S'zlib'
p578
sg200
S'iwresmanager'
p579
sg203
S'tiniconv'
p580
sg196
S'libjpeg'
p581
sg192
S'iw2d'
p582
sg208
S'../../../MarmaladeExampleResources'
p583
sg195
S'iwutil'
p584
sg206
S'iwtween'
p585
sg197
S'libpng'
p586
sg204
S'iw2dscenegraph'
p587
sg207
S'SoundEngine'
p588
sg194
S'iwgl'
p589
sg199
S'iwgeom'
p590
sg201
S'PVRTexTool'
p591
ssS'deployments'
p592
(dp593
S'Default'
p594
g330
(cdeployment
Deployment
p595
g332
Ntp596
Rp597
(dp598
S'got_version'
p599
I0
sS'assets'
p600
g594
sS'mkb'
p601
g334
sS'target'
p602
Nsg363
(lp603
sS'options'
p604
(dp605
S'iphone-link-lib'
p606
(lp607
sS'game-icf'
p608
NsS'android-tm'
p609
NsS'winmobile-icon32'
p610
NsS'ws8-logo-image150x150'
p611
NsS'wp81-logo-image150x150'
p612
NsS'android-keystore'
p613
NsS'osx-ext-dll'
p614
(lp615
S'c:/marmalade/7.5/extensions/pvrtextool/lib/osx/libPVRTexTool.dylib'
p616
asS'iphone-provisioning-profile'
p617
NsS'ws8-splash-screen-image620x300'
p618
NsS'wp81-extra-pri'
p619
(lp620
sS'ws8-ext-capabilities'
p621
(lp622
sS'android-icon-hdpi'
p623
NsS'iphone-ipad-only'
p624
NsS'iphone-splash-full-orient'
p625
NsS'wp8-tile-fliptemplate-supports-large'
p626
NsS'iphone-show-status-bar'
p627
NsS'roku-requires-mkv'
p628
NsS'long-caption'
p629
NsS'android-pkgname'
p630
NsS'wp81-publisher-display-name'
p631
NsS'blackberry-permissions-read-device-identifying-information'
p632
NsS'ws81-certificate-end-date'
p633
NsS'psp-dlgcontentid'
p634
NsS'iphone-minimum-ios-version'
p635
NsS'target-folder'
p636
NsS'tizen-dist1-CA-path'
p637
NsS'symbian-icon2-format'
p638
NsS'tizen-author-key'
p639
NsS'firefoxos-icon-128X128'
p640
NsS'iphone-region'
p641
NsS'uiq3-icon3-mask'
p642
NsS'brew-encoding'
p643
NsS'android-x86'
p644
NsS'nds-initialcode'
p645
NsS'iphone-persistent-wifi'
p646
NsS'psp-snd0'
p647
NsS'roku-icon-focus-hd'
p648
NsS'osx-appid'
p649
NsS'winmobile-install-folder'
p650
NsS'android-external-res'
p651
(lp652
sS'ws8-product-version'
p653
NsS'brew-priviledges'
p654
NsS'iphone-info-plist-override'
p655
NsS'iphone-icon-ipad'
p656
NsS'iphone-skip-icon-generation'
p657
NsS'roku-hidden'
p658
NsS'psp-titlename'
p659
NsS'wp81-product-version'
p660
NsS'symbian-icon1-mask'
p661
NsS'psp-parentallevel'
p662
NsS'iphone-launch-storyboard'
p663
NsS'splashscreen-use-all'
p664
NsS'wp8-author'
p665
NsS'symbian-disable-ecompxl'
p666
NsS'splashscreen-auto-onblack'
p667
NsS'iphone-icon-dir'
p668
NsS'iphone-icon-extra'
p669
NsS'win32-ext-dll'
p670
(lp671
S'c:/marmalade/7.5/extensions/pvrtextool/lib/win32/PVRTexTool.dll'
p672
asS'iphone-development-key'
p673
NsS'winmobile-icon48'
p674
NsS'android-unsigned'
p675
NsS'osx-appstore-category'
p676
NsS'version-revision'
p677
NsS'roku-icon-focus-sd'
p678
NsS'ws81-product-version'
p679
NsS'winmobile-png90'
p680
NsS'iphone-icon-ipad-high-res'
p681
NsS'iphone-disable-ipad'
p682
NsS'ws81-splash-screen-background'
p683
NsS'wp8-ext-capabilities'
p684
(lp685
sS'brew-icon-large'
p686
NsS'symbian-icon1-mask-black'
p687
NsS'ws8-extra-res'
p688
(lp689
sS'iphone-bundle-localisations'
p690
NsS'winmobile-png60'
p691
NsS'blackberry-permissions-access-shared'
p692
NsS'blackberry-author'
p693
NsS'android-icon-xxxhdpi'
p694
NsS'olddeploytoolstyle'
p695
NsS'android_icon_gallery'
p696
NsS'wp81-splash-screen-background'
p697
NsS'winmobile-cab-compress'
p698
NsS'iphone-info-plist'
p699
NsS'ws81-ext-managed-dll'
p700
(lp701
sS'playbook-cskpass'
p702
NsS'win32-icon'
p703
NsS'symbian-key'
p704
NsS'app-icf'
p705
NsS'blackberry-storepass'
p706
NsS'wp8-tile-fliptemplate-back-title'
p707
NsS'brew-compress-loader'
p708
NsS'iphone-testflight'
p709
NsS'win32-pref-windowposy'
p710
NsS'win32-pref-windowposx'
p711
NsS'roku-requires-audiometadata'
p712
NsS'wp8-exclude-low-mem'
p713
NsS'iphone-icon-ipad-search-high-res'
p714
NsS'iphone-link-libdir'
p715
(lp716
sS'wp81-ext-capabilities'
p717
(lp718
sS'blackberry-permissions-read-geolocation'
p719
NsS'ws81-ext-device-capabilities'
p720
(lp721
sS'tizen-signed'
p722
NsS'android-extra-application-manifest'
p723
(lp724
sS'ws8-ext-native-dll'
p725
(lp726
sS'symbian-icon2-mask'
p727
NsS'iphone-launch-extra'
p728
NsS'webos-memory'
p729
NsS'android-keypass'
p730
NsS'name'
p731
NsS'uiq3-icon2-format'
p732
NsS'roku-splash-screen-sd'
p733
NsS'auto-derbh'
p734
NsS'roku-icon-side-sd'
p735
NsS'android-external-assets'
p736
(lp737
sS'nds-publicsavedatasize'
p738
NsS'splashscreen'
p739
S'c:/marmalade/7.5/examples/marmaladeexampleresources/resources/splashscreens'
p740
sS'brew-mif'
p741
NsS'iphone-icon-settings-high-res'
p742
NsS'android-manifest'
p743
NsS'ws81-splash-screen-image620x300'
p744
NsS'wp81-product-name'
p745
NsS's3e-compression'
p746
NsS'tizen-author-password'
p747
NsS'wp8-tile-fliptemplate-back-content'
p748
NsS'blackberry-extra-descriptor'
p749
(lp750
sS'symbian-icon1'
p751
NsS'symbian-icon2'
p752
NsS'nds-makercode'
p753
NsS'android-extra-styles-file'
p754
NsS'wp81-publisher-id'
p755
NsS'nds-bannertitle-jp'
p756
NsS'wp81-logo-image44x44'
p757
NsS'osx-sign-for-store'
p758
NsS'symbian7-uid'
p759
NsS'wp8-tile-fliptemplate-large-back-content'
p760
NsS'wp81-phone-publisher-id'
p761
NsS'nds-bannertitle-cn'
p762
NsS'iphone-distribution-key'
p763
NsS'android-icon-gallery'
p764
NsS'blackberry-keystore'
p765
NsS'iphone-nosign'
p766
NsS'caption'
p767
NsS'android-extra-manifest'
p768
(lp769
sS'wp81-ext-sdk-ref'
p770
(lp771
sS'android-icon-xxhdpi'
p772
NsS'version-minor'
p773
NsS'iphone-skip-launch-generation'
p774
NsS'iphone-link-libdirs'
p775
(lp776
sS'iphone-icon-large'
p777
NsS'symbian-keypwd'
p778
NsS'symbian8-uid'
p779
NsS'symbian-cert-key'
p780
NsS'winmobile-ampd-part-number'
p781
NsS'arch'
p782
NsS'nds-romheadertemplate'
p783
NsS'webos-icon'
p784
NsS'wp81-ext-device-capabilities'
p785
(lp786
sS'psp-dlgprotectdocument'
p787
NsS'ws8-splash-screen-background'
p788
NsS'android-icon-mdpi'
p789
NsS'nds-icon'
p790
NsS'ws8-custom-manifest-fill'
p791
NsS'iphone-development-cert'
p792
NsS'and'
p793
NsS'symbian-icon2-mask-black'
p794
NsS'blackberry-phone-icon'
p795
NsS'iphone-enable-4inch-retina'
p796
NsS'ws8-custom-manifest'
p797
NsS'version-major'
p798
NsS'wp8-genre-isgame'
p799
NsS'uiq3-uid'
p800
NsS'iphone-splash-retina-generate'
p801
NsS'tizen-hw-acceleration'
p802
NsS'iphone_bundle_localisations'
p803
NsS'tizen-dist1-key'
p804
NsS'wp81-custom-manifest-fill'
p805
NsS'wp8-custom-manifest'
p806
NsS'nds-bannertitle-ge'
p807
NsS'iphone-sign-for-distribution'
p808
NsS'wp8-tile-fliptemplate-medium-back-image'
p809
NsS'wp8-publisher-id'
p810
NsS'icon'
p811
S'c:/marmalade/7.5/examples/marmaladeexampleresources/resources/icons'
p812
sS'wp8-exclude-wxga'
p813
NsS'wp81-identity-name'
p814
NsS'uiq3-icon2-mask'
p815
NsS'iphone-splashscreen-portrait'
p816
NsS'iphone-icon-high-res'
p817
NsS'ws81-distribution-pfx-password'
p818
NsS'playbook-author'
p819
NsS'android-icon-xhdpi'
p820
NsS'linux-ext-lib'
p821
(lp822
sS'blackberry-permissions-access-internet'
p823
NsS'wp8-exclude-720p'
p824
NsS'lgtv-use-drm'
p825
NsS'symbian-platsecflags'
p826
NsS'ws8-description'
p827
NsS'blackberry-playbook-icon'
p828
NsS'copyright'
p829
NsS'ws8-distribution-pfx-password'
p830
NsS'win32-gles-directory'
p831
NsS'version'
p832
NsS'iphone-uiviewcontroller-based-status-bar'
p833
NsS'ws81-logo-image150x150'
p834
NsS'osx-signing-identity-app'
p835
NsS'tizen-project-url'
p836
NsS'symbian-icon-svg'
p837
NsS'android-aliasname'
p838
NsS'psp-dlgmanual'
p839
NsS'brew-uid'
p840
NsS'symbian-locationsupport'
p841
NsS'wp81-logo-image50x50'
p842
NsS'ws8-ext-managed-dll'
p843
(lp844
sS'nds-bannertitle-it'
p845
NsS'ws81-custom-manifest-fill'
p846
NsS'ws8-ext-sdk-manifest-part'
p847
(lp848
sS'uiq3-icon1-mask'
p849
NsS'winmobile-icon16'
p850
NsS'ws8-product-name'
p851
NsS'blackberry-cskpass'
p852
NsS'winmobile-start-menu-folder'
p853
NsS'brew-clsid'
p854
NsS'roku-requires-bluetooth'
p855
NsS'iphone-default-development-profile'
p856
NsS'ws8-ext-device-capabilities'
p857
(lp858
sS'blackberry-permissions-use-camera'
p859
NsS'ws81-extra-pri'
p860
(lp861
sS'iphone-prerendered-icon'
p862
NsS'iphone-appid'
p863
NsS'ws8-identity-name'
p864
NsS'tizen-dist2-CA-path'
p865
NsS'android-external-jars'
p866
(lp867
sS'winmobile-icon64'
p868
NsS'blackberry-permissions-post-notification'
p869
NsS'winmobile-setup-dll'
p870
NsS'firefoxos-manifest'
p871
NsS'win8-winrt-extra-res'
p872
(lp873
sS'wp81-ext-sdk-manifest-part'
p874
(lp875
sS'symbian9-uid'
p876
NsS'iphone-icon-ipad-ios7'
p877
NsS'winmobile-trace-file'
p878
NsS'roku-splash-color'
p879
NsS'psp-appversion'
p880
NsS'ws8-publisher-id'
p881
NsS'android-supports-gl-texture'
p882
(lp883
sS'winmobile-png45'
p884
NsS'wp81-extra-res'
p885
(lp886
sS'android-storepass'
p887
NsS'osx-signing-identity-inst'
p888
NsS'android-custom-activity'
p889
NsS'psp-discversion'
p890
NsS'wp81-ext-managed-dll'
p891
(lp892
sS'psp-copyright'
p893
NsS'embed-icf'
p894
NsS'tizen-manifest'
p895
NsS'osx-icon'
p896
NsS'webos-appinfo'
p897
NsS'psp-dlghealthwarning'
p898
NsS'webos-appid'
p899
NsS'roku-icon-side-hd'
p900
NsS'iphone-icon-ipad-search-high-res-ios7'
p901
NsS'iphone-extra-plist'
p902
(lp903
sS'ws81-ext-sdk-manifest-part'
p904
(lp905
sS'loader_name_prefix'
p906
NsS'iphone-launch-dir'
p907
NsS'nds-titlename'
p908
NsS'ws81-logo-image50x50'
p909
NsS'wp81-custom-manifest'
p910
NsS'osx-entitlements-plist'
p911
NsS'psp-dlgicon0'
p912
NsS'winmobile-nouninstall'
p913
NsS'psp-discid'
p914
NsS'tizen-dist2-password'
p915
NsS'ws8-ext-sdk-ref'
p916
(lp917
sS'iphone-extra-string'
p918
(lp919
sS'version-string'
p920
NsS'iphone-icon-high-res-ios7'
p921
NsS'blackberry-permissions-record-audio'
p922
NsS'ws8-certificate-end-date'
p923
NsS'tizen-so'
p924
(lp925
sS'wp8-tile-fliptemplate-small-image'
p926
NsS'playbook-authorid'
p927
NsS'iphone-signing-identity'
p928
NsS'roku-persist-quota'
p929
NsS'nds-bannertitle-fr'
p930
NsS'ws8-distribution-pfx'
p931
NsS'ws8-publisher-display-name'
p932
NsS'brew-icon-small'
p933
NsS'psp-dlgpic2'
p934
NsS'psp-dlgpic0'
p935
NsS'psp-pic0'
p936
NsS'psp-pic1'
p937
NsS'win32-pref-windowtitle'
p938
NsS'psp-icon0'
p939
NsS'psp-icon1'
p940
NsS'ws81-identity-name'
p941
NsS'winmobile-icon'
p942
NsS'iphone-no-splash'
p943
NsS'iphone-splash'
p944
NsS'iphone-app-fonts'
p945
NsS'wp8-ext-native-dll'
p946
(lp947
sS'wp81-splash-screen-image480x800'
p948
NsS'ws81-distribution-cer'
p949
NsS'iphone-backgroundmode-audio'
p950
NsS'uiq3-icon2'
p951
NsS'uiq3-icon3'
p952
NsS'uiq3-icon1'
p953
NsS'uiq3-icon1-format'
p954
NsS'ws8-logo-image50x50'
p955
NsS'iphone-icon-ipad-search'
p956
NsS'symbian-run-on-install'
p957
NsS'wp81-description'
p958
NsS'ws81-publisher-display-name'
p959
NsS'firefoxos-xulrunner'
p960
NsS'symbian-soundrecordsupport'
p961
NsS'nds-bannertitle-sp'
p962
NsS'psp-producer'
p963
NsS'iphone-apple-wwdr-cert'
p964
NsS'android-icon-nonstandard'
p965
NsS'win32-pref-processtitle'
p966
NsS'nds-bannertitle-hn'
p967
NsS'tizen-dist2-key'
p968
NsS'brew-depends'
p969
NsS'ws81-custom-manifest'
p970
NsS'iphone-allow-launch-rotation'
p971
NsS'iphone-icon-ipad-search-ios7'
p972
NsS'brew-icon-medium'
p973
NsS'iphone-bundle-url-name'
p974
NsS'wp8-tile-fliptemplate-large-front-image'
p975
NsS'tizen-dist2-CA-root-path'
p976
NsS'ws81-description'
p977
NsS'uiq3-icon3-format'
p978
NsS'ws81-logo-image30x30'
p979
NsS'win8-phone-extra-res'
p980
(lp981
sS'iphone-signing-host'
p982
NsS'tizen-icon'
p983
NsS'osx-info-plist'
p984
NsS'symbian-icon1-format'
p985
NsS'ws81-distribution-pfx'
p986
NsS'blackberry-authorid'
p987
NsS'ws81-publisher-id'
p988
NsS'win8-store-extra-res'
p989
(lp990
sS'wp8-description'
p991
NsS'iphone-link-opts'
p992
(lp993
sS'ws81-ext-sdk-ref'
p994
(lp995
sS'roku-splash-min-time'
p996
NsS'wp8-tile-fliptemplate-medium-front-image'
p997
NsS'iphone-disable-launch-images'
p998
NsS'provider'
p999
NsS'playbook-keystore'
p1000
NsS'tizen-appid'
p1001
NsS'wp8-extra-res'
p1002
(lp1003
sS'symbian-osexecsupport'
p1004
NsS'android-install-location'
p1005
NsS'nds-privatesavedatasize'
p1006
NsS'iphone-disable-testflight'
p1007
NsS'playbook-storepass'
p1008
NsS'android-icon-ldpi'
p1009
NsS'manufacturer'
p1010
NsS'itunes-artwork'
p1011
NsS'iphone-extra-sections'
p1012
NsS'ws81-product-name'
p1013
NsS'ws81-ext-native-dll'
p1014
(lp1015
sS'ws8-extra-pri'
p1016
(lp1017
sS'wp8-product-id'
p1018
NsS'ws8-logo-image30x30'
p1019
NsS'wp8-ext-managed-dll'
p1020
(lp1021
sS'iphone-splashscreen-landscape'
p1022
NsS'symbian-maxheapsize'
p1023
NsS'android-extra-packages'
p1024
(lp1025
sS'priv-sign-key'
p1026
NsS'networking'
p1027
NsS'android-icon'
p1028
NsS'iphone-icon-settings'
p1029
NsS'wp81-phone-product-id'
p1030
NsS'firefoxos-icon-60X60'
p1031
NsS'iphone-distribution-cert'
p1032
NsS'android_extra_strings'
p1033
NsS'nds-bannertitle-en'
p1034
NsS'wp8-tile-fliptemplate-title'
p1035
NsS'android-so'
p1036
(lp1037
sS'wp8-higher-mem'
p1038
NsS'wp8-ext-sdk-ref'
p1039
(lp1040
sS'wp8-fast-resume-mode'
p1041
NsS'roku-splash-screen-hd'
p1042
NsS'iphone-bundle-url-schemes'
p1043
NsS'roku-screensaver-private'
p1044
NsS'osx-extra-res'
p1045
(lp1046
sS'ws81-extra-res'
p1047
(lp1048
sS'playbook-icon'
p1049
NsS'uid'
p1050
NsS'pkguid-as-uid'
p1051
NsS'wp81-ext-native-dll'
p1052
(lp1053
sS'tizen-dist1-password'
p1054
NsS'roku-screensaver-title'
p1055
NsS'osx-minimum-osx-version'
p1056
NsS'symbian-cert'
p1057
NsS'iphone-icon'
p1058
NsS'ws81-ext-capabilities'
p1059
(lp1060
sS'ws8-distribution-cer'
p1061
NsS'playbook-access-shared'
p1062
NsS'iphone-icon-ipad-high-res-ios7'
p1063
NsS'iphone-link-libs'
p1064
(lp1065
sS'wp8-exclude-wvga'
p1066
NsS'assets'
p1067
NsS'wp8-tile-fliptemplate-large-back-image'
p1068
NsS'wp8-custom-manifest-fill'
p1069
NsS'pub-sign-key'
p1070
NsS'android-extra-strings'
p1071
NsS'tizen-author-CA-path'
p1072
Nssg356
g594
sbssS'platform'
p1073
S'S3E'
p1074
sg70
S'1.0'
p1075
sS'arcade_platform'
p1076
g4
sS'extensions'
p1077
(dp1078
sS'source_groups_tree'
p1079
(dp1080
S'(libpng)'
p1081
(dp1082
S'h'
p1083
(dp1084
S'c:/marmalade/7.5/modules/third_party/libpng/h/png.h'
p1085
(lp1086
I1
a(dp1087
asS'c:/marmalade/7.5/modules/third_party/libpng/h/pngconf.h'
p1088
(lp1089
I1
ag1087
assS'c:/marmalade/7.5/modules/third_party/libpng/libpng.mkf'
p1090
(lp1091
I1
a(dp1092
assS'(libjpeg)'
p1093
(dp1094
S'c:/marmalade/7.5/modules/third_party/libjpeg/libjpeg.mkf'
p1095
(lp1096
I1
a(dp1097
asg1083
(dp1098
S'c:/marmalade/7.5/modules/third_party/libjpeg/h/jerror.h'
p1099
(lp1100
I1
a(dp1101
asS'c:/marmalade/7.5/modules/third_party/libjpeg/h/jdhuff.h'
p1102
(lp1103
I1
ag1101
asS'c:/marmalade/7.5/modules/third_party/libjpeg/h/cderror.h'
p1104
(lp1105
I1
ag1101
asS'c:/marmalade/7.5/modules/third_party/libjpeg/h/transupp.h'
p1106
(lp1107
I1
ag1101
asS'c:/marmalade/7.5/modules/third_party/libjpeg/h/jinclude.h'
p1108
(lp1109
I1
ag1101
asS'c:/marmalade/7.5/modules/third_party/libjpeg/h/jmorecfg.h'
p1110
(lp1111
I1
ag1101
asS'c:/marmalade/7.5/modules/third_party/libjpeg/h/jdct.h'
p1112
(lp1113
I1
ag1101
asS'c:/marmalade/7.5/modules/third_party/libjpeg/h/jmemsys.h'
p1114
(lp1115
I1
ag1101
asS'c:/marmalade/7.5/modules/third_party/libjpeg/h/jpegint.h'
p1116
(lp1117
I1
ag1101
asS'c:/marmalade/7.5/modules/third_party/libjpeg/h/jchuff.h'
p1118
(lp1119
I1
ag1101
asS'c:/marmalade/7.5/modules/third_party/libjpeg/h/cdjpeg.h'
p1120
(lp1121
I1
ag1101
asS'c:/marmalade/7.5/modules/third_party/libjpeg/h/jversion.h'
p1122
(lp1123
I1
ag1101
asS'c:/marmalade/7.5/modules/third_party/libjpeg/h/jconfig.h'
p1124
(lp1125
I1
ag1101
asS'c:/marmalade/7.5/modules/third_party/libjpeg/h/jpeglib.h'
p1126
(lp1127
I1
ag1101
asssS'(tiniconv)'
p1128
(dp1129
S'c:/marmalade/7.5/modules/third_party/tiniconv/tiniconv.mkf'
p1130
(lp1131
I1
a(dp1132
asS'c:/marmalade/7.5/modules/third_party/tiniconv/source/tiniconv_int.h'
p1133
(lp1134
I1
a(dp1135
asS'c:/marmalade/7.5/modules/third_party/tiniconv/source/tiniconv.h'
p1136
(lp1137
I1
ag1135
assS'(SoundEngine)'
p1138
(dp1139
S'c:/marmalade/7.5/examples/gametutorial/cpp/modules/soundengine/source/IwSoundGroup.cpp'
p1140
(lp1141
I1
a(dp1142
asS'c:/marmalade/7.5/examples/gametutorial/cpp/modules/soundengine/h/IwSoundADPCM.h'
p1143
(lp1144
I1
ag1142
asS'c:/marmalade/7.5/examples/gametutorial/cpp/modules/soundengine/source/IwResHandlerWAV.cpp'
p1145
(lp1146
I1
ag1142
asS'c:/marmalade/7.5/examples/gametutorial/cpp/modules/soundengine/h/IwResHandlerWAV.h'
p1147
(lp1148
I1
ag1142
asS'Docs'
p1149
(dp1150
S'c:/marmalade/7.5/examples/gametutorial/cpp/modules/soundengine/docs/iwsound.config.txt'
p1151
(lp1152
I1
ag1142
assS'c:/marmalade/7.5/examples/gametutorial/cpp/modules/soundengine/h/IwSoundInst.h'
p1153
(lp1154
I1
ag1142
asS'c:/marmalade/7.5/examples/gametutorial/cpp/modules/soundengine/source/IwSoundManager.cpp'
p1155
(lp1156
I1
ag1142
asS'c:/marmalade/7.5/examples/gametutorial/cpp/modules/soundengine/h/IwSoundSpec.h'
p1157
(lp1158
I1
ag1142
asS'c:/marmalade/7.5/examples/gametutorial/cpp/modules/soundengine/source/IwSoundParams.cpp'
p1159
(lp1160
I1
ag1142
asS'c:/marmalade/7.5/examples/gametutorial/cpp/modules/soundengine/h/IwSoundManager.h'
p1161
(lp1162
I1
ag1142
asS'c:/marmalade/7.5/examples/gametutorial/cpp/modules/soundengine/source/IwSoundPCM.cpp'
p1163
(lp1164
I1
ag1142
asS'c:/marmalade/7.5/examples/gametutorial/cpp/modules/soundengine/source/IwSoundWAV.cpp'
p1165
(lp1166
I1
ag1142
asS'c:/marmalade/7.5/examples/gametutorial/cpp/modules/soundengine/source/IwSoundInst.cpp'
p1167
(lp1168
I1
ag1142
asS'c:/marmalade/7.5/examples/gametutorial/cpp/modules/soundengine/h/IwSoundWAV.h'
p1169
(lp1170
I1
ag1142
asS'c:/marmalade/7.5/examples/gametutorial/cpp/modules/soundengine/source/IwSoundSpec.cpp'
p1171
(lp1172
I1
ag1142
asS'c:/marmalade/7.5/examples/gametutorial/cpp/modules/soundengine/h/IwSoundParams.h'
p1173
(lp1174
I1
ag1142
asS'c:/marmalade/7.5/examples/gametutorial/cpp/modules/soundengine/source/IwSoundADPCM.cpp'
p1175
(lp1176
I1
ag1142
asS'c:/marmalade/7.5/examples/gametutorial/cpp/modules/soundengine/h/IwSound.h'
p1177
(lp1178
I1
ag1142
asS'c:/marmalade/7.5/examples/gametutorial/cpp/modules/soundengine/source/IwSoundData.cpp'
p1179
(lp1180
I1
ag1142
asS'c:/marmalade/7.5/examples/gametutorial/cpp/modules/soundengine/h/IwSoundData.h'
p1181
(lp1182
I1
ag1142
asS'c:/marmalade/7.5/examples/gametutorial/cpp/modules/soundengine/h/IwSoundPCM.h'
p1183
(lp1184
I1
ag1142
asS'c:/marmalade/7.5/examples/gametutorial/cpp/modules/soundengine/soundengine.mkf'
p1185
(lp1186
I1
a(dp1187
asS'c:/marmalade/7.5/examples/gametutorial/cpp/modules/soundengine/h/IwSoundGroup.h'
p1188
(lp1189
I1
ag1142
assS'(MarmaladeExampleResources)'
p1190
(dp1191
S'c:/marmalade/7.5/examples/marmaladeexampleresources/marmaladeexampleresources.mkf'
p1192
(lp1193
I1
a(dp1194
assS'source'
p1195
(dp1196
S'c:/Marmalade/7.5/examples/GameTutorial/CPP/marm1/source/Powerup.cpp'
p1197
(lp1198
I1
a(dp1199
asS'c:/Marmalade/7.5/examples/GameTutorial/CPP/marm1/source/Layer.cpp'
p1200
(lp1201
I1
ag1199
asS'c:/Marmalade/7.5/examples/GameTutorial/CPP/marm1/source/mainMenu.h'
p1202
(lp1203
I1
ag1199
asS'c:/Marmalade/7.5/examples/GameTutorial/CPP/marm1/source/main.h'
p1204
(lp1205
I1
ag1199
asS'c:/Marmalade/7.5/examples/GameTutorial/CPP/marm1/source/Entity.h'
p1206
(lp1207
I1
ag1199
asS'c:/Marmalade/7.5/examples/GameTutorial/CPP/marm1/source/hero.h'
p1208
(lp1209
I1
ag1199
asS'c:/Marmalade/7.5/examples/GameTutorial/CPP/marm1/source/scene.cpp'
p1210
(lp1211
I1
ag1199
asS'c:/Marmalade/7.5/examples/GameTutorial/CPP/marm1/source/Enemymanager.cpp'
p1212
(lp1213
I1
ag1199
asS'c:/Marmalade/7.5/examples/GameTutorial/CPP/marm1/source/Level.h'
p1214
(lp1215
I1
ag1199
asS'c:/Marmalade/7.5/examples/GameTutorial/CPP/marm1/source/input.h'
p1216
(lp1217
I1
ag1199
asS'c:/Marmalade/7.5/examples/GameTutorial/CPP/marm1/source/audio.h'
p1218
(lp1219
I1
ag1199
asS'c:/Marmalade/7.5/examples/GameTutorial/CPP/marm1/source/resources.h'
p1220
(lp1221
I1
ag1199
asS'c:/Marmalade/7.5/examples/GameTutorial/CPP/marm1/source/mainMenu.cpp'
p1222
(lp1223
I1
ag1199
asS'c:/Marmalade/7.5/examples/GameTutorial/CPP/marm1/source/input.cpp'
p1224
(lp1225
I1
ag1199
asS'c:/Marmalade/7.5/examples/GameTutorial/CPP/marm1/source/Shark.h'
p1226
(lp1227
I1
ag1199
asS'c:/Marmalade/7.5/examples/GameTutorial/CPP/marm1/source/main.cpp'
p1228
(lp1229
I1
ag1199
asS'c:/Marmalade/7.5/examples/GameTutorial/CPP/marm1/source/Shark.cpp'
p1230
(lp1231
I1
ag1199
asS'c:/Marmalade/7.5/examples/GameTutorial/CPP/marm1/source/Life.h'
p1232
(lp1233
I1
ag1199
asS'c:/Marmalade/7.5/examples/GameTutorial/CPP/marm1/source/resources.cpp'
p1234
(lp1235
I1
ag1199
asS'c:/Marmalade/7.5/examples/GameTutorial/CPP/marm1/source/Entity.cpp'
p1236
(lp1237
I1
ag1199
asS'c:/Marmalade/7.5/examples/GameTutorial/CPP/marm1/source/Levelmanager.h'
p1238
(lp1239
I1
ag1199
asS'c:/Marmalade/7.5/examples/GameTutorial/CPP/marm1/source/Enemymanager.h'
p1240
(lp1241
I1
ag1199
asS'c:/Marmalade/7.5/examples/GameTutorial/CPP/marm1/source/Levelmanager.cpp'
p1242
(lp1243
I1
ag1199
asS'c:/Marmalade/7.5/examples/GameTutorial/CPP/marm1/source/GameScene.cpp'
p1244
(lp1245
I1
ag1199
asS'c:/Marmalade/7.5/examples/GameTutorial/CPP/marm1/source/BackgroundEntity.h'
p1246
(lp1247
I1
ag1199
asS'c:/Marmalade/7.5/examples/GameTutorial/CPP/marm1/source/pauseMenu.h'
p1248
(lp1249
I1
ag1199
asS'c:/Marmalade/7.5/examples/GameTutorial/CPP/marm1/source/Powerup.h'
p1250
(lp1251
I1
ag1199
asS'c:/Marmalade/7.5/examples/GameTutorial/CPP/marm1/source/BackgroundEntity.cpp'
p1252
(lp1253
I1
ag1199
asS'c:/Marmalade/7.5/examples/GameTutorial/CPP/marm1/source/Life.cpp'
p1254
(lp1255
I1
ag1199
asS'c:/Marmalade/7.5/examples/GameTutorial/CPP/marm1/source/Layer.h'
p1256
(lp1257
I1
ag1199
asS'c:/Marmalade/7.5/examples/GameTutorial/CPP/marm1/source/pauseMenu.cpp'
p1258
(lp1259
I1
ag1199
asS'c:/Marmalade/7.5/examples/GameTutorial/CPP/marm1/source/scene.h'
p1260
(lp1261
I1
ag1199
asS'c:/Marmalade/7.5/examples/GameTutorial/CPP/marm1/source/audio.cpp'
p1262
(lp1263
I1
ag1199
asS'c:/Marmalade/7.5/examples/GameTutorial/CPP/marm1/source/hero.cpp'
p1264
(lp1265
I1
ag1199
asS'c:/Marmalade/7.5/examples/GameTutorial/CPP/marm1/source/GameScene.h'
p1266
(lp1267
I1
ag1199
assS'Extensions'
p1268
(dp1269
S'PVRTexTool'
p1270
(dp1271
S'interface'
p1272
(dp1273
S'c:/marmalade/7.5/extensions/pvrtextool/interface/PVRTexTool.defines.txt'
p1274
(lp1275
I1
a(dp1276
asS'c:/marmalade/7.5/extensions/pvrtextool/interface/PVRTexTool_interface.cpp'
p1277
(lp1278
I1
ag1276
assS'c:/marmalade/7.5/extensions/pvrtextool/h/PVRTexTool.h'
p1279
(lp1280
I1
ag1276
asS'c:/marmalade/7.5/extensions/pvrtextool/pvrtextool.mkf'
p1281
(lp1282
I1
a(dp1283
asssS"'Marmalade Studio'"
p1284
(dp1285
S'iw2dscenegraph'
p1286
(dp1287
S'c:/marmalade/7.5/modules/iw2dscenegraph/source/Iw2DSceneGraph.cpp'
p1288
(lp1289
I1
a(dp1290
asS'c:/marmalade/7.5/modules/iw2dscenegraph/docs/iw2dscenegraph.defines.txt'
p1291
(lp1292
I1
ag1290
asS'c:/marmalade/7.5/modules/iw2dscenegraph/h/Iw2DSceneGraph.h'
p1293
(lp1294
I1
ag1290
asS'c:/marmalade/7.5/modules/iw2dscenegraph/iw2dscenegraph.mkf'
p1295
(lp1296
I1
a(dp1297
assS'iwgl'
p1298
(dp1299
S'c:/marmalade/7.5/modules/iwgl/iwgl.mkf'
p1300
(lp1301
I1
a(dp1302
asS'c:/marmalade/7.5/modules/iwgl/h/IwGL.h'
p1303
(lp1304
I1
a(dp1305
asS'c:/marmalade/7.5/modules/iwgl/docs/iwgl.config.txt'
p1306
(lp1307
I1
ag1305
asS'c:/marmalade/7.5/modules/iwgl/h/IwGLExt.h'
p1308
(lp1309
I1
ag1305
assS'iw2d'
p1310
(dp1311
S'c:/marmalade/7.5/modules/iw2d/docs/iw2d_public.defines.txt'
p1312
(lp1313
I1
a(dp1314
asS'c:/marmalade/7.5/modules/iw2d/docs/iw2d.config.txt'
p1315
(lp1316
I1
ag1314
asS'c:/marmalade/7.5/modules/iw2d/h/Iw2D.h'
p1317
(lp1318
I1
ag1314
asS'c:/marmalade/7.5/modules/iw2d/iw2d.mkf'
p1319
(lp1320
I1
a(dp1321
assS'iwgxfont'
p1322
(dp1323
S'c:/marmalade/7.5/modules/iwgxfont/h/IwGxFontGlyph.h'
p1324
(lp1325
I1
a(dp1326
asS'c:/marmalade/7.5/modules/iwgxfont/h/IwGxFontTypes.h'
p1327
(lp1328
I1
ag1326
asS'c:/marmalade/7.5/modules/iwgxfont/docs/iwgxfont.config.txt'
p1329
(lp1330
I1
ag1326
asS'c:/marmalade/7.5/modules/iwgxfont/h/IwGxFontState.h'
p1331
(lp1332
I1
ag1326
asS'c:/marmalade/7.5/modules/iwgxfont/h/IwGxFontContainer.h'
p1333
(lp1334
I1
ag1326
asS'c:/marmalade/7.5/modules/iwgxfont/iwgxfont.mkf'
p1335
(lp1336
I1
a(dp1337
asS'c:/marmalade/7.5/modules/iwgxfont/h/IwGxFontPreparedData.h'
p1338
(lp1339
I1
ag1326
asS'c:/marmalade/7.5/modules/iwgxfont/h/IwGxFont.h'
p1340
(lp1341
I1
ag1326
asS'c:/marmalade/7.5/modules/iwgxfont/docs/iwgxfont_public.defines.txt'
p1342
(lp1343
I1
ag1326
assS'iwgeom'
p1344
(dp1345
S'c:/marmalade/7.5/modules/iwgeom/h/IwGeomSVec2.h'
p1346
(lp1347
I1
a(dp1348
asS'c:/marmalade/7.5/modules/iwgeom/h/IwGeomSphere.h'
p1349
(lp1350
I1
ag1348
asS'c:/marmalade/7.5/modules/iwgeom/h/IwGeomSVec3.h'
p1351
(lp1352
I1
ag1348
asS'c:/marmalade/7.5/modules/iwgeom/iwgeom.mkf'
p1353
(lp1354
I1
a(dp1355
asS'c:/marmalade/7.5/modules/iwgeom/h/IwGeomSqrt.h'
p1356
(lp1357
I1
ag1348
asS'c:/marmalade/7.5/modules/iwgeom/h/IwGeomFQuat.h'
p1358
(lp1359
I1
ag1348
asS'c:/marmalade/7.5/modules/iwgeom/h/IwGeomQuat.h.tpl'
p1360
(lp1361
I1
ag1348
asS'c:/marmalade/7.5/modules/iwgeom/h/IwGeomVec2.h'
p1362
(lp1363
I1
ag1348
asS'c:/marmalade/7.5/modules/iwgeom/h/IwGeomMat.h'
p1364
(lp1365
I1
ag1348
asS'c:/marmalade/7.5/modules/iwgeom/h/IwGeomVec3.h'
p1366
(lp1367
I1
ag1348
asS'c:/marmalade/7.5/modules/iwgeom/h/IwGeomLegacy.h'
p1368
(lp1369
I1
ag1348
asS'c:/marmalade/7.5/modules/iwgeom/h/IwGeom.h'
p1370
(lp1371
I1
ag1348
asS'c:/marmalade/7.5/modules/iwgeom/h/IwGeomSQuat.h'
p1372
(lp1373
I1
ag1348
asS'c:/marmalade/7.5/modules/iwgeom/h/IwGeomFBBox.h'
p1374
(lp1375
I1
ag1348
asS'c:/marmalade/7.5/modules/iwgeom/h/IwGeomFMat.h'
p1376
(lp1377
I1
ag1348
asS'c:/marmalade/7.5/modules/iwgeom/h/IwGeomPlane.h'
p1378
(lp1379
I1
ag1348
asS'c:/marmalade/7.5/modules/iwgeom/h/IwGeomMat2D.h'
p1380
(lp1381
I1
ag1348
asS'c:/marmalade/7.5/modules/iwgeom/h/IwGeomFVec2.h'
p1382
(lp1383
I1
ag1348
asS'c:/marmalade/7.5/modules/iwgeom/h/IwGeomSVec4.h'
p1384
(lp1385
I1
ag1348
asS'c:/marmalade/7.5/modules/iwgeom/h/IwGeomVec4.h'
p1386
(lp1387
I1
ag1348
asS'c:/marmalade/7.5/modules/iwgeom/h/IwGeomCore.h'
p1388
(lp1389
I1
ag1348
asS'c:/marmalade/7.5/modules/iwgeom/h/IwGeomVec.h.tpl'
p1390
(lp1391
I1
ag1348
asS'c:/marmalade/7.5/modules/iwgeom/h/IwGeomVec.h'
p1392
(lp1393
I1
ag1348
asS'c:/marmalade/7.5/modules/iwgeom/h/IwGeomIntersect.h'
p1394
(lp1395
I1
ag1348
asS'c:/marmalade/7.5/modules/iwgeom/h/IwGeomFVec4.h'
p1396
(lp1397
I1
ag1348
asS'c:/marmalade/7.5/modules/iwgeom/h/IwGeomMat.h.tpl'
p1398
(lp1399
I1
ag1348
asS'c:/marmalade/7.5/modules/iwgeom/h/IwGeomMat2D.h.tpl'
p1400
(lp1401
I1
ag1348
asS'c:/marmalade/7.5/modules/iwgeom/h/IwGeomFMat2D.h'
p1402
(lp1403
I1
ag1348
asS'c:/marmalade/7.5/modules/iwgeom/h/IwGeomMenu.h'
p1404
(lp1405
I1
ag1348
asS'c:/marmalade/7.5/modules/iwgeom/h/IwGeomBBox.h'
p1406
(lp1407
I1
ag1348
asS'c:/marmalade/7.5/modules/iwgeom/h/IwGeomFSphere.h'
p1408
(lp1409
I1
ag1348
asS'c:/marmalade/7.5/modules/iwgeom/h/IwGeomFVec3.h'
p1410
(lp1411
I1
ag1348
asS'c:/marmalade/7.5/modules/iwgeom/h/IwGeomFPlane.h'
p1412
(lp1413
I1
ag1348
asS'c:/marmalade/7.5/modules/iwgeom/docs/iwgeom.config.txt'
p1414
(lp1415
I1
ag1348
asS'c:/marmalade/7.5/modules/iwgeom/h/IwGeomQuat.h'
p1416
(lp1417
I1
ag1348
asS'c:/marmalade/7.5/modules/iwgeom/h/IwGeomFIntersect.h'
p1418
(lp1419
I1
ag1348
assS'iwresmanager'
p1420
(dp1421
S'c:/marmalade/7.5/modules/iwresmanager/h/IwResHandlerITX.h'
p1422
(lp1423
I1
a(dp1424
asS'c:/marmalade/7.5/modules/iwresmanager/h/IwResSerialise.h'
p1425
(lp1426
I1
ag1424
asS'c:/marmalade/7.5/modules/iwresmanager/h/IwResManagerClass.h'
p1427
(lp1428
I1
ag1424
asS'c:/marmalade/7.5/modules/iwresmanager/h/IwResHandlerGROUP.h'
p1429
(lp1430
I1
ag1424
asS'c:/marmalade/7.5/modules/iwresmanager/h/IwResManager.h'
p1431
(lp1432
I1
ag1424
asS'c:/marmalade/7.5/modules/iwresmanager/iwresmanager.mkf'
p1433
(lp1434
I1
a(dp1435
asS'c:/marmalade/7.5/modules/iwresmanager/docs/iwresmanager.config.txt'
p1436
(lp1437
I1
ag1424
asS'c:/marmalade/7.5/modules/iwresmanager/h/IwResGroup.h'
p1438
(lp1439
I1
ag1424
asS'c:/marmalade/7.5/modules/iwresmanager/h/IwResHandler.h'
p1440
(lp1441
I1
ag1424
asS'c:/marmalade/7.5/modules/iwresmanager/h/IwResHandlerImage.h'
p1442
(lp1443
I1
ag1424
assS'iwgx'
p1444
(dp1445
S'c:/marmalade/7.5/modules/iwgx/h/IwDebugPrim.h'
p1446
(lp1447
I1
a(dp1448
asS'c:/marmalade/7.5/modules/iwgx/h/IwMatAnim.h'
p1449
(lp1450
I1
ag1448
asS'c:/marmalade/7.5/modules/iwgx/h/IwTexture.h'
p1451
(lp1452
I1
ag1448
asS'c:/marmalade/7.5/modules/iwgx/h/IwGxFuncTable.h'
p1453
(lp1454
I1
ag1448
asS'c:/marmalade/7.5/modules/iwgx/h/IwResHandlerMTL.h'
p1455
(lp1456
I1
ag1448
asS'c:/marmalade/7.5/modules/iwgx/h/IwGxPrint.h'
p1457
(lp1458
I1
ag1448
asS'c:/marmalade/7.5/modules/iwgx/h/IwGxStream.h'
p1459
(lp1460
I1
ag1448
asS'c:/marmalade/7.5/modules/iwgx/h/IwClip.h'
p1461
(lp1462
I1
ag1448
asS'c:/marmalade/7.5/modules/iwgx/h/IwGxSurface.h'
p1463
(lp1464
I1
ag1448
asS'c:/marmalade/7.5/modules/iwgx/h/IwGxError.h'
p1465
(lp1466
I1
ag1448
asS'c:/marmalade/7.5/modules/iwgx/h/IwGx.h'
p1467
(lp1468
I1
ag1448
asS'c:/marmalade/7.5/modules/iwgx/docs/iwgx_public.defines.txt'
p1469
(lp1470
I1
ag1448
asS'c:/marmalade/7.5/modules/iwgx/h/IwGxDebug.h'
p1471
(lp1472
I1
ag1448
asS'c:/marmalade/7.5/modules/iwgx/h/IwGxShaderTechnique.h'
p1473
(lp1474
I1
ag1448
asS'c:/marmalade/7.5/modules/iwgx/h/IwGxTransformSW.h'
p1475
(lp1476
I1
ag1448
asS'c:/marmalade/7.5/modules/iwgx/h/IwMaterial.h'
p1477
(lp1478
I1
ag1448
asS'c:/marmalade/7.5/modules/iwgx/h/IwGxMetrics.h'
p1479
(lp1480
I1
ag1448
asS'c:/marmalade/7.5/modules/iwgx/h/IwClip.inl'
p1481
(lp1482
I1
ag1448
asS'c:/marmalade/7.5/modules/iwgx/h/IwFColour.h'
p1483
(lp1484
I1
ag1448
asS'c:/marmalade/7.5/modules/iwgx/h/IwGxTypes.h'
p1485
(lp1486
I1
ag1448
asS'c:/marmalade/7.5/modules/iwgx/iwgx.mkf'
p1487
(lp1488
I1
a(dp1489
asS'c:/marmalade/7.5/modules/iwgx/docs/iwgx.config.txt'
p1490
(lp1491
I1
ag1448
asS'c:/marmalade/7.5/modules/iwgx/h/IwColour.h'
p1492
(lp1493
I1
ag1448
asS'c:/marmalade/7.5/modules/iwgx/h/IwGxState.h'
p1494
(lp1495
I1
ag1448
asS'c:/marmalade/7.5/modules/iwgx/h/IwTPage.h'
p1496
(lp1497
I1
ag1448
assS'iw2dscenegraphcore'
p1498
(dp1499
S'c:/marmalade/7.5/modules/iw2dscenegraphcore/iw2dscenegraphcore.mkf'
p1500
(lp1501
I1
a(dp1502
asS'c:/marmalade/7.5/modules/iw2dscenegraphcore/h/Iw2DSceneGraphCore.h'
p1503
(lp1504
I1
a(dp1505
asS'c:/marmalade/7.5/modules/iw2dscenegraphcore/source/Iw2DSceneGraphCore.cpp'
p1506
(lp1507
I1
ag1505
assS'iwutil'
p1508
(dp1509
S'c:/marmalade/7.5/modules/iwutil/h/IwSingleton.h'
p1510
(lp1511
I1
a(dp1512
asS'c:/marmalade/7.5/modules/iwutil/h/IwMath.h'
p1513
(lp1514
I1
ag1512
asS'c:/marmalade/7.5/modules/iwutil/h/IwBuffer.h'
p1515
(lp1516
I1
ag1512
asS'c:/marmalade/7.5/modules/iwutil/h/IwCore.h'
p1517
(lp1518
I1
ag1512
asS'c:/marmalade/7.5/modules/iwutil/h/IwDivide.h'
p1519
(lp1520
I1
ag1512
asS'c:/marmalade/7.5/modules/iwutil/h/IwMemory.h'
p1521
(lp1522
I1
ag1512
asS'c:/marmalade/7.5/modules/iwutil/h/IwImageHelper.h'
p1523
(lp1524
I1
ag1512
asS'c:/marmalade/7.5/modules/iwutil/h/IwManagedList.h'
p1525
(lp1526
I1
ag1512
asS'c:/marmalade/7.5/modules/iwutil/h/IwProfileMenu.h'
p1527
(lp1528
I1
ag1512
asS'c:/marmalade/7.5/modules/iwutil/h/IwClassFactory.h'
p1529
(lp1530
I1
ag1512
asS'c:/marmalade/7.5/modules/iwutil/h/IwDivTable.h'
p1531
(lp1532
I1
ag1512
asS'c:/marmalade/7.5/modules/iwutil/h/IwManaged.h'
p1533
(lp1534
I1
ag1512
asS'c:/marmalade/7.5/modules/iwutil/h/IwTextParseable.h'
p1535
(lp1536
I1
ag1512
asS'c:/marmalade/7.5/modules/iwutil/h/IwChar.h'
p1537
(lp1538
I1
ag1512
asS'c:/marmalade/7.5/modules/iwutil/h/IwRandom.h'
p1539
(lp1540
I1
ag1512
asS'c:/marmalade/7.5/modules/iwutil/h/IwDebug.h'
p1541
(lp1542
I1
ag1512
asS'c:/marmalade/7.5/modules/iwutil/h/IwUTF8.h'
p1543
(lp1544
I1
ag1512
asS'c:/marmalade/7.5/modules/iwutil/docs/iwutil.config.txt'
p1545
(lp1546
I1
ag1512
asS'c:/marmalade/7.5/modules/iwutil/h/IwAllocator.h'
p1547
(lp1548
I1
ag1512
asS'c:/marmalade/7.5/modules/iwutil/h/IwMemBucketHelpers.h'
p1549
(lp1550
I1
ag1512
asS'c:/marmalade/7.5/modules/iwutil/h/IwTextParserITX.h'
p1551
(lp1552
I1
ag1512
asS'c:/marmalade/7.5/modules/iwutil/h/IwKeymap.h'
p1553
(lp1554
I1
ag1512
asS'c:/marmalade/7.5/modules/iwutil/h/IwImage.h'
p1555
(lp1556
I1
ag1512
asS'c:/marmalade/7.5/modules/iwutil/h/IwOptimiseARM.h'
p1557
(lp1558
I1
ag1512
asS'c:/marmalade/7.5/modules/iwutil/h/IwMemBucket.h'
p1559
(lp1560
I1
ag1512
asS'c:/marmalade/7.5/modules/iwutil/h/IwOptimiseSize.h'
p1561
(lp1562
I1
ag1512
asS'c:/marmalade/7.5/modules/iwutil/h/IwRuntime.h'
p1563
(lp1564
I1
ag1512
asS'c:/marmalade/7.5/modules/iwutil/h/IwMemManagerDL.h'
p1565
(lp1566
I1
ag1512
asS'c:/marmalade/7.5/modules/iwutil/h/IwPath.h'
p1567
(lp1568
I1
ag1512
asS'c:/marmalade/7.5/modules/iwutil/h/IwOptimiseSpeed.h'
p1569
(lp1570
I1
ag1512
asS'c:/marmalade/7.5/modules/iwutil/h/IwList.h'
p1571
(lp1572
I1
ag1512
asS'c:/marmalade/7.5/modules/iwutil/h/IwAutoFile.h'
p1573
(lp1574
I1
ag1512
asS'c:/marmalade/7.5/modules/iwutil/h/IwVariableBitField.h'
p1575
(lp1576
I1
ag1512
asS'c:/marmalade/7.5/modules/iwutil/h/IwHashString.h'
p1577
(lp1578
I1
ag1512
asS'c:/marmalade/7.5/modules/iwutil/h/IwOptimiseThumb.h'
p1579
(lp1580
I1
ag1512
asS'c:/marmalade/7.5/modules/iwutil/iwutil.mkf'
p1581
(lp1582
I1
a(dp1583
asS'c:/marmalade/7.5/modules/iwutil/h/IwUtil.h'
p1584
(lp1585
I1
ag1512
asS'c:/marmalade/7.5/modules/iwutil/h/IwString.h'
p1586
(lp1587
I1
ag1512
asS'c:/marmalade/7.5/modules/iwutil/h/IwFile.h'
p1588
(lp1589
I1
ag1512
asS'c:/marmalade/7.5/modules/iwutil/h/IwUncopyable.h'
p1590
(lp1591
I1
ag1512
asS'c:/marmalade/7.5/modules/iwutil/h/IwTextParser.h'
p1592
(lp1593
I1
ag1512
asS'c:/marmalade/7.5/modules/iwutil/h/IwCopyingPtr.h'
p1594
(lp1595
I1
ag1512
asS'c:/marmalade/7.5/modules/iwutil/h/IwEvent.h'
p1596
(lp1597
I1
ag1512
asS'c:/marmalade/7.5/modules/iwutil/h/IwFibre.h'
p1598
(lp1599
I1
ag1512
asS'c:/marmalade/7.5/modules/iwutil/h/IwArray.h'
p1600
(lp1601
I1
ag1512
asS'c:/marmalade/7.5/modules/iwutil/h/IwMenu.h'
p1602
(lp1603
I1
ag1512
asS'c:/marmalade/7.5/modules/iwutil/h/IwTypes.h'
p1604
(lp1605
I1
ag1512
asS'c:/marmalade/7.5/modules/iwutil/h/IwUtilInitTerm.h'
p1606
(lp1607
I1
ag1512
asS'c:/marmalade/7.5/modules/iwutil/h/IwResource.h'
p1608
(lp1609
I1
ag1512
asS'c:/marmalade/7.5/modules/iwutil/h/IwSerialise.h'
p1610
(lp1611
I1
ag1512
asssS'(zlib)'
p1612
(dp1613
g1083
(dp1614
S'c:/marmalade/7.5/modules/third_party/zlib/h/zconf.h'
p1615
(lp1616
I1
a(dp1617
asS'c:/marmalade/7.5/modules/third_party/zlib/h/zlib.h'
p1618
(lp1619
I1
ag1617
assS'c:/marmalade/7.5/modules/third_party/zlib/zlib.mkf'
p1620
(lp1621
I1
a(dp1622
assS'(iwtween)'
p1623
(dp1624
S'c:/marmalade/7.5/modules/iwtween/h/IwTween.h'
p1625
(lp1626
I1
a(dp1627
asS'c:/marmalade/7.5/modules/iwtween/source/IwTween.cpp'
p1628
(lp1629
I1
ag1627
asS'c:/marmalade/7.5/modules/iwtween/iwtween.mkf'
p1630
(lp1631
I1
a(dp1632
assS'(s3e-default)'
p1633
(dp1634
S'c:/marmalade/7.5/s3e/s3e-default.mkf'
p1635
(lp1636
I1
a(dp1637
asssS'files'
p1638
(dp1639
S'IwGxFontPreparedData.h'
p1640
g330
(cmkb_main
File
p1641
g332
Ntp1642
Rp1643
(dp1644
S'flags'
p1645
g1326
sS'group'
p1646
(lp1647
S"'Marmalade Studio'"
p1648
ag1322
asg356
g1338
sbsS'iterator'
p1649
g330
(g1641
g332
Ntp1650
Rp1651
(dp1652
g1645
(dp1653
sg1646
(lp1654
S"'Marmalade System (S3E)'"
p1655
aS'stdc headers'
p1656
aS'c++'
p1657
asg356
S'c:/marmalade/7.5/s3e/h/std/c++/iterator'
p1658
sbsS'IwGL.h'
p1659
g330
(g1641
g332
Ntp1660
Rp1661
(dp1662
g1645
g1305
sg1646
(lp1663
S"'Marmalade Studio'"
p1664
ag1298
asg356
g1303
sbsS's3e.h'
p1665
g330
(g1641
g332
Ntp1666
Rp1667
(dp1668
g1645
g1653
sg1646
(lp1669
g1655
asg356
S'c:/marmalade/7.5/s3e/h/s3e.h'
p1670
sbsS'errno.h'
p1671
g330
(g1641
g332
Ntp1672
Rp1673
(dp1674
g1645
g1653
sg1646
(lp1675
g1655
aS'stdc headers'
p1676
asg356
S'c:/marmalade/7.5/s3e/h/std/errno.h'
p1677
sbsS'IwSingleton.h'
p1678
g330
(g1641
g332
Ntp1679
Rp1680
(dp1681
g1645
g1512
sg1646
(lp1682
S"'Marmalade Studio'"
p1683
ag1508
asg356
g1510
sbsS'dlfcn.h'
p1684
g330
(g1641
g332
Ntp1685
Rp1686
(dp1687
g1645
g1653
sg1646
g1675
sg356
S'c:/marmalade/7.5/s3e/h/std/dlfcn.h'
p1688
sbsS'IwSoundWAV.cpp'
p1689
g330
(g1641
g332
Ntp1690
Rp1691
(dp1692
g1645
g1142
sg1646
(lp1693
g1138
asg356
g1165
sbsS'sched.h'
p1694
g330
(g1641
g332
Ntp1695
Rp1696
(dp1697
g1645
g1653
sg1646
g1675
sg356
S'c:/marmalade/7.5/s3e/h/std/sched.h'
p1698
sbsS'IwSoundPCM.h'
p1699
g330
(g1641
g332
Ntp1700
Rp1701
(dp1702
g1645
g1142
sg1646
g1693
sg356
g1183
sbsS'IwGeomFMat2D.h'
p1703
g330
(g1641
g332
Ntp1704
Rp1705
(dp1706
g1645
g1348
sg1646
(lp1707
S"'Marmalade Studio'"
p1708
ag1344
asg356
g1402
sbsS'cassert'
p1709
g330
(g1641
g332
Ntp1710
Rp1711
(dp1712
g1645
g1653
sg1646
g1654
sg356
S'c:/marmalade/7.5/s3e/h/std/c++/cassert'
p1713
sbsS'grp.h'
p1714
g330
(g1641
g332
Ntp1715
Rp1716
(dp1717
g1645
g1653
sg1646
g1675
sg356
S'c:/marmalade/7.5/s3e/h/std/grp.h'
p1718
sbsS'list'
p1719
g330
(g1641
g332
Ntp1720
Rp1721
(dp1722
g1645
g1653
sg1646
g1654
sg356
S'c:/marmalade/7.5/s3e/h/std/c++/list'
p1723
sbsS'IwSoundSpec.cpp'
p1724
g330
(g1641
g332
Ntp1725
Rp1726
(dp1727
g1645
g1142
sg1646
g1693
sg356
g1171
sbsS'IwGeomMat.h.tpl'
p1728
g330
(g1641
g332
Ntp1729
Rp1730
(dp1731
g1645
g1348
sg1646
g1707
sg356
g1398
sbsS'istream'
p1732
g330
(g1641
g332
Ntp1733
Rp1734
(dp1735
g1645
g1653
sg1646
g1654
sg356
S'c:/marmalade/7.5/s3e/h/std/c++/istream'
p1736
sbsS'jpeglib.h'
p1737
g330
(g1641
g332
Ntp1738
Rp1739
(dp1740
g1645
g1101
sg1646
(lp1741
g1093
ag1083
asg356
g1126
sbsS'iw2d_public.defines.txt'
p1742
g330
(g1641
g332
Ntp1743
Rp1744
(dp1745
g1645
g1314
sg1646
(lp1746
S"'Marmalade Studio'"
p1747
ag1310
asg356
g1312
sbsS'iostream.h'
p1748
g330
(g1641
g332
Ntp1749
Rp1750
(dp1751
g1645
g1653
sg1646
g1654
sg356
S'c:/marmalade/7.5/s3e/h/std/c++/iostream.h'
p1752
sbsS'IwSoundADPCM.h'
p1753
g330
(g1641
g332
Ntp1754
Rp1755
(dp1756
g1645
g1142
sg1646
g1693
sg356
g1143
sbsS'string'
p1757
g330
(g1641
g332
Ntp1758
Rp1759
(dp1760
g1645
g1653
sg1646
g1654
sg356
S'c:/marmalade/7.5/s3e/h/std/c++/string'
p1761
sbsS'IwMemory.h'
p1762
g330
(g1641
g332
Ntp1763
Rp1764
(dp1765
g1645
g1512
sg1646
g1682
sg356
g1521
sbsS'IwGeomPlane.h'
p1766
g330
(g1641
g332
Ntp1767
Rp1768
(dp1769
g1645
g1348
sg1646
g1707
sg356
g1378
sbsS'iw2d.config.txt'
p1770
g330
(g1641
g332
Ntp1771
Rp1772
(dp1773
g1645
g1314
sg1646
g1746
sg356
g1315
sbsS'iomanip'
p1774
g330
(g1641
g332
Ntp1775
Rp1776
(dp1777
g1645
g1653
sg1646
g1654
sg356
S'c:/marmalade/7.5/s3e/h/std/c++/iomanip'
p1778
sbsS'iwgeom.mkf'
p1779
g330
(g1641
g332
Ntp1780
Rp1781
(dp1782
g1645
g1355
sg1646
g1707
sg356
g1353
sbsS'IwGxError.h'
p1783
g330
(g1641
g332
Ntp1784
Rp1785
(dp1786
g1645
g1448
sg1646
(lp1787
S"'Marmalade Studio'"
p1788
ag1444
asg356
g1465
sbsS'IwGeom.h'
p1789
g330
(g1641
g332
Ntp1790
Rp1791
(dp1792
g1645
g1348
sg1646
g1707
sg356
g1370
sbsS'scene.cpp'
p1793
g330
(g1641
g332
Ntp1794
Rp1795
(dp1796
g1645
g1199
sg1646
(lp1797
g1195
asg356
g1210
sbsS'IwGeomVec4.h'
p1798
g330
(g1641
g332
Ntp1799
Rp1800
(dp1801
g1645
g1348
sg1646
g1707
sg356
g1386
sbsS'dir.h'
p1802
g330
(g1641
g332
Ntp1803
Rp1804
(dp1805
g1645
g1653
sg1646
(lp1806
g1655
aS'stdc headers'
p1807
aS'sys'
p1808
asg356
S'c:/marmalade/7.5/s3e/h/std/sys/dir.h'
p1809
sbsS'locale.h'
p1810
g330
(g1641
g332
Ntp1811
Rp1812
(dp1813
g1645
g1653
sg1646
g1675
sg356
S'c:/marmalade/7.5/s3e/h/std/locale.h'
p1814
sbsS'vector'
p1815
g330
(g1641
g332
Ntp1816
Rp1817
(dp1818
g1645
g1653
sg1646
g1654
sg356
S'c:/marmalade/7.5/s3e/h/std/c++/vector'
p1819
sbsS'IwManaged.h'
p1820
g330
(g1641
g332
Ntp1821
Rp1822
(dp1823
g1645
g1512
sg1646
g1682
sg356
g1533
sbsS's3eCompass.h'
p1824
g330
(g1641
g332
Ntp1825
Rp1826
(dp1827
g1645
g1653
sg1646
g1669
sg356
S'c:/marmalade/7.5/s3e/h/s3eCompass.h'
p1828
sbsS'cderror.h'
p1829
g330
(g1641
g332
Ntp1830
Rp1831
(dp1832
g1645
g1101
sg1646
g1741
sg356
g1104
sbsS'climits'
p1833
g330
(g1641
g332
Ntp1834
Rp1835
(dp1836
g1645
g1653
sg1646
g1654
sg356
S'c:/marmalade/7.5/s3e/h/std/c++/climits'
p1837
sbsS's3eVibra.h'
p1838
g330
(g1641
g332
Ntp1839
Rp1840
(dp1841
g1645
g1653
sg1646
g1669
sg356
S'c:/marmalade/7.5/s3e/h/s3eVibra.h'
p1842
sbsS'jversion.h'
p1843
g330
(g1641
g332
Ntp1844
Rp1845
(dp1846
g1645
g1101
sg1646
g1741
sg356
g1122
sbsS'fnmatch.h'
p1847
g330
(g1641
g332
Ntp1848
Rp1849
(dp1850
g1645
g1653
sg1646
g1675
sg356
S'c:/marmalade/7.5/s3e/h/std/fnmatch.h'
p1851
sbsS'IwGxState.h'
p1852
g330
(g1641
g332
Ntp1853
Rp1854
(dp1855
g1645
g1448
sg1646
g1787
sg356
g1494
sbsS'rope'
p1856
g330
(g1641
g332
Ntp1857
Rp1858
(dp1859
g1645
g1653
sg1646
g1654
sg356
S'c:/marmalade/7.5/s3e/h/std/c++/rope'
p1860
sbsS's3eAudio.h'
p1861
g330
(g1641
g332
Ntp1862
Rp1863
(dp1864
g1645
g1653
sg1646
g1669
sg356
S'c:/marmalade/7.5/s3e/h/s3eAudio.h'
p1865
sbsS's3eSurface.h'
p1866
g330
(g1641
g332
Ntp1867
Rp1868
(dp1869
g1645
g1653
sg1646
g1669
sg356
S'c:/marmalade/7.5/s3e/h/s3eSurface.h'
p1870
sbsS'new'
p1871
g330
(g1641
g332
Ntp1872
Rp1873
(dp1874
g1645
g1653
sg1646
g1654
sg356
S'c:/marmalade/7.5/s3e/h/std/c++/new'
p1875
sbsS's3eWindow.h'
p1876
g330
(g1641
g332
Ntp1877
Rp1878
(dp1879
g1645
g1653
sg1646
(lp1880
g1655
aS'Extensions'
p1881
asg356
S'c:/marmalade/7.5/s3e/h/ext/s3eWindow.h'
p1882
sbsS'IwBuffer.h'
p1883
g330
(g1641
g332
Ntp1884
Rp1885
(dp1886
g1645
g1512
sg1646
g1682
sg356
g1515
sbsS'stdio_streambuf'
p1887
g330
(g1641
g332
Ntp1888
Rp1889
(dp1890
g1645
g1653
sg1646
g1654
sg356
S'c:/marmalade/7.5/s3e/h/std/c++/stdio_streambuf'
p1891
sbsS'IwGeomQuat.h.tpl'
p1892
g330
(g1641
g332
Ntp1893
Rp1894
(dp1895
g1645
g1348
sg1646
g1707
sg356
g1360
sbsS's3eOSExec.h'
p1896
g330
(g1641
g332
Ntp1897
Rp1898
(dp1899
g1645
g1653
sg1646
g1880
sg356
S'c:/marmalade/7.5/s3e/h/ext/s3eOSExec.h'
p1900
sbsS'IwGxTransformSW.h'
p1901
g330
(g1641
g332
Ntp1902
Rp1903
(dp1904
g1645
g1448
sg1646
g1787
sg356
g1475
sbsS'unistd.h'
p1905
g330
(g1641
g332
Ntp1906
Rp1907
(dp1908
g1645
g1653
sg1646
g1675
sg356
S'c:/marmalade/7.5/s3e/h/std/unistd.h'
p1909
sbsS'iwgxfont.config.txt'
p1910
g330
(g1641
g332
Ntp1911
Rp1912
(dp1913
g1645
g1326
sg1646
g1647
sg356
g1329
sbsS'gl2platform.h'
p1914
g330
(g1641
g332
Ntp1915
Rp1916
(dp1917
g1645
g1653
sg1646
(lp1918
g1655
aS'GL'
p1919
aS'GLES 2.0'
p1920
asg356
S'c:/marmalade/7.5/s3e/h/GLES2/gl2platform.h'
p1921
sbsS'IwResManagerClass.h'
p1922
g330
(g1641
g332
Ntp1923
Rp1924
(dp1925
g1645
g1424
sg1646
(lp1926
g1284
ag1420
asg356
g1427
sbsS'queue'
p1927
g330
(g1641
g332
Ntp1928
Rp1929
(dp1930
g1645
g1653
sg1646
g1654
sg356
S'c:/marmalade/7.5/s3e/h/std/c++/queue'
p1931
sbsS'time_1.h'
p1932
g330
(g1641
g332
Ntp1933
Rp1934
(dp1935
g1645
g1653
sg1646
g1806
sg356
S'c:/marmalade/7.5/s3e/h/std/sys/time.h'
p1936
sbsS'Iw2D.h'
p1937
g330
(g1641
g332
Ntp1938
Rp1939
(dp1940
g1645
g1314
sg1646
g1746
sg356
g1317
sbsS'IwGeomVec2.h'
p1941
g330
(g1641
g332
Ntp1942
Rp1943
(dp1944
g1645
g1348
sg1646
g1707
sg356
g1362
sbsS'sendfile.h'
p1945
g330
(g1641
g332
Ntp1946
Rp1947
(dp1948
g1645
g1653
sg1646
g1806
sg356
S'c:/marmalade/7.5/s3e/h/std/sys/sendfile.h'
p1949
sbsS'malloc.h'
p1950
g330
(g1641
g332
Ntp1951
Rp1952
(dp1953
g1645
g1653
sg1646
g1675
sg356
S'c:/marmalade/7.5/s3e/h/std/malloc.h'
p1954
sbsS'stdarg.h'
p1955
g330
(g1641
g332
Ntp1956
Rp1957
(dp1958
g1645
g1653
sg1646
g1675
sg356
S'c:/marmalade/7.5/s3e/h/std/stdarg.h'
p1959
sbsS'IwGeomCore.h'
p1960
g330
(g1641
g332
Ntp1961
Rp1962
(dp1963
g1645
g1348
sg1646
g1707
sg356
g1388
sbsS'Iw2DSceneGraph.h'
p1964
g330
(g1641
g332
Ntp1965
Rp1966
(dp1967
g1645
g1290
sg1646
(lp1968
S"'Marmalade Studio'"
p1969
ag1286
asg356
g1293
sbsS'endian.h'
p1970
g330
(g1641
g332
Ntp1971
Rp1972
(dp1973
g1645
g1653
sg1646
g1675
sg356
S'c:/marmalade/7.5/s3e/h/std/endian.h'
p1974
sbsS'gl3ext.h'
p1975
g330
(g1641
g332
Ntp1976
Rp1977
(dp1978
g1645
g1653
sg1646
(lp1979
g1655
aS'GL'
p1980
aS'GLES 3.0'
p1981
asg356
S'c:/marmalade/7.5/s3e/h/GLES3/gl3ext.h'
p1982
sbsS'glob.h'
p1983
g330
(g1641
g332
Ntp1984
Rp1985
(dp1986
g1645
g1653
sg1646
g1675
sg356
S'c:/marmalade/7.5/s3e/h/std/glob.h'
p1987
sbsS'fstream'
p1988
g330
(g1641
g332
Ntp1989
Rp1990
(dp1991
g1645
g1653
sg1646
g1654
sg356
S'c:/marmalade/7.5/s3e/h/std/c++/fstream'
p1992
sbsS's3eCamera.h'
p1993
g330
(g1641
g332
Ntp1994
Rp1995
(dp1996
g1645
g1653
sg1646
g1669
sg356
S'c:/marmalade/7.5/s3e/h/s3eCamera.h'
p1997
sbsS'jconfig.h'
p1998
g330
(g1641
g332
Ntp1999
Rp2000
(dp2001
g1645
g1101
sg1646
g1741
sg356
g1124
sbsS'memory'
p2002
g330
(g1641
g332
Ntp2003
Rp2004
(dp2005
g1645
g1653
sg1646
g1654
sg356
S'c:/marmalade/7.5/s3e/h/std/c++/memory'
p2006
sbsS'egl.h'
p2007
g330
(g1641
g332
Ntp2008
Rp2009
(dp2010
g1645
g1653
sg1646
(lp2011
g1655
aS'GL'
p2012
aS'EGL'
p2013
asg356
S'c:/marmalade/7.5/s3e/h/EGL/egl.h'
p2014
sbsS'egl_1.h'
p2015
g330
(g1641
g332
Ntp2016
Rp2017
(dp2018
g1645
g1653
sg1646
(lp2019
g1655
aS'GL'
p2020
aS'GLES 1.x'
p2021
asg356
S'c:/marmalade/7.5/s3e/h/GLES/egl.h'
p2022
sbsS'IwMemManagerDL.h'
p2023
g330
(g1641
g332
Ntp2024
Rp2025
(dp2026
g1645
g1512
sg1646
g1682
sg356
g1565
sbsS'deque'
p2027
g330
(g1641
g332
Ntp2028
Rp2029
(dp2030
g1645
g1653
sg1646
g1654
sg356
S'c:/marmalade/7.5/s3e/h/std/c++/deque'
p2031
sbsS'IwString.h'
p2032
g330
(g1641
g332
Ntp2033
Rp2034
(dp2035
g1645
g1512
sg1646
g1682
sg356
g1586
sbsS'GameScene.h'
p2036
g330
(g1641
g332
Ntp2037
Rp2038
(dp2039
g1645
g1199
sg1646
g1797
sg356
g1266
sbsS'cwchar'
p2040
g330
(g1641
g332
Ntp2041
Rp2042
(dp2043
g1645
g1653
sg1646
g1654
sg356
S'c:/marmalade/7.5/s3e/h/std/c++/cwchar'
p2044
sbsS'iwutil.mkf'
p2045
g330
(g1641
g332
Ntp2046
Rp2047
(dp2048
g1645
g1583
sg1646
g1682
sg356
g1581
sbsS'csignal'
p2049
g330
(g1641
g332
Ntp2050
Rp2051
(dp2052
g1645
g1653
sg1646
g1654
sg356
S'c:/marmalade/7.5/s3e/h/std/c++/csignal'
p2053
sbsS'pthread_types.h'
p2054
g330
(g1641
g332
Ntp2055
Rp2056
(dp2057
g1645
g1653
sg1646
g1675
sg356
S'c:/marmalade/7.5/s3e/h/std/pthread_types.h'
p2058
sbsS'Entity.cpp'
p2059
g330
(g1641
g332
Ntp2060
Rp2061
(dp2062
g1645
g1199
sg1646
g1797
sg356
g1236
sbsS'pthread_alloc'
p2063
g330
(g1641
g332
Ntp2064
Rp2065
(dp2066
g1645
g1653
sg1646
g1654
sg356
S'c:/marmalade/7.5/s3e/h/std/c++/pthread_alloc'
p2067
sbsS'getopt.h'
p2068
g330
(g1641
g332
Ntp2069
Rp2070
(dp2071
g1645
g1653
sg1646
g1675
sg356
S'c:/marmalade/7.5/s3e/h/std/getopt.h'
p2072
sbsS'IwOptimiseARM.h'
p2073
g330
(g1641
g332
Ntp2074
Rp2075
(dp2076
g1645
g1512
sg1646
g1682
sg356
g1557
sbsS'times.h'
p2077
g330
(g1641
g332
Ntp2078
Rp2079
(dp2080
g1645
g1653
sg1646
g1806
sg356
S'c:/marmalade/7.5/s3e/h/std/sys/times.h'
p2081
sbsS'IwGeomFSphere.h'
p2082
g330
(g1641
g332
Ntp2083
Rp2084
(dp2085
g1645
g1348
sg1646
g1707
sg356
g1408
sbsS'functional'
p2086
g330
(g1641
g332
Ntp2087
Rp2088
(dp2089
g1645
g1653
sg1646
g1654
sg356
S'c:/marmalade/7.5/s3e/h/std/c++/functional'
p2090
sbsS'IwTypes.h'
p2091
g330
(g1641
g332
Ntp2092
Rp2093
(dp2094
g1645
g1512
sg1646
g1682
sg356
g1604
sbsS'IwGxMetrics.h'
p2095
g330
(g1641
g332
Ntp2096
Rp2097
(dp2098
g1645
g1448
sg1646
g1787
sg356
g1479
sbsS'audio.cpp'
p2099
g330
(g1641
g332
Ntp2100
Rp2101
(dp2102
g1645
g1199
sg1646
g1797
sg356
g1262
sbsS's3eCompression.h'
p2103
g330
(g1641
g332
Ntp2104
Rp2105
(dp2106
g1645
g1653
sg1646
g1669
sg356
S'c:/marmalade/7.5/s3e/h/s3eCompression.h'
p2107
sbsS'langinfo.h'
p2108
g330
(g1641
g332
Ntp2109
Rp2110
(dp2111
g1645
g1653
sg1646
g1675
sg356
S'c:/marmalade/7.5/s3e/h/std/langinfo.h'
p2112
sbsS's3edebugHeap.h'
p2113
g330
(g1641
g332
Ntp2114
Rp2115
(dp2116
g1645
g1653
sg1646
g1880
sg356
S'c:/marmalade/7.5/s3e/h/ext/s3edebugHeap.h'
p2117
sbsS'AirplayVersion.h'
p2118
g330
(g1641
g332
Ntp2119
Rp2120
(dp2121
g1645
g1653
sg1646
g1669
sg356
S'c:/marmalade/7.5/s3e/h/AirplayVersion.h'
p2122
sbsS'gl2extimg.h'
p2123
g330
(g1641
g332
Ntp2124
Rp2125
(dp2126
g1645
g1653
sg1646
g1918
sg356
S'c:/marmalade/7.5/s3e/h/GLES2/gl2extimg.h'
p2127
sbsS'IwGeomSqrt.h'
p2128
g330
(g1641
g332
Ntp2129
Rp2130
(dp2131
g1645
g1348
sg1646
g1707
sg356
g1356
sbsS'tiniconv_int.h'
p2132
g330
(g1641
g332
Ntp2133
Rp2134
(dp2135
g1645
g1135
sg1646
(lp2136
g1128
asg356
g1133
sbsS'syslog.h'
p2137
g330
(g1641
g332
Ntp2138
Rp2139
(dp2140
g1645
g1653
sg1646
g1675
sg356
S'c:/marmalade/7.5/s3e/h/std/syslog.h'
p2141
sbsS'IwGxFontTypes.h'
p2142
g330
(g1641
g332
Ntp2143
Rp2144
(dp2145
g1645
g1326
sg1646
g1647
sg356
g1327
sbsS'IwGeomFIntersect.h'
p2146
g330
(g1641
g332
Ntp2147
Rp2148
(dp2149
g1645
g1348
sg1646
g1707
sg356
g1418
sbsS'hash_map'
p2150
g330
(g1641
g332
Ntp2151
Rp2152
(dp2153
g1645
g1653
sg1646
g1654
sg356
S'c:/marmalade/7.5/s3e/h/std/c++/hash_map'
p2154
sbsS's3e.mkf'
p2155
g330
(g1641
g332
Ntp2156
Rp2157
(dp2158
g1645
(dp2159
sg1646
g1669
sg356
S'c:/marmalade/7.5/s3e/s3e.mkf'
p2160
sbsS'IwGeomMat2D.h.tpl'
p2161
g330
(g1641
g332
Ntp2162
Rp2163
(dp2164
g1645
g1348
sg1646
g1707
sg356
g1400
sbsS's3eOSReadString.h'
p2165
g330
(g1641
g332
Ntp2166
Rp2167
(dp2168
g1645
g1653
sg1646
g1880
sg356
S'c:/marmalade/7.5/s3e/h/ext/s3eOSReadString.h'
p2169
sbsS'IwSound.h'
p2170
g330
(g1641
g332
Ntp2171
Rp2172
(dp2173
g1645
g1142
sg1646
g1693
sg356
g1177
sbsS'map'
p2174
g330
(g1641
g332
Ntp2175
Rp2176
(dp2177
g1645
g1653
sg1646
g1654
sg356
S'c:/marmalade/7.5/s3e/h/std/c++/map'
p2178
sbsS'iwtween.mkf'
p2179
g330
(g1641
g332
Ntp2180
Rp2181
(dp2182
g1645
g1632
sg1646
(lp2183
g1623
asg356
g1630
sbsS'IwOptimiseSpeed.h'
p2184
g330
(g1641
g332
Ntp2185
Rp2186
(dp2187
g1645
g1512
sg1646
g1682
sg356
g1569
sbsS'ostream'
p2188
g330
(g1641
g332
Ntp2189
Rp2190
(dp2191
g1645
g1653
sg1646
g1654
sg356
S'c:/marmalade/7.5/s3e/h/std/c++/ostream'
p2192
sbsS'msl_string.h'
p2193
g330
(g1641
g332
Ntp2194
Rp2195
(dp2196
g1645
g1653
sg1646
g1654
sg356
S'c:/marmalade/7.5/s3e/h/std/c++/msl_string.h'
p2197
sbsS'select.h'
p2198
g330
(g1641
g332
Ntp2199
Rp2200
(dp2201
g1645
g1653
sg1646
g1806
sg356
S'c:/marmalade/7.5/s3e/h/std/sys/select.h'
p2202
sbsS'hero.cpp'
p2203
g330
(g1641
g332
Ntp2204
Rp2205
(dp2206
g1645
g1199
sg1646
g1797
sg356
g1264
sbsS'zlib.mkf'
p2207
g330
(g1641
g332
Ntp2208
Rp2209
(dp2210
g1645
g1622
sg1646
(lp2211
g1612
asg356
g1620
sbsS'signal.h'
p2212
g330
(g1641
g332
Ntp2213
Rp2214
(dp2215
g1645
g1653
sg1646
g1675
sg356
S'c:/marmalade/7.5/s3e/h/std/signal.h'
p2216
sbsS'sigcontext.h'
p2217
g330
(g1641
g332
Ntp2218
Rp2219
(dp2220
g1645
g1653
sg1646
g1675
sg356
S'c:/marmalade/7.5/s3e/h/std/sigcontext.h'
p2221
sbsS'libpng.mkf'
p2222
g330
(g1641
g332
Ntp2223
Rp2224
(dp2225
g1645
g1092
sg1646
(lp2226
g1081
asg356
g1090
sbsS's3eClipboard.h'
p2227
g330
(g1641
g332
Ntp2228
Rp2229
(dp2230
g1645
g1653
sg1646
g1669
sg356
S'c:/marmalade/7.5/s3e/h/s3eClipboard.h'
p2231
sbsS'IwGxFuncTable.h'
p2232
g330
(g1641
g332
Ntp2233
Rp2234
(dp2235
g1645
g1448
sg1646
g1787
sg356
g1453
sbsS'IwResHandlerGROUP.h'
p2236
g330
(g1641
g332
Ntp2237
Rp2238
(dp2239
g1645
g1424
sg1646
g1926
sg356
g1429
sbsS's3eDebug.h'
p2240
g330
(g1641
g332
Ntp2241
Rp2242
(dp2243
g1645
g1653
sg1646
g1669
sg356
S'c:/marmalade/7.5/s3e/h/s3eDebug.h'
p2244
sbsS'socket.h'
p2245
g330
(g1641
g332
Ntp2246
Rp2247
(dp2248
g1645
g1653
sg1646
g1806
sg356
S'c:/marmalade/7.5/s3e/h/std/sys/socket.h'
p2249
sbsS'glext.h'
p2250
g330
(g1641
g332
Ntp2251
Rp2252
(dp2253
g1645
g1653
sg1646
g2019
sg356
S'c:/marmalade/7.5/s3e/h/GLES/glext.h'
p2254
sbsS'typeinfo.h'
p2255
g330
(g1641
g332
Ntp2256
Rp2257
(dp2258
g1645
g1653
sg1646
g1654
sg356
S'c:/marmalade/7.5/s3e/h/std/c++/typeinfo.h'
p2259
sbsS'typeinfo'
p2260
g330
(g1641
g332
Ntp2261
Rp2262
(dp2263
g1645
g1653
sg1646
g1654
sg356
S'c:/marmalade/7.5/s3e/h/std/c++/typeinfo'
p2264
sbsS'iwsound.config.txt'
p2265
g330
(g1641
g332
Ntp2266
Rp2267
(dp2268
g1645
g1142
sg1646
(lp2269
g1138
ag1149
asg356
g1151
sbsS'fstream.h'
p2270
g330
(g1641
g332
Ntp2271
Rp2272
(dp2273
g1645
g1653
sg1646
g1654
sg356
S'c:/marmalade/7.5/s3e/h/std/c++/fstream.h'
p2274
sbsS'IwGeomMat.h'
p2275
g330
(g1641
g332
Ntp2276
Rp2277
(dp2278
g1645
g1348
sg1646
g1707
sg356
g1364
sbsS's3ePointer.h'
p2279
g330
(g1641
g332
Ntp2280
Rp2281
(dp2282
g1645
g1653
sg1646
g1669
sg356
S'c:/marmalade/7.5/s3e/h/s3ePointer.h'
p2283
sbsS'IwMemBucket.h'
p2284
g330
(g1641
g332
Ntp2285
Rp2286
(dp2287
g1645
g1512
sg1646
g1682
sg356
g1559
sbsS'PVRTexTool.h'
p2288
g330
(g1641
g332
Ntp2289
Rp2290
(dp2291
g1645
g1276
sg1646
(lp2292
g1268
ag1270
asg356
g1279
sbsS's3eGL.h'
p2293
g330
(g1641
g332
Ntp2294
Rp2295
(dp2296
g1645
g1653
sg1646
g1669
sg356
S'c:/marmalade/7.5/s3e/h/s3eGL.h'
p2297
sbsS'IwGeomFVec2.h'
p2298
g330
(g1641
g332
Ntp2299
Rp2300
(dp2301
g1645
g1348
sg1646
g1707
sg356
g1382
sbsS'IwGeomSVec4.h'
p2302
g330
(g1641
g332
Ntp2303
Rp2304
(dp2305
g1645
g1348
sg1646
g1707
sg356
g1384
sbsS'BackgroundEntity.cpp'
p2306
g330
(g1641
g332
Ntp2307
Rp2308
(dp2309
g1645
g1199
sg1646
g1797
sg356
g1252
sbsS'poll.h'
p2310
g330
(g1641
g332
Ntp2311
Rp2312
(dp2313
g1645
g1653
sg1646
g1675
sg356
S'c:/marmalade/7.5/s3e/h/std/poll.h'
p2314
sbsS'IwMatAnim.h'
p2315
g330
(g1641
g332
Ntp2316
Rp2317
(dp2318
g1645
g1448
sg1646
g1787
sg356
g1449
sbsS'Life.cpp'
p2319
g330
(g1641
g332
Ntp2320
Rp2321
(dp2322
g1645
g1199
sg1646
g1797
sg356
g1254
sbsS'IwGeomFVec4.h'
p2323
g330
(g1641
g332
Ntp2324
Rp2325
(dp2326
g1645
g1348
sg1646
g1707
sg356
g1396
sbsS'IwGx.h'
p2327
g330
(g1641
g332
Ntp2328
Rp2329
(dp2330
g1645
g1448
sg1646
g1787
sg356
g1467
sbsS'valarray'
p2331
g330
(g1641
g332
Ntp2332
Rp2333
(dp2334
g1645
g1653
sg1646
g1654
sg356
S'c:/marmalade/7.5/s3e/h/std/c++/valarray'
p2335
sbsS'iosfwd'
p2336
g330
(g1641
g332
Ntp2337
Rp2338
(dp2339
g1645
g1653
sg1646
g1654
sg356
S'c:/marmalade/7.5/s3e/h/std/c++/iosfwd'
p2340
sbsS'gl2.h'
p2341
g330
(g1641
g332
Ntp2342
Rp2343
(dp2344
g1645
g1653
sg1646
g1918
sg356
S'c:/marmalade/7.5/s3e/h/GLES2/gl2.h'
p2345
sbsS'jpegint.h'
p2346
g330
(g1641
g332
Ntp2347
Rp2348
(dp2349
g1645
g1101
sg1646
g1741
sg356
g1116
sbsS'stdiostream.h'
p2350
g330
(g1641
g332
Ntp2351
Rp2352
(dp2353
g1645
g1653
sg1646
g1654
sg356
S'c:/marmalade/7.5/s3e/h/std/c++/stdiostream.h'
p2354
sbsS'mem.h'
p2355
g330
(g1641
g332
Ntp2356
Rp2357
(dp2358
g1645
g1653
sg1646
g1654
sg356
S'c:/marmalade/7.5/s3e/h/std/c++/mem.h'
p2359
sbsS'jerror.h'
p2360
g330
(g1641
g332
Ntp2361
Rp2362
(dp2363
g1645
g1101
sg1646
g1741
sg356
g1099
sbsS'zconf.h'
p2364
g330
(g1641
g332
Ntp2365
Rp2366
(dp2367
g1645
g1617
sg1646
(lp2368
g1612
ag1083
asg356
g1615
sbsS's3e.config.txt'
p2369
g330
(g1641
g332
Ntp2370
Rp2371
(dp2372
g1645
g1653
sg1646
g1669
sg356
S'c:/marmalade/7.5/s3e/s3e.config.txt'
p2373
sbsS'numeric'
p2374
g330
(g1641
g332
Ntp2375
Rp2376
(dp2377
g1645
g1653
sg1646
g1654
sg356
S'c:/marmalade/7.5/s3e/h/std/c++/numeric'
p2378
sbsS'utime.h'
p2379
g330
(g1641
g332
Ntp2380
Rp2381
(dp2382
g1645
g1653
sg1646
g1675
sg356
S'c:/marmalade/7.5/s3e/h/std/utime.h'
p2383
sbsS'jdhuff.h'
p2384
g330
(g1641
g332
Ntp2385
Rp2386
(dp2387
g1645
g1101
sg1646
g1741
sg356
g1102
sbsS'IwResHandlerWAV.cpp'
p2388
g330
(g1641
g332
Ntp2389
Rp2390
(dp2391
g1645
g1142
sg1646
g1693
sg356
g1145
sbsS'un.h'
p2392
g330
(g1641
g332
Ntp2393
Rp2394
(dp2395
g1645
g1653
sg1646
g1806
sg356
S'c:/marmalade/7.5/s3e/h/std/sys/un.h'
p2396
sbsS'IwImage.h'
p2397
g330
(g1641
g332
Ntp2398
Rp2399
(dp2400
g1645
g1512
sg1646
g1682
sg356
g1555
sbsS's3eImagePicker.h'
p2401
g330
(g1641
g332
Ntp2402
Rp2403
(dp2404
g1645
g1653
sg1646
g1880
sg356
S'c:/marmalade/7.5/s3e/h/ext/s3eImagePicker.h'
p2405
sbsS'stdlib.h'
p2406
g330
(g1641
g332
Ntp2407
Rp2408
(dp2409
g1645
g1653
sg1646
g1675
sg356
S'c:/marmalade/7.5/s3e/h/std/stdlib.h'
p2410
sbsS'IwCopyingPtr.h'
p2411
g330
(g1641
g332
Ntp2412
Rp2413
(dp2414
g1645
g1512
sg1646
g1682
sg356
g1594
sbsS'iostream'
p2415
g330
(g1641
g332
Ntp2416
Rp2417
(dp2418
g1645
g1653
sg1646
g1654
sg356
S'c:/marmalade/7.5/s3e/h/std/c++/iostream'
p2419
sbsS'png.h'
p2420
g330
(g1641
g332
Ntp2421
Rp2422
(dp2423
g1645
g1087
sg1646
(lp2424
g1081
ag1083
asg356
g1085
sbsS'stddef.h'
p2425
g330
(g1641
g332
Ntp2426
Rp2427
(dp2428
g1645
g1653
sg1646
g1675
sg356
S'c:/marmalade/7.5/s3e/h/std/stddef.h'
p2429
sbsS'Layer.cpp'
p2430
g330
(g1641
g332
Ntp2431
Rp2432
(dp2433
g1645
g1199
sg1646
g1797
sg356
g1200
sbsS'setjmp_win32.h'
p2434
g330
(g1641
g332
Ntp2435
Rp2436
(dp2437
g1645
g1653
sg1646
g1675
sg356
S'c:/marmalade/7.5/s3e/h/std/setjmp_win32.h'
p2438
sbsS'pauseMenu.h'
p2439
g330
(g1641
g332
Ntp2440
Rp2441
(dp2442
g1645
g1199
sg1646
g1797
sg356
g1248
sbsS'Layer.h'
p2443
g330
(g1641
g332
Ntp2444
Rp2445
(dp2446
g1645
g1199
sg1646
g1797
sg356
g1256
sbsS'IwGxPrint.h'
p2447
g330
(g1641
g332
Ntp2448
Rp2449
(dp2450
g1645
g1448
sg1646
g1787
sg356
g1457
sbsS'iwgx_public.defines.txt'
p2451
g330
(g1641
g332
Ntp2452
Rp2453
(dp2454
g1645
g1448
sg1646
g1787
sg356
g1469
sbsS'streambuf.h'
p2455
g330
(g1641
g332
Ntp2456
Rp2457
(dp2458
g1645
g1653
sg1646
g1654
sg356
S'c:/marmalade/7.5/s3e/h/std/c++/streambuf.h'
p2459
sbsS'resources.cpp'
p2460
g330
(g1641
g332
Ntp2461
Rp2462
(dp2463
g1645
g1199
sg1646
g1797
sg356
g1234
sbsS'IwGeomFPlane.h'
p2464
g330
(g1641
g332
Ntp2465
Rp2466
(dp2467
g1645
g1348
sg1646
g1707
sg356
g1412
sbsS'wchar.h'
p2468
g330
(g1641
g332
Ntp2469
Rp2470
(dp2471
g1645
g1653
sg1646
g1675
sg356
S'c:/marmalade/7.5/s3e/h/std/wchar.h'
p2472
sbsS's3eCameraCapture.h'
p2473
g330
(g1641
g332
Ntp2474
Rp2475
(dp2476
g1645
g1653
sg1646
g1880
sg356
S'c:/marmalade/7.5/s3e/h/ext/s3eCameraCapture.h'
p2477
sbsS'eglext.h'
p2478
g330
(g1641
g332
Ntp2479
Rp2480
(dp2481
g1645
g1653
sg1646
g2011
sg356
S'c:/marmalade/7.5/s3e/h/EGL/eglext.h'
p2482
sbsS'IwResHandlerImage.h'
p2483
g330
(g1641
g332
Ntp2484
Rp2485
(dp2486
g1645
g1424
sg1646
g1926
sg356
g1442
sbsS'strstream.h'
p2487
g330
(g1641
g332
Ntp2488
Rp2489
(dp2490
g1645
g1653
sg1646
g1654
sg356
S'c:/marmalade/7.5/s3e/h/std/c++/strstream.h'
p2491
sbsS'tiniconv.h'
p2492
g330
(g1641
g332
Ntp2493
Rp2494
(dp2495
g1645
g1135
sg1646
g2136
sg356
g1136
sbsS'IwGLExt.h'
p2496
g330
(g1641
g332
Ntp2497
Rp2498
(dp2499
g1645
g1305
sg1646
g1663
sg356
g1308
sbsS'app.icf'
p2500
g330
(g1641
g332
Ntp2501
Rp2502
(dp2503
g1645
(dp2504
sg1646
g4
sg356
S'c:/Marmalade/7.5/examples/GameTutorial/CPP/marm1/data/app.icf'
p2505
sbsS'IwClassFactory.h'
p2506
g330
(g1641
g332
Ntp2507
Rp2508
(dp2509
g1645
g1512
sg1646
g1682
sg356
g1529
sbsS'file.h'
p2510
g330
(g1641
g332
Ntp2511
Rp2512
(dp2513
g1645
g1653
sg1646
g1806
sg356
S'c:/marmalade/7.5/s3e/h/std/sys/file.h'
p2514
sbsS'cstring'
p2515
g330
(g1641
g332
Ntp2516
Rp2517
(dp2518
g1645
g1653
sg1646
g1654
sg356
S'c:/marmalade/7.5/s3e/h/std/c++/cstring'
p2519
sbsS'IwSoundInst.cpp'
p2520
g330
(g1641
g332
Ntp2521
Rp2522
(dp2523
g1645
g1142
sg1646
g1693
sg356
g1167
sbsS'iwutil.config.txt'
p2524
g330
(g1641
g332
Ntp2525
Rp2526
(dp2527
g1645
g1512
sg1646
g1682
sg356
g1545
sbsS's3eSMS.h'
p2528
g330
(g1641
g332
Ntp2529
Rp2530
(dp2531
g1645
g1653
sg1646
g1880
sg356
S'c:/marmalade/7.5/s3e/h/ext/s3eSMS.h'
p2532
sbsS'limits.h'
p2533
g330
(g1641
g332
Ntp2534
Rp2535
(dp2536
g1645
g1653
sg1646
g1675
sg356
S'c:/marmalade/7.5/s3e/h/std/limits.h'
p2537
sbsS'scene.h'
p2538
g330
(g1641
g332
Ntp2539
Rp2540
(dp2541
g1645
g1199
sg1646
g1797
sg356
g1260
sbsS'IwMaterial.h'
p2542
g330
(g1641
g332
Ntp2543
Rp2544
(dp2545
g1645
g1448
sg1646
g1787
sg356
g1477
sbsS'Powerup.h'
p2546
g330
(g1641
g332
Ntp2547
Rp2548
(dp2549
g1645
g1199
sg1646
g1797
sg356
g1250
sbsS'PVRTexTool_interface.cpp'
p2550
g330
(g1641
g332
Ntp2551
Rp2552
(dp2553
g1645
g1276
sg1646
(lp2554
g1268
ag1270
ag1272
asg356
g1277
sbsS'IwGxSurface.h'
p2555
g330
(g1641
g332
Ntp2556
Rp2557
(dp2558
g1645
g1448
sg1646
g1787
sg356
g1463
sbsS's3eSocket.h'
p2559
g330
(g1641
g332
Ntp2560
Rp2561
(dp2562
g1645
g1653
sg1646
g1669
sg356
S'c:/marmalade/7.5/s3e/h/s3eSocket.h'
p2563
sbsS'Life.h'
p2564
g330
(g1641
g332
Ntp2565
Rp2566
(dp2567
g1645
g1199
sg1646
g1797
sg356
g1232
sbsS'IwAutoFile.h'
p2568
g330
(g1641
g332
Ntp2569
Rp2570
(dp2571
g1645
g1512
sg1646
g1682
sg356
g1573
sbsS'ipc.h'
p2572
g330
(g1641
g332
Ntp2573
Rp2574
(dp2575
g1645
g1653
sg1646
g1806
sg356
S'c:/marmalade/7.5/s3e/h/std/sys/ipc.h'
p2576
sbsS'poll_1.h'
p2577
g330
(g1641
g332
Ntp2578
Rp2579
(dp2580
g1645
g1653
sg1646
g1806
sg356
S'c:/marmalade/7.5/s3e/h/std/sys/poll.h'
p2581
sbsS's3eThread.h'
p2582
g330
(g1641
g332
Ntp2583
Rp2584
(dp2585
g1645
g1653
sg1646
g1669
sg356
S'c:/marmalade/7.5/s3e/h/s3eThread.h'
p2586
sbsS'ucontext.h'
p2587
g330
(g1641
g332
Ntp2588
Rp2589
(dp2590
g1645
g1653
sg1646
g1675
sg356
S'c:/marmalade/7.5/s3e/h/std/ucontext.h'
p2591
sbsS'time.h'
p2592
g330
(g1641
g332
Ntp2593
Rp2594
(dp2595
g1645
g1653
sg1646
g1675
sg356
S'c:/marmalade/7.5/s3e/h/std/time.h'
p2596
sbsS'jchuff.h'
p2597
g330
(g1641
g332
Ntp2598
Rp2599
(dp2600
g1645
g1101
sg1646
g1741
sg356
g1118
sbsS'IwSoundPCM.cpp'
p2601
g330
(g1641
g332
Ntp2602
Rp2603
(dp2604
g1645
g1142
sg1646
g1693
sg356
g1163
sbsS's3eSoundRecord.h'
p2605
g330
(g1641
g332
Ntp2606
Rp2607
(dp2608
g1645
g1653
sg1646
g1669
sg356
S'c:/marmalade/7.5/s3e/h/s3eSoundRecord.h'
p2609
sbsS'IwFibre.h'
p2610
g330
(g1641
g332
Ntp2611
Rp2612
(dp2613
g1645
g1512
sg1646
g1682
sg356
g1598
sbsS's3eVersion.h'
p2614
g330
(g1641
g332
Ntp2615
Rp2616
(dp2617
g1645
g1653
sg1646
g1669
sg356
S'c:/marmalade/7.5/s3e/h/s3eVersion.h'
p2618
sbsS'input.cpp'
p2619
g330
(g1641
g332
Ntp2620
Rp2621
(dp2622
g1645
g1199
sg1646
g1797
sg356
g1224
sbsS'IwSoundGroup.h'
p2623
g330
(g1641
g332
Ntp2624
Rp2625
(dp2626
g1645
g1142
sg1646
g1693
sg356
g1188
sbsS'IwSoundWAV.h'
p2627
g330
(g1641
g332
Ntp2628
Rp2629
(dp2630
g1645
g1142
sg1646
g1693
sg356
g1169
sbsS'IwGxFontGlyph.h'
p2631
g330
(g1641
g332
Ntp2632
Rp2633
(dp2634
g1645
g1326
sg1646
g1647
sg356
g1324
sbsS's3eTypes.h'
p2635
g330
(g1641
g332
Ntp2636
Rp2637
(dp2638
g1645
g1653
sg1646
g1669
sg356
S'c:/marmalade/7.5/s3e/h/s3eTypes.h'
p2639
sbsS'IwSoundSpec.h'
p2640
g330
(g1641
g332
Ntp2641
Rp2642
(dp2643
g1645
g1142
sg1646
g1693
sg356
g1157
sbsS'signal_2.h'
p2644
g330
(g1641
g332
Ntp2645
Rp2646
(dp2647
g1645
g1653
sg1646
g1654
sg356
S'c:/marmalade/7.5/s3e/h/std/c++/signal.h'
p2648
sbsS'termios.h'
p2649
g330
(g1641
g332
Ntp2650
Rp2651
(dp2652
g1645
g1653
sg1646
g1675
sg356
S'c:/marmalade/7.5/s3e/h/std/termios.h'
p2653
sbsS'iw2dscenegraph.mkf'
p2654
g330
(g1641
g332
Ntp2655
Rp2656
(dp2657
g1645
g1297
sg1646
g1968
sg356
g1295
sbsS'slist'
p2658
g330
(g1641
g332
Ntp2659
Rp2660
(dp2661
g1645
g1653
sg1646
g1654
sg356
S'c:/marmalade/7.5/s3e/h/std/c++/slist'
p2662
sbsS'cstdlib'
p2663
g330
(g1641
g332
Ntp2664
Rp2665
(dp2666
g1645
g1653
sg1646
g1654
sg356
S'c:/marmalade/7.5/s3e/h/std/c++/cstdlib'
p2667
sbsS's3eLocation.h'
p2668
g330
(g1641
g332
Ntp2669
Rp2670
(dp2671
g1645
g1653
sg1646
g1669
sg356
S'c:/marmalade/7.5/s3e/h/s3eLocation.h'
p2672
sbsS'IwMemBucketHelpers.h'
p2673
g330
(g1641
g332
Ntp2674
Rp2675
(dp2676
g1645
g1512
sg1646
g1682
sg356
g1549
sbsS's3eHash.h'
p2677
g330
(g1641
g332
Ntp2678
Rp2679
(dp2680
g1645
g1653
sg1646
g1669
sg356
S'c:/marmalade/7.5/s3e/h/s3eHash.h'
p2681
sbsS'IwSoundGroup.cpp'
p2682
g330
(g1641
g332
Ntp2683
Rp2684
(dp2685
g1645
g1142
sg1646
g1693
sg356
g1140
sbsS'Enemymanager.h'
p2686
g330
(g1641
g332
Ntp2687
Rp2688
(dp2689
g1645
g1199
sg1646
g1797
sg356
g1240
sbsS'IwGeomFMat.h'
p2690
g330
(g1641
g332
Ntp2691
Rp2692
(dp2693
g1645
g1348
sg1646
g1707
sg356
g1376
sbsS'type_traits.h'
p2694
g330
(g1641
g332
Ntp2695
Rp2696
(dp2697
g1645
g1653
sg1646
g1654
sg356
S'c:/marmalade/7.5/s3e/h/std/c++/type_traits.h'
p2698
sbsS's3eAtomic.h'
p2699
g330
(g1641
g332
Ntp2700
Rp2701
(dp2702
g1645
g1653
sg1646
g1669
sg356
S'c:/marmalade/7.5/s3e/h/s3eAtomic.h'
p2703
sbsS'IwMenu.h'
p2704
g330
(g1641
g332
Ntp2705
Rp2706
(dp2707
g1645
g1512
sg1646
g1682
sg356
g1602
sbsS'IwResHandlerITX.h'
p2708
g330
(g1641
g332
Ntp2709
Rp2710
(dp2711
g1645
g1424
sg1646
g1926
sg356
g1422
sbsS'IwSoundData.h'
p2712
g330
(g1641
g332
Ntp2713
Rp2714
(dp2715
g1645
g1142
sg1646
g1693
sg356
g1181
sbsS'IwArray.h'
p2716
g330
(g1641
g332
Ntp2717
Rp2718
(dp2719
g1645
g1512
sg1646
g1682
sg356
g1600
sbsS'IwUTF8.h'
p2720
g330
(g1641
g332
Ntp2721
Rp2722
(dp2723
g1645
g1512
sg1646
g1682
sg356
g1543
sbsS'math_rvct.h'
p2724
g330
(g1641
g332
Ntp2725
Rp2726
(dp2727
g1645
g1653
sg1646
g1675
sg356
S'c:/marmalade/7.5/s3e/h/std/math_rvct.h'
p2728
sbsS'IwUtil.h'
p2729
g330
(g1641
g332
Ntp2730
Rp2731
(dp2732
g1645
g1512
sg1646
g1682
sg356
g1584
sbsS'IwFColour.h'
p2733
g330
(g1641
g332
Ntp2734
Rp2735
(dp2736
g1645
g1448
sg1646
g1787
sg356
g1483
sbsS'wctype.h'
p2737
g330
(g1641
g332
Ntp2738
Rp2739
(dp2740
g1645
g1653
sg1646
g1675
sg356
S'c:/marmalade/7.5/s3e/h/std/wctype.h'
p2741
sbsS'mainMenu.h'
p2742
g330
(g1641
g332
Ntp2743
Rp2744
(dp2745
g1645
g1199
sg1646
g1797
sg356
g1202
sbsS'cstddef'
p2746
g330
(g1641
g332
Ntp2747
Rp2748
(dp2749
g1645
g1653
sg1646
g1654
sg356
S'c:/marmalade/7.5/s3e/h/std/c++/cstddef'
p2750
sbsS'assert.h'
p2751
g330
(g1641
g332
Ntp2752
Rp2753
(dp2754
g1645
g1653
sg1646
g1675
sg356
S'c:/marmalade/7.5/s3e/h/std/assert.h'
p2755
sbsS'mman.h'
p2756
g330
(g1641
g332
Ntp2757
Rp2758
(dp2759
g1645
g1653
sg1646
g1806
sg356
S'c:/marmalade/7.5/s3e/h/std/sys/mman.h'
p2760
sbsS'IwRandom.h'
p2761
g330
(g1641
g332
Ntp2762
Rp2763
(dp2764
g1645
g1512
sg1646
g1682
sg356
g1539
sbsS'libgen.h'
p2765
g330
(g1641
g332
Ntp2766
Rp2767
(dp2768
g1645
g1653
sg1646
g1675
sg356
S'c:/marmalade/7.5/s3e/h/std/libgen.h'
p2769
sbsS'utsname.h'
p2770
g330
(g1641
g332
Ntp2771
Rp2772
(dp2773
g1645
g1653
sg1646
g1806
sg356
S'c:/marmalade/7.5/s3e/h/std/sys/utsname.h'
p2774
sbsS'wait.h'
p2775
g330
(g1641
g332
Ntp2776
Rp2777
(dp2778
g1645
g1653
sg1646
g1806
sg356
S'c:/marmalade/7.5/s3e/h/std/sys/wait.h'
p2779
sbsS'param.h'
p2780
g330
(g1641
g332
Ntp2781
Rp2782
(dp2783
g1645
g1653
sg1646
g1806
sg356
S'c:/marmalade/7.5/s3e/h/std/sys/param.h'
p2784
sbsS'IwDivide.h'
p2785
g330
(g1641
g332
Ntp2786
Rp2787
(dp2788
g1645
g1512
sg1646
g1682
sg356
g1519
sbsS'Iw2DSceneGraphCore.cpp'
p2789
g330
(g1641
g332
Ntp2790
Rp2791
(dp2792
g1645
g1505
sg1646
(lp2793
S"'Marmalade Studio'"
p2794
ag1498
asg356
g1506
sbsS'IwResManager.h'
p2795
g330
(g1641
g332
Ntp2796
Rp2797
(dp2798
g1645
g1424
sg1646
g1926
sg356
g1431
sbsS'IwSoundManager.h'
p2799
g330
(g1641
g332
Ntp2800
Rp2801
(dp2802
g1645
g1142
sg1646
g1693
sg356
g1161
sbsS'cwctype'
p2803
g330
(g1641
g332
Ntp2804
Rp2805
(dp2806
g1645
g1653
sg1646
g1654
sg356
S'c:/marmalade/7.5/s3e/h/std/c++/cwctype'
p2807
sbsS'set'
p2808
g330
(g1641
g332
Ntp2809
Rp2810
(dp2811
g1645
g1653
sg1646
g1654
sg356
S'c:/marmalade/7.5/s3e/h/std/c++/set'
p2812
sbsS'IwGeomSQuat.h'
p2813
g330
(g1641
g332
Ntp2814
Rp2815
(dp2816
g1645
g1348
sg1646
g1707
sg356
g1372
sbsS'locale'
p2817
g330
(g1641
g332
Ntp2818
Rp2819
(dp2820
g1645
g1653
sg1646
g1654
sg356
S'c:/marmalade/7.5/s3e/h/std/c++/locale'
p2821
sbsS'cstdio'
p2822
g330
(g1641
g332
Ntp2823
Rp2824
(dp2825
g1645
g1653
sg1646
g1654
sg356
S'c:/marmalade/7.5/s3e/h/std/c++/cstdio'
p2826
sbsS'cdjpeg.h'
p2827
g330
(g1641
g332
Ntp2828
Rp2829
(dp2830
g1645
g1101
sg1646
g1741
sg356
g1120
sbsS'audio.h'
p2831
g330
(g1641
g332
Ntp2832
Rp2833
(dp2834
g1645
g1199
sg1646
g1797
sg356
g1218
sbsS'IwList.h'
p2835
g330
(g1641
g332
Ntp2836
Rp2837
(dp2838
g1645
g1512
sg1646
g1682
sg356
g1571
sbsS'pauseMenu.cpp'
p2839
g330
(g1641
g332
Ntp2840
Rp2841
(dp2842
g1645
g1199
sg1646
g1797
sg356
g1258
sbsS'inttypes.h'
p2843
g330
(g1641
g332
Ntp2844
Rp2845
(dp2846
g1645
g1653
sg1646
g1675
sg356
S'c:/marmalade/7.5/s3e/h/std/inttypes.h'
p2847
sbsS'dirent.h'
p2848
g330
(g1641
g332
Ntp2849
Rp2850
(dp2851
g1645
g1653
sg1646
g1675
sg356
S'c:/marmalade/7.5/s3e/h/std/dirent.h'
p2852
sbsS'IwGeomVec3.h'
p2853
g330
(g1641
g332
Ntp2854
Rp2855
(dp2856
g1645
g1348
sg1646
g1707
sg356
g1366
sbsS'transupp.h'
p2857
g330
(g1641
g332
Ntp2858
Rp2859
(dp2860
g1645
g1101
sg1646
g1741
sg356
g1106
sbsS'IwMath.h'
p2861
g330
(g1641
g332
Ntp2862
Rp2863
(dp2864
g1645
g1512
sg1646
g1682
sg356
g1513
sbsS'IwGeomQuat.h'
p2865
g330
(g1641
g332
Ntp2866
Rp2867
(dp2868
g1645
g1348
sg1646
g1707
sg356
g1416
sbsS'glplatform.h'
p2869
g330
(g1641
g332
Ntp2870
Rp2871
(dp2872
g1645
g1653
sg1646
g2019
sg356
S'c:/marmalade/7.5/s3e/h/GLES/glplatform.h'
p2873
sbsS's3e-default.mkf'
p2874
g330
(g1641
g332
Ntp2875
Rp2876
(dp2877
g1645
g1637
sg1646
(lp2878
g1633
asg356
g1635
sbsS'iwgl.config.txt'
p2879
g330
(g1641
g332
Ntp2880
Rp2881
(dp2882
g1645
g1305
sg1646
g1663
sg356
g1306
sbsS'bitset'
p2883
g330
(g1641
g332
Ntp2884
Rp2885
(dp2886
g1645
g1653
sg1646
g1654
sg356
S'c:/marmalade/7.5/s3e/h/std/c++/bitset'
p2887
sbsS'alloca.h'
p2888
g330
(g1641
g332
Ntp2889
Rp2890
(dp2891
g1645
g1653
sg1646
g1675
sg356
S'c:/marmalade/7.5/s3e/h/std/alloca.h'
p2892
sbsS'IwResHandler.h'
p2893
g330
(g1641
g332
Ntp2894
Rp2895
(dp2896
g1645
g1424
sg1646
g1926
sg356
g1440
sbsS'IwResHandlerMTL.h'
p2897
g330
(g1641
g332
Ntp2898
Rp2899
(dp2900
g1645
g1448
sg1646
g1787
sg356
g1455
sbsS'IwRuntime.h'
p2901
g330
(g1641
g332
Ntp2902
Rp2903
(dp2904
g1645
g1512
sg1646
g1682
sg356
g1563
sbsS'limits'
p2905
g330
(g1641
g332
Ntp2906
Rp2907
(dp2908
g1645
g1653
sg1646
g1654
sg356
S'c:/marmalade/7.5/s3e/h/std/c++/limits'
p2909
sbsS'IwGeomBBox.h'
p2910
g330
(g1641
g332
Ntp2911
Rp2912
(dp2913
g1645
g1348
sg1646
g1707
sg356
g1406
sbsS's3eContacts.h'
p2914
g330
(g1641
g332
Ntp2915
Rp2916
(dp2917
g1645
g1653
sg1646
g1669
sg356
S'c:/marmalade/7.5/s3e/h/s3eContacts.h'
p2918
sbsS's3eLicense.h'
p2919
g330
(g1641
g332
Ntp2920
Rp2921
(dp2922
g1645
g1653
sg1646
g1669
sg356
S'c:/marmalade/7.5/s3e/h/s3eLicense.h'
p2923
sbsS'iwgx.config.txt'
p2924
g330
(g1641
g332
Ntp2925
Rp2926
(dp2927
g1645
g1448
sg1646
g1787
sg356
g1490
sbsS'IwTextParser.h'
p2928
g330
(g1641
g332
Ntp2929
Rp2930
(dp2931
g1645
g1512
sg1646
g1682
sg356
g1592
sbsS's3eTimer.h'
p2932
g330
(g1641
g332
Ntp2933
Rp2934
(dp2935
g1645
g1653
sg1646
g1669
sg356
S'c:/marmalade/7.5/s3e/h/s3eTimer.h'
p2936
sbsS'IwGeomVec.h'
p2937
g330
(g1641
g332
Ntp2938
Rp2939
(dp2940
g1645
g1348
sg1646
g1707
sg356
g1392
sbsS'IwSerialise.h'
p2941
g330
(g1641
g332
Ntp2942
Rp2943
(dp2944
g1645
g1512
sg1646
g1682
sg356
g1610
sbsS'cstdarg'
p2945
g330
(g1641
g332
Ntp2946
Rp2947
(dp2948
g1645
g1653
sg1646
g1654
sg356
S'c:/marmalade/7.5/s3e/h/std/c++/cstdarg'
p2949
sbsS'gl2ext.h'
p2950
g330
(g1641
g332
Ntp2951
Rp2952
(dp2953
g1645
g1653
sg1646
g1918
sg356
S'c:/marmalade/7.5/s3e/h/GLES2/gl2ext.h'
p2954
sbsS'BackgroundEntity.h'
p2955
g330
(g1641
g332
Ntp2956
Rp2957
(dp2958
g1645
g1199
sg1646
g1797
sg356
g1246
sbsS'IwChar.h'
p2959
g330
(g1641
g332
Ntp2960
Rp2961
(dp2962
g1645
g1512
sg1646
g1682
sg356
g1537
sbsS's3eSound.h'
p2963
g330
(g1641
g332
Ntp2964
Rp2965
(dp2966
g1645
g1653
sg1646
g1669
sg356
S'c:/marmalade/7.5/s3e/h/s3eSound.h'
p2967
sbsS's3eIOSBackgroundAudio.h'
p2968
g330
(g1641
g332
Ntp2969
Rp2970
(dp2971
g1645
g1653
sg1646
g1880
sg356
S'c:/marmalade/7.5/s3e/h/ext/s3eIOSBackgroundAudio.h'
p2972
sbsS'exception.h'
p2973
g330
(g1641
g332
Ntp2974
Rp2975
(dp2976
g1645
g1653
sg1646
g1654
sg356
S'c:/marmalade/7.5/s3e/h/std/c++/exception.h'
p2977
sbsS'iwgeom.config.txt'
p2978
g330
(g1641
g332
Ntp2979
Rp2980
(dp2981
g1645
g1348
sg1646
g1707
sg356
g1414
sbsS'Shark.h'
p2982
g330
(g1641
g332
Ntp2983
Rp2984
(dp2985
g1645
g1199
sg1646
g1797
sg356
g1226
sbsS'iwgx.mkf'
p2986
g330
(g1641
g332
Ntp2987
Rp2988
(dp2989
g1645
g1489
sg1646
g1787
sg356
g1487
sbsS'gl.h'
p2990
g330
(g1641
g332
Ntp2991
Rp2992
(dp2993
g1645
g1653
sg1646
g2019
sg356
S'c:/marmalade/7.5/s3e/h/GLES/gl.h'
p2994
sbsS'zlib.h'
p2995
g330
(g1641
g332
Ntp2996
Rp2997
(dp2998
g1645
g1617
sg1646
g2368
sg356
g1618
sbsS'temp_defines_release.h'
p2999
g330
(g1641
g332
Ntp3000
Rp3001
(dp3002
g1645
(lp3003
sg1646
(lp3004
S"'generated files'"
p3005
asg356
S'c:/Marmalade/7.5/examples/GameTutorial/CPP/marm1/build_stage4_vc12/temp_defines_release.h'
p3006
sbsS'iwgl.mkf'
p3007
g330
(g1641
g332
Ntp3008
Rp3009
(dp3010
g1645
g1302
sg1646
g1663
sg356
g1300
sbsS'IwColour.h'
p3011
g330
(g1641
g332
Ntp3012
Rp3013
(dp3014
g1645
g1448
sg1646
g1787
sg356
g1492
sbsS's3eLibrary.h'
p3015
g330
(g1641
g332
Ntp3016
Rp3017
(dp3018
g1645
g1653
sg1646
g1880
sg356
S'c:/marmalade/7.5/s3e/h/ext/s3eLibrary.h'
p3019
sbsS'types.h'
p3020
g330
(g1641
g332
Ntp3021
Rp3022
(dp3023
g1645
g1653
sg1646
g1806
sg356
S'c:/marmalade/7.5/s3e/h/std/sys/types.h'
p3024
sbsS'ifaddrs.h'
p3025
g330
(g1641
g332
Ntp3026
Rp3027
(dp3028
g1645
g1653
sg1646
g1675
sg356
S'c:/marmalade/7.5/s3e/h/std/ifaddrs.h'
p3029
sbsS'strstream'
p3030
g330
(g1641
g332
Ntp3031
Rp3032
(dp3033
g1645
g1653
sg1646
g1654
sg356
S'c:/marmalade/7.5/s3e/h/std/c++/strstream'
p3034
sbsS'IwTween.cpp'
p3035
g330
(g1641
g332
Ntp3036
Rp3037
(dp3038
g1645
g1627
sg1646
g2183
sg356
g1628
sbsS'exception'
p3039
g330
(g1641
g332
Ntp3040
Rp3041
(dp3042
g1645
g1653
sg1646
g1654
sg356
S'c:/marmalade/7.5/s3e/h/std/c++/exception'
p3043
sbsS'Enemymanager.cpp'
p3044
g330
(g1641
g332
Ntp3045
Rp3046
(dp3047
g1645
g1199
sg1646
g1797
sg356
g1212
sbsS'Powerup.cpp'
p3048
g330
(g1641
g332
Ntp3049
Rp3050
(dp3051
g1645
g1199
sg1646
g1797
sg356
g1197
sbsS'rlocks.h'
p3052
g330
(g1641
g332
Ntp3053
Rp3054
(dp3055
g1645
g1653
sg1646
g1654
sg356
S'c:/marmalade/7.5/s3e/h/std/c++/rlocks.h'
p3056
sbsS'ioctl.h'
p3057
g330
(g1641
g332
Ntp3058
Rp3059
(dp3060
g1645
g1653
sg1646
g1806
sg356
S'c:/marmalade/7.5/s3e/h/std/sys/ioctl.h'
p3061
sbsS'sem.h'
p3062
g330
(g1641
g332
Ntp3063
Rp3064
(dp3065
g1645
g1653
sg1646
g1806
sg356
S'c:/marmalade/7.5/s3e/h/std/sys/sem.h'
p3066
sbsS'jinclude.h'
p3067
g330
(g1641
g332
Ntp3068
Rp3069
(dp3070
g1645
g1101
sg1646
g1741
sg356
g1108
sbsS'IwEvent.h'
p3071
g330
(g1641
g332
Ntp3072
Rp3073
(dp3074
g1645
g1512
sg1646
g1682
sg356
g1596
sbsS'IwOptimiseSize.h'
p3075
g330
(g1641
g332
Ntp3076
Rp3077
(dp3078
g1645
g1512
sg1646
g1682
sg356
g1561
sbsS'iwgxfont_public.defines.txt'
p3079
g330
(g1641
g332
Ntp3080
Rp3081
(dp3082
g1645
g1326
sg1646
g1647
sg356
g1342
sbsS'iconv.h'
p3083
g330
(g1641
g332
Ntp3084
Rp3085
(dp3086
g1645
g1653
sg1646
g1675
sg356
S'c:/marmalade/7.5/s3e/h/std/iconv.h'
p3087
sbsS's3eDevice.h'
p3088
g330
(g1641
g332
Ntp3089
Rp3090
(dp3091
g1645
g1653
sg1646
g1669
sg356
S'c:/marmalade/7.5/s3e/h/s3eDevice.h'
p3092
sbsS'IwGeomSphere.h'
p3093
g330
(g1641
g332
Ntp3094
Rp3095
(dp3096
g1645
g1348
sg1646
g1707
sg356
g1349
sbsS'tiniconv.mkf'
p3097
g330
(g1641
g332
Ntp3098
Rp3099
(dp3100
g1645
g1132
sg1646
g2136
sg356
g1130
sbsS'iw2dscenegraph.defines.txt'
p3101
g330
(g1641
g332
Ntp3102
Rp3103
(dp3104
g1645
g1290
sg1646
g1968
sg356
g1291
sbsS'jdct.h'
p3105
g330
(g1641
g332
Ntp3106
Rp3107
(dp3108
g1645
g1101
sg1646
g1741
sg356
g1112
sbsS'cctype'
p3109
g330
(g1641
g332
Ntp3110
Rp3111
(dp3112
g1645
g1653
sg1646
g1654
sg356
S'c:/marmalade/7.5/s3e/h/std/c++/cctype'
p3113
sbsS'IwSoundADPCM.cpp'
p3114
g330
(g1641
g332
Ntp3115
Rp3116
(dp3117
g1645
g1142
sg1646
g1693
sg356
g1175
sbsS's3eConfig.h'
p3118
g330
(g1641
g332
Ntp3119
Rp3120
(dp3121
g1645
g1653
sg1646
g1669
sg356
S'c:/marmalade/7.5/s3e/h/s3eConfig.h'
p3122
sbsS'IwHashString.h'
p3123
g330
(g1641
g332
Ntp3124
Rp3125
(dp3126
g1645
g1512
sg1646
g1682
sg356
g1577
sbsS'stat.h'
p3127
g330
(g1641
g332
Ntp3128
Rp3129
(dp3130
g1645
g1653
sg1646
g1806
sg356
S'c:/marmalade/7.5/s3e/h/std/sys/stat.h'
p3131
sbsS'byteswap.h'
p3132
g330
(g1641
g332
Ntp3133
Rp3134
(dp3135
g1645
g1653
sg1646
g1675
sg356
S'c:/marmalade/7.5/s3e/h/std/byteswap.h'
p3136
sbsS'iwresmanager.mkf'
p3137
g330
(g1641
g332
Ntp3138
Rp3139
(dp3140
g1645
g1435
sg1646
g1926
sg356
g1433
sbsS'IwUtilInitTerm.h'
p3141
g330
(g1641
g332
Ntp3142
Rp3143
(dp3144
g1645
g1512
sg1646
g1682
sg356
g1606
sbsS'pthread_1.h'
p3145
g330
(g1641
g332
Ntp3146
Rp3147
(dp3148
g1645
g1653
sg1646
g1654
sg356
S'c:/marmalade/7.5/s3e/h/std/c++/pthread.h'
p3149
sbsS'iw2d.mkf'
p3150
g330
(g1641
g332
Ntp3151
Rp3152
(dp3153
g1645
g1321
sg1646
g1746
sg356
g1319
sbsS'complex'
p3154
g330
(g1641
g332
Ntp3155
Rp3156
(dp3157
g1645
g1653
sg1646
g1654
sg356
S'c:/marmalade/7.5/s3e/h/std/c++/complex'
p3158
sbsS'algorithm'
p3159
g330
(g1641
g332
Ntp3160
Rp3161
(dp3162
g1645
g1653
sg1646
g1654
sg356
S'c:/marmalade/7.5/s3e/h/std/c++/algorithm'
p3163
sbsS's3e.icf'
p3164
g330
(g1641
g332
Ntp3165
Rp3166
(dp3167
g1645
g1653
sg1646
g1669
sg356
S'c:/marmalade/7.5/s3e/s3e.icf'
p3168
sbsS'resources.h'
p3169
g330
(g1641
g332
Ntp3170
Rp3171
(dp3172
g1645
g1199
sg1646
g1797
sg356
g1220
sbsS'IwGxFontState.h'
p3173
g330
(g1641
g332
Ntp3174
Rp3175
(dp3176
g1645
g1326
sg1646
g1647
sg356
g1331
sbsS'marmaladeexampleresources.mkf'
p3177
g330
(g1641
g332
Ntp3178
Rp3179
(dp3180
g1645
g1194
sg1646
(lp3181
g1190
asg356
g1192
sbsS'stdio.h'
p3182
g330
(g1641
g332
Ntp3183
Rp3184
(dp3185
g1645
g1653
sg1646
g1675
sg356
S'c:/marmalade/7.5/s3e/h/std/stdio.h'
p3186
sbsS'jmemsys.h'
p3187
g330
(g1641
g332
Ntp3188
Rp3189
(dp3190
g1645
g1101
sg1646
g1741
sg356
g1114
sbsS'ios'
p3191
g330
(g1641
g332
Ntp3192
Rp3193
(dp3194
g1645
g1653
sg1646
g1654
sg356
S'c:/marmalade/7.5/s3e/h/std/c++/ios'
p3195
sbsS'IwTween.h'
p3196
g330
(g1641
g332
Ntp3197
Rp3198
(dp3199
g1645
g1627
sg1646
g2183
sg356
g1625
sbsS'PVRTexTool.defines.txt'
p3200
g330
(g1641
g332
Ntp3201
Rp3202
(dp3203
g1645
g1276
sg1646
g2554
sg356
g1274
sbsS'stack'
p3204
g330
(g1641
g332
Ntp3205
Rp3206
(dp3207
g1645
g1653
sg1646
g1654
sg356
S'c:/marmalade/7.5/s3e/h/std/c++/stack'
p3208
sbsS'IwSoundParams.h'
p3209
g330
(g1641
g332
Ntp3210
Rp3211
(dp3212
g1645
g1142
sg1646
g1693
sg356
g1173
sbsS'new.h'
p3213
g330
(g1641
g332
Ntp3214
Rp3215
(dp3216
g1645
g1653
sg1646
g1654
sg356
S'c:/marmalade/7.5/s3e/h/std/c++/new.h'
p3217
sbsS's3eEMail.h'
p3218
g330
(g1641
g332
Ntp3219
Rp3220
(dp3221
g1645
g1653
sg1646
g1880
sg356
S'c:/marmalade/7.5/s3e/h/ext/s3eEMail.h'
p3222
sbsS's3eVideo.h'
p3223
g330
(g1641
g332
Ntp3224
Rp3225
(dp3226
g1645
g1653
sg1646
g1669
sg356
S'c:/marmalade/7.5/s3e/h/s3eVideo.h'
p3227
sbsS'pngconf.h'
p3228
g330
(g1641
g332
Ntp3229
Rp3230
(dp3231
g1645
g1087
sg1646
g2424
sg356
g1088
sbsS'pwd.h'
p3232
g330
(g1641
g332
Ntp3233
Rp3234
(dp3235
g1645
g1653
sg1646
g1675
sg356
S'c:/marmalade/7.5/s3e/h/std/pwd.h'
p3236
sbsS'IwOptimiseThumb.h'
p3237
g330
(g1641
g332
Ntp3238
Rp3239
(dp3240
g1645
g1512
sg1646
g1682
sg356
g1579
sbsS'gl3.h'
p3241
g330
(g1641
g332
Ntp3242
Rp3243
(dp3244
g1645
g1653
sg1646
g1979
sg356
S'c:/marmalade/7.5/s3e/h/GLES3/gl3.h'
p3245
sbsS'IwClip.h'
p3246
g330
(g1641
g332
Ntp3247
Rp3248
(dp3249
g1645
g1448
sg1646
g1787
sg356
g1461
sbsS'IwSoundInst.h'
p3250
g330
(g1641
g332
Ntp3251
Rp3252
(dp3253
g1645
g1142
sg1646
g1693
sg356
g1153
sbsS'iwresmanager.config.txt'
p3254
g330
(g1641
g332
Ntp3255
Rp3256
(dp3257
g1645
g1424
sg1646
g1926
sg356
g1436
sbsS'IwGxShaderTechnique.h'
p3258
g330
(g1641
g332
Ntp3259
Rp3260
(dp3261
g1645
g1448
sg1646
g1787
sg356
g1473
sbsS'IwCore.h'
p3262
g330
(g1641
g332
Ntp3263
Rp3264
(dp3265
g1645
g1512
sg1646
g1682
sg356
g1517
sbsS'cfloat'
p3266
g330
(g1641
g332
Ntp3267
Rp3268
(dp3269
g1645
g1653
sg1646
g1654
sg356
S'c:/marmalade/7.5/s3e/h/std/c++/cfloat'
p3270
sbsS'IwGeomMat2D.h'
p3271
g330
(g1641
g332
Ntp3272
Rp3273
(dp3274
g1645
g1348
sg1646
g1707
sg356
g1380
sbsS'IwAllocator.h'
p3275
g330
(g1641
g332
Ntp3276
Rp3277
(dp3278
g1645
g1512
sg1646
g1682
sg356
g1547
sbsS'Levelmanager.cpp'
p3279
g330
(g1641
g332
Ntp3280
Rp3281
(dp3282
g1645
g1199
sg1646
g1797
sg356
g1242
sbsS'IwPath.h'
p3283
g330
(g1641
g332
Ntp3284
Rp3285
(dp3286
g1645
g1512
sg1646
g1682
sg356
g1567
sbsS'iwgxfont.mkf'
p3287
g330
(g1641
g332
Ntp3288
Rp3289
(dp3290
g1645
g1337
sg1646
g1647
sg356
g1335
sbsS'IwTexture.h'
p3291
g330
(g1641
g332
Ntp3292
Rp3293
(dp3294
g1645
g1448
sg1646
g1787
sg356
g1451
sbsS'IwGeomVec.h.tpl'
p3295
g330
(g1641
g332
Ntp3296
Rp3297
(dp3298
g1645
g1348
sg1646
g1707
sg356
g1390
sbsS's3eAccelerometer.h'
p3299
g330
(g1641
g332
Ntp3300
Rp3301
(dp3302
g1645
g1653
sg1646
g1669
sg356
S'c:/marmalade/7.5/s3e/h/s3eAccelerometer.h'
p3303
sbsS'setjmp.h'
p3304
g330
(g1641
g332
Ntp3305
Rp3306
(dp3307
g1645
g1653
sg1646
g1675
sg356
S'c:/marmalade/7.5/s3e/h/std/setjmp.h'
p3308
sbsS'IwSoundParams.cpp'
p3309
g330
(g1641
g332
Ntp3310
Rp3311
(dp3312
g1645
g1142
sg1646
g1693
sg356
g1159
sbsS'IwFile.h'
p3313
g330
(g1641
g332
Ntp3314
Rp3315
(dp3316
g1645
g1512
sg1646
g1682
sg356
g1588
sbsS'IwTextParseable.h'
p3317
g330
(g1641
g332
Ntp3318
Rp3319
(dp3320
g1645
g1512
sg1646
g1682
sg356
g1535
sbsS'istream.h'
p3321
g330
(g1641
g332
Ntp3322
Rp3323
(dp3324
g1645
g1653
sg1646
g1654
sg356
S'c:/marmalade/7.5/s3e/h/std/c++/istream.h'
p3325
sbsS'Level.h'
p3326
g330
(g1641
g332
Ntp3327
Rp3328
(dp3329
g1645
g1199
sg1646
g1797
sg356
g1214
sbsS'stdint.h'
p3330
g330
(g1641
g332
Ntp3331
Rp3332
(dp3333
g1645
g1653
sg1646
g1675
sg356
S'c:/marmalade/7.5/s3e/h/std/stdint.h'
p3334
sbsS'semaphore.h'
p3335
g330
(g1641
g332
Ntp3336
Rp3337
(dp3338
g1645
g1653
sg1646
g1675
sg356
S'c:/marmalade/7.5/s3e/h/std/semaphore.h'
p3339
sbsS'ctime'
p3340
g330
(g1641
g332
Ntp3341
Rp3342
(dp3343
g1645
g1653
sg1646
g1654
sg356
S'c:/marmalade/7.5/s3e/h/std/c++/ctime'
p3344
sbsS'sstream'
p3345
g330
(g1641
g332
Ntp3346
Rp3347
(dp3348
g1645
g1653
sg1646
g1654
sg356
S'c:/marmalade/7.5/s3e/h/std/c++/sstream'
p3349
sbsS'IwGeomFBBox.h'
p3350
g330
(g1641
g332
Ntp3351
Rp3352
(dp3353
g1645
g1348
sg1646
g1707
sg356
g1374
sbsS'IwDebugPrim.h'
p3354
g330
(g1641
g332
Ntp3355
Rp3356
(dp3357
g1645
g1448
sg1646
g1787
sg356
g1446
sbsS'GameScene.cpp'
p3358
g330
(g1641
g332
Ntp3359
Rp3360
(dp3361
g1645
g1199
sg1646
g1797
sg356
g1244
sbsS'IwGxFontContainer.h'
p3362
g330
(g1641
g332
Ntp3363
Rp3364
(dp3365
g1645
g1326
sg1646
g1647
sg356
g1333
sbsS'IwGeomSVec3.h'
p3366
g330
(g1641
g332
Ntp3367
Rp3368
(dp3369
g1645
g1348
sg1646
g1707
sg356
g1351
sbsS'hero.h'
p3370
g330
(g1641
g332
Ntp3371
Rp3372
(dp3373
g1645
g1199
sg1646
g1797
sg356
g1208
sbsS'iw2dscenegraphcore.mkf'
p3374
g330
(g1641
g332
Ntp3375
Rp3376
(dp3377
g1645
g1502
sg1646
g2793
sg356
g1500
sbsS's3eExt.h'
p3378
g330
(g1641
g332
Ntp3379
Rp3380
(dp3381
g1645
g1653
sg1646
g1669
sg356
S'c:/marmalade/7.5/s3e/h/s3eExt.h'
p3382
sbsS'IwGeomFVec3.h'
p3383
g330
(g1641
g332
Ntp3384
Rp3385
(dp3386
g1645
g1348
sg1646
g1707
sg356
g1410
sbsS'streambuf'
p3387
g330
(g1641
g332
Ntp3388
Rp3389
(dp3390
g1645
g1653
sg1646
g1654
sg356
S'c:/marmalade/7.5/s3e/h/std/c++/streambuf'
p3391
sbsS's3eMetrics.h'
p3392
g330
(g1641
g332
Ntp3393
Rp3394
(dp3395
g1645
g1653
sg1646
g1880
sg356
S'c:/marmalade/7.5/s3e/h/ext/s3eMetrics.h'
p3396
sbsS'Shark.cpp'
p3397
g330
(g1641
g332
Ntp3398
Rp3399
(dp3400
g1645
g1199
sg1646
g1797
sg356
g1230
sbsS'IwGxFont.h'
p3401
g330
(g1641
g332
Ntp3402
Rp3403
(dp3404
g1645
g1326
sg1646
g1647
sg356
g1340
sbsS's3eSecureStorage.h'
p3405
g330
(g1641
g332
Ntp3406
Rp3407
(dp3408
g1645
g1653
sg1646
g1669
sg356
S'c:/marmalade/7.5/s3e/h/s3eSecureStorage.h'
p3409
sbsS'string.h'
p3410
g330
(g1641
g332
Ntp3411
Rp3412
(dp3413
g1645
g1653
sg1646
g1675
sg356
S'c:/marmalade/7.5/s3e/h/std/string.h'
p3414
sbsS'IwResource.h'
p3415
g330
(g1641
g332
Ntp3416
Rp3417
(dp3418
g1645
g1512
sg1646
g1682
sg356
g1608
sbsS'IwGeomSVec2.h'
p3419
g330
(g1641
g332
Ntp3420
Rp3421
(dp3422
g1645
g1348
sg1646
g1707
sg356
g1346
sbsS'libjpeg.mkf'
p3423
g330
(g1641
g332
Ntp3424
Rp3425
(dp3426
g1645
g1097
sg1646
(lp3427
g1093
asg356
g1095
sbsS'IwGxDebug.h'
p3428
g330
(g1641
g332
Ntp3429
Rp3430
(dp3431
g1645
g1448
sg1646
g1787
sg356
g1471
sbsS'float.h'
p3432
g330
(g1641
g332
Ntp3433
Rp3434
(dp3435
g1645
g1653
sg1646
g1675
sg356
S'c:/marmalade/7.5/s3e/h/std/float.h'
p3436
sbsS'iomanip.h'
p3437
g330
(g1641
g332
Ntp3438
Rp3439
(dp3440
g1645
g1653
sg1646
g1654
sg356
S'c:/marmalade/7.5/s3e/h/std/c++/iomanip.h'
p3441
sbsS'IwKeymap.h'
p3442
g330
(g1641
g332
Ntp3443
Rp3444
(dp3445
g1645
g1512
sg1646
g1682
sg356
g1553
sbsS'IwDebug.h'
p3446
g330
(g1641
g332
Ntp3447
Rp3448
(dp3449
g1645
g1512
sg1646
g1682
sg356
g1541
sbsS'IwVariableBitField.h'
p3450
g330
(g1641
g332
Ntp3451
Rp3452
(dp3453
g1645
g1512
sg1646
g1682
sg356
g1575
sbsS'IwGeomMenu.h'
p3454
g330
(g1641
g332
Ntp3455
Rp3456
(dp3457
g1645
g1348
sg1646
g1707
sg356
g1404
sbsS'IwDivTable.h'
p3458
g330
(g1641
g332
Ntp3459
Rp3460
(dp3461
g1645
g1512
sg1646
g1682
sg356
g1531
sbsS'ctype.h'
p3462
g330
(g1641
g332
Ntp3463
Rp3464
(dp3465
g1645
g1653
sg1646
g1675
sg356
S'c:/marmalade/7.5/s3e/h/std/ctype.h'
p3466
sbsS'mainMenu.cpp'
p3467
g330
(g1641
g332
Ntp3468
Rp3469
(dp3470
g1645
g1199
sg1646
g1797
sg356
g1222
sbsS'IwResGroup.h'
p3471
g330
(g1641
g332
Ntp3472
Rp3473
(dp3474
g1645
g1424
sg1646
g1926
sg356
g1438
sbsS'signal_1.h'
p3475
g330
(g1641
g332
Ntp3476
Rp3477
(dp3478
g1645
g1653
sg1646
g1806
sg356
S'c:/marmalade/7.5/s3e/h/std/sys/signal.h'
p3479
sbsS'IwSoundData.cpp'
p3480
g330
(g1641
g332
Ntp3481
Rp3482
(dp3483
g1645
g1142
sg1646
g1693
sg356
g1179
sbsS'main.cpp'
p3484
g330
(g1641
g332
Ntp3485
Rp3486
(dp3487
g1645
g1199
sg1646
g1797
sg356
g1228
sbsS'shm.h'
p3488
g330
(g1641
g332
Ntp3489
Rp3490
(dp3491
g1645
g1653
sg1646
g1806
sg356
S'c:/marmalade/7.5/s3e/h/std/sys/shm.h'
p3492
sbsS'IwManagedList.h'
p3493
g330
(g1641
g332
Ntp3494
Rp3495
(dp3496
g1645
g1512
sg1646
g1682
sg356
g1525
sbsS'prctl.h'
p3497
g330
(g1641
g332
Ntp3498
Rp3499
(dp3500
g1645
g1653
sg1646
g1806
sg356
S'c:/marmalade/7.5/s3e/h/std/sys/prctl.h'
p3501
sbsS'IwGxStream.h'
p3502
g330
(g1641
g332
Ntp3503
Rp3504
(dp3505
g1645
g1448
sg1646
g1787
sg356
g1459
sbsS'temp_defines_debug.h'
p3506
g330
(g1641
g332
Ntp3507
Rp3508
(dp3509
g1645
(lp3510
sg1646
(lp3511
g3005
asg356
S'c:/Marmalade/7.5/examples/GameTutorial/CPP/marm1/build_stage4_vc12/temp_defines_debug.h'
p3512
sbsS'utility'
p3513
g330
(g1641
g332
Ntp3514
Rp3515
(dp3516
g1645
g1653
sg1646
g1654
sg356
S'c:/marmalade/7.5/s3e/h/std/c++/utility'
p3517
sbsS'input.h'
p3518
g330
(g1641
g332
Ntp3519
Rp3520
(dp3521
g1645
g1199
sg1646
g1797
sg356
g1216
sbsS'Levelmanager.h'
p3522
g330
(g1641
g332
Ntp3523
Rp3524
(dp3525
g1645
g1199
sg1646
g1797
sg356
g1238
sbsS'IwGeomLegacy.h'
p3526
g330
(g1641
g332
Ntp3527
Rp3528
(dp3529
g1645
g1348
sg1646
g1707
sg356
g1368
sbsS'IwTPage.h'
p3530
g330
(g1641
g332
Ntp3531
Rp3532
(dp3533
g1645
g1448
sg1646
g1787
sg356
g1496
sbsS'IwResSerialise.h'
p3534
g330
(g1641
g332
Ntp3535
Rp3536
(dp3537
g1645
g1424
sg1646
g1926
sg356
g1425
sbsS's3eCrypto.h'
p3538
g330
(g1641
g332
Ntp3539
Rp3540
(dp3541
g1645
g1653
sg1646
g1669
sg356
S'c:/marmalade/7.5/s3e/h/s3eCrypto.h'
p3542
sbsS's3eKeyboard.h'
p3543
g330
(g1641
g332
Ntp3544
Rp3545
(dp3546
g1645
g1653
sg1646
g1669
sg356
S'c:/marmalade/7.5/s3e/h/s3eKeyboard.h'
p3547
sbsS'fcntl.h'
p3548
g330
(g1641
g332
Ntp3549
Rp3550
(dp3551
g1645
g1653
sg1646
g1675
sg356
S'c:/marmalade/7.5/s3e/h/std/fcntl.h'
p3552
sbsS'Iw2DSceneGraphCore.h'
p3553
g330
(g1641
g332
Ntp3554
Rp3555
(dp3556
g1645
g1505
sg1646
g2793
sg356
g1503
sbsS'memory.h'
p3557
g330
(g1641
g332
Ntp3558
Rp3559
(dp3560
g1645
g1653
sg1646
g1675
sg356
S'c:/marmalade/7.5/s3e/h/std/memory.h'
p3561
sbsS'Entity.h'
p3562
g330
(g1641
g332
Ntp3563
Rp3564
(dp3565
g1645
g1199
sg1646
g1797
sg356
g1206
sbsS'pthread.h'
p3566
g330
(g1641
g332
Ntp3567
Rp3568
(dp3569
g1645
g1653
sg1646
g1675
sg356
S'c:/marmalade/7.5/s3e/h/std/pthread.h'
p3570
sbsS'IwGeomIntersect.h'
p3571
g330
(g1641
g332
Ntp3572
Rp3573
(dp3574
g1645
g1348
sg1646
g1707
sg356
g1394
sbsS'IwTextParserITX.h'
p3575
g330
(g1641
g332
Ntp3576
Rp3577
(dp3578
g1645
g1512
sg1646
g1682
sg356
g1551
sbsS'IwClip.inl'
p3579
g330
(g1641
g332
Ntp3580
Rp3581
(dp3582
g1645
g1448
sg1646
g1787
sg356
g1481
sbsS'Iw2DSceneGraph.cpp'
p3583
g330
(g1641
g332
Ntp3584
Rp3585
(dp3586
g1645
g1290
sg1646
g1968
sg356
g1288
sbsS'ostream.h'
p3587
g330
(g1641
g332
Ntp3588
Rp3589
(dp3590
g1645
g1653
sg1646
g1654
sg356
S'c:/marmalade/7.5/s3e/h/std/c++/ostream.h'
p3591
sbsS'stl_user_config.h'
p3592
g330
(g1641
g332
Ntp3593
Rp3594
(dp3595
g1645
g1653
sg1646
g1654
sg356
S'c:/marmalade/7.5/s3e/h/std/c++/stl_user_config.h'
p3596
sbsS'IwProfileMenu.h'
p3597
g330
(g1641
g332
Ntp3598
Rp3599
(dp3600
g1645
g1512
sg1646
g1682
sg356
g1527
sbsS'MarmaladeVersion.h'
p3601
g330
(g1641
g332
Ntp3602
Rp3603
(dp3604
g1645
g1653
sg1646
g1669
sg356
S'c:/marmalade/7.5/s3e/h/MarmaladeVersion.h'
p3605
sbsS'IwResHandlerWAV.h'
p3606
g330
(g1641
g332
Ntp3607
Rp3608
(dp3609
g1645
g1142
sg1646
g1693
sg356
g1147
sbsS'gl3platform.h'
p3610
g330
(g1641
g332
Ntp3611
Rp3612
(dp3613
g1645
g1653
sg1646
g1979
sg356
S'c:/marmalade/7.5/s3e/h/GLES3/gl3platform.h'
p3614
sbsS'ios.h'
p3615
g330
(g1641
g332
Ntp3616
Rp3617
(dp3618
g1645
g1653
sg1646
g1654
sg356
S'c:/marmalade/7.5/s3e/h/std/c++/ios.h'
p3619
sbsS'IwImageHelper.h'
p3620
g330
(g1641
g332
Ntp3621
Rp3622
(dp3623
g1645
g1512
sg1646
g1682
sg356
g1523
sbsS'hash_set'
p3624
g330
(g1641
g332
Ntp3625
Rp3626
(dp3627
g1645
g1653
sg1646
g1654
sg356
S'c:/marmalade/7.5/s3e/h/std/c++/hash_set'
p3628
sbsS'IwGeomFQuat.h'
p3629
g330
(g1641
g332
Ntp3630
Rp3631
(dp3632
g1645
g1348
sg1646
g1707
sg356
g1358
sbsS'jmorecfg.h'
p3633
g330
(g1641
g332
Ntp3634
Rp3635
(dp3636
g1645
g1101
sg1646
g1741
sg356
g1110
sbsS'eglplatform.h'
p3637
g330
(g1641
g332
Ntp3638
Rp3639
(dp3640
g1645
g1653
sg1646
g2011
sg356
S'c:/marmalade/7.5/s3e/h/EGL/eglplatform.h'
p3641
sbsS'cmath'
p3642
g330
(g1641
g332
Ntp3643
Rp3644
(dp3645
g1645
g1653
sg1646
g1654
sg356
S'c:/marmalade/7.5/s3e/h/std/c++/cmath'
p3646
sbsS'math_gcc.h'
p3647
g330
(g1641
g332
Ntp3648
Rp3649
(dp3650
g1645
g1653
sg1646
g1675
sg356
S'c:/marmalade/7.5/s3e/h/std/math_gcc.h'
p3651
sbsS's3eMemory.h'
p3652
g330
(g1641
g332
Ntp3653
Rp3654
(dp3655
g1645
g1653
sg1646
g1669
sg356
S'c:/marmalade/7.5/s3e/h/s3eMemory.h'
p3656
sbsS'strings.h'
p3657
g330
(g1641
g332
Ntp3658
Rp3659
(dp3660
g1645
g1653
sg1646
g1675
sg356
S'c:/marmalade/7.5/s3e/h/std/strings.h'
p3661
sbsS's3eFile.h'
p3662
g330
(g1641
g332
Ntp3663
Rp3664
(dp3665
g1645
g1653
sg1646
g1669
sg356
S'c:/marmalade/7.5/s3e/h/s3eFile.h'
p3666
sbsS'IwGxTypes.h'
p3667
g330
(g1641
g332
Ntp3668
Rp3669
(dp3670
g1645
g1448
sg1646
g1787
sg356
g1485
sbsS'cerrno'
p3671
g330
(g1641
g332
Ntp3672
Rp3673
(dp3674
g1645
g1653
sg1646
g1654
sg356
S'c:/marmalade/7.5/s3e/h/std/c++/cerrno'
p3675
sbsS'IwSoundManager.cpp'
p3676
g330
(g1641
g332
Ntp3677
Rp3678
(dp3679
g1645
g1142
sg1646
g1693
sg356
g1155
sbsS'main.h'
p3680
g330
(g1641
g332
Ntp3681
Rp3682
(dp3683
g1645
g1199
sg1646
g1797
sg356
g1204
sbsS'soundengine.mkf'
p3684
g330
(g1641
g332
Ntp3685
Rp3686
(dp3687
g1645
g1187
sg1646
g1693
sg356
g1185
sbsS'resource.h'
p3688
g330
(g1641
g332
Ntp3689
Rp3690
(dp3691
g1645
g1653
sg1646
g1806
sg356
S'c:/marmalade/7.5/s3e/h/std/sys/resource.h'
p3692
sbsS'clocale'
p3693
g330
(g1641
g332
Ntp3694
Rp3695
(dp3696
g1645
g1653
sg1646
g1654
sg356
S'c:/marmalade/7.5/s3e/h/std/c++/clocale'
p3697
sbsS'pvrtextool.mkf'
p3698
g330
(g1641
g332
Ntp3699
Rp3700
(dp3701
g1645
g1283
sg1646
g2292
sg356
g1281
sbsS'csetjmp'
p3702
g330
(g1641
g332
Ntp3703
Rp3704
(dp3705
g1645
g1653
sg1646
g1654
sg356
S'c:/marmalade/7.5/s3e/h/std/c++/csetjmp'
p3706
sbsS'netdb.h'
p3707
g330
(g1641
g332
Ntp3708
Rp3709
(dp3710
g1645
g1653
sg1646
g1675
sg356
S'c:/marmalade/7.5/s3e/h/std/netdb.h'
p3711
sbsS's3eAndroidJNI.h'
p3712
g330
(g1641
g332
Ntp3713
Rp3714
(dp3715
g1645
g1653
sg1646
g1880
sg356
S'c:/marmalade/7.5/s3e/h/ext/s3eAndroidJNI.h'
p3716
sbsS'stdexcept'
p3717
g330
(g1641
g332
Ntp3718
Rp3719
(dp3720
g1645
g1653
sg1646
g1654
sg356
S'c:/marmalade/7.5/s3e/h/std/c++/stdexcept'
p3721
sbsS'math.h'
p3722
g330
(g1641
g332
Ntp3723
Rp3724
(dp3725
g1645
g1653
sg1646
g1675
sg356
S'c:/marmalade/7.5/s3e/h/std/math.h'
p3726
sbsS'stdbool.h'
p3727
g330
(g1641
g332
Ntp3728
Rp3729
(dp3730
g1645
g1653
sg1646
g1675
sg356
S'c:/marmalade/7.5/s3e/h/std/stdbool.h'
p3731
sbsS'uio.h'
p3732
g330
(g1641
g332
Ntp3733
Rp3734
(dp3735
g1645
g1653
sg1646
g1806
sg356
S'c:/marmalade/7.5/s3e/h/std/sys/uio.h'
p3736
sbsS'IwUncopyable.h'
p3737
g330
(g1641
g332
Ntp3738
Rp3739
(dp3740
g1645
g1512
sg1646
g1682
sg356
g1590
sbssS'juice_build_type'
p3741
g4
sS'tests'
p3742
(lp3743
sS'project_name'
p3744
g338
sS'root_file'
p3745
g135
sS'current_root'
p3746
S'c:/Marmalade/7.5/examples/GameTutorial/CPP/marm1'
p3747
sS'dependencies'
p3748
(lp3749
sS'include_paths'
p3750
(lp3751
S'c:/marmalade/7.5/modules/iw2d/h'
p3752
aS'c:/marmalade/7.5/modules/iwgx/h'
p3753
aS'c:/marmalade/7.5/modules/iwgl/h'
p3754
aS'c:/marmalade/7.5/modules/iwutil/h'
p3755
aS'c:/marmalade/7.5/modules/third_party/libjpeg/h'
p3756
aS'c:/marmalade/7.5/modules/third_party/zlib/h'
p3757
aS'c:/marmalade/7.5/modules/third_party/libpng/h'
p3758
aS'c:/marmalade/7.5/modules/iwgeom/h'
p3759
aS'c:/marmalade/7.5/modules/iwresmanager/h'
p3760
aS'c:/marmalade/7.5/extensions/pvrtextool/h'
p3761
aS'c:/marmalade/7.5/modules/iwgxfont/h'
p3762
aS'c:/marmalade/7.5/modules/third_party/tiniconv/source'
p3763
aS'c:/marmalade/7.5/modules/iw2dscenegraph/h'
p3764
aS'c:/marmalade/7.5/modules/iw2dscenegraphcore/h'
p3765
aS'c:/marmalade/7.5/modules/iwtween/h'
p3766
aS'c:/marmalade/7.5/examples/gametutorial/cpp/modules/soundengine/h'
p3767
aS'c:/marmalade/7.5/examples/gametutorial/cpp/modules/soundengine/source'
p3768
aS'c:/marmalade/7.5/s3e/h'
p3769
aS'c:/marmalade/7.5/s3e/h/ext'
p3770
aS'c:/marmalade/7.5/s3e/h/std'
p3771
aS'c:/marmalade/7.5/s3e/h/std/c++'
p3772
aS'c:/marmalade/7.5/s3e/h/ext_legacy'
p3773
aS'c:/marmalade/7.5/s3e/h/legacy'
p3774
asS'weak_frameworks'
p3775
(lp3776
sS'extprojects'
p3777
(dp3778
sg600
(dp3779
g594
(lp3780
(S'c:/Marmalade/7.5/examples/GameTutorial/CPP/marm1/data/audio'
p3781
S'audio'
p3782
I0
tp3783
a(S'c:/Marmalade/7.5/examples/GameTutorial/CPP/marm1/data/textures'
p3784
S'textures'
p3785
I0
tp3786
a(S'c:/Marmalade/7.5/examples/GameTutorial/CPP/marm1/data/fonts'
p3787
S'fonts'
p3788
I0
tp3789
a(S'c:/Marmalade/7.5/examples/GameTutorial/CPP/marm1/data-ram/data-gles1,c:/Marmalade/7.5/examples/GameTutorial/CPP/marm1/data'
p3790
S'.'
p3791
I0
tp3792
assS'macro_types'
p3793
(dp3794
g529
I1
sg530
I0
sg531
I0
sg532
I0
sg534
I0
sg535
I0
sg536
I0
sg537
I0
sg538
I0
sg540
I0
sg541
I0
sg542
I0
sg543
I0
sg544
I0
sg546
I0
sg548
I0
sg549
I0
sg550
I0
sg551
I0
sg552
I0
sg553
I0
sg554
I0
sg555
I0
sg556
I1
sg557
I0
sg558
I0
sg559
I0
sg560
I0
sg561
I01
sg562
I1
sg563
I0
sg564
I0
sg565
I0
sg566
I0
sg567
I0
sg568
I0
sg569
I0
ssS'commands'
p3795
(lp3796
sg602
(g1074
S'VC12'
p3797
S'X86ARMAARCH64'
p3798
tp3799
sS'build_libs'
p3800
(dp3801
sg604
g0
sS'frameworks'
p3802
(lp3803
sS'environ'
p3804
(dp3805
sS'target_name_debug'
p3806
g338
sS'builders'
p3807
(dp3808
g594
(dp3809
S'.S'
p3810
(dp3811
S'gcc_aarch64'
p3812
(lp3813
S'.obj'
p3814
aS'echo AARCH64 Assembling(GCC) ${SOURCE}...'
p3815
aS'c:/marmalade/7.5/s3e\\gcc\\win32\\aarch64\\bin\\aarch64-none-elf-gcc -c -o ${TARGET} ${SOURCE}'
p3816
asS'rvct'
p3817
(lp3818
g3814
aS'echo ARM Assembling(RVCT) ${SOURCE}...'
p3819
aS'c:/marmalade/7.5/s3e\\rvct\\bin\\armasm -o ${TARGET} ${SOURCE}'
p3820
asg452
(lp3821
g3814
aS'echo ARM Assembling(GCC) ${SOURCE}...'
p3822
aS'c:/marmalade/7.5/s3e\\gcc\\win32\\arm\\bin\\arm-none-eabi-gcc -c -o ${TARGET} ${SOURCE}'
p3823
asS'ppu'
p3824
(lp3825
S'.a'
p3826
aS'echo PPU Assembling(SNC) ${SOURCE}...'
p3827
aS'c:/marmalade/7.5/s3e\\rvct\\bin\\armasm -o ${TARGET} ${SOURCE}'
p3828
assS'.s'
p3829
g3811
sS'.vp'
p3830
(lp3831
NaS'"C:/Marmalade/7.5/s3e/python/python.exe" "c:/marmalade/7.5/modules/iwgx/tools/compile_shaders.py" ${SOURCE}'
p3832
asssS'extproject_names'
p3833
(lp3834
sbtp3835
.