((dp0
S'arm_dbg_args'
p1
S'-via:"c:\\Marmalade\\7.5\\examples\\GameTutorial\\CPP\\marm1\\build_stage4_vc12\\Stage4_vc12_arm_debug.via" -qemu'
p2
sS'game-icf'
p3
S''
p4
sS'dist'
p5
NsS'csproj'
p6
g4
sS'module_path_append'
p7
NsS'global_path'
p8
S'c:\\marmalade\\7.5\\examples\\gametutorial\\cpp'
p9
sS'system_path'
p10
S'c:\\marmalade\\7.5\\s3e\\makefile_builder'
p11
sS'android_x86_dbg_args'
p12
S'../../tools/DeployTool/DeployTool.exe --dir "c:\\Marmalade\\7.5\\examples\\GameTutorial\\CPP\\marm1\\build_stage4_vc12"'
p13
sS'aarch64-arch-mod'
p14
g4
sS'no-emit'
p15
NsS'arm-float-abi'
p16
g4
sS'arm_rel_rtsm_args'
p17
S'-via:"c:\\Marmalade\\7.5\\examples\\GameTutorial\\CPP\\marm1\\build_stage4_vc12\\Stage4_vc12_arm_release.via" -qemu'
p18
sS'amd64'
p19
NsS'line-width'
p20
I80
sS'gcc_dbg_args'
p21
S'-via:"c:\\Marmalade\\7.5\\examples\\GameTutorial\\CPP\\marm1\\build_stage4_vc12\\Stage4_vc12_gcc_debug.via" -qemu'
p22
sS'android-x86'
p23
NsS'x86_dbg_exe'
p24
S'c:/marmalade/7.5/s3e\\win32\\s3e_simulator_debug.exe'
p25
sS'disable-runtime-checks'
p26
NsS'release'
p27
NsS'no-make'
p28
NsS'xcode-x86-build-settings'
p29
g4
sS'optimise-size'
p30
NsS'fat'
p31
NsS'output-name-debug'
p32
g4
sS'arm-fpu'
p33
g4
sS'proj_name'
p34
S'Stage4_vc12'
p35
sS'rvct-version'
p36
S'none'
p37
sS'compiler'
p38
S'gcc'
p39
sS'execute'
p40
NsS'compile-static'
p41
NsS'msvc-project'
p42
NsS'buildenv'
p43
S'VC12'
p44
sS'quick'
p45
NsS'module_path'
p46
(lp47
S'c:/Marmalade/7.5/examples/GameTutorial/CPP/modules'
p48
asS'mkf_default'
p49
S's3e-default.mkf'
p50
sS'use-release-std-libs'
p51
NsS'using_perforce'
p52
I00
sS'tizen-x86'
p53
NsS'mips-s3e'
p54
NsS's3e-api-lib-name'
p55
S's3e_api_iwgl'
p56
sS'ios-no-pic'
p57
NsS'shared-arm-lib'
p58
NsS'arm-cpu'
p59
g4
sS'compile-thumb'
p60
NsS'no-ide'
p61
I01
sS'msvc-version'
p62
S'6.0'
p63
sS'arm'
p64
I01
sS'builddir'
p65
g4
sS'compile-debug-as-release'
p66
I0
sS'arm-arch'
p67
g4
sS'brief'
p68
NsS'dll'
p69
NsS'buildenv-toolset'
p70
g4
sS'version'
p71
NsS'aarch64-arch'
p72
g4
sS'ccache'
p73
I0
sS'offline'
p74
NsS'ios-version'
p75
g4
sS'hub_data'
p76
g4
sS'fake_vc_call'
p77
NsS'jobs'
p78
I0
sS'linkflags'
p79
NsS'gcc_aarch64_dbg_args'
p80
g13
sS'debug'
p81
I01
sS'xcode-build-order'
p82
g4
sS'gcc_aarch64_rel_rtsm_args'
p83
S'-via:"c:\\Marmalade\\7.5\\examples\\GameTutorial\\CPP\\marm1\\build_stage4_vc12\\Stage4_vc12_gcc_aarch64_release.via" -qemu'
p84
sS'gcc_rel_rtsm_args'
p85
S'-via:"c:\\Marmalade\\7.5\\examples\\GameTutorial\\CPP\\marm1\\build_stage4_vc12\\Stage4_vc12_gcc_release.via" -qemu'
p86
sS'done_defaults'
p87
I1
sS'path'
p88
NsS's3e-data-dir'
p89
S'c:/Marmalade/7.5/examples/GameTutorial/CPP/marm1\\data'
p90
sS'enable-exceptions'
p91
NsS'osx-dll'
p92
NsS'extension'
p93
g4
sS'no-vc6'
p94
NsS'aarch64'
p95
NsS'win32-console'
p96
NsS'dist-format'
p97
g4
sS's3e-force-arch'
p98
NsS'dump_defines'
p99
NsS'use-shared-std-libs'
p100
NsS'gcc-version'
p101
g4
sS'x86_dbg_args'
p102
S'-via:"c:\\Marmalade\\7.5\\examples\\GameTutorial\\CPP\\marm1\\build_stage4_vc12\\Stage4_vc12_debug.via"'
p103
sS'tizen_x86_dbg_args'
p104
g13
sS'arm-debugger'
p105
g4
sS'use_temp_extension'
p106
NsS'verbose'
p107
I0
sS'log'
p108
NsS'no-strip'
p109
NsS'rebuild'
p110
NsS'mips_dbg_args'
p111
g13
sS'win32-simulator-dll'
p112
NsS'strict'
p113
NsS'xcode-aarch64-build-settings'
p114
g4
sS'enable-global-path'
p115
NsS'gcc_aarch64_rel_args'
p116
g13
sS'cflags'
p117
(lp118
S'-std=gnu++0x'
p119
asS'dist-dir'
p120
g4
sS'xcode-arm-build-settings'
p121
g4
sS'jflags'
p122
NsS'csprojSDKRefs'
p123
g4
sS'tizen_x86_rel_exe'
p124
S'c:\\marmalade\\7.5\\s3e\\makefile_builder\\tool_launcher.exe'
p125
sS'test-assets'
p126
g4
sS'distcc'
p127
NsS'external-compiler'
p128
NsS'no-distcc'
p129
NsS'preinclude'
p130
NsS'using_sdk'
p131
I01
sS'nologo'
p132
NsS'warn-level'
p133
I2
sS'mips_dbg_exe'
p134
g125
sS'mkb_in'
p135
S'c:/Marmalade/7.5/examples/GameTutorial/CPP/marm1/Stage4.mkb'
p136
sS'tizen_x86_dbg_exe'
p137
g125
sS'arm_dbg_exe'
p138
S'c:/marmalade/7.5/s3e\\bin\\armdebug.exe'
p139
sS'mdev-first'
p140
NsS'csprojDLLRef'
p141
NsS'tizen_x86_rel_args'
p142
g13
sS'android_x86_dbg_exe'
p143
g125
sS'test-config'
p144
g4
sS'list-targets'
p145
NsS'arm_rel_exe'
p146
g125
sS'arm_rel_args'
p147
g13
sS'makedeps'
p148
NsS'android_x86_rel_exe'
p149
g125
sS'default-buildenv'
p150
S'VC12'
p151
sS'x86_rel_exe'
p152
g25
sS'preprocess-java'
p153
NsS'mips_rel_args'
p154
g13
sS'defines'
p155
NsS'lib'
p156
NsS'non-interactive'
p157
NsS'global_argv'
p158
(lp159
S'C:\\Marmalade\\7.5\\s3e\\makefile_builder\\mkb.py'
p160
aS'C:/Marmalade/7.5/examples/GameTutorial/CPP/marm1/Stage4.mkb'
p161
aS'--buildenv=VC12'
p162
aS'--debug'
p163
aS'--arm'
p164
aS'--compiler=gcc'
p165
aS'--no-ide'
p166
aS'--make'
p167
asS'make'
p168
I01
sS'optimise-speed'
p169
NsS'internal'
p170
NsS'enable-stdinc'
p171
NsS'deploy-only'
p172
NsS'x86'
p173
NsS'deploy'
p174
g4
sS'x86_run_exe'
p175
S'c:/marmalade/7.5/s3e\\win32\\s3e_console.exe'
p176
sS'cxxflags'
p177
NsS'x86_rel_args'
p178
S'-via:"c:\\Marmalade\\7.5\\examples\\GameTutorial\\CPP\\marm1\\build_stage4_vc12\\Stage4_vc12_release.via"'
p179
sS'gcc_rel_args'
p180
g13
sS'mips'
p181
NsS'xcode-build-settings'
p182
g4
sS'incredibuild'
p183
NsS'strict-compile'
p184
NsS'use-auto-subdirs'
p185
NsS'mips_rel_exe'
p186
g125
sS'android_x86_rel_args'
p187
g13
sS'app-icf'
p188
g4
sS'deployargs'
p189
NsS'iosnativedebug'
p190
NsS'use_prebuilt'
p191
NsS'mkf_in'
p192
(lp193
S'c:\\marmalade\\7.5\\s3e\\s3e-default.mkf'
p194
aS'c:\\marmalade\\7.5\\modules\\iw2d\\iw2d.mkf'
p195
aS'c:\\marmalade\\7.5\\modules\\iwgx\\iwgx.mkf'
p196
aS'c:\\marmalade\\7.5\\modules\\iwgl\\iwgl.mkf'
p197
aS'c:\\marmalade\\7.5\\modules\\iwutil\\iwutil.mkf'
p198
aS'c:\\marmalade\\7.5\\modules\\third_party\\libjpeg\\libjpeg.mkf'
p199
aS'c:\\marmalade\\7.5\\modules\\third_party\\libpng\\libpng.mkf'
p200
aS'c:\\marmalade\\7.5\\modules\\third_party\\zlib\\zlib.mkf'
p201
aS'c:\\marmalade\\7.5\\modules\\iwgeom\\iwgeom.mkf'
p202
aS'c:\\marmalade\\7.5\\modules\\iwresmanager\\iwresmanager.mkf'
p203
aS'c:\\marmalade\\7.5\\extensions\\pvrtextool\\pvrtextool.mkf'
p204
aS'c:\\marmalade\\7.5\\modules\\iwgxfont\\iwgxfont.mkf'
p205
aS'c:\\marmalade\\7.5\\modules\\third_party\\tiniconv\\tiniconv.mkf'
p206
aS'c:\\marmalade\\7.5\\modules\\iw2dscenegraph\\iw2dscenegraph.mkf'
p207
aS'c:\\marmalade\\7.5\\modules\\iw2dscenegraphcore\\iw2dscenegraphcore.mkf'
p208
aS'c:\\marmalade\\7.5\\modules\\iwtween\\iwtween.mkf'
p209
aS'c:\\marmalade\\7.5\\examples\\gametutorial\\cpp\\modules\\soundengine\\soundengine.mkf'
p210
aS'c:\\marmalade\\7.5\\examples\\marmaladeexampleresources\\marmaladeexampleresources.mkf'
p211
asS'strict-mkb'
p212
NsS'executeargs'
p213
NsS'clean'
p214
NsS'no-asm'
p215
NsS'output-name'
p216
g4
sS'no-modules'
p217
NsS'find_define'
p218
g4
s(dp219
S'c:\\marmalade\\7.5\\s3e\\makefile_builder\\templates\\vc7_suo.pyc'
p220
F1424160376.0
sS'c:\\marmalade\\7.5\\s3e\\makefile_builder\\templates\\ws81_vcxproj.pyc'
p221
F1424160380.0
sS'c:\\marmalade\\7.5\\s3e\\makefile_builder\\plugins\\s3e_ws8.pyc'
p222
F1424160376.0
sS'c:\\marmalade\\7.5\\s3e\\makefile_builder\\templates'
p223
F1424630747.758857
sS'c:\\marmalade\\7.5\\s3e\\makefile_builder\\templates\\qmake.py'
p224
F1424159312.0
sS'c:\\marmalade\\7.5\\s3e\\makefile_builder\\templates\\vc10_user.pyc'
p225
F1424160378.0
sS'c:\\marmalade\\7.5\\s3e\\makefile_builder\\plugins'
p226
F1424631019.086376
sS'c:\\marmalade\\7.5\\s3e\\makefile_builder\\mkb_main.pyc'
p227
F1424160376.0
sS'c:\\marmalade\\7.5\\s3e\\makefile_builder\\templates\\mips_linker_script'
p228
F1424159312.0
sS'c:\\marmalade\\7.5\\s3e\\makefile_builder\\plugins\\XcodeEmitter.py'
p229
F1424159310.0
sS'c:\\marmalade\\7.5\\s3e\\makefile_builder\\mkb.py'
p230
F1424159310.0
sS'c:\\marmalade\\7.5\\s3e\\makefile_builder\\templates\\ws81_ext_sln.pyc'
p231
F1424160380.0
sS'c:\\marmalade\\7.5\\s3e\\makefile_builder\\templates\\win32_dsp.pyc'
p232
F1424160376.0
sS'c:\\marmalade\\7.5\\s3e\\makefile_builder\\templates\\ws8_csproj.pyc'
p233
F1424160380.0
sS'c:\\marmalade\\7.5\\s3e\\makefile_builder\\deployment.pyc'
p234
F1424160376.0
sS'c:\\marmalade\\7.5\\s3e\\makefile_builder\\plugins\\win32_vc6.pyc'
p235
F1424160376.0
sS'c:\\marmalade\\7.5\\s3e\\makefile_builder\\plugins\\osx_xcode.pyc'
p236
F1424160376.0
sS'c:\\marmalade\\7.5\\s3e\\makefile_builder\\plugins\\null.pyc'
p237
F1424160376.0
sS'c:\\marmalade\\7.5\\s3e\\makefile_builder\\templates\\wp81_csproj.pyc'
p238
F1424160380.0
sS'c:\\marmalade\\7.5\\s3e\\makefile_builder\\templates\\qmake_user.py'
p239
F1424159312.0
sS'c:\\marmalade\\7.5\\s3e\\makefile_builder\\templates\\vc6_opt.pyc'
p240
F1424160376.0
sS'c:\\marmalade\\7.5\\s3e\\makefile_builder\\plugins\\vc7_utils.pyc'
p241
F1424160376.0
sS'c:\\marmalade\\7.5\\s3e\\makefile_builder\\templates\\wp81_vcxproj.pyc'
p242
F1424160380.0
sS'c:\\marmalade\\7.5\\s3e\\makefile_builder\\templates\\win32_vcxproj.pyc'
p243
F1424160378.0
sS'c:\\marmalade\\7.5\\s3e\\makefile_builder\\templates\\ws8_ext_sln.pyc'
p244
F1424160380.0
sS'c:\\marmalade\\7.5\\s3e\\makefile_builder\\templates\\ws8_ext_csproj.pyc'
p245
F1424160380.0
sS'c:\\marmalade\\7.5\\s3e\\makefile_builder\\templates\\wp8_ext_csproj.pyc'
p246
F1424160378.0
sS'c:\\marmalade\\7.5\\s3e\\makefile_builder\\plugins\\s3e_wp8.pyc'
p247
F1424160376.0
sS'c:\\marmalade\\7.5\\s3e\\makefile_builder\\templates\\ws81_csproj.pyc'
p248
F1424160380.0
sS'c:\\marmalade\\7.5\\s3e\\makefile_builder\\docs\\deprecated.options.txt'
p249
F1424159310.0
sS'c:\\marmalade\\7.5\\s3e\\makefile_builder\\plugins\\s3e_make.pyc'
p250
F1424160376.0
sS'c:\\marmalade\\7.5\\s3e\\makefile_builder\\templates\\win8_ext_csproj.pyc'
p251
F1424160378.0
sS'c:\\marmalade\\7.5\\s3e\\makefile_builder\\mkb_parser.pyc'
p252
F1424160376.0
sS'c:\\marmalade\\7.5\\s3e\\makefile_builder\\plugins\\s3e_web.pyc'
p253
F1424160376.0
sS'c:\\marmalade\\7.5\\s3e\\makefile_builder\\docs\\mkb.defines.txt'
p254
F1424159310.0
sS'c:\\marmalade\\7.5\\s3e\\makefile_builder\\plugins\\osx_scons.pyc'
p255
F1424160376.0
sS'c:\\marmalade\\7.5\\s3e\\makefile_builder\\plugins\\ws81_ws81.pyc'
p256
F1424160376.0
sS'c:\\marmalade\\7.5\\s3e\\makefile_builder\\plugins\\s3e_qmake.py'
p257
F1424159312.0
sS'c:\\marmalade\\7.5\\s3e\\makefile_builder\\templates\\win8_csproj.pyc'
p258
F1424160378.0
sS'c:\\marmalade\\7.5\\s3e\\makefile_builder\\plugins\\s3e_vc6.pyc'
p259
F1424160376.0
sS'c:\\marmalade\\7.5\\s3e\\makefile_builder\\plugins\\wp81_wp81.pyc'
p260
F1424160376.0
sS'c:\\marmalade\\7.5\\s3e\\makefile_builder\\templates\\wp81_csproj_user.pyc'
p261
F1424160380.0
sS'c:\\marmalade\\7.5\\s3e\\makefile_builder\\templates\\win32_dsw.pyc'
p262
F1424160376.0
sS'c:\\marmalade\\7.5\\s3e\\makefile_builder\\templates\\xcode4.xcscheme'
p263
F1424159312.0
sS'c:\\marmalade\\7.5\\s3e\\makefile_builder\\templates\\template.opt'
p264
F1424159312.0
sS'c:\\marmalade\\7.5\\s3e\\makefile_builder\\templates\\template.suo'
p265
F1424159312.0
sS'c:\\marmalade\\7.5\\s3e\\makefile_builder\\templates\\linker_script'
p266
F1424159312.0
sS'c:\\marmalade\\7.5\\s3e\\makefile_builder\\templates\\gdb_start.txt'
p267
F1424159312.0
sS'c:\\marmalade\\7.5\\s3e\\makefile_builder\\mkb_launcher.exe'
p268
F1424159548.0
sS'c:\\marmalade\\7.5\\s3e\\makefile_builder\\templates\\scons.pyc'
p269
F1424160376.0
sS'c:\\marmalade\\7.5\\s3e\\makefile_builder\\docs\\parse_options.pyc'
p270
F1424160380.0
sS'c:\\marmalade\\7.5\\s3e\\makefile_builder\\templates\\xcode4_arm.xcscheme'
p271
F1424159312.0
sS'c:\\marmalade\\7.5\\s3e\\makefile_builder\\plugins\\VisualStudioEmitter.pyc'
p272
F1424160376.0
sS'c:\\marmalade\\7.5\\s3e\\makefile_builder\\plugins\\s3e_xcode.pyc'
p273
F1424631019.087376
sS'c:\\marmalade\\7.5\\s3e\\makefile_builder\\plugins\\Emitter.pyc'
p274
F1424160376.0
sS'c:\\marmalade\\7.5\\s3e\\makefile_builder\\templates\\ws8_sln.pyc'
p275
F1424160380.0
sS'c:\\marmalade\\7.5\\s3e\\makefile_builder\\tool_launcher.exe'
p276
F1424159548.0
sS'c:\\marmalade\\7.5\\s3e\\makefile_builder\\templates\\wp8_sln.pyc'
p277
F1424160378.0
sS'c:\\marmalade\\7.5\\s3e\\makefile_builder\\mkb_upstream.pyc'
p278
F1424160376.0
sS'c:\\marmalade\\7.5\\s3e\\makefile_builder\\templates\\ws81_csproj_user.pyc'
p279
F1424160380.0
sS'c:\\marmalade\\7.5\\s3e\\makefile_builder\\templates\\win32_sln.pyc'
p280
F1424160376.0
sS'c:\\marmalade\\7.5\\s3e\\makefile_builder\\templates\\xcode4_DeployTool.xcscheme'
p281
F1424159312.0
sS'c:\\marmalade\\7.5\\s3e\\makefile_builder\\plugins\\deploy.pyc'
p282
F1424160376.0
sS'c:\\marmalade\\7.5\\s3e\\makefile_builder\\plugins\\s3e_win8.pyc'
p283
F1424160376.0
sS'c:\\marmalade\\7.5\\s3e\\makefile_builder\\plugins\\iphone.pyc'
p284
F1424160376.0
sS'c:\\marmalade\\7.5\\s3e\\makefile_builder\\plugins\\Win8Emitter.pyc'
p285
F1424160376.0
sS'c:\\marmalade\\7.5\\s3e\\makefile_builder\\plugins\\s3e_qmake.pyc'
p286
F1424631018.9523683
sS'c:\\marmalade\\7.5\\s3e\\makefile_builder\\docs'
p287
F1424630747.7758577
sS'c:\\marmalade\\7.5\\s3e\\makefile_builder\\mkb_globals.pyc'
p288
F1424160376.0
sS'c:\\marmalade\\7.5\\s3e\\makefile_builder\\plugins\\win8_utils.pyc'
p289
F1424160376.0
sS'c:\\marmalade\\7.5\\s3e\\makefile_builder\\plugins\\xcode4_schememanagement.py'
p290
F1424159312.0
sS'c:\\marmalade\\7.5\\s3e\\makefile_builder\\templates\\wp81_ext_sln.pyc'
p291
F1424160380.0
sS'c:\\marmalade\\7.5\\s3e\\makefile_builder\\templates\\make.py'
p292
F1424159312.0
sS'c:\\marmalade\\7.5\\s3e\\makefile_builder\\templates\\ws81_ext_csproj.pyc'
p293
F1424160380.0
sS'c:\\marmalade\\7.5\\s3e\\makefile_builder\\plugins\\s3e_xcode.py'
p294
F1424159312.0
sS'c:\\marmalade\\7.5\\s3e\\makefile_builder\\plugins\\XcodeEmitter.pyc'
p295
F1424631018.8013597
sS'c:\\marmalade\\7.5\\s3e\\makefile_builder\\docs\\deployment_options.txt'
p296
F1424159310.0
sS'c:\\marmalade\\7.5\\s3e\\makefile_builder\\templates\\win8_sln.pyc'
p297
F1424160378.0
sS'c:\\marmalade\\7.5\\s3e\\makefile_builder\\plugins\\java.pyc'
p298
F1424160376.0
sS'c:\\marmalade\\7.5\\s3e\\makefile_builder\\plugins\\xcode4_schememanagement.pyc'
p299
F1424631018.80836
sS'c:\\marmalade\\7.5\\s3e\\makefile_builder\\plugins\\SConsEmitter.pyc'
p300
F1424160376.0
sS'c:\\marmalade\\7.5\\s3e\\makefile_builder\\templates\\win32_vcproj.pyc'
p301
F1424160378.0
sS'c:\\marmalade\\7.5\\s3e\\makefile_builder\\plugins\\wp8_wp8.pyc'
p302
F1424160376.0
sS'c:\\marmalade\\7.5\\s3e\\makefile_builder\\templates\\MainWindow.xib'
p303
F1424159312.0
sS'c:\\marmalade\\7.5\\s3e\\makefile_builder\\mkb_util.pyc'
p304
F1424160376.0
sS'c:\\marmalade\\7.5\\s3e\\makefile_builder\\templates\\vc8_user.pyc'
p305
F1424160378.0
sS'c:\\marmalade\\7.5\\s3e\\makefile_builder\\templates\\Info.plist'
p306
F1424159312.0
sS'c:\\marmalade\\7.5\\s3e\\makefile_builder\\templates\\wp8_csproj_user.pyc'
p307
F1424160378.0
sS'c:\\marmalade\\7.5\\s3e\\makefile_builder\\docs\\deprecated.defines.txt'
p308
F1424159310.0
sS'c:\\marmalade\\7.5\\s3e\\makefile_builder\\templates\\ws8_csproj_user.pyc'
p309
F1424160380.0
sS'c:\\marmalade\\7.5\\s3e\\makefile_builder\\plugins\\S3EEmitter.pyc'
p310
F1424160376.0
sS'c:\\marmalade\\7.5\\s3e\\makefile_builder\\templates\\rvct_linker_script'
p311
F1424159312.0
sS'c:\\marmalade\\7.5\\s3e\\makefile_builder\\templates\\xcode_pbxuser.py'
p312
F1424159312.0
sS'c:\\marmalade\\7.5\\s3e\\makefile_builder\\docs\\options.txt'
p313
F1424159310.0
sS'c:\\marmalade\\7.5\\s3e\\makefile_builder\\templates\\wp81_sln.pyc'
p314
F1424160380.0
sS'c:\\marmalade\\7.5\\s3e\\makefile_builder\\templates\\ws81_sln.pyc'
p315
F1424160380.0
sS'c:\\marmalade\\7.5\\s3e\\makefile_builder\\plugins\\vc6_utils.pyc'
p316
F1424160376.0
sS'c:\\marmalade\\7.5\\s3e\\makefile_builder\\templates\\wp81_ext_csproj.pyc'
p317
F1424160380.0
sS'c:\\marmalade\\7.5\\s3e\\makefile_builder\\plugins\\s3e_wp81.pyc'
p318
F1424160376.0
sS'c:\\marmalade\\7.5\\s3e\\makefile_builder\\templates\\aarch64_linker_script'
p319
F1424159312.0
sS'c:\\marmalade\\7.5\\s3e\\makefile_builder\\templates\\ws8_vcxproj.pyc'
p320
F1424160380.0
sS'c:\\marmalade\\7.5\\s3e\\makefile_builder\\plugins\\MakeEmitter.pyc'
p321
F1424160376.0
sS'c:\\marmalade\\7.5\\s3e\\makefile_builder\\templates\\win32_vcxproj_filters.pyc'
p322
F1424160378.0
sS'c:\\marmalade\\7.5\\s3e\\makefile_builder\\templates\\xcode.py'
p323
F1424159312.0
sS'c:\\marmalade\\7.5\\s3e\\makefile_builder\\plugins\\s3e_ws81.pyc'
p324
F1424160376.0
sS'c:\\marmalade\\7.5\\s3e\\makefile_builder\\plugins\\linux_scons.pyc'
p325
F1424160376.0
sS'c:\\marmalade\\7.5\\s3e\\makefile_builder\\templates\\win8_vcxproj.pyc'
p326
F1424160378.0
sS'c:\\marmalade\\7.5\\s3e\\makefile_builder\\plugins\\s3e_scons.pyc'
p327
F1424160376.0
sS'c:\\marmalade\\7.5\\s3e\\makefile_builder\\templates\\wp8_csproj.pyc'
p328
F1424160378.0
sS'c:\\marmalade\\7.5\\s3e\\makefile_builder\\templates\\win8_csproj_user.pyc'
p329
F1424160378.0
sS'c:\\marmalade\\7.5\\s3e\\makefile_builder\\plugins\\ws8_ws8.pyc'
p330
F1424160376.0
sS'c:\\marmalade\\7.5\\s3e\\makefile_builder\\templates\\wp8_vcxproj.pyc'
p331
F1424160378.0
sS'c:\\marmalade\\7.5\\s3e\\makefile_builder\\mkb_option.pyc'
p332
F1424160376.0
sccopy_reg
_reconstructor
p333
(cmkb_main
MkbFile
p334
c__builtin__
object
p335
Ntp336
Rp337
(dp338
g5
(lp339
sS'target_name'
p340
S'Stage4'
p341
sS'current_file'
p342
g136
sS'package_path'
p343
(lp344
sS'post_build'
p345
(lp346
(lp347
S'c:/marmalade/7.5/s3e/tools'
p348
aS'C:\\Marmalade\\7.5\\s3e\\python\\python.exe .\\process_map.py "$(TargetPath)"'
p349
aa(S'c:\\marmalade\\7.5\\s3e\\bin'
p350
S'"s3e_plink" -l "$(TargetPath)" '
p351
g173
tp352
asS'librarys'
p353
(lp354
g333
(cmkb_main
Library
p355
g335
Ntp356
Rp357
(dp358
S'name'
p359
S'vc6_compat.lib'
p360
sS'expand_name'
p361
I00
sS'include_spec_rvct_objs'
p362
(lp363
sS'include_all_objs'
p364
I00
sS'share_arm'
p365
I00
sS'arch'
p366
S'x86'
p367
sS'nodebug'
p368
I00
sg38
Nsbag333
(g355
g335
Ntp369
Rp370
(dp371
g359
S'iw2d'
p372
sg361
I01
sg362
(lp373
sg364
Nsg365
Nsg366
Nsg368
I00
sg38
Nsbag333
(g355
g335
Ntp374
Rp375
(dp376
g359
S'ATI_Compress_MT_VC7.lib'
p377
sg361
I00
sg362
g373
sg364
Nsg365
Nsg366
S'x86'
p378
sg368
I00
sg38
Nsbag333
(g355
g335
Ntp379
Rp380
(dp381
g359
S'iwgx'
p382
sg361
I01
sg362
g373
sg364
Nsg365
Nsg366
Nsg368
I00
sg38
Nsbag333
(g355
g335
Ntp383
Rp384
(dp385
g359
S'iwgl'
p386
sg361
I01
sg362
g373
sg364
Nsg365
Nsg366
Nsg368
I00
sg38
Nsbag333
(g355
g335
Ntp387
Rp388
(dp389
g359
S'iwutil'
p390
sg361
I01
sg362
g373
sg364
Nsg365
Nsg366
Nsg368
I00
sg38
Nsbag333
(g355
g335
Ntp391
Rp392
(dp393
g359
S'jpeg'
p394
sg361
I01
sg362
g373
sg364
Nsg365
Nsg366
Nsg368
I00
sg38
Nsbag333
(g355
g335
Ntp395
Rp396
(dp397
g359
S'z'
p398
sg361
I01
sg362
g373
sg364
Nsg365
Nsg366
Nsg368
I00
sg38
Nsbag333
(g355
g335
Ntp399
Rp400
(dp401
g359
S'png'
p402
sg361
I01
sg362
g373
sg364
Nsg365
Nsg366
Nsg368
I00
sg38
Nsbag333
(g355
g335
Ntp403
Rp404
(dp405
g359
S'iwgeom'
p406
sg361
I01
sg362
g373
sg364
Nsg365
Nsg366
Nsg368
I00
sg38
Nsbag333
(g355
g335
Ntp407
Rp408
(dp409
g359
S'iwresmanager'
p410
sg361
I01
sg362
g373
sg364
Nsg365
Nsg366
Nsg368
I00
sg38
Nsbag333
(g355
g335
Ntp411
Rp412
(dp413
g359
S'iwgxfont'
p414
sg361
I01
sg362
g373
sg364
Nsg365
Nsg366
Nsg368
I00
sg38
Nsbag333
(g355
g335
Ntp415
Rp416
(dp417
g359
S'tiniconv'
p418
sg361
I01
sg362
g373
sg364
Nsg365
Nsg366
Nsg368
I00
sg38
Nsbag333
(g355
g335
Ntp419
Rp420
(dp421
g359
S's3e_cpp'
p422
sg361
I01
sg362
g363
sg364
I00
sg365
I00
sg366
Nsg368
I00
sg38
Nsbag333
(g355
g335
Ntp423
Rp424
(dp425
g359
S's3e'
p426
sg361
I01
sg362
(lp427
S'iwcrt.o'
p428
asg364
I00
sg365
I00
sg366
Nsg368
I00
sg38
Nsbag333
(g355
g335
Ntp429
Rp430
(dp431
g359
g56
sg361
I01
sg362
g363
sg364
I00
sg365
I00
sg366
S'x86'
p432
sg368
I01
sg38
Nsbag333
(g355
g335
Ntp433
Rp434
(dp435
g359
g56
sg361
I01
sg362
g363
sg364
I00
sg365
I00
sg366
S'!x86'
p436
sg368
I01
sg38
Nsbag333
(g355
g335
Ntp437
Rp438
(dp439
g359
S'stdc++'
p440
sg361
I00
sg362
g363
sg364
I00
sg365
I00
sg366
S'mips'
p441
sg368
I00
sg38
Nsbag333
(g355
g335
Ntp442
Rp443
(dp444
g359
S'c'
p445
sg361
I00
sg362
g363
sg364
I00
sg365
I00
sg366
S'mips'
p446
sg368
I00
sg38
Nsbag333
(g355
g335
Ntp447
Rp448
(dp449
g359
S'm'
p450
sg361
I00
sg362
g363
sg364
I00
sg365
I00
sg366
S'mips'
p451
sg368
I00
sg38
Nsbag333
(g355
g335
Ntp452
Rp453
(dp454
g359
S'gcc'
p455
sg361
I00
sg362
g363
sg364
I00
sg365
I00
sg366
S'mips'
p456
sg368
I00
sg38
Nsbag333
(g355
g335
Ntp457
Rp458
(dp459
g359
S'stdc++'
p460
sg361
I00
sg362
g363
sg364
I00
sg365
I00
sg366
S'gcc_x86_android'
p461
sg368
I00
sg38
Nsbag333
(g355
g335
Ntp462
Rp463
(dp464
g359
g445
sg361
I00
sg362
g363
sg364
I00
sg365
I00
sg366
S'gcc_x86_android'
p465
sg368
I00
sg38
Nsbag333
(g355
g335
Ntp466
Rp467
(dp468
g359
g450
sg361
I00
sg362
g363
sg364
I00
sg365
I00
sg366
S'gcc_x86_android'
p469
sg368
I00
sg38
Nsbag333
(g355
g335
Ntp470
Rp471
(dp472
g359
g455
sg361
I00
sg362
g363
sg364
I00
sg365
I00
sg366
S'gcc_x86_android'
p473
sg368
I00
sg38
NsbasS'library_paths'
p474
(lp475
g333
(cmkb_main
LibraryPath
p476
g335
Ntp477
Rp478
(dp479
S'expand_path'
p480
I01
sg359
S'c:/marmalade/7.5/modules/iw2d'
p481
sbag333
(g476
g335
Ntp482
Rp483
(dp484
g480
I00
sg359
S'c:/marmalade/7.5/modules/iwgx/atitools'
p485
sbag333
(g476
g335
Ntp486
Rp487
(dp488
g480
I01
sg359
S'c:/marmalade/7.5/modules/iwgx'
p489
sbag333
(g476
g335
Ntp490
Rp491
(dp492
g480
I01
sg359
S'c:/marmalade/7.5/modules/iwgl'
p493
sbag333
(g476
g335
Ntp494
Rp495
(dp496
g480
I01
sg359
S'c:/marmalade/7.5/modules/iwutil'
p497
sbag333
(g476
g335
Ntp498
Rp499
(dp500
g480
I01
sg359
S'c:/marmalade/7.5/modules/third_party/libjpeg'
p501
sbag333
(g476
g335
Ntp502
Rp503
(dp504
g480
I01
sg359
S'c:/marmalade/7.5/modules/third_party/zlib'
p505
sbag333
(g476
g335
Ntp506
Rp507
(dp508
g480
I01
sg359
S'c:/marmalade/7.5/modules/third_party/libpng'
p509
sbag333
(g476
g335
Ntp510
Rp511
(dp512
g480
I01
sg359
S'c:/marmalade/7.5/modules/iwgeom'
p513
sbag333
(g476
g335
Ntp514
Rp515
(dp516
g480
I01
sg359
S'c:/marmalade/7.5/modules/iwresmanager'
p517
sbag333
(g476
g335
Ntp518
Rp519
(dp520
g480
I01
sg359
S'c:/marmalade/7.5/modules/iwgxfont'
p521
sbag333
(g476
g335
Ntp522
Rp523
(dp524
g480
I01
sg359
S'c:/marmalade/7.5/modules/third_party/tiniconv'
p525
sbag333
(g476
g335
Ntp526
Rp527
(dp528
g480
I01
sg359
S'c:/marmalade/7.5/s3e'
p529
sbasS'macros'
p530
(dp531
S'IW_USE_CALLSTACK'
p532
NsS'IW_MKF_IWGEOM'
p533
NsS'I3D_PLATFORM_S3E'
p534
NsS'IW_TRACE_CHANNEL_PVRTEXTOOL_VERBOSE'
p535
S'2'
p536
sS'IW_MKF_LIBJPEG'
p537
NsS'I3D_OS_S3E'
p538
NsS'IW_MKF_PVRTEXTOOL'
p539
NsS'IW_MKF_TINICONV'
p540
NsS'IW_APP_VERSION'
p541
S'"1.0"'
p542
sS'__S3E__'
p543
NsS'IW_MKF_IWRESMANAGER'
p544
NsS'IW_MKF_IWUTIL'
p545
NsS'IW_PLATFORM_S3E'
p546
NsS'IW_ASSERTION_CHANNEL_2D'
p547
S'1'
p548
sS'IW_APP_NAME'
p549
S'"Stage4"'
p550
sS'IW_MKF_MARMALADEEXAMPLERESOURCES'
p551
NsS'IW_MKF_IWGXFONT'
p552
NsS'IW_MKF_IWTWEEN'
p553
NsS'IW_MKF_ZLIB'
p554
NsS'IW_MKF_S3E_DEFAULT'
p555
NsS'IW_MKF_IWGX'
p556
NsS'IW_MKF_IW2DSCENEGRAPH'
p557
NsS'IW_MKF_SOUNDENGINE'
p558
NsS'IW_USE_ASSERTIONS'
p559
NsS'_CRT_SECURE_NO_DEPRECATE'
p560
NsS'IW_MKF_IWGL'
p561
NsS'IW_MKF_LIBPNG'
p562
NsS'IW_TRACE_CHANNEL_IW_2DSCENEGRAPH'
p563
g548
sS'IW_DEBUG'
p564
NsS'IW_USE_TRACING'
p565
NsS'IW_ASSERTION_CHANNEL_IW_2DSCENEGRAPH'
p566
g548
sS'IW_TRACE_CHANNEL_PVRTEXTOOL'
p567
g548
sS'IW_SDK'
p568
NsS'S3E_INCLUDE_LEGACY'
p569
NsS'IW_MKF_IW2DSCENEGRAPHCORE'
p570
NsS'IW_MKF_IW2D'
p571
NsS'IW_ASSERTION_CHANNEL_PVRTEXTOOL'
p572
g548
ssS'done_warnings'
p573
(dp574
sS'subprojects'
p575
(dp576
g196
S'iwgx'
p577
sg205
S'iwgxfont'
p578
sg194
S's3e-default.mkf'
p579
sg208
S'../iw2dscenegraphcore'
p580
sg201
S'zlib'
p581
sg203
S'iwresmanager'
p582
sg206
S'tiniconv'
p583
sg199
S'libjpeg'
p584
sg195
S'iw2d'
p585
sg211
S'../../../MarmaladeExampleResources'
p586
sg198
S'iwutil'
p587
sg209
S'iwtween'
p588
sg200
S'libpng'
p589
sg207
S'iw2dscenegraph'
p590
sg210
S'SoundEngine'
p591
sg197
S'iwgl'
p592
sg202
S'iwgeom'
p593
sg204
S'PVRTexTool'
p594
ssS'deployments'
p595
(dp596
S'Default'
p597
g333
(cdeployment
Deployment
p598
g335
Ntp599
Rp600
(dp601
S'got_version'
p602
I0
sS'assets'
p603
g597
sS'mkb'
p604
g337
sS'target'
p605
Nsg366
(lp606
sS'options'
p607
(dp608
S'iphone-link-lib'
p609
(lp610
sS'game-icf'
p611
NsS'android-tm'
p612
NsS'winmobile-icon32'
p613
NsS'ws8-logo-image150x150'
p614
NsS'wp81-logo-image150x150'
p615
NsS'android-keystore'
p616
NsS'osx-ext-dll'
p617
(lp618
S'c:/marmalade/7.5/extensions/pvrtextool/lib/osx/libPVRTexTool.dylib'
p619
asS'iphone-provisioning-profile'
p620
NsS'ws8-splash-screen-image620x300'
p621
NsS'wp81-extra-pri'
p622
(lp623
sS'ws8-ext-capabilities'
p624
(lp625
sS'android-icon-hdpi'
p626
NsS'iphone-ipad-only'
p627
NsS'iphone-splash-full-orient'
p628
NsS'wp8-tile-fliptemplate-supports-large'
p629
NsS'iphone-show-status-bar'
p630
NsS'roku-requires-mkv'
p631
NsS'long-caption'
p632
NsS'android-pkgname'
p633
NsS'wp81-publisher-display-name'
p634
NsS'blackberry-permissions-read-device-identifying-information'
p635
NsS'ws81-certificate-end-date'
p636
NsS'psp-dlgcontentid'
p637
NsS'iphone-minimum-ios-version'
p638
NsS'target-folder'
p639
NsS'tizen-dist1-CA-path'
p640
NsS'symbian-icon2-format'
p641
NsS'tizen-author-key'
p642
NsS'firefoxos-icon-128X128'
p643
NsS'iphone-region'
p644
NsS'uiq3-icon3-mask'
p645
NsS'brew-encoding'
p646
NsS'android-x86'
p647
NsS'nds-initialcode'
p648
NsS'iphone-persistent-wifi'
p649
NsS'psp-snd0'
p650
NsS'roku-icon-focus-hd'
p651
NsS'osx-appid'
p652
NsS'winmobile-install-folder'
p653
NsS'android-external-res'
p654
(lp655
sS'ws8-product-version'
p656
NsS'brew-priviledges'
p657
NsS'iphone-info-plist-override'
p658
NsS'iphone-icon-ipad'
p659
NsS'iphone-skip-icon-generation'
p660
NsS'roku-hidden'
p661
NsS'psp-titlename'
p662
NsS'wp81-product-version'
p663
NsS'symbian-icon1-mask'
p664
NsS'psp-parentallevel'
p665
NsS'iphone-launch-storyboard'
p666
NsS'splashscreen-use-all'
p667
NsS'wp8-author'
p668
NsS'symbian-disable-ecompxl'
p669
NsS'splashscreen-auto-onblack'
p670
NsS'iphone-icon-dir'
p671
NsS'iphone-icon-extra'
p672
NsS'win32-ext-dll'
p673
(lp674
S'c:/marmalade/7.5/extensions/pvrtextool/lib/win32/PVRTexTool.dll'
p675
asS'iphone-development-key'
p676
NsS'winmobile-icon48'
p677
NsS'android-unsigned'
p678
NsS'osx-appstore-category'
p679
NsS'version-revision'
p680
NsS'roku-icon-focus-sd'
p681
NsS'ws81-product-version'
p682
NsS'winmobile-png90'
p683
NsS'iphone-icon-ipad-high-res'
p684
NsS'iphone-disable-ipad'
p685
NsS'ws81-splash-screen-background'
p686
NsS'wp8-ext-capabilities'
p687
(lp688
sS'brew-icon-large'
p689
NsS'symbian-icon1-mask-black'
p690
NsS'ws8-extra-res'
p691
(lp692
sS'iphone-bundle-localisations'
p693
NsS'winmobile-png60'
p694
NsS'blackberry-permissions-access-shared'
p695
NsS'blackberry-author'
p696
NsS'android-icon-xxxhdpi'
p697
NsS'olddeploytoolstyle'
p698
NsS'android_icon_gallery'
p699
NsS'wp81-splash-screen-background'
p700
NsS'winmobile-cab-compress'
p701
NsS'iphone-info-plist'
p702
NsS'ws81-ext-managed-dll'
p703
(lp704
sS'playbook-cskpass'
p705
NsS'win32-icon'
p706
NsS'symbian-key'
p707
NsS'app-icf'
p708
NsS'blackberry-storepass'
p709
NsS'wp8-tile-fliptemplate-back-title'
p710
NsS'brew-compress-loader'
p711
NsS'iphone-testflight'
p712
NsS'win32-pref-windowposy'
p713
NsS'win32-pref-windowposx'
p714
NsS'roku-requires-audiometadata'
p715
NsS'wp8-exclude-low-mem'
p716
NsS'iphone-icon-ipad-search-high-res'
p717
NsS'iphone-link-libdir'
p718
(lp719
sS'wp81-ext-capabilities'
p720
(lp721
sS'blackberry-permissions-read-geolocation'
p722
NsS'ws81-ext-device-capabilities'
p723
(lp724
sS'tizen-signed'
p725
NsS'android-extra-application-manifest'
p726
(lp727
sS'ws8-ext-native-dll'
p728
(lp729
sS'symbian-icon2-mask'
p730
NsS'iphone-launch-extra'
p731
NsS'webos-memory'
p732
NsS'android-keypass'
p733
NsS'name'
p734
NsS'uiq3-icon2-format'
p735
NsS'roku-splash-screen-sd'
p736
NsS'auto-derbh'
p737
NsS'roku-icon-side-sd'
p738
NsS'android-external-assets'
p739
(lp740
sS'nds-publicsavedatasize'
p741
NsS'splashscreen'
p742
S'c:/marmalade/7.5/examples/marmaladeexampleresources/resources/splashscreens'
p743
sS'brew-mif'
p744
NsS'iphone-icon-settings-high-res'
p745
NsS'android-manifest'
p746
NsS'ws81-splash-screen-image620x300'
p747
NsS'wp81-product-name'
p748
NsS's3e-compression'
p749
NsS'tizen-author-password'
p750
NsS'wp8-tile-fliptemplate-back-content'
p751
NsS'blackberry-extra-descriptor'
p752
(lp753
sS'symbian-icon1'
p754
NsS'symbian-icon2'
p755
NsS'nds-makercode'
p756
NsS'android-extra-styles-file'
p757
NsS'wp81-publisher-id'
p758
NsS'nds-bannertitle-jp'
p759
NsS'wp81-logo-image44x44'
p760
NsS'osx-sign-for-store'
p761
NsS'symbian7-uid'
p762
NsS'wp8-tile-fliptemplate-large-back-content'
p763
NsS'wp81-phone-publisher-id'
p764
NsS'nds-bannertitle-cn'
p765
NsS'iphone-distribution-key'
p766
NsS'android-icon-gallery'
p767
NsS'blackberry-keystore'
p768
NsS'iphone-nosign'
p769
NsS'caption'
p770
NsS'android-extra-manifest'
p771
(lp772
sS'wp81-ext-sdk-ref'
p773
(lp774
sS'android-icon-xxhdpi'
p775
NsS'version-minor'
p776
NsS'iphone-skip-launch-generation'
p777
NsS'iphone-link-libdirs'
p778
(lp779
sS'iphone-icon-large'
p780
NsS'symbian-keypwd'
p781
NsS'symbian8-uid'
p782
NsS'symbian-cert-key'
p783
NsS'winmobile-ampd-part-number'
p784
NsS'arch'
p785
NsS'nds-romheadertemplate'
p786
NsS'webos-icon'
p787
NsS'wp81-ext-device-capabilities'
p788
(lp789
sS'psp-dlgprotectdocument'
p790
NsS'ws8-splash-screen-background'
p791
NsS'android-icon-mdpi'
p792
NsS'nds-icon'
p793
NsS'ws8-custom-manifest-fill'
p794
NsS'iphone-development-cert'
p795
NsS'and'
p796
NsS'symbian-icon2-mask-black'
p797
NsS'blackberry-phone-icon'
p798
NsS'iphone-enable-4inch-retina'
p799
NsS'ws8-custom-manifest'
p800
NsS'version-major'
p801
NsS'wp8-genre-isgame'
p802
NsS'uiq3-uid'
p803
NsS'iphone-splash-retina-generate'
p804
NsS'tizen-hw-acceleration'
p805
NsS'iphone_bundle_localisations'
p806
NsS'tizen-dist1-key'
p807
NsS'wp81-custom-manifest-fill'
p808
NsS'wp8-custom-manifest'
p809
NsS'nds-bannertitle-ge'
p810
NsS'iphone-sign-for-distribution'
p811
NsS'wp8-tile-fliptemplate-medium-back-image'
p812
NsS'wp8-publisher-id'
p813
NsS'icon'
p814
S'c:/marmalade/7.5/examples/marmaladeexampleresources/resources/icons'
p815
sS'wp8-exclude-wxga'
p816
NsS'wp81-identity-name'
p817
NsS'uiq3-icon2-mask'
p818
NsS'iphone-splashscreen-portrait'
p819
NsS'iphone-icon-high-res'
p820
NsS'ws81-distribution-pfx-password'
p821
NsS'playbook-author'
p822
NsS'android-icon-xhdpi'
p823
NsS'linux-ext-lib'
p824
(lp825
sS'blackberry-permissions-access-internet'
p826
NsS'wp8-exclude-720p'
p827
NsS'lgtv-use-drm'
p828
NsS'symbian-platsecflags'
p829
NsS'ws8-description'
p830
NsS'blackberry-playbook-icon'
p831
NsS'copyright'
p832
NsS'ws8-distribution-pfx-password'
p833
NsS'win32-gles-directory'
p834
NsS'version'
p835
NsS'iphone-uiviewcontroller-based-status-bar'
p836
NsS'ws81-logo-image150x150'
p837
NsS'osx-signing-identity-app'
p838
NsS'tizen-project-url'
p839
NsS'symbian-icon-svg'
p840
NsS'android-aliasname'
p841
NsS'psp-dlgmanual'
p842
NsS'brew-uid'
p843
NsS'symbian-locationsupport'
p844
NsS'wp81-logo-image50x50'
p845
NsS'ws8-ext-managed-dll'
p846
(lp847
sS'nds-bannertitle-it'
p848
NsS'ws81-custom-manifest-fill'
p849
NsS'ws8-ext-sdk-manifest-part'
p850
(lp851
sS'uiq3-icon1-mask'
p852
NsS'winmobile-icon16'
p853
NsS'ws8-product-name'
p854
NsS'blackberry-cskpass'
p855
NsS'winmobile-start-menu-folder'
p856
NsS'brew-clsid'
p857
NsS'roku-requires-bluetooth'
p858
NsS'iphone-default-development-profile'
p859
NsS'ws8-ext-device-capabilities'
p860
(lp861
sS'blackberry-permissions-use-camera'
p862
NsS'ws81-extra-pri'
p863
(lp864
sS'iphone-prerendered-icon'
p865
NsS'iphone-appid'
p866
NsS'ws8-identity-name'
p867
NsS'tizen-dist2-CA-path'
p868
NsS'android-external-jars'
p869
(lp870
sS'winmobile-icon64'
p871
NsS'blackberry-permissions-post-notification'
p872
NsS'winmobile-setup-dll'
p873
NsS'firefoxos-manifest'
p874
NsS'win8-winrt-extra-res'
p875
(lp876
sS'wp81-ext-sdk-manifest-part'
p877
(lp878
sS'symbian9-uid'
p879
NsS'iphone-icon-ipad-ios7'
p880
NsS'winmobile-trace-file'
p881
NsS'roku-splash-color'
p882
NsS'psp-appversion'
p883
NsS'ws8-publisher-id'
p884
NsS'android-supports-gl-texture'
p885
(lp886
sS'winmobile-png45'
p887
NsS'wp81-extra-res'
p888
(lp889
sS'android-storepass'
p890
NsS'osx-signing-identity-inst'
p891
NsS'android-custom-activity'
p892
NsS'psp-discversion'
p893
NsS'wp81-ext-managed-dll'
p894
(lp895
sS'psp-copyright'
p896
NsS'embed-icf'
p897
NsS'tizen-manifest'
p898
NsS'osx-icon'
p899
NsS'webos-appinfo'
p900
NsS'psp-dlghealthwarning'
p901
NsS'webos-appid'
p902
NsS'roku-icon-side-hd'
p903
NsS'iphone-icon-ipad-search-high-res-ios7'
p904
NsS'iphone-extra-plist'
p905
(lp906
sS'ws81-ext-sdk-manifest-part'
p907
(lp908
sS'loader_name_prefix'
p909
NsS'iphone-launch-dir'
p910
NsS'nds-titlename'
p911
NsS'ws81-logo-image50x50'
p912
NsS'wp81-custom-manifest'
p913
NsS'osx-entitlements-plist'
p914
NsS'psp-dlgicon0'
p915
NsS'winmobile-nouninstall'
p916
NsS'psp-discid'
p917
NsS'tizen-dist2-password'
p918
NsS'ws8-ext-sdk-ref'
p919
(lp920
sS'iphone-extra-string'
p921
(lp922
sS'version-string'
p923
NsS'iphone-icon-high-res-ios7'
p924
NsS'blackberry-permissions-record-audio'
p925
NsS'ws8-certificate-end-date'
p926
NsS'tizen-so'
p927
(lp928
sS'wp8-tile-fliptemplate-small-image'
p929
NsS'playbook-authorid'
p930
NsS'iphone-signing-identity'
p931
NsS'roku-persist-quota'
p932
NsS'nds-bannertitle-fr'
p933
NsS'ws8-distribution-pfx'
p934
NsS'ws8-publisher-display-name'
p935
NsS'brew-icon-small'
p936
NsS'psp-dlgpic2'
p937
NsS'psp-dlgpic0'
p938
NsS'psp-pic0'
p939
NsS'psp-pic1'
p940
NsS'win32-pref-windowtitle'
p941
NsS'psp-icon0'
p942
NsS'psp-icon1'
p943
NsS'ws81-identity-name'
p944
NsS'winmobile-icon'
p945
NsS'iphone-no-splash'
p946
NsS'iphone-splash'
p947
NsS'iphone-app-fonts'
p948
NsS'wp8-ext-native-dll'
p949
(lp950
sS'wp81-splash-screen-image480x800'
p951
NsS'ws81-distribution-cer'
p952
NsS'iphone-backgroundmode-audio'
p953
NsS'uiq3-icon2'
p954
NsS'uiq3-icon3'
p955
NsS'uiq3-icon1'
p956
NsS'uiq3-icon1-format'
p957
NsS'ws8-logo-image50x50'
p958
NsS'iphone-icon-ipad-search'
p959
NsS'symbian-run-on-install'
p960
NsS'wp81-description'
p961
NsS'ws81-publisher-display-name'
p962
NsS'firefoxos-xulrunner'
p963
NsS'symbian-soundrecordsupport'
p964
NsS'nds-bannertitle-sp'
p965
NsS'psp-producer'
p966
NsS'iphone-apple-wwdr-cert'
p967
NsS'android-icon-nonstandard'
p968
NsS'win32-pref-processtitle'
p969
NsS'nds-bannertitle-hn'
p970
NsS'tizen-dist2-key'
p971
NsS'brew-depends'
p972
NsS'ws81-custom-manifest'
p973
NsS'iphone-allow-launch-rotation'
p974
NsS'iphone-icon-ipad-search-ios7'
p975
NsS'brew-icon-medium'
p976
NsS'iphone-bundle-url-name'
p977
NsS'wp8-tile-fliptemplate-large-front-image'
p978
NsS'tizen-dist2-CA-root-path'
p979
NsS'ws81-description'
p980
NsS'uiq3-icon3-format'
p981
NsS'ws81-logo-image30x30'
p982
NsS'win8-phone-extra-res'
p983
(lp984
sS'iphone-signing-host'
p985
NsS'tizen-icon'
p986
NsS'osx-info-plist'
p987
NsS'symbian-icon1-format'
p988
NsS'ws81-distribution-pfx'
p989
NsS'blackberry-authorid'
p990
NsS'ws81-publisher-id'
p991
NsS'win8-store-extra-res'
p992
(lp993
sS'wp8-description'
p994
NsS'iphone-link-opts'
p995
(lp996
sS'ws81-ext-sdk-ref'
p997
(lp998
sS'roku-splash-min-time'
p999
NsS'wp8-tile-fliptemplate-medium-front-image'
p1000
NsS'iphone-disable-launch-images'
p1001
NsS'provider'
p1002
NsS'playbook-keystore'
p1003
NsS'tizen-appid'
p1004
NsS'wp8-extra-res'
p1005
(lp1006
sS'symbian-osexecsupport'
p1007
NsS'android-install-location'
p1008
NsS'nds-privatesavedatasize'
p1009
NsS'iphone-disable-testflight'
p1010
NsS'playbook-storepass'
p1011
NsS'android-icon-ldpi'
p1012
NsS'manufacturer'
p1013
NsS'itunes-artwork'
p1014
NsS'iphone-extra-sections'
p1015
NsS'ws81-product-name'
p1016
NsS'ws81-ext-native-dll'
p1017
(lp1018
sS'ws8-extra-pri'
p1019
(lp1020
sS'wp8-product-id'
p1021
NsS'ws8-logo-image30x30'
p1022
NsS'wp8-ext-managed-dll'
p1023
(lp1024
sS'iphone-splashscreen-landscape'
p1025
NsS'symbian-maxheapsize'
p1026
NsS'android-extra-packages'
p1027
(lp1028
sS'priv-sign-key'
p1029
NsS'networking'
p1030
NsS'android-icon'
p1031
NsS'iphone-icon-settings'
p1032
NsS'wp81-phone-product-id'
p1033
NsS'firefoxos-icon-60X60'
p1034
NsS'iphone-distribution-cert'
p1035
NsS'android_extra_strings'
p1036
NsS'nds-bannertitle-en'
p1037
NsS'wp8-tile-fliptemplate-title'
p1038
NsS'android-so'
p1039
(lp1040
sS'wp8-higher-mem'
p1041
NsS'wp8-ext-sdk-ref'
p1042
(lp1043
sS'wp8-fast-resume-mode'
p1044
NsS'roku-splash-screen-hd'
p1045
NsS'iphone-bundle-url-schemes'
p1046
NsS'roku-screensaver-private'
p1047
NsS'osx-extra-res'
p1048
(lp1049
sS'ws81-extra-res'
p1050
(lp1051
sS'playbook-icon'
p1052
NsS'uid'
p1053
NsS'pkguid-as-uid'
p1054
NsS'wp81-ext-native-dll'
p1055
(lp1056
sS'tizen-dist1-password'
p1057
NsS'roku-screensaver-title'
p1058
NsS'osx-minimum-osx-version'
p1059
NsS'symbian-cert'
p1060
NsS'iphone-icon'
p1061
NsS'ws81-ext-capabilities'
p1062
(lp1063
sS'ws8-distribution-cer'
p1064
NsS'playbook-access-shared'
p1065
NsS'iphone-icon-ipad-high-res-ios7'
p1066
NsS'iphone-link-libs'
p1067
(lp1068
sS'wp8-exclude-wvga'
p1069
NsS'assets'
p1070
NsS'wp8-tile-fliptemplate-large-back-image'
p1071
NsS'wp8-custom-manifest-fill'
p1072
NsS'pub-sign-key'
p1073
NsS'android-extra-strings'
p1074
NsS'tizen-author-CA-path'
p1075
Nssg359
g597
sbssS'platform'
p1076
S'S3E'
p1077
sg71
S'1.0'
p1078
sS'arcade_platform'
p1079
g4
sS'extensions'
p1080
(dp1081
sS'source_groups_tree'
p1082
(dp1083
S'(libpng)'
p1084
(dp1085
S'h'
p1086
(dp1087
S'c:/marmalade/7.5/modules/third_party/libpng/h/png.h'
p1088
(lp1089
I1
a(dp1090
asS'c:/marmalade/7.5/modules/third_party/libpng/h/pngconf.h'
p1091
(lp1092
I1
ag1090
assS'c:/marmalade/7.5/modules/third_party/libpng/libpng.mkf'
p1093
(lp1094
I1
a(dp1095
assS'(libjpeg)'
p1096
(dp1097
S'c:/marmalade/7.5/modules/third_party/libjpeg/libjpeg.mkf'
p1098
(lp1099
I1
a(dp1100
asg1086
(dp1101
S'c:/marmalade/7.5/modules/third_party/libjpeg/h/jerror.h'
p1102
(lp1103
I1
a(dp1104
asS'c:/marmalade/7.5/modules/third_party/libjpeg/h/jdhuff.h'
p1105
(lp1106
I1
ag1104
asS'c:/marmalade/7.5/modules/third_party/libjpeg/h/cderror.h'
p1107
(lp1108
I1
ag1104
asS'c:/marmalade/7.5/modules/third_party/libjpeg/h/transupp.h'
p1109
(lp1110
I1
ag1104
asS'c:/marmalade/7.5/modules/third_party/libjpeg/h/jinclude.h'
p1111
(lp1112
I1
ag1104
asS'c:/marmalade/7.5/modules/third_party/libjpeg/h/jmorecfg.h'
p1113
(lp1114
I1
ag1104
asS'c:/marmalade/7.5/modules/third_party/libjpeg/h/jdct.h'
p1115
(lp1116
I1
ag1104
asS'c:/marmalade/7.5/modules/third_party/libjpeg/h/jmemsys.h'
p1117
(lp1118
I1
ag1104
asS'c:/marmalade/7.5/modules/third_party/libjpeg/h/jpegint.h'
p1119
(lp1120
I1
ag1104
asS'c:/marmalade/7.5/modules/third_party/libjpeg/h/jchuff.h'
p1121
(lp1122
I1
ag1104
asS'c:/marmalade/7.5/modules/third_party/libjpeg/h/cdjpeg.h'
p1123
(lp1124
I1
ag1104
asS'c:/marmalade/7.5/modules/third_party/libjpeg/h/jversion.h'
p1125
(lp1126
I1
ag1104
asS'c:/marmalade/7.5/modules/third_party/libjpeg/h/jconfig.h'
p1127
(lp1128
I1
ag1104
asS'c:/marmalade/7.5/modules/third_party/libjpeg/h/jpeglib.h'
p1129
(lp1130
I1
ag1104
asssS'(tiniconv)'
p1131
(dp1132
S'c:/marmalade/7.5/modules/third_party/tiniconv/tiniconv.mkf'
p1133
(lp1134
I1
a(dp1135
asS'c:/marmalade/7.5/modules/third_party/tiniconv/source/tiniconv_int.h'
p1136
(lp1137
I1
a(dp1138
asS'c:/marmalade/7.5/modules/third_party/tiniconv/source/tiniconv.h'
p1139
(lp1140
I1
ag1138
assS'(SoundEngine)'
p1141
(dp1142
S'c:/marmalade/7.5/examples/gametutorial/cpp/modules/soundengine/source/IwSoundGroup.cpp'
p1143
(lp1144
I1
a(dp1145
asS'c:/marmalade/7.5/examples/gametutorial/cpp/modules/soundengine/h/IwSoundADPCM.h'
p1146
(lp1147
I1
ag1145
asS'c:/marmalade/7.5/examples/gametutorial/cpp/modules/soundengine/source/IwResHandlerWAV.cpp'
p1148
(lp1149
I1
ag1145
asS'c:/marmalade/7.5/examples/gametutorial/cpp/modules/soundengine/h/IwResHandlerWAV.h'
p1150
(lp1151
I1
ag1145
asS'Docs'
p1152
(dp1153
S'c:/marmalade/7.5/examples/gametutorial/cpp/modules/soundengine/docs/iwsound.config.txt'
p1154
(lp1155
I1
ag1145
assS'c:/marmalade/7.5/examples/gametutorial/cpp/modules/soundengine/h/IwSoundInst.h'
p1156
(lp1157
I1
ag1145
asS'c:/marmalade/7.5/examples/gametutorial/cpp/modules/soundengine/source/IwSoundManager.cpp'
p1158
(lp1159
I1
ag1145
asS'c:/marmalade/7.5/examples/gametutorial/cpp/modules/soundengine/h/IwSoundSpec.h'
p1160
(lp1161
I1
ag1145
asS'c:/marmalade/7.5/examples/gametutorial/cpp/modules/soundengine/source/IwSoundParams.cpp'
p1162
(lp1163
I1
ag1145
asS'c:/marmalade/7.5/examples/gametutorial/cpp/modules/soundengine/h/IwSoundManager.h'
p1164
(lp1165
I1
ag1145
asS'c:/marmalade/7.5/examples/gametutorial/cpp/modules/soundengine/source/IwSoundPCM.cpp'
p1166
(lp1167
I1
ag1145
asS'c:/marmalade/7.5/examples/gametutorial/cpp/modules/soundengine/source/IwSoundWAV.cpp'
p1168
(lp1169
I1
ag1145
asS'c:/marmalade/7.5/examples/gametutorial/cpp/modules/soundengine/source/IwSoundInst.cpp'
p1170
(lp1171
I1
ag1145
asS'c:/marmalade/7.5/examples/gametutorial/cpp/modules/soundengine/h/IwSoundWAV.h'
p1172
(lp1173
I1
ag1145
asS'c:/marmalade/7.5/examples/gametutorial/cpp/modules/soundengine/source/IwSoundSpec.cpp'
p1174
(lp1175
I1
ag1145
asS'c:/marmalade/7.5/examples/gametutorial/cpp/modules/soundengine/h/IwSoundParams.h'
p1176
(lp1177
I1
ag1145
asS'c:/marmalade/7.5/examples/gametutorial/cpp/modules/soundengine/source/IwSoundADPCM.cpp'
p1178
(lp1179
I1
ag1145
asS'c:/marmalade/7.5/examples/gametutorial/cpp/modules/soundengine/h/IwSound.h'
p1180
(lp1181
I1
ag1145
asS'c:/marmalade/7.5/examples/gametutorial/cpp/modules/soundengine/source/IwSoundData.cpp'
p1182
(lp1183
I1
ag1145
asS'c:/marmalade/7.5/examples/gametutorial/cpp/modules/soundengine/h/IwSoundData.h'
p1184
(lp1185
I1
ag1145
asS'c:/marmalade/7.5/examples/gametutorial/cpp/modules/soundengine/h/IwSoundPCM.h'
p1186
(lp1187
I1
ag1145
asS'c:/marmalade/7.5/examples/gametutorial/cpp/modules/soundengine/soundengine.mkf'
p1188
(lp1189
I1
a(dp1190
asS'c:/marmalade/7.5/examples/gametutorial/cpp/modules/soundengine/h/IwSoundGroup.h'
p1191
(lp1192
I1
ag1145
assS'(MarmaladeExampleResources)'
p1193
(dp1194
S'c:/marmalade/7.5/examples/marmaladeexampleresources/marmaladeexampleresources.mkf'
p1195
(lp1196
I1
a(dp1197
assS'source'
p1198
(dp1199
S'c:/Marmalade/7.5/examples/GameTutorial/CPP/marm1/source/mainMenu.h'
p1200
(lp1201
I1
a(dp1202
asS'c:/Marmalade/7.5/examples/GameTutorial/CPP/marm1/source/main.h'
p1203
(lp1204
I1
ag1202
asS'c:/Marmalade/7.5/examples/GameTutorial/CPP/marm1/source/enemy.h'
p1205
(lp1206
I1
ag1202
asS'c:/Marmalade/7.5/examples/GameTutorial/CPP/marm1/source/hero.h'
p1207
(lp1208
I1
ag1202
asS'c:/Marmalade/7.5/examples/GameTutorial/CPP/marm1/source/scene.cpp'
p1209
(lp1210
I1
ag1202
asS'c:/Marmalade/7.5/examples/GameTutorial/CPP/marm1/source/Enemymanager.cpp'
p1211
(lp1212
I1
ag1202
asS'c:/Marmalade/7.5/examples/GameTutorial/CPP/marm1/source/Level.h'
p1213
(lp1214
I1
ag1202
asS'c:/Marmalade/7.5/examples/GameTutorial/CPP/marm1/source/input.h'
p1215
(lp1216
I1
ag1202
asS'c:/Marmalade/7.5/examples/GameTutorial/CPP/marm1/source/audio.h'
p1217
(lp1218
I1
ag1202
asS'c:/Marmalade/7.5/examples/GameTutorial/CPP/marm1/source/resources.h'
p1219
(lp1220
I1
ag1202
asS'c:/Marmalade/7.5/examples/GameTutorial/CPP/marm1/source/mainMenu.cpp'
p1221
(lp1222
I1
ag1202
asS'c:/Marmalade/7.5/examples/GameTutorial/CPP/marm1/source/input.cpp'
p1223
(lp1224
I1
ag1202
asS'c:/Marmalade/7.5/examples/GameTutorial/CPP/marm1/source/main.cpp'
p1225
(lp1226
I1
ag1202
asS'c:/Marmalade/7.5/examples/GameTutorial/CPP/marm1/source/Shark.cpp'
p1227
(lp1228
I1
ag1202
asS'c:/Marmalade/7.5/examples/GameTutorial/CPP/marm1/source/enemy.cpp'
p1229
(lp1230
I1
ag1202
asS'c:/Marmalade/7.5/examples/GameTutorial/CPP/marm1/source/resources.cpp'
p1231
(lp1232
I1
ag1202
asS'c:/Marmalade/7.5/examples/GameTutorial/CPP/marm1/source/Shark.h'
p1233
(lp1234
I1
ag1202
asS'c:/Marmalade/7.5/examples/GameTutorial/CPP/marm1/source/Levelmanager.h'
p1235
(lp1236
I1
ag1202
asS'c:/Marmalade/7.5/examples/GameTutorial/CPP/marm1/source/Enemymanager.h'
p1237
(lp1238
I1
ag1202
asS'c:/Marmalade/7.5/examples/GameTutorial/CPP/marm1/source/Levelmanager.cpp'
p1239
(lp1240
I1
ag1202
asS'c:/Marmalade/7.5/examples/GameTutorial/CPP/marm1/source/GameScene.cpp'
p1241
(lp1242
I1
ag1202
asS'c:/Marmalade/7.5/examples/GameTutorial/CPP/marm1/source/BackgroundEntity.h'
p1243
(lp1244
I1
ag1202
asS'c:/Marmalade/7.5/examples/GameTutorial/CPP/marm1/source/pauseMenu.h'
p1245
(lp1246
I1
ag1202
asS'c:/Marmalade/7.5/examples/GameTutorial/CPP/marm1/source/BackgroundEntity.cpp'
p1247
(lp1248
I1
ag1202
asS'c:/Marmalade/7.5/examples/GameTutorial/CPP/marm1/source/pauseMenu.cpp'
p1249
(lp1250
I1
ag1202
asS'c:/Marmalade/7.5/examples/GameTutorial/CPP/marm1/source/scene.h'
p1251
(lp1252
I1
ag1202
asS'c:/Marmalade/7.5/examples/GameTutorial/CPP/marm1/source/audio.cpp'
p1253
(lp1254
I1
ag1202
asS'c:/Marmalade/7.5/examples/GameTutorial/CPP/marm1/source/hero.cpp'
p1255
(lp1256
I1
ag1202
asS'c:/Marmalade/7.5/examples/GameTutorial/CPP/marm1/source/GameScene.h'
p1257
(lp1258
I1
ag1202
assS'Extensions'
p1259
(dp1260
S'PVRTexTool'
p1261
(dp1262
S'interface'
p1263
(dp1264
S'c:/marmalade/7.5/extensions/pvrtextool/interface/PVRTexTool.defines.txt'
p1265
(lp1266
I1
a(dp1267
asS'c:/marmalade/7.5/extensions/pvrtextool/interface/PVRTexTool_interface.cpp'
p1268
(lp1269
I1
ag1267
assS'c:/marmalade/7.5/extensions/pvrtextool/h/PVRTexTool.h'
p1270
(lp1271
I1
ag1267
asS'c:/marmalade/7.5/extensions/pvrtextool/pvrtextool.mkf'
p1272
(lp1273
I1
a(dp1274
asssS"'Marmalade Studio'"
p1275
(dp1276
S'iw2dscenegraph'
p1277
(dp1278
S'c:/marmalade/7.5/modules/iw2dscenegraph/source/Iw2DSceneGraph.cpp'
p1279
(lp1280
I1
a(dp1281
asS'c:/marmalade/7.5/modules/iw2dscenegraph/docs/iw2dscenegraph.defines.txt'
p1282
(lp1283
I1
ag1281
asS'c:/marmalade/7.5/modules/iw2dscenegraph/h/Iw2DSceneGraph.h'
p1284
(lp1285
I1
ag1281
asS'c:/marmalade/7.5/modules/iw2dscenegraph/iw2dscenegraph.mkf'
p1286
(lp1287
I1
a(dp1288
assS'iwgl'
p1289
(dp1290
S'c:/marmalade/7.5/modules/iwgl/iwgl.mkf'
p1291
(lp1292
I1
a(dp1293
asS'c:/marmalade/7.5/modules/iwgl/h/IwGL.h'
p1294
(lp1295
I1
a(dp1296
asS'c:/marmalade/7.5/modules/iwgl/docs/iwgl.config.txt'
p1297
(lp1298
I1
ag1296
asS'c:/marmalade/7.5/modules/iwgl/h/IwGLExt.h'
p1299
(lp1300
I1
ag1296
assS'iw2d'
p1301
(dp1302
S'c:/marmalade/7.5/modules/iw2d/docs/iw2d_public.defines.txt'
p1303
(lp1304
I1
a(dp1305
asS'c:/marmalade/7.5/modules/iw2d/docs/iw2d.config.txt'
p1306
(lp1307
I1
ag1305
asS'c:/marmalade/7.5/modules/iw2d/h/Iw2D.h'
p1308
(lp1309
I1
ag1305
asS'c:/marmalade/7.5/modules/iw2d/iw2d.mkf'
p1310
(lp1311
I1
a(dp1312
assS'iwgxfont'
p1313
(dp1314
S'c:/marmalade/7.5/modules/iwgxfont/h/IwGxFontGlyph.h'
p1315
(lp1316
I1
a(dp1317
asS'c:/marmalade/7.5/modules/iwgxfont/h/IwGxFontTypes.h'
p1318
(lp1319
I1
ag1317
asS'c:/marmalade/7.5/modules/iwgxfont/docs/iwgxfont.config.txt'
p1320
(lp1321
I1
ag1317
asS'c:/marmalade/7.5/modules/iwgxfont/h/IwGxFontState.h'
p1322
(lp1323
I1
ag1317
asS'c:/marmalade/7.5/modules/iwgxfont/h/IwGxFontContainer.h'
p1324
(lp1325
I1
ag1317
asS'c:/marmalade/7.5/modules/iwgxfont/iwgxfont.mkf'
p1326
(lp1327
I1
a(dp1328
asS'c:/marmalade/7.5/modules/iwgxfont/h/IwGxFontPreparedData.h'
p1329
(lp1330
I1
ag1317
asS'c:/marmalade/7.5/modules/iwgxfont/h/IwGxFont.h'
p1331
(lp1332
I1
ag1317
asS'c:/marmalade/7.5/modules/iwgxfont/docs/iwgxfont_public.defines.txt'
p1333
(lp1334
I1
ag1317
assS'iwgeom'
p1335
(dp1336
S'c:/marmalade/7.5/modules/iwgeom/h/IwGeomSVec2.h'
p1337
(lp1338
I1
a(dp1339
asS'c:/marmalade/7.5/modules/iwgeom/h/IwGeomSphere.h'
p1340
(lp1341
I1
ag1339
asS'c:/marmalade/7.5/modules/iwgeom/h/IwGeomSVec3.h'
p1342
(lp1343
I1
ag1339
asS'c:/marmalade/7.5/modules/iwgeom/iwgeom.mkf'
p1344
(lp1345
I1
a(dp1346
asS'c:/marmalade/7.5/modules/iwgeom/h/IwGeomSqrt.h'
p1347
(lp1348
I1
ag1339
asS'c:/marmalade/7.5/modules/iwgeom/h/IwGeomFQuat.h'
p1349
(lp1350
I1
ag1339
asS'c:/marmalade/7.5/modules/iwgeom/h/IwGeomQuat.h.tpl'
p1351
(lp1352
I1
ag1339
asS'c:/marmalade/7.5/modules/iwgeom/h/IwGeomVec2.h'
p1353
(lp1354
I1
ag1339
asS'c:/marmalade/7.5/modules/iwgeom/h/IwGeomMat.h'
p1355
(lp1356
I1
ag1339
asS'c:/marmalade/7.5/modules/iwgeom/h/IwGeomVec3.h'
p1357
(lp1358
I1
ag1339
asS'c:/marmalade/7.5/modules/iwgeom/h/IwGeomLegacy.h'
p1359
(lp1360
I1
ag1339
asS'c:/marmalade/7.5/modules/iwgeom/h/IwGeom.h'
p1361
(lp1362
I1
ag1339
asS'c:/marmalade/7.5/modules/iwgeom/h/IwGeomSQuat.h'
p1363
(lp1364
I1
ag1339
asS'c:/marmalade/7.5/modules/iwgeom/h/IwGeomFBBox.h'
p1365
(lp1366
I1
ag1339
asS'c:/marmalade/7.5/modules/iwgeom/h/IwGeomFMat.h'
p1367
(lp1368
I1
ag1339
asS'c:/marmalade/7.5/modules/iwgeom/h/IwGeomPlane.h'
p1369
(lp1370
I1
ag1339
asS'c:/marmalade/7.5/modules/iwgeom/h/IwGeomMat2D.h'
p1371
(lp1372
I1
ag1339
asS'c:/marmalade/7.5/modules/iwgeom/h/IwGeomFVec2.h'
p1373
(lp1374
I1
ag1339
asS'c:/marmalade/7.5/modules/iwgeom/h/IwGeomSVec4.h'
p1375
(lp1376
I1
ag1339
asS'c:/marmalade/7.5/modules/iwgeom/h/IwGeomVec4.h'
p1377
(lp1378
I1
ag1339
asS'c:/marmalade/7.5/modules/iwgeom/h/IwGeomCore.h'
p1379
(lp1380
I1
ag1339
asS'c:/marmalade/7.5/modules/iwgeom/h/IwGeomVec.h.tpl'
p1381
(lp1382
I1
ag1339
asS'c:/marmalade/7.5/modules/iwgeom/h/IwGeomVec.h'
p1383
(lp1384
I1
ag1339
asS'c:/marmalade/7.5/modules/iwgeom/h/IwGeomIntersect.h'
p1385
(lp1386
I1
ag1339
asS'c:/marmalade/7.5/modules/iwgeom/h/IwGeomFVec4.h'
p1387
(lp1388
I1
ag1339
asS'c:/marmalade/7.5/modules/iwgeom/h/IwGeomMat.h.tpl'
p1389
(lp1390
I1
ag1339
asS'c:/marmalade/7.5/modules/iwgeom/h/IwGeomMat2D.h.tpl'
p1391
(lp1392
I1
ag1339
asS'c:/marmalade/7.5/modules/iwgeom/h/IwGeomFMat2D.h'
p1393
(lp1394
I1
ag1339
asS'c:/marmalade/7.5/modules/iwgeom/h/IwGeomMenu.h'
p1395
(lp1396
I1
ag1339
asS'c:/marmalade/7.5/modules/iwgeom/h/IwGeomBBox.h'
p1397
(lp1398
I1
ag1339
asS'c:/marmalade/7.5/modules/iwgeom/h/IwGeomFSphere.h'
p1399
(lp1400
I1
ag1339
asS'c:/marmalade/7.5/modules/iwgeom/h/IwGeomFVec3.h'
p1401
(lp1402
I1
ag1339
asS'c:/marmalade/7.5/modules/iwgeom/h/IwGeomFPlane.h'
p1403
(lp1404
I1
ag1339
asS'c:/marmalade/7.5/modules/iwgeom/docs/iwgeom.config.txt'
p1405
(lp1406
I1
ag1339
asS'c:/marmalade/7.5/modules/iwgeom/h/IwGeomQuat.h'
p1407
(lp1408
I1
ag1339
asS'c:/marmalade/7.5/modules/iwgeom/h/IwGeomFIntersect.h'
p1409
(lp1410
I1
ag1339
assS'iwresmanager'
p1411
(dp1412
S'c:/marmalade/7.5/modules/iwresmanager/h/IwResHandlerITX.h'
p1413
(lp1414
I1
a(dp1415
asS'c:/marmalade/7.5/modules/iwresmanager/h/IwResSerialise.h'
p1416
(lp1417
I1
ag1415
asS'c:/marmalade/7.5/modules/iwresmanager/h/IwResManagerClass.h'
p1418
(lp1419
I1
ag1415
asS'c:/marmalade/7.5/modules/iwresmanager/h/IwResHandlerGROUP.h'
p1420
(lp1421
I1
ag1415
asS'c:/marmalade/7.5/modules/iwresmanager/h/IwResManager.h'
p1422
(lp1423
I1
ag1415
asS'c:/marmalade/7.5/modules/iwresmanager/iwresmanager.mkf'
p1424
(lp1425
I1
a(dp1426
asS'c:/marmalade/7.5/modules/iwresmanager/docs/iwresmanager.config.txt'
p1427
(lp1428
I1
ag1415
asS'c:/marmalade/7.5/modules/iwresmanager/h/IwResGroup.h'
p1429
(lp1430
I1
ag1415
asS'c:/marmalade/7.5/modules/iwresmanager/h/IwResHandler.h'
p1431
(lp1432
I1
ag1415
asS'c:/marmalade/7.5/modules/iwresmanager/h/IwResHandlerImage.h'
p1433
(lp1434
I1
ag1415
assS'iwgx'
p1435
(dp1436
S'c:/marmalade/7.5/modules/iwgx/h/IwDebugPrim.h'
p1437
(lp1438
I1
a(dp1439
asS'c:/marmalade/7.5/modules/iwgx/h/IwMatAnim.h'
p1440
(lp1441
I1
ag1439
asS'c:/marmalade/7.5/modules/iwgx/h/IwTexture.h'
p1442
(lp1443
I1
ag1439
asS'c:/marmalade/7.5/modules/iwgx/h/IwGxFuncTable.h'
p1444
(lp1445
I1
ag1439
asS'c:/marmalade/7.5/modules/iwgx/h/IwResHandlerMTL.h'
p1446
(lp1447
I1
ag1439
asS'c:/marmalade/7.5/modules/iwgx/h/IwGxPrint.h'
p1448
(lp1449
I1
ag1439
asS'c:/marmalade/7.5/modules/iwgx/h/IwGxStream.h'
p1450
(lp1451
I1
ag1439
asS'c:/marmalade/7.5/modules/iwgx/h/IwClip.h'
p1452
(lp1453
I1
ag1439
asS'c:/marmalade/7.5/modules/iwgx/h/IwGxSurface.h'
p1454
(lp1455
I1
ag1439
asS'c:/marmalade/7.5/modules/iwgx/h/IwGxError.h'
p1456
(lp1457
I1
ag1439
asS'c:/marmalade/7.5/modules/iwgx/h/IwGx.h'
p1458
(lp1459
I1
ag1439
asS'c:/marmalade/7.5/modules/iwgx/docs/iwgx_public.defines.txt'
p1460
(lp1461
I1
ag1439
asS'c:/marmalade/7.5/modules/iwgx/h/IwGxDebug.h'
p1462
(lp1463
I1
ag1439
asS'c:/marmalade/7.5/modules/iwgx/h/IwGxShaderTechnique.h'
p1464
(lp1465
I1
ag1439
asS'c:/marmalade/7.5/modules/iwgx/h/IwGxTransformSW.h'
p1466
(lp1467
I1
ag1439
asS'c:/marmalade/7.5/modules/iwgx/h/IwMaterial.h'
p1468
(lp1469
I1
ag1439
asS'c:/marmalade/7.5/modules/iwgx/h/IwGxMetrics.h'
p1470
(lp1471
I1
ag1439
asS'c:/marmalade/7.5/modules/iwgx/h/IwClip.inl'
p1472
(lp1473
I1
ag1439
asS'c:/marmalade/7.5/modules/iwgx/h/IwFColour.h'
p1474
(lp1475
I1
ag1439
asS'c:/marmalade/7.5/modules/iwgx/h/IwGxTypes.h'
p1476
(lp1477
I1
ag1439
asS'c:/marmalade/7.5/modules/iwgx/iwgx.mkf'
p1478
(lp1479
I1
a(dp1480
asS'c:/marmalade/7.5/modules/iwgx/docs/iwgx.config.txt'
p1481
(lp1482
I1
ag1439
asS'c:/marmalade/7.5/modules/iwgx/h/IwColour.h'
p1483
(lp1484
I1
ag1439
asS'c:/marmalade/7.5/modules/iwgx/h/IwGxState.h'
p1485
(lp1486
I1
ag1439
asS'c:/marmalade/7.5/modules/iwgx/h/IwTPage.h'
p1487
(lp1488
I1
ag1439
assS'iw2dscenegraphcore'
p1489
(dp1490
S'c:/marmalade/7.5/modules/iw2dscenegraphcore/iw2dscenegraphcore.mkf'
p1491
(lp1492
I1
a(dp1493
asS'c:/marmalade/7.5/modules/iw2dscenegraphcore/h/Iw2DSceneGraphCore.h'
p1494
(lp1495
I1
a(dp1496
asS'c:/marmalade/7.5/modules/iw2dscenegraphcore/source/Iw2DSceneGraphCore.cpp'
p1497
(lp1498
I1
ag1496
assS'iwutil'
p1499
(dp1500
S'c:/marmalade/7.5/modules/iwutil/h/IwSingleton.h'
p1501
(lp1502
I1
a(dp1503
asS'c:/marmalade/7.5/modules/iwutil/h/IwMath.h'
p1504
(lp1505
I1
ag1503
asS'c:/marmalade/7.5/modules/iwutil/h/IwBuffer.h'
p1506
(lp1507
I1
ag1503
asS'c:/marmalade/7.5/modules/iwutil/h/IwCore.h'
p1508
(lp1509
I1
ag1503
asS'c:/marmalade/7.5/modules/iwutil/h/IwDivide.h'
p1510
(lp1511
I1
ag1503
asS'c:/marmalade/7.5/modules/iwutil/h/IwMemory.h'
p1512
(lp1513
I1
ag1503
asS'c:/marmalade/7.5/modules/iwutil/h/IwImageHelper.h'
p1514
(lp1515
I1
ag1503
asS'c:/marmalade/7.5/modules/iwutil/h/IwManagedList.h'
p1516
(lp1517
I1
ag1503
asS'c:/marmalade/7.5/modules/iwutil/h/IwProfileMenu.h'
p1518
(lp1519
I1
ag1503
asS'c:/marmalade/7.5/modules/iwutil/h/IwClassFactory.h'
p1520
(lp1521
I1
ag1503
asS'c:/marmalade/7.5/modules/iwutil/h/IwDivTable.h'
p1522
(lp1523
I1
ag1503
asS'c:/marmalade/7.5/modules/iwutil/h/IwManaged.h'
p1524
(lp1525
I1
ag1503
asS'c:/marmalade/7.5/modules/iwutil/h/IwTextParseable.h'
p1526
(lp1527
I1
ag1503
asS'c:/marmalade/7.5/modules/iwutil/h/IwChar.h'
p1528
(lp1529
I1
ag1503
asS'c:/marmalade/7.5/modules/iwutil/h/IwRandom.h'
p1530
(lp1531
I1
ag1503
asS'c:/marmalade/7.5/modules/iwutil/h/IwDebug.h'
p1532
(lp1533
I1
ag1503
asS'c:/marmalade/7.5/modules/iwutil/h/IwUTF8.h'
p1534
(lp1535
I1
ag1503
asS'c:/marmalade/7.5/modules/iwutil/docs/iwutil.config.txt'
p1536
(lp1537
I1
ag1503
asS'c:/marmalade/7.5/modules/iwutil/h/IwAllocator.h'
p1538
(lp1539
I1
ag1503
asS'c:/marmalade/7.5/modules/iwutil/h/IwMemBucketHelpers.h'
p1540
(lp1541
I1
ag1503
asS'c:/marmalade/7.5/modules/iwutil/h/IwTextParserITX.h'
p1542
(lp1543
I1
ag1503
asS'c:/marmalade/7.5/modules/iwutil/h/IwKeymap.h'
p1544
(lp1545
I1
ag1503
asS'c:/marmalade/7.5/modules/iwutil/h/IwImage.h'
p1546
(lp1547
I1
ag1503
asS'c:/marmalade/7.5/modules/iwutil/h/IwOptimiseARM.h'
p1548
(lp1549
I1
ag1503
asS'c:/marmalade/7.5/modules/iwutil/h/IwMemBucket.h'
p1550
(lp1551
I1
ag1503
asS'c:/marmalade/7.5/modules/iwutil/h/IwOptimiseSize.h'
p1552
(lp1553
I1
ag1503
asS'c:/marmalade/7.5/modules/iwutil/h/IwRuntime.h'
p1554
(lp1555
I1
ag1503
asS'c:/marmalade/7.5/modules/iwutil/h/IwMemManagerDL.h'
p1556
(lp1557
I1
ag1503
asS'c:/marmalade/7.5/modules/iwutil/h/IwPath.h'
p1558
(lp1559
I1
ag1503
asS'c:/marmalade/7.5/modules/iwutil/h/IwOptimiseSpeed.h'
p1560
(lp1561
I1
ag1503
asS'c:/marmalade/7.5/modules/iwutil/h/IwList.h'
p1562
(lp1563
I1
ag1503
asS'c:/marmalade/7.5/modules/iwutil/h/IwAutoFile.h'
p1564
(lp1565
I1
ag1503
asS'c:/marmalade/7.5/modules/iwutil/h/IwVariableBitField.h'
p1566
(lp1567
I1
ag1503
asS'c:/marmalade/7.5/modules/iwutil/h/IwHashString.h'
p1568
(lp1569
I1
ag1503
asS'c:/marmalade/7.5/modules/iwutil/h/IwOptimiseThumb.h'
p1570
(lp1571
I1
ag1503
asS'c:/marmalade/7.5/modules/iwutil/iwutil.mkf'
p1572
(lp1573
I1
a(dp1574
asS'c:/marmalade/7.5/modules/iwutil/h/IwUtil.h'
p1575
(lp1576
I1
ag1503
asS'c:/marmalade/7.5/modules/iwutil/h/IwString.h'
p1577
(lp1578
I1
ag1503
asS'c:/marmalade/7.5/modules/iwutil/h/IwFile.h'
p1579
(lp1580
I1
ag1503
asS'c:/marmalade/7.5/modules/iwutil/h/IwUncopyable.h'
p1581
(lp1582
I1
ag1503
asS'c:/marmalade/7.5/modules/iwutil/h/IwTextParser.h'
p1583
(lp1584
I1
ag1503
asS'c:/marmalade/7.5/modules/iwutil/h/IwCopyingPtr.h'
p1585
(lp1586
I1
ag1503
asS'c:/marmalade/7.5/modules/iwutil/h/IwEvent.h'
p1587
(lp1588
I1
ag1503
asS'c:/marmalade/7.5/modules/iwutil/h/IwFibre.h'
p1589
(lp1590
I1
ag1503
asS'c:/marmalade/7.5/modules/iwutil/h/IwArray.h'
p1591
(lp1592
I1
ag1503
asS'c:/marmalade/7.5/modules/iwutil/h/IwMenu.h'
p1593
(lp1594
I1
ag1503
asS'c:/marmalade/7.5/modules/iwutil/h/IwTypes.h'
p1595
(lp1596
I1
ag1503
asS'c:/marmalade/7.5/modules/iwutil/h/IwUtilInitTerm.h'
p1597
(lp1598
I1
ag1503
asS'c:/marmalade/7.5/modules/iwutil/h/IwResource.h'
p1599
(lp1600
I1
ag1503
asS'c:/marmalade/7.5/modules/iwutil/h/IwSerialise.h'
p1601
(lp1602
I1
ag1503
asssS'(zlib)'
p1603
(dp1604
g1086
(dp1605
S'c:/marmalade/7.5/modules/third_party/zlib/h/zconf.h'
p1606
(lp1607
I1
a(dp1608
asS'c:/marmalade/7.5/modules/third_party/zlib/h/zlib.h'
p1609
(lp1610
I1
ag1608
assS'c:/marmalade/7.5/modules/third_party/zlib/zlib.mkf'
p1611
(lp1612
I1
a(dp1613
assS'(iwtween)'
p1614
(dp1615
S'c:/marmalade/7.5/modules/iwtween/h/IwTween.h'
p1616
(lp1617
I1
a(dp1618
asS'c:/marmalade/7.5/modules/iwtween/source/IwTween.cpp'
p1619
(lp1620
I1
ag1618
asS'c:/marmalade/7.5/modules/iwtween/iwtween.mkf'
p1621
(lp1622
I1
a(dp1623
assS'(s3e-default)'
p1624
(dp1625
S'c:/marmalade/7.5/s3e/s3e-default.mkf'
p1626
(lp1627
I1
a(dp1628
asssS'files'
p1629
(dp1630
S'IwGxFontPreparedData.h'
p1631
g333
(cmkb_main
File
p1632
g335
Ntp1633
Rp1634
(dp1635
S'flags'
p1636
g1317
sS'group'
p1637
(lp1638
S"'Marmalade Studio'"
p1639
ag1313
asg359
g1329
sbsS'iterator'
p1640
g333
(g1632
g335
Ntp1641
Rp1642
(dp1643
g1636
(dp1644
sg1637
(lp1645
S"'Marmalade System (S3E)'"
p1646
aS'stdc headers'
p1647
aS'c++'
p1648
asg359
S'c:/marmalade/7.5/s3e/h/std/c++/iterator'
p1649
sbsS'IwGL.h'
p1650
g333
(g1632
g335
Ntp1651
Rp1652
(dp1653
g1636
g1296
sg1637
(lp1654
S"'Marmalade Studio'"
p1655
ag1289
asg359
g1294
sbsS's3e.h'
p1656
g333
(g1632
g335
Ntp1657
Rp1658
(dp1659
g1636
g1644
sg1637
(lp1660
g1646
asg359
S'c:/marmalade/7.5/s3e/h/s3e.h'
p1661
sbsS'errno.h'
p1662
g333
(g1632
g335
Ntp1663
Rp1664
(dp1665
g1636
g1644
sg1637
(lp1666
g1646
aS'stdc headers'
p1667
asg359
S'c:/marmalade/7.5/s3e/h/std/errno.h'
p1668
sbsS'IwSingleton.h'
p1669
g333
(g1632
g335
Ntp1670
Rp1671
(dp1672
g1636
g1503
sg1637
(lp1673
S"'Marmalade Studio'"
p1674
ag1499
asg359
g1501
sbsS'dlfcn.h'
p1675
g333
(g1632
g335
Ntp1676
Rp1677
(dp1678
g1636
g1644
sg1637
g1666
sg359
S'c:/marmalade/7.5/s3e/h/std/dlfcn.h'
p1679
sbsS'IwSoundWAV.cpp'
p1680
g333
(g1632
g335
Ntp1681
Rp1682
(dp1683
g1636
g1145
sg1637
(lp1684
g1141
asg359
g1168
sbsS'sched.h'
p1685
g333
(g1632
g335
Ntp1686
Rp1687
(dp1688
g1636
g1644
sg1637
g1666
sg359
S'c:/marmalade/7.5/s3e/h/std/sched.h'
p1689
sbsS'IwSoundPCM.h'
p1690
g333
(g1632
g335
Ntp1691
Rp1692
(dp1693
g1636
g1145
sg1637
g1684
sg359
g1186
sbsS'IwGeomFMat2D.h'
p1694
g333
(g1632
g335
Ntp1695
Rp1696
(dp1697
g1636
g1339
sg1637
(lp1698
S"'Marmalade Studio'"
p1699
ag1335
asg359
g1393
sbsS'cassert'
p1700
g333
(g1632
g335
Ntp1701
Rp1702
(dp1703
g1636
g1644
sg1637
g1645
sg359
S'c:/marmalade/7.5/s3e/h/std/c++/cassert'
p1704
sbsS'grp.h'
p1705
g333
(g1632
g335
Ntp1706
Rp1707
(dp1708
g1636
g1644
sg1637
g1666
sg359
S'c:/marmalade/7.5/s3e/h/std/grp.h'
p1709
sbsS'list'
p1710
g333
(g1632
g335
Ntp1711
Rp1712
(dp1713
g1636
g1644
sg1637
g1645
sg359
S'c:/marmalade/7.5/s3e/h/std/c++/list'
p1714
sbsS'IwSoundSpec.cpp'
p1715
g333
(g1632
g335
Ntp1716
Rp1717
(dp1718
g1636
g1145
sg1637
g1684
sg359
g1174
sbsS'IwGeomMat.h.tpl'
p1719
g333
(g1632
g335
Ntp1720
Rp1721
(dp1722
g1636
g1339
sg1637
g1698
sg359
g1389
sbsS'istream'
p1723
g333
(g1632
g335
Ntp1724
Rp1725
(dp1726
g1636
g1644
sg1637
g1645
sg359
S'c:/marmalade/7.5/s3e/h/std/c++/istream'
p1727
sbsS'jpeglib.h'
p1728
g333
(g1632
g335
Ntp1729
Rp1730
(dp1731
g1636
g1104
sg1637
(lp1732
g1096
ag1086
asg359
g1129
sbsS'iw2d_public.defines.txt'
p1733
g333
(g1632
g335
Ntp1734
Rp1735
(dp1736
g1636
g1305
sg1637
(lp1737
S"'Marmalade Studio'"
p1738
ag1301
asg359
g1303
sbsS'iostream.h'
p1739
g333
(g1632
g335
Ntp1740
Rp1741
(dp1742
g1636
g1644
sg1637
g1645
sg359
S'c:/marmalade/7.5/s3e/h/std/c++/iostream.h'
p1743
sbsS'IwSoundADPCM.h'
p1744
g333
(g1632
g335
Ntp1745
Rp1746
(dp1747
g1636
g1145
sg1637
g1684
sg359
g1146
sbsS'string'
p1748
g333
(g1632
g335
Ntp1749
Rp1750
(dp1751
g1636
g1644
sg1637
g1645
sg359
S'c:/marmalade/7.5/s3e/h/std/c++/string'
p1752
sbsS'IwMemory.h'
p1753
g333
(g1632
g335
Ntp1754
Rp1755
(dp1756
g1636
g1503
sg1637
g1673
sg359
g1512
sbsS'IwGeomPlane.h'
p1757
g333
(g1632
g335
Ntp1758
Rp1759
(dp1760
g1636
g1339
sg1637
g1698
sg359
g1369
sbsS'iw2d.config.txt'
p1761
g333
(g1632
g335
Ntp1762
Rp1763
(dp1764
g1636
g1305
sg1637
g1737
sg359
g1306
sbsS'iomanip'
p1765
g333
(g1632
g335
Ntp1766
Rp1767
(dp1768
g1636
g1644
sg1637
g1645
sg359
S'c:/marmalade/7.5/s3e/h/std/c++/iomanip'
p1769
sbsS'iwgeom.mkf'
p1770
g333
(g1632
g335
Ntp1771
Rp1772
(dp1773
g1636
g1346
sg1637
g1698
sg359
g1344
sbsS'IwGxError.h'
p1774
g333
(g1632
g335
Ntp1775
Rp1776
(dp1777
g1636
g1439
sg1637
(lp1778
S"'Marmalade Studio'"
p1779
ag1435
asg359
g1456
sbsS'IwGeom.h'
p1780
g333
(g1632
g335
Ntp1781
Rp1782
(dp1783
g1636
g1339
sg1637
g1698
sg359
g1361
sbsS'scene.cpp'
p1784
g333
(g1632
g335
Ntp1785
Rp1786
(dp1787
g1636
g1202
sg1637
(lp1788
g1198
asg359
g1209
sbsS'IwGeomVec4.h'
p1789
g333
(g1632
g335
Ntp1790
Rp1791
(dp1792
g1636
g1339
sg1637
g1698
sg359
g1377
sbsS'dir.h'
p1793
g333
(g1632
g335
Ntp1794
Rp1795
(dp1796
g1636
g1644
sg1637
(lp1797
g1646
aS'stdc headers'
p1798
aS'sys'
p1799
asg359
S'c:/marmalade/7.5/s3e/h/std/sys/dir.h'
p1800
sbsS'locale.h'
p1801
g333
(g1632
g335
Ntp1802
Rp1803
(dp1804
g1636
g1644
sg1637
g1666
sg359
S'c:/marmalade/7.5/s3e/h/std/locale.h'
p1805
sbsS'vector'
p1806
g333
(g1632
g335
Ntp1807
Rp1808
(dp1809
g1636
g1644
sg1637
g1645
sg359
S'c:/marmalade/7.5/s3e/h/std/c++/vector'
p1810
sbsS'IwManaged.h'
p1811
g333
(g1632
g335
Ntp1812
Rp1813
(dp1814
g1636
g1503
sg1637
g1673
sg359
g1524
sbsS's3eCompass.h'
p1815
g333
(g1632
g335
Ntp1816
Rp1817
(dp1818
g1636
g1644
sg1637
g1660
sg359
S'c:/marmalade/7.5/s3e/h/s3eCompass.h'
p1819
sbsS'cderror.h'
p1820
g333
(g1632
g335
Ntp1821
Rp1822
(dp1823
g1636
g1104
sg1637
g1732
sg359
g1107
sbsS'climits'
p1824
g333
(g1632
g335
Ntp1825
Rp1826
(dp1827
g1636
g1644
sg1637
g1645
sg359
S'c:/marmalade/7.5/s3e/h/std/c++/climits'
p1828
sbsS's3eVibra.h'
p1829
g333
(g1632
g335
Ntp1830
Rp1831
(dp1832
g1636
g1644
sg1637
g1660
sg359
S'c:/marmalade/7.5/s3e/h/s3eVibra.h'
p1833
sbsS'jversion.h'
p1834
g333
(g1632
g335
Ntp1835
Rp1836
(dp1837
g1636
g1104
sg1637
g1732
sg359
g1125
sbsS'fnmatch.h'
p1838
g333
(g1632
g335
Ntp1839
Rp1840
(dp1841
g1636
g1644
sg1637
g1666
sg359
S'c:/marmalade/7.5/s3e/h/std/fnmatch.h'
p1842
sbsS'IwGxState.h'
p1843
g333
(g1632
g335
Ntp1844
Rp1845
(dp1846
g1636
g1439
sg1637
g1778
sg359
g1485
sbsS'rope'
p1847
g333
(g1632
g335
Ntp1848
Rp1849
(dp1850
g1636
g1644
sg1637
g1645
sg359
S'c:/marmalade/7.5/s3e/h/std/c++/rope'
p1851
sbsS's3eAudio.h'
p1852
g333
(g1632
g335
Ntp1853
Rp1854
(dp1855
g1636
g1644
sg1637
g1660
sg359
S'c:/marmalade/7.5/s3e/h/s3eAudio.h'
p1856
sbsS's3eSurface.h'
p1857
g333
(g1632
g335
Ntp1858
Rp1859
(dp1860
g1636
g1644
sg1637
g1660
sg359
S'c:/marmalade/7.5/s3e/h/s3eSurface.h'
p1861
sbsS'new'
p1862
g333
(g1632
g335
Ntp1863
Rp1864
(dp1865
g1636
g1644
sg1637
g1645
sg359
S'c:/marmalade/7.5/s3e/h/std/c++/new'
p1866
sbsS's3eWindow.h'
p1867
g333
(g1632
g335
Ntp1868
Rp1869
(dp1870
g1636
g1644
sg1637
(lp1871
g1646
aS'Extensions'
p1872
asg359
S'c:/marmalade/7.5/s3e/h/ext/s3eWindow.h'
p1873
sbsS'IwBuffer.h'
p1874
g333
(g1632
g335
Ntp1875
Rp1876
(dp1877
g1636
g1503
sg1637
g1673
sg359
g1506
sbsS'stdio_streambuf'
p1878
g333
(g1632
g335
Ntp1879
Rp1880
(dp1881
g1636
g1644
sg1637
g1645
sg359
S'c:/marmalade/7.5/s3e/h/std/c++/stdio_streambuf'
p1882
sbsS'IwGeomQuat.h.tpl'
p1883
g333
(g1632
g335
Ntp1884
Rp1885
(dp1886
g1636
g1339
sg1637
g1698
sg359
g1351
sbsS's3eOSExec.h'
p1887
g333
(g1632
g335
Ntp1888
Rp1889
(dp1890
g1636
g1644
sg1637
g1871
sg359
S'c:/marmalade/7.5/s3e/h/ext/s3eOSExec.h'
p1891
sbsS'IwGxTransformSW.h'
p1892
g333
(g1632
g335
Ntp1893
Rp1894
(dp1895
g1636
g1439
sg1637
g1778
sg359
g1466
sbsS'unistd.h'
p1896
g333
(g1632
g335
Ntp1897
Rp1898
(dp1899
g1636
g1644
sg1637
g1666
sg359
S'c:/marmalade/7.5/s3e/h/std/unistd.h'
p1900
sbsS'iwgxfont.config.txt'
p1901
g333
(g1632
g335
Ntp1902
Rp1903
(dp1904
g1636
g1317
sg1637
g1638
sg359
g1320
sbsS'gl2platform.h'
p1905
g333
(g1632
g335
Ntp1906
Rp1907
(dp1908
g1636
g1644
sg1637
(lp1909
g1646
aS'GL'
p1910
aS'GLES 2.0'
p1911
asg359
S'c:/marmalade/7.5/s3e/h/GLES2/gl2platform.h'
p1912
sbsS'IwResManagerClass.h'
p1913
g333
(g1632
g335
Ntp1914
Rp1915
(dp1916
g1636
g1415
sg1637
(lp1917
g1275
ag1411
asg359
g1418
sbsS'queue'
p1918
g333
(g1632
g335
Ntp1919
Rp1920
(dp1921
g1636
g1644
sg1637
g1645
sg359
S'c:/marmalade/7.5/s3e/h/std/c++/queue'
p1922
sbsS'time_1.h'
p1923
g333
(g1632
g335
Ntp1924
Rp1925
(dp1926
g1636
g1644
sg1637
g1797
sg359
S'c:/marmalade/7.5/s3e/h/std/sys/time.h'
p1927
sbsS'Iw2D.h'
p1928
g333
(g1632
g335
Ntp1929
Rp1930
(dp1931
g1636
g1305
sg1637
g1737
sg359
g1308
sbsS'IwGeomVec2.h'
p1932
g333
(g1632
g335
Ntp1933
Rp1934
(dp1935
g1636
g1339
sg1637
g1698
sg359
g1353
sbsS'sendfile.h'
p1936
g333
(g1632
g335
Ntp1937
Rp1938
(dp1939
g1636
g1644
sg1637
g1797
sg359
S'c:/marmalade/7.5/s3e/h/std/sys/sendfile.h'
p1940
sbsS'malloc.h'
p1941
g333
(g1632
g335
Ntp1942
Rp1943
(dp1944
g1636
g1644
sg1637
g1666
sg359
S'c:/marmalade/7.5/s3e/h/std/malloc.h'
p1945
sbsS'stdarg.h'
p1946
g333
(g1632
g335
Ntp1947
Rp1948
(dp1949
g1636
g1644
sg1637
g1666
sg359
S'c:/marmalade/7.5/s3e/h/std/stdarg.h'
p1950
sbsS'IwGeomCore.h'
p1951
g333
(g1632
g335
Ntp1952
Rp1953
(dp1954
g1636
g1339
sg1637
g1698
sg359
g1379
sbsS'Iw2DSceneGraph.h'
p1955
g333
(g1632
g335
Ntp1956
Rp1957
(dp1958
g1636
g1281
sg1637
(lp1959
S"'Marmalade Studio'"
p1960
ag1277
asg359
g1284
sbsS'endian.h'
p1961
g333
(g1632
g335
Ntp1962
Rp1963
(dp1964
g1636
g1644
sg1637
g1666
sg359
S'c:/marmalade/7.5/s3e/h/std/endian.h'
p1965
sbsS'gl3ext.h'
p1966
g333
(g1632
g335
Ntp1967
Rp1968
(dp1969
g1636
g1644
sg1637
(lp1970
g1646
aS'GL'
p1971
aS'GLES 3.0'
p1972
asg359
S'c:/marmalade/7.5/s3e/h/GLES3/gl3ext.h'
p1973
sbsS'glob.h'
p1974
g333
(g1632
g335
Ntp1975
Rp1976
(dp1977
g1636
g1644
sg1637
g1666
sg359
S'c:/marmalade/7.5/s3e/h/std/glob.h'
p1978
sbsS'fstream'
p1979
g333
(g1632
g335
Ntp1980
Rp1981
(dp1982
g1636
g1644
sg1637
g1645
sg359
S'c:/marmalade/7.5/s3e/h/std/c++/fstream'
p1983
sbsS's3eCamera.h'
p1984
g333
(g1632
g335
Ntp1985
Rp1986
(dp1987
g1636
g1644
sg1637
g1660
sg359
S'c:/marmalade/7.5/s3e/h/s3eCamera.h'
p1988
sbsS'jconfig.h'
p1989
g333
(g1632
g335
Ntp1990
Rp1991
(dp1992
g1636
g1104
sg1637
g1732
sg359
g1127
sbsS'memory'
p1993
g333
(g1632
g335
Ntp1994
Rp1995
(dp1996
g1636
g1644
sg1637
g1645
sg359
S'c:/marmalade/7.5/s3e/h/std/c++/memory'
p1997
sbsS'egl.h'
p1998
g333
(g1632
g335
Ntp1999
Rp2000
(dp2001
g1636
g1644
sg1637
(lp2002
g1646
aS'GL'
p2003
aS'EGL'
p2004
asg359
S'c:/marmalade/7.5/s3e/h/EGL/egl.h'
p2005
sbsS'egl_1.h'
p2006
g333
(g1632
g335
Ntp2007
Rp2008
(dp2009
g1636
g1644
sg1637
(lp2010
g1646
aS'GL'
p2011
aS'GLES 1.x'
p2012
asg359
S'c:/marmalade/7.5/s3e/h/GLES/egl.h'
p2013
sbsS'IwMemManagerDL.h'
p2014
g333
(g1632
g335
Ntp2015
Rp2016
(dp2017
g1636
g1503
sg1637
g1673
sg359
g1556
sbsS'deque'
p2018
g333
(g1632
g335
Ntp2019
Rp2020
(dp2021
g1636
g1644
sg1637
g1645
sg359
S'c:/marmalade/7.5/s3e/h/std/c++/deque'
p2022
sbsS'IwString.h'
p2023
g333
(g1632
g335
Ntp2024
Rp2025
(dp2026
g1636
g1503
sg1637
g1673
sg359
g1577
sbsS'GameScene.h'
p2027
g333
(g1632
g335
Ntp2028
Rp2029
(dp2030
g1636
g1202
sg1637
g1788
sg359
g1257
sbsS'cwchar'
p2031
g333
(g1632
g335
Ntp2032
Rp2033
(dp2034
g1636
g1644
sg1637
g1645
sg359
S'c:/marmalade/7.5/s3e/h/std/c++/cwchar'
p2035
sbsS'iwutil.mkf'
p2036
g333
(g1632
g335
Ntp2037
Rp2038
(dp2039
g1636
g1574
sg1637
g1673
sg359
g1572
sbsS'csignal'
p2040
g333
(g1632
g335
Ntp2041
Rp2042
(dp2043
g1636
g1644
sg1637
g1645
sg359
S'c:/marmalade/7.5/s3e/h/std/c++/csignal'
p2044
sbsS'pthread_types.h'
p2045
g333
(g1632
g335
Ntp2046
Rp2047
(dp2048
g1636
g1644
sg1637
g1666
sg359
S'c:/marmalade/7.5/s3e/h/std/pthread_types.h'
p2049
sbsS'pthread_alloc'
p2050
g333
(g1632
g335
Ntp2051
Rp2052
(dp2053
g1636
g1644
sg1637
g1645
sg359
S'c:/marmalade/7.5/s3e/h/std/c++/pthread_alloc'
p2054
sbsS'getopt.h'
p2055
g333
(g1632
g335
Ntp2056
Rp2057
(dp2058
g1636
g1644
sg1637
g1666
sg359
S'c:/marmalade/7.5/s3e/h/std/getopt.h'
p2059
sbsS'IwOptimiseARM.h'
p2060
g333
(g1632
g335
Ntp2061
Rp2062
(dp2063
g1636
g1503
sg1637
g1673
sg359
g1548
sbsS'times.h'
p2064
g333
(g1632
g335
Ntp2065
Rp2066
(dp2067
g1636
g1644
sg1637
g1797
sg359
S'c:/marmalade/7.5/s3e/h/std/sys/times.h'
p2068
sbsS'IwGeomFSphere.h'
p2069
g333
(g1632
g335
Ntp2070
Rp2071
(dp2072
g1636
g1339
sg1637
g1698
sg359
g1399
sbsS'functional'
p2073
g333
(g1632
g335
Ntp2074
Rp2075
(dp2076
g1636
g1644
sg1637
g1645
sg359
S'c:/marmalade/7.5/s3e/h/std/c++/functional'
p2077
sbsS'IwTypes.h'
p2078
g333
(g1632
g335
Ntp2079
Rp2080
(dp2081
g1636
g1503
sg1637
g1673
sg359
g1595
sbsS'IwGxMetrics.h'
p2082
g333
(g1632
g335
Ntp2083
Rp2084
(dp2085
g1636
g1439
sg1637
g1778
sg359
g1470
sbsS'audio.cpp'
p2086
g333
(g1632
g335
Ntp2087
Rp2088
(dp2089
g1636
g1202
sg1637
g1788
sg359
g1253
sbsS's3eCompression.h'
p2090
g333
(g1632
g335
Ntp2091
Rp2092
(dp2093
g1636
g1644
sg1637
g1660
sg359
S'c:/marmalade/7.5/s3e/h/s3eCompression.h'
p2094
sbsS'langinfo.h'
p2095
g333
(g1632
g335
Ntp2096
Rp2097
(dp2098
g1636
g1644
sg1637
g1666
sg359
S'c:/marmalade/7.5/s3e/h/std/langinfo.h'
p2099
sbsS's3edebugHeap.h'
p2100
g333
(g1632
g335
Ntp2101
Rp2102
(dp2103
g1636
g1644
sg1637
g1871
sg359
S'c:/marmalade/7.5/s3e/h/ext/s3edebugHeap.h'
p2104
sbsS'AirplayVersion.h'
p2105
g333
(g1632
g335
Ntp2106
Rp2107
(dp2108
g1636
g1644
sg1637
g1660
sg359
S'c:/marmalade/7.5/s3e/h/AirplayVersion.h'
p2109
sbsS'gl2extimg.h'
p2110
g333
(g1632
g335
Ntp2111
Rp2112
(dp2113
g1636
g1644
sg1637
g1909
sg359
S'c:/marmalade/7.5/s3e/h/GLES2/gl2extimg.h'
p2114
sbsS'IwGeomSqrt.h'
p2115
g333
(g1632
g335
Ntp2116
Rp2117
(dp2118
g1636
g1339
sg1637
g1698
sg359
g1347
sbsS'tiniconv_int.h'
p2119
g333
(g1632
g335
Ntp2120
Rp2121
(dp2122
g1636
g1138
sg1637
(lp2123
g1131
asg359
g1136
sbsS'syslog.h'
p2124
g333
(g1632
g335
Ntp2125
Rp2126
(dp2127
g1636
g1644
sg1637
g1666
sg359
S'c:/marmalade/7.5/s3e/h/std/syslog.h'
p2128
sbsS'IwGxFontTypes.h'
p2129
g333
(g1632
g335
Ntp2130
Rp2131
(dp2132
g1636
g1317
sg1637
g1638
sg359
g1318
sbsS'IwGeomFIntersect.h'
p2133
g333
(g1632
g335
Ntp2134
Rp2135
(dp2136
g1636
g1339
sg1637
g1698
sg359
g1409
sbsS'hash_map'
p2137
g333
(g1632
g335
Ntp2138
Rp2139
(dp2140
g1636
g1644
sg1637
g1645
sg359
S'c:/marmalade/7.5/s3e/h/std/c++/hash_map'
p2141
sbsS's3e.mkf'
p2142
g333
(g1632
g335
Ntp2143
Rp2144
(dp2145
g1636
(dp2146
sg1637
g1660
sg359
S'c:/marmalade/7.5/s3e/s3e.mkf'
p2147
sbsS'IwGeomMat2D.h.tpl'
p2148
g333
(g1632
g335
Ntp2149
Rp2150
(dp2151
g1636
g1339
sg1637
g1698
sg359
g1391
sbsS's3eOSReadString.h'
p2152
g333
(g1632
g335
Ntp2153
Rp2154
(dp2155
g1636
g1644
sg1637
g1871
sg359
S'c:/marmalade/7.5/s3e/h/ext/s3eOSReadString.h'
p2156
sbsS'IwSound.h'
p2157
g333
(g1632
g335
Ntp2158
Rp2159
(dp2160
g1636
g1145
sg1637
g1684
sg359
g1180
sbsS'map'
p2161
g333
(g1632
g335
Ntp2162
Rp2163
(dp2164
g1636
g1644
sg1637
g1645
sg359
S'c:/marmalade/7.5/s3e/h/std/c++/map'
p2165
sbsS'iwtween.mkf'
p2166
g333
(g1632
g335
Ntp2167
Rp2168
(dp2169
g1636
g1623
sg1637
(lp2170
g1614
asg359
g1621
sbsS'IwOptimiseSpeed.h'
p2171
g333
(g1632
g335
Ntp2172
Rp2173
(dp2174
g1636
g1503
sg1637
g1673
sg359
g1560
sbsS'ostream'
p2175
g333
(g1632
g335
Ntp2176
Rp2177
(dp2178
g1636
g1644
sg1637
g1645
sg359
S'c:/marmalade/7.5/s3e/h/std/c++/ostream'
p2179
sbsS'msl_string.h'
p2180
g333
(g1632
g335
Ntp2181
Rp2182
(dp2183
g1636
g1644
sg1637
g1645
sg359
S'c:/marmalade/7.5/s3e/h/std/c++/msl_string.h'
p2184
sbsS'select.h'
p2185
g333
(g1632
g335
Ntp2186
Rp2187
(dp2188
g1636
g1644
sg1637
g1797
sg359
S'c:/marmalade/7.5/s3e/h/std/sys/select.h'
p2189
sbsS'hero.cpp'
p2190
g333
(g1632
g335
Ntp2191
Rp2192
(dp2193
g1636
g1202
sg1637
g1788
sg359
g1255
sbsS'zlib.mkf'
p2194
g333
(g1632
g335
Ntp2195
Rp2196
(dp2197
g1636
g1613
sg1637
(lp2198
g1603
asg359
g1611
sbsS'signal.h'
p2199
g333
(g1632
g335
Ntp2200
Rp2201
(dp2202
g1636
g1644
sg1637
g1666
sg359
S'c:/marmalade/7.5/s3e/h/std/signal.h'
p2203
sbsS'sigcontext.h'
p2204
g333
(g1632
g335
Ntp2205
Rp2206
(dp2207
g1636
g1644
sg1637
g1666
sg359
S'c:/marmalade/7.5/s3e/h/std/sigcontext.h'
p2208
sbsS'libpng.mkf'
p2209
g333
(g1632
g335
Ntp2210
Rp2211
(dp2212
g1636
g1095
sg1637
(lp2213
g1084
asg359
g1093
sbsS's3eClipboard.h'
p2214
g333
(g1632
g335
Ntp2215
Rp2216
(dp2217
g1636
g1644
sg1637
g1660
sg359
S'c:/marmalade/7.5/s3e/h/s3eClipboard.h'
p2218
sbsS'IwGxFuncTable.h'
p2219
g333
(g1632
g335
Ntp2220
Rp2221
(dp2222
g1636
g1439
sg1637
g1778
sg359
g1444
sbsS'IwResHandlerGROUP.h'
p2223
g333
(g1632
g335
Ntp2224
Rp2225
(dp2226
g1636
g1415
sg1637
g1917
sg359
g1420
sbsS's3eDebug.h'
p2227
g333
(g1632
g335
Ntp2228
Rp2229
(dp2230
g1636
g1644
sg1637
g1660
sg359
S'c:/marmalade/7.5/s3e/h/s3eDebug.h'
p2231
sbsS'socket.h'
p2232
g333
(g1632
g335
Ntp2233
Rp2234
(dp2235
g1636
g1644
sg1637
g1797
sg359
S'c:/marmalade/7.5/s3e/h/std/sys/socket.h'
p2236
sbsS'glext.h'
p2237
g333
(g1632
g335
Ntp2238
Rp2239
(dp2240
g1636
g1644
sg1637
g2010
sg359
S'c:/marmalade/7.5/s3e/h/GLES/glext.h'
p2241
sbsS'typeinfo.h'
p2242
g333
(g1632
g335
Ntp2243
Rp2244
(dp2245
g1636
g1644
sg1637
g1645
sg359
S'c:/marmalade/7.5/s3e/h/std/c++/typeinfo.h'
p2246
sbsS'typeinfo'
p2247
g333
(g1632
g335
Ntp2248
Rp2249
(dp2250
g1636
g1644
sg1637
g1645
sg359
S'c:/marmalade/7.5/s3e/h/std/c++/typeinfo'
p2251
sbsS'iwsound.config.txt'
p2252
g333
(g1632
g335
Ntp2253
Rp2254
(dp2255
g1636
g1145
sg1637
(lp2256
g1141
ag1152
asg359
g1154
sbsS'fstream.h'
p2257
g333
(g1632
g335
Ntp2258
Rp2259
(dp2260
g1636
g1644
sg1637
g1645
sg359
S'c:/marmalade/7.5/s3e/h/std/c++/fstream.h'
p2261
sbsS'IwGeomMat.h'
p2262
g333
(g1632
g335
Ntp2263
Rp2264
(dp2265
g1636
g1339
sg1637
g1698
sg359
g1355
sbsS's3ePointer.h'
p2266
g333
(g1632
g335
Ntp2267
Rp2268
(dp2269
g1636
g1644
sg1637
g1660
sg359
S'c:/marmalade/7.5/s3e/h/s3ePointer.h'
p2270
sbsS'IwMemBucket.h'
p2271
g333
(g1632
g335
Ntp2272
Rp2273
(dp2274
g1636
g1503
sg1637
g1673
sg359
g1550
sbsS'PVRTexTool.h'
p2275
g333
(g1632
g335
Ntp2276
Rp2277
(dp2278
g1636
g1267
sg1637
(lp2279
g1259
ag1261
asg359
g1270
sbsS's3eGL.h'
p2280
g333
(g1632
g335
Ntp2281
Rp2282
(dp2283
g1636
g1644
sg1637
g1660
sg359
S'c:/marmalade/7.5/s3e/h/s3eGL.h'
p2284
sbsS'IwGeomFVec2.h'
p2285
g333
(g1632
g335
Ntp2286
Rp2287
(dp2288
g1636
g1339
sg1637
g1698
sg359
g1373
sbsS'IwGeomSVec4.h'
p2289
g333
(g1632
g335
Ntp2290
Rp2291
(dp2292
g1636
g1339
sg1637
g1698
sg359
g1375
sbsS'BackgroundEntity.cpp'
p2293
g333
(g1632
g335
Ntp2294
Rp2295
(dp2296
g1636
g1202
sg1637
g1788
sg359
g1247
sbsS'poll.h'
p2297
g333
(g1632
g335
Ntp2298
Rp2299
(dp2300
g1636
g1644
sg1637
g1666
sg359
S'c:/marmalade/7.5/s3e/h/std/poll.h'
p2301
sbsS'IwMatAnim.h'
p2302
g333
(g1632
g335
Ntp2303
Rp2304
(dp2305
g1636
g1439
sg1637
g1778
sg359
g1440
sbsS'IwGeomFVec4.h'
p2306
g333
(g1632
g335
Ntp2307
Rp2308
(dp2309
g1636
g1339
sg1637
g1698
sg359
g1387
sbsS'IwGx.h'
p2310
g333
(g1632
g335
Ntp2311
Rp2312
(dp2313
g1636
g1439
sg1637
g1778
sg359
g1458
sbsS'valarray'
p2314
g333
(g1632
g335
Ntp2315
Rp2316
(dp2317
g1636
g1644
sg1637
g1645
sg359
S'c:/marmalade/7.5/s3e/h/std/c++/valarray'
p2318
sbsS'iosfwd'
p2319
g333
(g1632
g335
Ntp2320
Rp2321
(dp2322
g1636
g1644
sg1637
g1645
sg359
S'c:/marmalade/7.5/s3e/h/std/c++/iosfwd'
p2323
sbsS'gl2.h'
p2324
g333
(g1632
g335
Ntp2325
Rp2326
(dp2327
g1636
g1644
sg1637
g1909
sg359
S'c:/marmalade/7.5/s3e/h/GLES2/gl2.h'
p2328
sbsS'jpegint.h'
p2329
g333
(g1632
g335
Ntp2330
Rp2331
(dp2332
g1636
g1104
sg1637
g1732
sg359
g1119
sbsS'stdiostream.h'
p2333
g333
(g1632
g335
Ntp2334
Rp2335
(dp2336
g1636
g1644
sg1637
g1645
sg359
S'c:/marmalade/7.5/s3e/h/std/c++/stdiostream.h'
p2337
sbsS'mem.h'
p2338
g333
(g1632
g335
Ntp2339
Rp2340
(dp2341
g1636
g1644
sg1637
g1645
sg359
S'c:/marmalade/7.5/s3e/h/std/c++/mem.h'
p2342
sbsS'jerror.h'
p2343
g333
(g1632
g335
Ntp2344
Rp2345
(dp2346
g1636
g1104
sg1637
g1732
sg359
g1102
sbsS'zconf.h'
p2347
g333
(g1632
g335
Ntp2348
Rp2349
(dp2350
g1636
g1608
sg1637
(lp2351
g1603
ag1086
asg359
g1606
sbsS's3e.config.txt'
p2352
g333
(g1632
g335
Ntp2353
Rp2354
(dp2355
g1636
g1644
sg1637
g1660
sg359
S'c:/marmalade/7.5/s3e/s3e.config.txt'
p2356
sbsS'numeric'
p2357
g333
(g1632
g335
Ntp2358
Rp2359
(dp2360
g1636
g1644
sg1637
g1645
sg359
S'c:/marmalade/7.5/s3e/h/std/c++/numeric'
p2361
sbsS'utime.h'
p2362
g333
(g1632
g335
Ntp2363
Rp2364
(dp2365
g1636
g1644
sg1637
g1666
sg359
S'c:/marmalade/7.5/s3e/h/std/utime.h'
p2366
sbsS'jdhuff.h'
p2367
g333
(g1632
g335
Ntp2368
Rp2369
(dp2370
g1636
g1104
sg1637
g1732
sg359
g1105
sbsS'IwResHandlerWAV.cpp'
p2371
g333
(g1632
g335
Ntp2372
Rp2373
(dp2374
g1636
g1145
sg1637
g1684
sg359
g1148
sbsS'un.h'
p2375
g333
(g1632
g335
Ntp2376
Rp2377
(dp2378
g1636
g1644
sg1637
g1797
sg359
S'c:/marmalade/7.5/s3e/h/std/sys/un.h'
p2379
sbsS'IwImage.h'
p2380
g333
(g1632
g335
Ntp2381
Rp2382
(dp2383
g1636
g1503
sg1637
g1673
sg359
g1546
sbsS's3eImagePicker.h'
p2384
g333
(g1632
g335
Ntp2385
Rp2386
(dp2387
g1636
g1644
sg1637
g1871
sg359
S'c:/marmalade/7.5/s3e/h/ext/s3eImagePicker.h'
p2388
sbsS'stdlib.h'
p2389
g333
(g1632
g335
Ntp2390
Rp2391
(dp2392
g1636
g1644
sg1637
g1666
sg359
S'c:/marmalade/7.5/s3e/h/std/stdlib.h'
p2393
sbsS'IwCopyingPtr.h'
p2394
g333
(g1632
g335
Ntp2395
Rp2396
(dp2397
g1636
g1503
sg1637
g1673
sg359
g1585
sbsS'iostream'
p2398
g333
(g1632
g335
Ntp2399
Rp2400
(dp2401
g1636
g1644
sg1637
g1645
sg359
S'c:/marmalade/7.5/s3e/h/std/c++/iostream'
p2402
sbsS'png.h'
p2403
g333
(g1632
g335
Ntp2404
Rp2405
(dp2406
g1636
g1090
sg1637
(lp2407
g1084
ag1086
asg359
g1088
sbsS'stddef.h'
p2408
g333
(g1632
g335
Ntp2409
Rp2410
(dp2411
g1636
g1644
sg1637
g1666
sg359
S'c:/marmalade/7.5/s3e/h/std/stddef.h'
p2412
sbsS'setjmp_win32.h'
p2413
g333
(g1632
g335
Ntp2414
Rp2415
(dp2416
g1636
g1644
sg1637
g1666
sg359
S'c:/marmalade/7.5/s3e/h/std/setjmp_win32.h'
p2417
sbsS'pauseMenu.h'
p2418
g333
(g1632
g335
Ntp2419
Rp2420
(dp2421
g1636
g1202
sg1637
g1788
sg359
g1245
sbsS'IwGxPrint.h'
p2422
g333
(g1632
g335
Ntp2423
Rp2424
(dp2425
g1636
g1439
sg1637
g1778
sg359
g1448
sbsS'iwgx_public.defines.txt'
p2426
g333
(g1632
g335
Ntp2427
Rp2428
(dp2429
g1636
g1439
sg1637
g1778
sg359
g1460
sbsS'streambuf.h'
p2430
g333
(g1632
g335
Ntp2431
Rp2432
(dp2433
g1636
g1644
sg1637
g1645
sg359
S'c:/marmalade/7.5/s3e/h/std/c++/streambuf.h'
p2434
sbsS'resources.cpp'
p2435
g333
(g1632
g335
Ntp2436
Rp2437
(dp2438
g1636
g1202
sg1637
g1788
sg359
g1231
sbsS'IwGeomFPlane.h'
p2439
g333
(g1632
g335
Ntp2440
Rp2441
(dp2442
g1636
g1339
sg1637
g1698
sg359
g1403
sbsS'wchar.h'
p2443
g333
(g1632
g335
Ntp2444
Rp2445
(dp2446
g1636
g1644
sg1637
g1666
sg359
S'c:/marmalade/7.5/s3e/h/std/wchar.h'
p2447
sbsS's3eCameraCapture.h'
p2448
g333
(g1632
g335
Ntp2449
Rp2450
(dp2451
g1636
g1644
sg1637
g1871
sg359
S'c:/marmalade/7.5/s3e/h/ext/s3eCameraCapture.h'
p2452
sbsS'eglext.h'
p2453
g333
(g1632
g335
Ntp2454
Rp2455
(dp2456
g1636
g1644
sg1637
g2002
sg359
S'c:/marmalade/7.5/s3e/h/EGL/eglext.h'
p2457
sbsS'IwResHandlerImage.h'
p2458
g333
(g1632
g335
Ntp2459
Rp2460
(dp2461
g1636
g1415
sg1637
g1917
sg359
g1433
sbsS'strstream.h'
p2462
g333
(g1632
g335
Ntp2463
Rp2464
(dp2465
g1636
g1644
sg1637
g1645
sg359
S'c:/marmalade/7.5/s3e/h/std/c++/strstream.h'
p2466
sbsS'tiniconv.h'
p2467
g333
(g1632
g335
Ntp2468
Rp2469
(dp2470
g1636
g1138
sg1637
g2123
sg359
g1139
sbsS'IwGLExt.h'
p2471
g333
(g1632
g335
Ntp2472
Rp2473
(dp2474
g1636
g1296
sg1637
g1654
sg359
g1299
sbsS'app.icf'
p2475
g333
(g1632
g335
Ntp2476
Rp2477
(dp2478
g1636
(dp2479
sg1637
g4
sg359
S'c:/Marmalade/7.5/examples/GameTutorial/CPP/marm1/data/app.icf'
p2480
sbsS'IwClassFactory.h'
p2481
g333
(g1632
g335
Ntp2482
Rp2483
(dp2484
g1636
g1503
sg1637
g1673
sg359
g1520
sbsS'file.h'
p2485
g333
(g1632
g335
Ntp2486
Rp2487
(dp2488
g1636
g1644
sg1637
g1797
sg359
S'c:/marmalade/7.5/s3e/h/std/sys/file.h'
p2489
sbsS'cstring'
p2490
g333
(g1632
g335
Ntp2491
Rp2492
(dp2493
g1636
g1644
sg1637
g1645
sg359
S'c:/marmalade/7.5/s3e/h/std/c++/cstring'
p2494
sbsS'IwSoundInst.cpp'
p2495
g333
(g1632
g335
Ntp2496
Rp2497
(dp2498
g1636
g1145
sg1637
g1684
sg359
g1170
sbsS'iwutil.config.txt'
p2499
g333
(g1632
g335
Ntp2500
Rp2501
(dp2502
g1636
g1503
sg1637
g1673
sg359
g1536
sbsS's3eSMS.h'
p2503
g333
(g1632
g335
Ntp2504
Rp2505
(dp2506
g1636
g1644
sg1637
g1871
sg359
S'c:/marmalade/7.5/s3e/h/ext/s3eSMS.h'
p2507
sbsS'limits.h'
p2508
g333
(g1632
g335
Ntp2509
Rp2510
(dp2511
g1636
g1644
sg1637
g1666
sg359
S'c:/marmalade/7.5/s3e/h/std/limits.h'
p2512
sbsS'scene.h'
p2513
g333
(g1632
g335
Ntp2514
Rp2515
(dp2516
g1636
g1202
sg1637
g1788
sg359
g1251
sbsS'IwMaterial.h'
p2517
g333
(g1632
g335
Ntp2518
Rp2519
(dp2520
g1636
g1439
sg1637
g1778
sg359
g1468
sbsS'PVRTexTool_interface.cpp'
p2521
g333
(g1632
g335
Ntp2522
Rp2523
(dp2524
g1636
g1267
sg1637
(lp2525
g1259
ag1261
ag1263
asg359
g1268
sbsS'IwGxSurface.h'
p2526
g333
(g1632
g335
Ntp2527
Rp2528
(dp2529
g1636
g1439
sg1637
g1778
sg359
g1454
sbsS's3eSocket.h'
p2530
g333
(g1632
g335
Ntp2531
Rp2532
(dp2533
g1636
g1644
sg1637
g1660
sg359
S'c:/marmalade/7.5/s3e/h/s3eSocket.h'
p2534
sbsS'IwAutoFile.h'
p2535
g333
(g1632
g335
Ntp2536
Rp2537
(dp2538
g1636
g1503
sg1637
g1673
sg359
g1564
sbsS'ipc.h'
p2539
g333
(g1632
g335
Ntp2540
Rp2541
(dp2542
g1636
g1644
sg1637
g1797
sg359
S'c:/marmalade/7.5/s3e/h/std/sys/ipc.h'
p2543
sbsS'poll_1.h'
p2544
g333
(g1632
g335
Ntp2545
Rp2546
(dp2547
g1636
g1644
sg1637
g1797
sg359
S'c:/marmalade/7.5/s3e/h/std/sys/poll.h'
p2548
sbsS's3eThread.h'
p2549
g333
(g1632
g335
Ntp2550
Rp2551
(dp2552
g1636
g1644
sg1637
g1660
sg359
S'c:/marmalade/7.5/s3e/h/s3eThread.h'
p2553
sbsS'ucontext.h'
p2554
g333
(g1632
g335
Ntp2555
Rp2556
(dp2557
g1636
g1644
sg1637
g1666
sg359
S'c:/marmalade/7.5/s3e/h/std/ucontext.h'
p2558
sbsS'time.h'
p2559
g333
(g1632
g335
Ntp2560
Rp2561
(dp2562
g1636
g1644
sg1637
g1666
sg359
S'c:/marmalade/7.5/s3e/h/std/time.h'
p2563
sbsS'jchuff.h'
p2564
g333
(g1632
g335
Ntp2565
Rp2566
(dp2567
g1636
g1104
sg1637
g1732
sg359
g1121
sbsS'IwSoundPCM.cpp'
p2568
g333
(g1632
g335
Ntp2569
Rp2570
(dp2571
g1636
g1145
sg1637
g1684
sg359
g1166
sbsS's3eSoundRecord.h'
p2572
g333
(g1632
g335
Ntp2573
Rp2574
(dp2575
g1636
g1644
sg1637
g1660
sg359
S'c:/marmalade/7.5/s3e/h/s3eSoundRecord.h'
p2576
sbsS'IwFibre.h'
p2577
g333
(g1632
g335
Ntp2578
Rp2579
(dp2580
g1636
g1503
sg1637
g1673
sg359
g1589
sbsS's3eVersion.h'
p2581
g333
(g1632
g335
Ntp2582
Rp2583
(dp2584
g1636
g1644
sg1637
g1660
sg359
S'c:/marmalade/7.5/s3e/h/s3eVersion.h'
p2585
sbsS'input.cpp'
p2586
g333
(g1632
g335
Ntp2587
Rp2588
(dp2589
g1636
g1202
sg1637
g1788
sg359
g1223
sbsS'IwSoundGroup.h'
p2590
g333
(g1632
g335
Ntp2591
Rp2592
(dp2593
g1636
g1145
sg1637
g1684
sg359
g1191
sbsS'IwSoundWAV.h'
p2594
g333
(g1632
g335
Ntp2595
Rp2596
(dp2597
g1636
g1145
sg1637
g1684
sg359
g1172
sbsS'IwGxFontGlyph.h'
p2598
g333
(g1632
g335
Ntp2599
Rp2600
(dp2601
g1636
g1317
sg1637
g1638
sg359
g1315
sbsS's3eTypes.h'
p2602
g333
(g1632
g335
Ntp2603
Rp2604
(dp2605
g1636
g1644
sg1637
g1660
sg359
S'c:/marmalade/7.5/s3e/h/s3eTypes.h'
p2606
sbsS'IwSoundSpec.h'
p2607
g333
(g1632
g335
Ntp2608
Rp2609
(dp2610
g1636
g1145
sg1637
g1684
sg359
g1160
sbsS'signal_2.h'
p2611
g333
(g1632
g335
Ntp2612
Rp2613
(dp2614
g1636
g1644
sg1637
g1645
sg359
S'c:/marmalade/7.5/s3e/h/std/c++/signal.h'
p2615
sbsS'termios.h'
p2616
g333
(g1632
g335
Ntp2617
Rp2618
(dp2619
g1636
g1644
sg1637
g1666
sg359
S'c:/marmalade/7.5/s3e/h/std/termios.h'
p2620
sbsS'iw2dscenegraph.mkf'
p2621
g333
(g1632
g335
Ntp2622
Rp2623
(dp2624
g1636
g1288
sg1637
g1959
sg359
g1286
sbsS'slist'
p2625
g333
(g1632
g335
Ntp2626
Rp2627
(dp2628
g1636
g1644
sg1637
g1645
sg359
S'c:/marmalade/7.5/s3e/h/std/c++/slist'
p2629
sbsS'cstdlib'
p2630
g333
(g1632
g335
Ntp2631
Rp2632
(dp2633
g1636
g1644
sg1637
g1645
sg359
S'c:/marmalade/7.5/s3e/h/std/c++/cstdlib'
p2634
sbsS's3eLocation.h'
p2635
g333
(g1632
g335
Ntp2636
Rp2637
(dp2638
g1636
g1644
sg1637
g1660
sg359
S'c:/marmalade/7.5/s3e/h/s3eLocation.h'
p2639
sbsS'IwMemBucketHelpers.h'
p2640
g333
(g1632
g335
Ntp2641
Rp2642
(dp2643
g1636
g1503
sg1637
g1673
sg359
g1540
sbsS's3eHash.h'
p2644
g333
(g1632
g335
Ntp2645
Rp2646
(dp2647
g1636
g1644
sg1637
g1660
sg359
S'c:/marmalade/7.5/s3e/h/s3eHash.h'
p2648
sbsS'IwSoundGroup.cpp'
p2649
g333
(g1632
g335
Ntp2650
Rp2651
(dp2652
g1636
g1145
sg1637
g1684
sg359
g1143
sbsS'Enemymanager.h'
p2653
g333
(g1632
g335
Ntp2654
Rp2655
(dp2656
g1636
g1202
sg1637
g1788
sg359
g1237
sbsS'IwGeomFMat.h'
p2657
g333
(g1632
g335
Ntp2658
Rp2659
(dp2660
g1636
g1339
sg1637
g1698
sg359
g1367
sbsS'type_traits.h'
p2661
g333
(g1632
g335
Ntp2662
Rp2663
(dp2664
g1636
g1644
sg1637
g1645
sg359
S'c:/marmalade/7.5/s3e/h/std/c++/type_traits.h'
p2665
sbsS's3eAtomic.h'
p2666
g333
(g1632
g335
Ntp2667
Rp2668
(dp2669
g1636
g1644
sg1637
g1660
sg359
S'c:/marmalade/7.5/s3e/h/s3eAtomic.h'
p2670
sbsS'IwMenu.h'
p2671
g333
(g1632
g335
Ntp2672
Rp2673
(dp2674
g1636
g1503
sg1637
g1673
sg359
g1593
sbsS'IwResHandlerITX.h'
p2675
g333
(g1632
g335
Ntp2676
Rp2677
(dp2678
g1636
g1415
sg1637
g1917
sg359
g1413
sbsS'IwSoundData.h'
p2679
g333
(g1632
g335
Ntp2680
Rp2681
(dp2682
g1636
g1145
sg1637
g1684
sg359
g1184
sbsS'IwArray.h'
p2683
g333
(g1632
g335
Ntp2684
Rp2685
(dp2686
g1636
g1503
sg1637
g1673
sg359
g1591
sbsS'IwUTF8.h'
p2687
g333
(g1632
g335
Ntp2688
Rp2689
(dp2690
g1636
g1503
sg1637
g1673
sg359
g1534
sbsS'math_rvct.h'
p2691
g333
(g1632
g335
Ntp2692
Rp2693
(dp2694
g1636
g1644
sg1637
g1666
sg359
S'c:/marmalade/7.5/s3e/h/std/math_rvct.h'
p2695
sbsS'IwUtil.h'
p2696
g333
(g1632
g335
Ntp2697
Rp2698
(dp2699
g1636
g1503
sg1637
g1673
sg359
g1575
sbsS'IwFColour.h'
p2700
g333
(g1632
g335
Ntp2701
Rp2702
(dp2703
g1636
g1439
sg1637
g1778
sg359
g1474
sbsS'wctype.h'
p2704
g333
(g1632
g335
Ntp2705
Rp2706
(dp2707
g1636
g1644
sg1637
g1666
sg359
S'c:/marmalade/7.5/s3e/h/std/wctype.h'
p2708
sbsS'mainMenu.h'
p2709
g333
(g1632
g335
Ntp2710
Rp2711
(dp2712
g1636
g1202
sg1637
g1788
sg359
g1200
sbsS'cstddef'
p2713
g333
(g1632
g335
Ntp2714
Rp2715
(dp2716
g1636
g1644
sg1637
g1645
sg359
S'c:/marmalade/7.5/s3e/h/std/c++/cstddef'
p2717
sbsS'assert.h'
p2718
g333
(g1632
g335
Ntp2719
Rp2720
(dp2721
g1636
g1644
sg1637
g1666
sg359
S'c:/marmalade/7.5/s3e/h/std/assert.h'
p2722
sbsS'mman.h'
p2723
g333
(g1632
g335
Ntp2724
Rp2725
(dp2726
g1636
g1644
sg1637
g1797
sg359
S'c:/marmalade/7.5/s3e/h/std/sys/mman.h'
p2727
sbsS'IwRandom.h'
p2728
g333
(g1632
g335
Ntp2729
Rp2730
(dp2731
g1636
g1503
sg1637
g1673
sg359
g1530
sbsS'libgen.h'
p2732
g333
(g1632
g335
Ntp2733
Rp2734
(dp2735
g1636
g1644
sg1637
g1666
sg359
S'c:/marmalade/7.5/s3e/h/std/libgen.h'
p2736
sbsS'utsname.h'
p2737
g333
(g1632
g335
Ntp2738
Rp2739
(dp2740
g1636
g1644
sg1637
g1797
sg359
S'c:/marmalade/7.5/s3e/h/std/sys/utsname.h'
p2741
sbsS'wait.h'
p2742
g333
(g1632
g335
Ntp2743
Rp2744
(dp2745
g1636
g1644
sg1637
g1797
sg359
S'c:/marmalade/7.5/s3e/h/std/sys/wait.h'
p2746
sbsS'param.h'
p2747
g333
(g1632
g335
Ntp2748
Rp2749
(dp2750
g1636
g1644
sg1637
g1797
sg359
S'c:/marmalade/7.5/s3e/h/std/sys/param.h'
p2751
sbsS'IwDivide.h'
p2752
g333
(g1632
g335
Ntp2753
Rp2754
(dp2755
g1636
g1503
sg1637
g1673
sg359
g1510
sbsS'Iw2DSceneGraphCore.cpp'
p2756
g333
(g1632
g335
Ntp2757
Rp2758
(dp2759
g1636
g1496
sg1637
(lp2760
S"'Marmalade Studio'"
p2761
ag1489
asg359
g1497
sbsS'IwResManager.h'
p2762
g333
(g1632
g335
Ntp2763
Rp2764
(dp2765
g1636
g1415
sg1637
g1917
sg359
g1422
sbsS'IwSoundManager.h'
p2766
g333
(g1632
g335
Ntp2767
Rp2768
(dp2769
g1636
g1145
sg1637
g1684
sg359
g1164
sbsS'cwctype'
p2770
g333
(g1632
g335
Ntp2771
Rp2772
(dp2773
g1636
g1644
sg1637
g1645
sg359
S'c:/marmalade/7.5/s3e/h/std/c++/cwctype'
p2774
sbsS'set'
p2775
g333
(g1632
g335
Ntp2776
Rp2777
(dp2778
g1636
g1644
sg1637
g1645
sg359
S'c:/marmalade/7.5/s3e/h/std/c++/set'
p2779
sbsS'IwGeomSQuat.h'
p2780
g333
(g1632
g335
Ntp2781
Rp2782
(dp2783
g1636
g1339
sg1637
g1698
sg359
g1363
sbsS'locale'
p2784
g333
(g1632
g335
Ntp2785
Rp2786
(dp2787
g1636
g1644
sg1637
g1645
sg359
S'c:/marmalade/7.5/s3e/h/std/c++/locale'
p2788
sbsS'cstdio'
p2789
g333
(g1632
g335
Ntp2790
Rp2791
(dp2792
g1636
g1644
sg1637
g1645
sg359
S'c:/marmalade/7.5/s3e/h/std/c++/cstdio'
p2793
sbsS'cdjpeg.h'
p2794
g333
(g1632
g335
Ntp2795
Rp2796
(dp2797
g1636
g1104
sg1637
g1732
sg359
g1123
sbsS'audio.h'
p2798
g333
(g1632
g335
Ntp2799
Rp2800
(dp2801
g1636
g1202
sg1637
g1788
sg359
g1217
sbsS'IwList.h'
p2802
g333
(g1632
g335
Ntp2803
Rp2804
(dp2805
g1636
g1503
sg1637
g1673
sg359
g1562
sbsS'pauseMenu.cpp'
p2806
g333
(g1632
g335
Ntp2807
Rp2808
(dp2809
g1636
g1202
sg1637
g1788
sg359
g1249
sbsS'inttypes.h'
p2810
g333
(g1632
g335
Ntp2811
Rp2812
(dp2813
g1636
g1644
sg1637
g1666
sg359
S'c:/marmalade/7.5/s3e/h/std/inttypes.h'
p2814
sbsS'dirent.h'
p2815
g333
(g1632
g335
Ntp2816
Rp2817
(dp2818
g1636
g1644
sg1637
g1666
sg359
S'c:/marmalade/7.5/s3e/h/std/dirent.h'
p2819
sbsS'IwGeomVec3.h'
p2820
g333
(g1632
g335
Ntp2821
Rp2822
(dp2823
g1636
g1339
sg1637
g1698
sg359
g1357
sbsS'transupp.h'
p2824
g333
(g1632
g335
Ntp2825
Rp2826
(dp2827
g1636
g1104
sg1637
g1732
sg359
g1109
sbsS'IwMath.h'
p2828
g333
(g1632
g335
Ntp2829
Rp2830
(dp2831
g1636
g1503
sg1637
g1673
sg359
g1504
sbsS'IwGeomQuat.h'
p2832
g333
(g1632
g335
Ntp2833
Rp2834
(dp2835
g1636
g1339
sg1637
g1698
sg359
g1407
sbsS'glplatform.h'
p2836
g333
(g1632
g335
Ntp2837
Rp2838
(dp2839
g1636
g1644
sg1637
g2010
sg359
S'c:/marmalade/7.5/s3e/h/GLES/glplatform.h'
p2840
sbsS's3e-default.mkf'
p2841
g333
(g1632
g335
Ntp2842
Rp2843
(dp2844
g1636
g1628
sg1637
(lp2845
g1624
asg359
g1626
sbsS'iwgl.config.txt'
p2846
g333
(g1632
g335
Ntp2847
Rp2848
(dp2849
g1636
g1296
sg1637
g1654
sg359
g1297
sbsS'bitset'
p2850
g333
(g1632
g335
Ntp2851
Rp2852
(dp2853
g1636
g1644
sg1637
g1645
sg359
S'c:/marmalade/7.5/s3e/h/std/c++/bitset'
p2854
sbsS'alloca.h'
p2855
g333
(g1632
g335
Ntp2856
Rp2857
(dp2858
g1636
g1644
sg1637
g1666
sg359
S'c:/marmalade/7.5/s3e/h/std/alloca.h'
p2859
sbsS'IwResHandler.h'
p2860
g333
(g1632
g335
Ntp2861
Rp2862
(dp2863
g1636
g1415
sg1637
g1917
sg359
g1431
sbsS'IwResHandlerMTL.h'
p2864
g333
(g1632
g335
Ntp2865
Rp2866
(dp2867
g1636
g1439
sg1637
g1778
sg359
g1446
sbsS'IwRuntime.h'
p2868
g333
(g1632
g335
Ntp2869
Rp2870
(dp2871
g1636
g1503
sg1637
g1673
sg359
g1554
sbsS'enemy.cpp'
p2872
g333
(g1632
g335
Ntp2873
Rp2874
(dp2875
g1636
g1202
sg1637
g1788
sg359
g1229
sbsS'limits'
p2876
g333
(g1632
g335
Ntp2877
Rp2878
(dp2879
g1636
g1644
sg1637
g1645
sg359
S'c:/marmalade/7.5/s3e/h/std/c++/limits'
p2880
sbsS'IwGeomBBox.h'
p2881
g333
(g1632
g335
Ntp2882
Rp2883
(dp2884
g1636
g1339
sg1637
g1698
sg359
g1397
sbsS's3eContacts.h'
p2885
g333
(g1632
g335
Ntp2886
Rp2887
(dp2888
g1636
g1644
sg1637
g1660
sg359
S'c:/marmalade/7.5/s3e/h/s3eContacts.h'
p2889
sbsS's3eLicense.h'
p2890
g333
(g1632
g335
Ntp2891
Rp2892
(dp2893
g1636
g1644
sg1637
g1660
sg359
S'c:/marmalade/7.5/s3e/h/s3eLicense.h'
p2894
sbsS'iwgx.config.txt'
p2895
g333
(g1632
g335
Ntp2896
Rp2897
(dp2898
g1636
g1439
sg1637
g1778
sg359
g1481
sbsS'IwTextParser.h'
p2899
g333
(g1632
g335
Ntp2900
Rp2901
(dp2902
g1636
g1503
sg1637
g1673
sg359
g1583
sbsS's3eTimer.h'
p2903
g333
(g1632
g335
Ntp2904
Rp2905
(dp2906
g1636
g1644
sg1637
g1660
sg359
S'c:/marmalade/7.5/s3e/h/s3eTimer.h'
p2907
sbsS'IwGeomVec.h'
p2908
g333
(g1632
g335
Ntp2909
Rp2910
(dp2911
g1636
g1339
sg1637
g1698
sg359
g1383
sbsS'IwSerialise.h'
p2912
g333
(g1632
g335
Ntp2913
Rp2914
(dp2915
g1636
g1503
sg1637
g1673
sg359
g1601
sbsS'cstdarg'
p2916
g333
(g1632
g335
Ntp2917
Rp2918
(dp2919
g1636
g1644
sg1637
g1645
sg359
S'c:/marmalade/7.5/s3e/h/std/c++/cstdarg'
p2920
sbsS'gl2ext.h'
p2921
g333
(g1632
g335
Ntp2922
Rp2923
(dp2924
g1636
g1644
sg1637
g1909
sg359
S'c:/marmalade/7.5/s3e/h/GLES2/gl2ext.h'
p2925
sbsS'BackgroundEntity.h'
p2926
g333
(g1632
g335
Ntp2927
Rp2928
(dp2929
g1636
g1202
sg1637
g1788
sg359
g1243
sbsS'IwChar.h'
p2930
g333
(g1632
g335
Ntp2931
Rp2932
(dp2933
g1636
g1503
sg1637
g1673
sg359
g1528
sbsS's3eSound.h'
p2934
g333
(g1632
g335
Ntp2935
Rp2936
(dp2937
g1636
g1644
sg1637
g1660
sg359
S'c:/marmalade/7.5/s3e/h/s3eSound.h'
p2938
sbsS's3eIOSBackgroundAudio.h'
p2939
g333
(g1632
g335
Ntp2940
Rp2941
(dp2942
g1636
g1644
sg1637
g1871
sg359
S'c:/marmalade/7.5/s3e/h/ext/s3eIOSBackgroundAudio.h'
p2943
sbsS'exception.h'
p2944
g333
(g1632
g335
Ntp2945
Rp2946
(dp2947
g1636
g1644
sg1637
g1645
sg359
S'c:/marmalade/7.5/s3e/h/std/c++/exception.h'
p2948
sbsS'iwgeom.config.txt'
p2949
g333
(g1632
g335
Ntp2950
Rp2951
(dp2952
g1636
g1339
sg1637
g1698
sg359
g1405
sbsS'Shark.h'
p2953
g333
(g1632
g335
Ntp2954
Rp2955
(dp2956
g1636
g1202
sg1637
g1788
sg359
g1233
sbsS'iwgx.mkf'
p2957
g333
(g1632
g335
Ntp2958
Rp2959
(dp2960
g1636
g1480
sg1637
g1778
sg359
g1478
sbsS'gl.h'
p2961
g333
(g1632
g335
Ntp2962
Rp2963
(dp2964
g1636
g1644
sg1637
g2010
sg359
S'c:/marmalade/7.5/s3e/h/GLES/gl.h'
p2965
sbsS'zlib.h'
p2966
g333
(g1632
g335
Ntp2967
Rp2968
(dp2969
g1636
g1608
sg1637
g2351
sg359
g1609
sbsS'temp_defines_release.h'
p2970
g333
(g1632
g335
Ntp2971
Rp2972
(dp2973
g1636
(lp2974
sg1637
(lp2975
S"'generated files'"
p2976
asg359
S'c:/Marmalade/7.5/examples/GameTutorial/CPP/marm1/build_stage4_vc12/temp_defines_release.h'
p2977
sbsS'iwgl.mkf'
p2978
g333
(g1632
g335
Ntp2979
Rp2980
(dp2981
g1636
g1293
sg1637
g1654
sg359
g1291
sbsS'IwColour.h'
p2982
g333
(g1632
g335
Ntp2983
Rp2984
(dp2985
g1636
g1439
sg1637
g1778
sg359
g1483
sbsS's3eLibrary.h'
p2986
g333
(g1632
g335
Ntp2987
Rp2988
(dp2989
g1636
g1644
sg1637
g1871
sg359
S'c:/marmalade/7.5/s3e/h/ext/s3eLibrary.h'
p2990
sbsS'types.h'
p2991
g333
(g1632
g335
Ntp2992
Rp2993
(dp2994
g1636
g1644
sg1637
g1797
sg359
S'c:/marmalade/7.5/s3e/h/std/sys/types.h'
p2995
sbsS'ifaddrs.h'
p2996
g333
(g1632
g335
Ntp2997
Rp2998
(dp2999
g1636
g1644
sg1637
g1666
sg359
S'c:/marmalade/7.5/s3e/h/std/ifaddrs.h'
p3000
sbsS'strstream'
p3001
g333
(g1632
g335
Ntp3002
Rp3003
(dp3004
g1636
g1644
sg1637
g1645
sg359
S'c:/marmalade/7.5/s3e/h/std/c++/strstream'
p3005
sbsS'IwTween.cpp'
p3006
g333
(g1632
g335
Ntp3007
Rp3008
(dp3009
g1636
g1618
sg1637
g2170
sg359
g1619
sbsS'exception'
p3010
g333
(g1632
g335
Ntp3011
Rp3012
(dp3013
g1636
g1644
sg1637
g1645
sg359
S'c:/marmalade/7.5/s3e/h/std/c++/exception'
p3014
sbsS'Enemymanager.cpp'
p3015
g333
(g1632
g335
Ntp3016
Rp3017
(dp3018
g1636
g1202
sg1637
g1788
sg359
g1211
sbsS'rlocks.h'
p3019
g333
(g1632
g335
Ntp3020
Rp3021
(dp3022
g1636
g1644
sg1637
g1645
sg359
S'c:/marmalade/7.5/s3e/h/std/c++/rlocks.h'
p3023
sbsS'ioctl.h'
p3024
g333
(g1632
g335
Ntp3025
Rp3026
(dp3027
g1636
g1644
sg1637
g1797
sg359
S'c:/marmalade/7.5/s3e/h/std/sys/ioctl.h'
p3028
sbsS'sem.h'
p3029
g333
(g1632
g335
Ntp3030
Rp3031
(dp3032
g1636
g1644
sg1637
g1797
sg359
S'c:/marmalade/7.5/s3e/h/std/sys/sem.h'
p3033
sbsS'jinclude.h'
p3034
g333
(g1632
g335
Ntp3035
Rp3036
(dp3037
g1636
g1104
sg1637
g1732
sg359
g1111
sbsS'IwEvent.h'
p3038
g333
(g1632
g335
Ntp3039
Rp3040
(dp3041
g1636
g1503
sg1637
g1673
sg359
g1587
sbsS'IwOptimiseSize.h'
p3042
g333
(g1632
g335
Ntp3043
Rp3044
(dp3045
g1636
g1503
sg1637
g1673
sg359
g1552
sbsS'iwgxfont_public.defines.txt'
p3046
g333
(g1632
g335
Ntp3047
Rp3048
(dp3049
g1636
g1317
sg1637
g1638
sg359
g1333
sbsS'iconv.h'
p3050
g333
(g1632
g335
Ntp3051
Rp3052
(dp3053
g1636
g1644
sg1637
g1666
sg359
S'c:/marmalade/7.5/s3e/h/std/iconv.h'
p3054
sbsS's3eDevice.h'
p3055
g333
(g1632
g335
Ntp3056
Rp3057
(dp3058
g1636
g1644
sg1637
g1660
sg359
S'c:/marmalade/7.5/s3e/h/s3eDevice.h'
p3059
sbsS'IwGeomSphere.h'
p3060
g333
(g1632
g335
Ntp3061
Rp3062
(dp3063
g1636
g1339
sg1637
g1698
sg359
g1340
sbsS'tiniconv.mkf'
p3064
g333
(g1632
g335
Ntp3065
Rp3066
(dp3067
g1636
g1135
sg1637
g2123
sg359
g1133
sbsS'iw2dscenegraph.defines.txt'
p3068
g333
(g1632
g335
Ntp3069
Rp3070
(dp3071
g1636
g1281
sg1637
g1959
sg359
g1282
sbsS'jdct.h'
p3072
g333
(g1632
g335
Ntp3073
Rp3074
(dp3075
g1636
g1104
sg1637
g1732
sg359
g1115
sbsS'cctype'
p3076
g333
(g1632
g335
Ntp3077
Rp3078
(dp3079
g1636
g1644
sg1637
g1645
sg359
S'c:/marmalade/7.5/s3e/h/std/c++/cctype'
p3080
sbsS'IwSoundADPCM.cpp'
p3081
g333
(g1632
g335
Ntp3082
Rp3083
(dp3084
g1636
g1145
sg1637
g1684
sg359
g1178
sbsS's3eConfig.h'
p3085
g333
(g1632
g335
Ntp3086
Rp3087
(dp3088
g1636
g1644
sg1637
g1660
sg359
S'c:/marmalade/7.5/s3e/h/s3eConfig.h'
p3089
sbsS'IwHashString.h'
p3090
g333
(g1632
g335
Ntp3091
Rp3092
(dp3093
g1636
g1503
sg1637
g1673
sg359
g1568
sbsS'stat.h'
p3094
g333
(g1632
g335
Ntp3095
Rp3096
(dp3097
g1636
g1644
sg1637
g1797
sg359
S'c:/marmalade/7.5/s3e/h/std/sys/stat.h'
p3098
sbsS'byteswap.h'
p3099
g333
(g1632
g335
Ntp3100
Rp3101
(dp3102
g1636
g1644
sg1637
g1666
sg359
S'c:/marmalade/7.5/s3e/h/std/byteswap.h'
p3103
sbsS'iwresmanager.mkf'
p3104
g333
(g1632
g335
Ntp3105
Rp3106
(dp3107
g1636
g1426
sg1637
g1917
sg359
g1424
sbsS'IwUtilInitTerm.h'
p3108
g333
(g1632
g335
Ntp3109
Rp3110
(dp3111
g1636
g1503
sg1637
g1673
sg359
g1597
sbsS'pthread_1.h'
p3112
g333
(g1632
g335
Ntp3113
Rp3114
(dp3115
g1636
g1644
sg1637
g1645
sg359
S'c:/marmalade/7.5/s3e/h/std/c++/pthread.h'
p3116
sbsS'iw2d.mkf'
p3117
g333
(g1632
g335
Ntp3118
Rp3119
(dp3120
g1636
g1312
sg1637
g1737
sg359
g1310
sbsS'complex'
p3121
g333
(g1632
g335
Ntp3122
Rp3123
(dp3124
g1636
g1644
sg1637
g1645
sg359
S'c:/marmalade/7.5/s3e/h/std/c++/complex'
p3125
sbsS'algorithm'
p3126
g333
(g1632
g335
Ntp3127
Rp3128
(dp3129
g1636
g1644
sg1637
g1645
sg359
S'c:/marmalade/7.5/s3e/h/std/c++/algorithm'
p3130
sbsS's3e.icf'
p3131
g333
(g1632
g335
Ntp3132
Rp3133
(dp3134
g1636
g1644
sg1637
g1660
sg359
S'c:/marmalade/7.5/s3e/s3e.icf'
p3135
sbsS'resources.h'
p3136
g333
(g1632
g335
Ntp3137
Rp3138
(dp3139
g1636
g1202
sg1637
g1788
sg359
g1219
sbsS'IwGxFontState.h'
p3140
g333
(g1632
g335
Ntp3141
Rp3142
(dp3143
g1636
g1317
sg1637
g1638
sg359
g1322
sbsS'marmaladeexampleresources.mkf'
p3144
g333
(g1632
g335
Ntp3145
Rp3146
(dp3147
g1636
g1197
sg1637
(lp3148
g1193
asg359
g1195
sbsS'stdio.h'
p3149
g333
(g1632
g335
Ntp3150
Rp3151
(dp3152
g1636
g1644
sg1637
g1666
sg359
S'c:/marmalade/7.5/s3e/h/std/stdio.h'
p3153
sbsS'jmemsys.h'
p3154
g333
(g1632
g335
Ntp3155
Rp3156
(dp3157
g1636
g1104
sg1637
g1732
sg359
g1117
sbsS'ios'
p3158
g333
(g1632
g335
Ntp3159
Rp3160
(dp3161
g1636
g1644
sg1637
g1645
sg359
S'c:/marmalade/7.5/s3e/h/std/c++/ios'
p3162
sbsS'IwTween.h'
p3163
g333
(g1632
g335
Ntp3164
Rp3165
(dp3166
g1636
g1618
sg1637
g2170
sg359
g1616
sbsS'PVRTexTool.defines.txt'
p3167
g333
(g1632
g335
Ntp3168
Rp3169
(dp3170
g1636
g1267
sg1637
g2525
sg359
g1265
sbsS'stack'
p3171
g333
(g1632
g335
Ntp3172
Rp3173
(dp3174
g1636
g1644
sg1637
g1645
sg359
S'c:/marmalade/7.5/s3e/h/std/c++/stack'
p3175
sbsS'IwSoundParams.h'
p3176
g333
(g1632
g335
Ntp3177
Rp3178
(dp3179
g1636
g1145
sg1637
g1684
sg359
g1176
sbsS'new.h'
p3180
g333
(g1632
g335
Ntp3181
Rp3182
(dp3183
g1636
g1644
sg1637
g1645
sg359
S'c:/marmalade/7.5/s3e/h/std/c++/new.h'
p3184
sbsS's3eEMail.h'
p3185
g333
(g1632
g335
Ntp3186
Rp3187
(dp3188
g1636
g1644
sg1637
g1871
sg359
S'c:/marmalade/7.5/s3e/h/ext/s3eEMail.h'
p3189
sbsS's3eVideo.h'
p3190
g333
(g1632
g335
Ntp3191
Rp3192
(dp3193
g1636
g1644
sg1637
g1660
sg359
S'c:/marmalade/7.5/s3e/h/s3eVideo.h'
p3194
sbsS'pngconf.h'
p3195
g333
(g1632
g335
Ntp3196
Rp3197
(dp3198
g1636
g1090
sg1637
g2407
sg359
g1091
sbsS'pwd.h'
p3199
g333
(g1632
g335
Ntp3200
Rp3201
(dp3202
g1636
g1644
sg1637
g1666
sg359
S'c:/marmalade/7.5/s3e/h/std/pwd.h'
p3203
sbsS'IwOptimiseThumb.h'
p3204
g333
(g1632
g335
Ntp3205
Rp3206
(dp3207
g1636
g1503
sg1637
g1673
sg359
g1570
sbsS'gl3.h'
p3208
g333
(g1632
g335
Ntp3209
Rp3210
(dp3211
g1636
g1644
sg1637
g1970
sg359
S'c:/marmalade/7.5/s3e/h/GLES3/gl3.h'
p3212
sbsS'IwClip.h'
p3213
g333
(g1632
g335
Ntp3214
Rp3215
(dp3216
g1636
g1439
sg1637
g1778
sg359
g1452
sbsS'IwSoundInst.h'
p3217
g333
(g1632
g335
Ntp3218
Rp3219
(dp3220
g1636
g1145
sg1637
g1684
sg359
g1156
sbsS'iwresmanager.config.txt'
p3221
g333
(g1632
g335
Ntp3222
Rp3223
(dp3224
g1636
g1415
sg1637
g1917
sg359
g1427
sbsS'IwGxShaderTechnique.h'
p3225
g333
(g1632
g335
Ntp3226
Rp3227
(dp3228
g1636
g1439
sg1637
g1778
sg359
g1464
sbsS'IwCore.h'
p3229
g333
(g1632
g335
Ntp3230
Rp3231
(dp3232
g1636
g1503
sg1637
g1673
sg359
g1508
sbsS'cfloat'
p3233
g333
(g1632
g335
Ntp3234
Rp3235
(dp3236
g1636
g1644
sg1637
g1645
sg359
S'c:/marmalade/7.5/s3e/h/std/c++/cfloat'
p3237
sbsS'IwGeomMat2D.h'
p3238
g333
(g1632
g335
Ntp3239
Rp3240
(dp3241
g1636
g1339
sg1637
g1698
sg359
g1371
sbsS'IwAllocator.h'
p3242
g333
(g1632
g335
Ntp3243
Rp3244
(dp3245
g1636
g1503
sg1637
g1673
sg359
g1538
sbsS'Levelmanager.cpp'
p3246
g333
(g1632
g335
Ntp3247
Rp3248
(dp3249
g1636
g1202
sg1637
g1788
sg359
g1239
sbsS'IwPath.h'
p3250
g333
(g1632
g335
Ntp3251
Rp3252
(dp3253
g1636
g1503
sg1637
g1673
sg359
g1558
sbsS'iwgxfont.mkf'
p3254
g333
(g1632
g335
Ntp3255
Rp3256
(dp3257
g1636
g1328
sg1637
g1638
sg359
g1326
sbsS'IwTexture.h'
p3258
g333
(g1632
g335
Ntp3259
Rp3260
(dp3261
g1636
g1439
sg1637
g1778
sg359
g1442
sbsS'IwGeomVec.h.tpl'
p3262
g333
(g1632
g335
Ntp3263
Rp3264
(dp3265
g1636
g1339
sg1637
g1698
sg359
g1381
sbsS's3eAccelerometer.h'
p3266
g333
(g1632
g335
Ntp3267
Rp3268
(dp3269
g1636
g1644
sg1637
g1660
sg359
S'c:/marmalade/7.5/s3e/h/s3eAccelerometer.h'
p3270
sbsS'setjmp.h'
p3271
g333
(g1632
g335
Ntp3272
Rp3273
(dp3274
g1636
g1644
sg1637
g1666
sg359
S'c:/marmalade/7.5/s3e/h/std/setjmp.h'
p3275
sbsS'IwSoundParams.cpp'
p3276
g333
(g1632
g335
Ntp3277
Rp3278
(dp3279
g1636
g1145
sg1637
g1684
sg359
g1162
sbsS'IwFile.h'
p3280
g333
(g1632
g335
Ntp3281
Rp3282
(dp3283
g1636
g1503
sg1637
g1673
sg359
g1579
sbsS'IwTextParseable.h'
p3284
g333
(g1632
g335
Ntp3285
Rp3286
(dp3287
g1636
g1503
sg1637
g1673
sg359
g1526
sbsS'istream.h'
p3288
g333
(g1632
g335
Ntp3289
Rp3290
(dp3291
g1636
g1644
sg1637
g1645
sg359
S'c:/marmalade/7.5/s3e/h/std/c++/istream.h'
p3292
sbsS'Level.h'
p3293
g333
(g1632
g335
Ntp3294
Rp3295
(dp3296
g1636
g1202
sg1637
g1788
sg359
g1213
sbsS'stdint.h'
p3297
g333
(g1632
g335
Ntp3298
Rp3299
(dp3300
g1636
g1644
sg1637
g1666
sg359
S'c:/marmalade/7.5/s3e/h/std/stdint.h'
p3301
sbsS'semaphore.h'
p3302
g333
(g1632
g335
Ntp3303
Rp3304
(dp3305
g1636
g1644
sg1637
g1666
sg359
S'c:/marmalade/7.5/s3e/h/std/semaphore.h'
p3306
sbsS'ctime'
p3307
g333
(g1632
g335
Ntp3308
Rp3309
(dp3310
g1636
g1644
sg1637
g1645
sg359
S'c:/marmalade/7.5/s3e/h/std/c++/ctime'
p3311
sbsS'sstream'
p3312
g333
(g1632
g335
Ntp3313
Rp3314
(dp3315
g1636
g1644
sg1637
g1645
sg359
S'c:/marmalade/7.5/s3e/h/std/c++/sstream'
p3316
sbsS'IwGeomFBBox.h'
p3317
g333
(g1632
g335
Ntp3318
Rp3319
(dp3320
g1636
g1339
sg1637
g1698
sg359
g1365
sbsS'IwDebugPrim.h'
p3321
g333
(g1632
g335
Ntp3322
Rp3323
(dp3324
g1636
g1439
sg1637
g1778
sg359
g1437
sbsS'GameScene.cpp'
p3325
g333
(g1632
g335
Ntp3326
Rp3327
(dp3328
g1636
g1202
sg1637
g1788
sg359
g1241
sbsS'IwGxFontContainer.h'
p3329
g333
(g1632
g335
Ntp3330
Rp3331
(dp3332
g1636
g1317
sg1637
g1638
sg359
g1324
sbsS'IwGeomSVec3.h'
p3333
g333
(g1632
g335
Ntp3334
Rp3335
(dp3336
g1636
g1339
sg1637
g1698
sg359
g1342
sbsS'hero.h'
p3337
g333
(g1632
g335
Ntp3338
Rp3339
(dp3340
g1636
g1202
sg1637
g1788
sg359
g1207
sbsS'iw2dscenegraphcore.mkf'
p3341
g333
(g1632
g335
Ntp3342
Rp3343
(dp3344
g1636
g1493
sg1637
g2760
sg359
g1491
sbsS's3eExt.h'
p3345
g333
(g1632
g335
Ntp3346
Rp3347
(dp3348
g1636
g1644
sg1637
g1660
sg359
S'c:/marmalade/7.5/s3e/h/s3eExt.h'
p3349
sbsS'IwGeomFVec3.h'
p3350
g333
(g1632
g335
Ntp3351
Rp3352
(dp3353
g1636
g1339
sg1637
g1698
sg359
g1401
sbsS'streambuf'
p3354
g333
(g1632
g335
Ntp3355
Rp3356
(dp3357
g1636
g1644
sg1637
g1645
sg359
S'c:/marmalade/7.5/s3e/h/std/c++/streambuf'
p3358
sbsS's3eMetrics.h'
p3359
g333
(g1632
g335
Ntp3360
Rp3361
(dp3362
g1636
g1644
sg1637
g1871
sg359
S'c:/marmalade/7.5/s3e/h/ext/s3eMetrics.h'
p3363
sbsS'Shark.cpp'
p3364
g333
(g1632
g335
Ntp3365
Rp3366
(dp3367
g1636
g1202
sg1637
g1788
sg359
g1227
sbsS'IwGxFont.h'
p3368
g333
(g1632
g335
Ntp3369
Rp3370
(dp3371
g1636
g1317
sg1637
g1638
sg359
g1331
sbsS's3eSecureStorage.h'
p3372
g333
(g1632
g335
Ntp3373
Rp3374
(dp3375
g1636
g1644
sg1637
g1660
sg359
S'c:/marmalade/7.5/s3e/h/s3eSecureStorage.h'
p3376
sbsS'string.h'
p3377
g333
(g1632
g335
Ntp3378
Rp3379
(dp3380
g1636
g1644
sg1637
g1666
sg359
S'c:/marmalade/7.5/s3e/h/std/string.h'
p3381
sbsS'IwResource.h'
p3382
g333
(g1632
g335
Ntp3383
Rp3384
(dp3385
g1636
g1503
sg1637
g1673
sg359
g1599
sbsS'IwGeomSVec2.h'
p3386
g333
(g1632
g335
Ntp3387
Rp3388
(dp3389
g1636
g1339
sg1637
g1698
sg359
g1337
sbsS'libjpeg.mkf'
p3390
g333
(g1632
g335
Ntp3391
Rp3392
(dp3393
g1636
g1100
sg1637
(lp3394
g1096
asg359
g1098
sbsS'IwGxDebug.h'
p3395
g333
(g1632
g335
Ntp3396
Rp3397
(dp3398
g1636
g1439
sg1637
g1778
sg359
g1462
sbsS'float.h'
p3399
g333
(g1632
g335
Ntp3400
Rp3401
(dp3402
g1636
g1644
sg1637
g1666
sg359
S'c:/marmalade/7.5/s3e/h/std/float.h'
p3403
sbsS'iomanip.h'
p3404
g333
(g1632
g335
Ntp3405
Rp3406
(dp3407
g1636
g1644
sg1637
g1645
sg359
S'c:/marmalade/7.5/s3e/h/std/c++/iomanip.h'
p3408
sbsS'enemy.h'
p3409
g333
(g1632
g335
Ntp3410
Rp3411
(dp3412
g1636
g1202
sg1637
g1788
sg359
g1205
sbsS'IwKeymap.h'
p3413
g333
(g1632
g335
Ntp3414
Rp3415
(dp3416
g1636
g1503
sg1637
g1673
sg359
g1544
sbsS'IwDebug.h'
p3417
g333
(g1632
g335
Ntp3418
Rp3419
(dp3420
g1636
g1503
sg1637
g1673
sg359
g1532
sbsS'IwVariableBitField.h'
p3421
g333
(g1632
g335
Ntp3422
Rp3423
(dp3424
g1636
g1503
sg1637
g1673
sg359
g1566
sbsS'IwGeomMenu.h'
p3425
g333
(g1632
g335
Ntp3426
Rp3427
(dp3428
g1636
g1339
sg1637
g1698
sg359
g1395
sbsS'IwDivTable.h'
p3429
g333
(g1632
g335
Ntp3430
Rp3431
(dp3432
g1636
g1503
sg1637
g1673
sg359
g1522
sbsS'ctype.h'
p3433
g333
(g1632
g335
Ntp3434
Rp3435
(dp3436
g1636
g1644
sg1637
g1666
sg359
S'c:/marmalade/7.5/s3e/h/std/ctype.h'
p3437
sbsS'mainMenu.cpp'
p3438
g333
(g1632
g335
Ntp3439
Rp3440
(dp3441
g1636
g1202
sg1637
g1788
sg359
g1221
sbsS'IwResGroup.h'
p3442
g333
(g1632
g335
Ntp3443
Rp3444
(dp3445
g1636
g1415
sg1637
g1917
sg359
g1429
sbsS'signal_1.h'
p3446
g333
(g1632
g335
Ntp3447
Rp3448
(dp3449
g1636
g1644
sg1637
g1797
sg359
S'c:/marmalade/7.5/s3e/h/std/sys/signal.h'
p3450
sbsS'IwSoundData.cpp'
p3451
g333
(g1632
g335
Ntp3452
Rp3453
(dp3454
g1636
g1145
sg1637
g1684
sg359
g1182
sbsS'main.cpp'
p3455
g333
(g1632
g335
Ntp3456
Rp3457
(dp3458
g1636
g1202
sg1637
g1788
sg359
g1225
sbsS'shm.h'
p3459
g333
(g1632
g335
Ntp3460
Rp3461
(dp3462
g1636
g1644
sg1637
g1797
sg359
S'c:/marmalade/7.5/s3e/h/std/sys/shm.h'
p3463
sbsS'IwManagedList.h'
p3464
g333
(g1632
g335
Ntp3465
Rp3466
(dp3467
g1636
g1503
sg1637
g1673
sg359
g1516
sbsS'prctl.h'
p3468
g333
(g1632
g335
Ntp3469
Rp3470
(dp3471
g1636
g1644
sg1637
g1797
sg359
S'c:/marmalade/7.5/s3e/h/std/sys/prctl.h'
p3472
sbsS'IwGxStream.h'
p3473
g333
(g1632
g335
Ntp3474
Rp3475
(dp3476
g1636
g1439
sg1637
g1778
sg359
g1450
sbsS'temp_defines_debug.h'
p3477
g333
(g1632
g335
Ntp3478
Rp3479
(dp3480
g1636
(lp3481
sg1637
(lp3482
g2976
asg359
S'c:/Marmalade/7.5/examples/GameTutorial/CPP/marm1/build_stage4_vc12/temp_defines_debug.h'
p3483
sbsS'utility'
p3484
g333
(g1632
g335
Ntp3485
Rp3486
(dp3487
g1636
g1644
sg1637
g1645
sg359
S'c:/marmalade/7.5/s3e/h/std/c++/utility'
p3488
sbsS'input.h'
p3489
g333
(g1632
g335
Ntp3490
Rp3491
(dp3492
g1636
g1202
sg1637
g1788
sg359
g1215
sbsS'Levelmanager.h'
p3493
g333
(g1632
g335
Ntp3494
Rp3495
(dp3496
g1636
g1202
sg1637
g1788
sg359
g1235
sbsS'IwGeomLegacy.h'
p3497
g333
(g1632
g335
Ntp3498
Rp3499
(dp3500
g1636
g1339
sg1637
g1698
sg359
g1359
sbsS'IwTPage.h'
p3501
g333
(g1632
g335
Ntp3502
Rp3503
(dp3504
g1636
g1439
sg1637
g1778
sg359
g1487
sbsS'IwResSerialise.h'
p3505
g333
(g1632
g335
Ntp3506
Rp3507
(dp3508
g1636
g1415
sg1637
g1917
sg359
g1416
sbsS's3eCrypto.h'
p3509
g333
(g1632
g335
Ntp3510
Rp3511
(dp3512
g1636
g1644
sg1637
g1660
sg359
S'c:/marmalade/7.5/s3e/h/s3eCrypto.h'
p3513
sbsS's3eKeyboard.h'
p3514
g333
(g1632
g335
Ntp3515
Rp3516
(dp3517
g1636
g1644
sg1637
g1660
sg359
S'c:/marmalade/7.5/s3e/h/s3eKeyboard.h'
p3518
sbsS'fcntl.h'
p3519
g333
(g1632
g335
Ntp3520
Rp3521
(dp3522
g1636
g1644
sg1637
g1666
sg359
S'c:/marmalade/7.5/s3e/h/std/fcntl.h'
p3523
sbsS'Iw2DSceneGraphCore.h'
p3524
g333
(g1632
g335
Ntp3525
Rp3526
(dp3527
g1636
g1496
sg1637
g2760
sg359
g1494
sbsS'memory.h'
p3528
g333
(g1632
g335
Ntp3529
Rp3530
(dp3531
g1636
g1644
sg1637
g1666
sg359
S'c:/marmalade/7.5/s3e/h/std/memory.h'
p3532
sbsS'pthread.h'
p3533
g333
(g1632
g335
Ntp3534
Rp3535
(dp3536
g1636
g1644
sg1637
g1666
sg359
S'c:/marmalade/7.5/s3e/h/std/pthread.h'
p3537
sbsS'IwGeomIntersect.h'
p3538
g333
(g1632
g335
Ntp3539
Rp3540
(dp3541
g1636
g1339
sg1637
g1698
sg359
g1385
sbsS'IwTextParserITX.h'
p3542
g333
(g1632
g335
Ntp3543
Rp3544
(dp3545
g1636
g1503
sg1637
g1673
sg359
g1542
sbsS'IwClip.inl'
p3546
g333
(g1632
g335
Ntp3547
Rp3548
(dp3549
g1636
g1439
sg1637
g1778
sg359
g1472
sbsS'Iw2DSceneGraph.cpp'
p3550
g333
(g1632
g335
Ntp3551
Rp3552
(dp3553
g1636
g1281
sg1637
g1959
sg359
g1279
sbsS'ostream.h'
p3554
g333
(g1632
g335
Ntp3555
Rp3556
(dp3557
g1636
g1644
sg1637
g1645
sg359
S'c:/marmalade/7.5/s3e/h/std/c++/ostream.h'
p3558
sbsS'stl_user_config.h'
p3559
g333
(g1632
g335
Ntp3560
Rp3561
(dp3562
g1636
g1644
sg1637
g1645
sg359
S'c:/marmalade/7.5/s3e/h/std/c++/stl_user_config.h'
p3563
sbsS'IwProfileMenu.h'
p3564
g333
(g1632
g335
Ntp3565
Rp3566
(dp3567
g1636
g1503
sg1637
g1673
sg359
g1518
sbsS'MarmaladeVersion.h'
p3568
g333
(g1632
g335
Ntp3569
Rp3570
(dp3571
g1636
g1644
sg1637
g1660
sg359
S'c:/marmalade/7.5/s3e/h/MarmaladeVersion.h'
p3572
sbsS'IwResHandlerWAV.h'
p3573
g333
(g1632
g335
Ntp3574
Rp3575
(dp3576
g1636
g1145
sg1637
g1684
sg359
g1150
sbsS'gl3platform.h'
p3577
g333
(g1632
g335
Ntp3578
Rp3579
(dp3580
g1636
g1644
sg1637
g1970
sg359
S'c:/marmalade/7.5/s3e/h/GLES3/gl3platform.h'
p3581
sbsS'ios.h'
p3582
g333
(g1632
g335
Ntp3583
Rp3584
(dp3585
g1636
g1644
sg1637
g1645
sg359
S'c:/marmalade/7.5/s3e/h/std/c++/ios.h'
p3586
sbsS'IwImageHelper.h'
p3587
g333
(g1632
g335
Ntp3588
Rp3589
(dp3590
g1636
g1503
sg1637
g1673
sg359
g1514
sbsS'hash_set'
p3591
g333
(g1632
g335
Ntp3592
Rp3593
(dp3594
g1636
g1644
sg1637
g1645
sg359
S'c:/marmalade/7.5/s3e/h/std/c++/hash_set'
p3595
sbsS'IwGeomFQuat.h'
p3596
g333
(g1632
g335
Ntp3597
Rp3598
(dp3599
g1636
g1339
sg1637
g1698
sg359
g1349
sbsS'jmorecfg.h'
p3600
g333
(g1632
g335
Ntp3601
Rp3602
(dp3603
g1636
g1104
sg1637
g1732
sg359
g1113
sbsS'eglplatform.h'
p3604
g333
(g1632
g335
Ntp3605
Rp3606
(dp3607
g1636
g1644
sg1637
g2002
sg359
S'c:/marmalade/7.5/s3e/h/EGL/eglplatform.h'
p3608
sbsS'cmath'
p3609
g333
(g1632
g335
Ntp3610
Rp3611
(dp3612
g1636
g1644
sg1637
g1645
sg359
S'c:/marmalade/7.5/s3e/h/std/c++/cmath'
p3613
sbsS'math_gcc.h'
p3614
g333
(g1632
g335
Ntp3615
Rp3616
(dp3617
g1636
g1644
sg1637
g1666
sg359
S'c:/marmalade/7.5/s3e/h/std/math_gcc.h'
p3618
sbsS's3eMemory.h'
p3619
g333
(g1632
g335
Ntp3620
Rp3621
(dp3622
g1636
g1644
sg1637
g1660
sg359
S'c:/marmalade/7.5/s3e/h/s3eMemory.h'
p3623
sbsS'strings.h'
p3624
g333
(g1632
g335
Ntp3625
Rp3626
(dp3627
g1636
g1644
sg1637
g1666
sg359
S'c:/marmalade/7.5/s3e/h/std/strings.h'
p3628
sbsS's3eFile.h'
p3629
g333
(g1632
g335
Ntp3630
Rp3631
(dp3632
g1636
g1644
sg1637
g1660
sg359
S'c:/marmalade/7.5/s3e/h/s3eFile.h'
p3633
sbsS'IwGxTypes.h'
p3634
g333
(g1632
g335
Ntp3635
Rp3636
(dp3637
g1636
g1439
sg1637
g1778
sg359
g1476
sbsS'cerrno'
p3638
g333
(g1632
g335
Ntp3639
Rp3640
(dp3641
g1636
g1644
sg1637
g1645
sg359
S'c:/marmalade/7.5/s3e/h/std/c++/cerrno'
p3642
sbsS'IwSoundManager.cpp'
p3643
g333
(g1632
g335
Ntp3644
Rp3645
(dp3646
g1636
g1145
sg1637
g1684
sg359
g1158
sbsS'main.h'
p3647
g333
(g1632
g335
Ntp3648
Rp3649
(dp3650
g1636
g1202
sg1637
g1788
sg359
g1203
sbsS'soundengine.mkf'
p3651
g333
(g1632
g335
Ntp3652
Rp3653
(dp3654
g1636
g1190
sg1637
g1684
sg359
g1188
sbsS'resource.h'
p3655
g333
(g1632
g335
Ntp3656
Rp3657
(dp3658
g1636
g1644
sg1637
g1797
sg359
S'c:/marmalade/7.5/s3e/h/std/sys/resource.h'
p3659
sbsS'clocale'
p3660
g333
(g1632
g335
Ntp3661
Rp3662
(dp3663
g1636
g1644
sg1637
g1645
sg359
S'c:/marmalade/7.5/s3e/h/std/c++/clocale'
p3664
sbsS'pvrtextool.mkf'
p3665
g333
(g1632
g335
Ntp3666
Rp3667
(dp3668
g1636
g1274
sg1637
g2279
sg359
g1272
sbsS'csetjmp'
p3669
g333
(g1632
g335
Ntp3670
Rp3671
(dp3672
g1636
g1644
sg1637
g1645
sg359
S'c:/marmalade/7.5/s3e/h/std/c++/csetjmp'
p3673
sbsS'netdb.h'
p3674
g333
(g1632
g335
Ntp3675
Rp3676
(dp3677
g1636
g1644
sg1637
g1666
sg359
S'c:/marmalade/7.5/s3e/h/std/netdb.h'
p3678
sbsS's3eAndroidJNI.h'
p3679
g333
(g1632
g335
Ntp3680
Rp3681
(dp3682
g1636
g1644
sg1637
g1871
sg359
S'c:/marmalade/7.5/s3e/h/ext/s3eAndroidJNI.h'
p3683
sbsS'stdexcept'
p3684
g333
(g1632
g335
Ntp3685
Rp3686
(dp3687
g1636
g1644
sg1637
g1645
sg359
S'c:/marmalade/7.5/s3e/h/std/c++/stdexcept'
p3688
sbsS'math.h'
p3689
g333
(g1632
g335
Ntp3690
Rp3691
(dp3692
g1636
g1644
sg1637
g1666
sg359
S'c:/marmalade/7.5/s3e/h/std/math.h'
p3693
sbsS'stdbool.h'
p3694
g333
(g1632
g335
Ntp3695
Rp3696
(dp3697
g1636
g1644
sg1637
g1666
sg359
S'c:/marmalade/7.5/s3e/h/std/stdbool.h'
p3698
sbsS'uio.h'
p3699
g333
(g1632
g335
Ntp3700
Rp3701
(dp3702
g1636
g1644
sg1637
g1797
sg359
S'c:/marmalade/7.5/s3e/h/std/sys/uio.h'
p3703
sbsS'IwUncopyable.h'
p3704
g333
(g1632
g335
Ntp3705
Rp3706
(dp3707
g1636
g1503
sg1637
g1673
sg359
g1581
sbssS'juice_build_type'
p3708
g4
sS'tests'
p3709
(lp3710
sS'project_name'
p3711
g341
sS'root_file'
p3712
g136
sS'current_root'
p3713
S'c:/Marmalade/7.5/examples/GameTutorial/CPP/marm1'
p3714
sS'dependencies'
p3715
(lp3716
sS'include_paths'
p3717
(lp3718
S'c:/marmalade/7.5/modules/iw2d/h'
p3719
aS'c:/marmalade/7.5/modules/iwgx/h'
p3720
aS'c:/marmalade/7.5/modules/iwgl/h'
p3721
aS'c:/marmalade/7.5/modules/iwutil/h'
p3722
aS'c:/marmalade/7.5/modules/third_party/libjpeg/h'
p3723
aS'c:/marmalade/7.5/modules/third_party/zlib/h'
p3724
aS'c:/marmalade/7.5/modules/third_party/libpng/h'
p3725
aS'c:/marmalade/7.5/modules/iwgeom/h'
p3726
aS'c:/marmalade/7.5/modules/iwresmanager/h'
p3727
aS'c:/marmalade/7.5/extensions/pvrtextool/h'
p3728
aS'c:/marmalade/7.5/modules/iwgxfont/h'
p3729
aS'c:/marmalade/7.5/modules/third_party/tiniconv/source'
p3730
aS'c:/marmalade/7.5/modules/iw2dscenegraph/h'
p3731
aS'c:/marmalade/7.5/modules/iw2dscenegraphcore/h'
p3732
aS'c:/marmalade/7.5/modules/iwtween/h'
p3733
aS'c:/marmalade/7.5/examples/gametutorial/cpp/modules/soundengine/h'
p3734
aS'c:/marmalade/7.5/examples/gametutorial/cpp/modules/soundengine/source'
p3735
aS'c:/marmalade/7.5/s3e/h'
p3736
aS'c:/marmalade/7.5/s3e/h/ext'
p3737
aS'c:/marmalade/7.5/s3e/h/std'
p3738
aS'c:/marmalade/7.5/s3e/h/std/c++'
p3739
aS'c:/marmalade/7.5/s3e/h/ext_legacy'
p3740
aS'c:/marmalade/7.5/s3e/h/legacy'
p3741
asS'weak_frameworks'
p3742
(lp3743
sS'extprojects'
p3744
(dp3745
sg603
(dp3746
g597
(lp3747
(S'c:/Marmalade/7.5/examples/GameTutorial/CPP/marm1/data/audio'
p3748
S'audio'
p3749
I0
tp3750
a(S'c:/Marmalade/7.5/examples/GameTutorial/CPP/marm1/data/textures'
p3751
S'textures'
p3752
I0
tp3753
a(S'c:/Marmalade/7.5/examples/GameTutorial/CPP/marm1/data/fonts'
p3754
S'fonts'
p3755
I0
tp3756
a(S'c:/Marmalade/7.5/examples/GameTutorial/CPP/marm1/data-ram/data-gles1,c:/Marmalade/7.5/examples/GameTutorial/CPP/marm1/data'
p3757
S'.'
p3758
I0
tp3759
assS'macro_types'
p3760
(dp3761
g532
I1
sg533
I0
sg534
I0
sg535
I0
sg537
I0
sg538
I0
sg539
I0
sg540
I0
sg541
I0
sg543
I0
sg544
I0
sg545
I0
sg546
I0
sg547
I0
sg549
I0
sg551
I0
sg552
I0
sg553
I0
sg554
I0
sg555
I0
sg556
I0
sg557
I0
sg558
I0
sg559
I1
sg560
I0
sg561
I0
sg562
I0
sg563
I0
sg564
I01
sg565
I1
sg566
I0
sg567
I0
sg568
I0
sg569
I0
sg570
I0
sg571
I0
sg572
I0
ssS'commands'
p3762
(lp3763
sg605
(g1077
S'VC12'
p3764
S'X86ARMAARCH64'
p3765
tp3766
sS'build_libs'
p3767
(dp3768
sg607
g0
sS'frameworks'
p3769
(lp3770
sS'environ'
p3771
(dp3772
sS'target_name_debug'
p3773
g341
sS'builders'
p3774
(dp3775
g597
(dp3776
S'.S'
p3777
(dp3778
S'gcc_aarch64'
p3779
(lp3780
S'.obj'
p3781
aS'echo AARCH64 Assembling(GCC) ${SOURCE}...'
p3782
aS'c:/marmalade/7.5/s3e\\gcc\\win32\\aarch64\\bin\\aarch64-none-elf-gcc -c -o ${TARGET} ${SOURCE}'
p3783
asS'rvct'
p3784
(lp3785
g3781
aS'echo ARM Assembling(RVCT) ${SOURCE}...'
p3786
aS'c:/marmalade/7.5/s3e\\rvct\\bin\\armasm -o ${TARGET} ${SOURCE}'
p3787
asg455
(lp3788
g3781
aS'echo ARM Assembling(GCC) ${SOURCE}...'
p3789
aS'c:/marmalade/7.5/s3e\\gcc\\win32\\arm\\bin\\arm-none-eabi-gcc -c -o ${TARGET} ${SOURCE}'
p3790
asS'ppu'
p3791
(lp3792
S'.a'
p3793
aS'echo PPU Assembling(SNC) ${SOURCE}...'
p3794
aS'c:/marmalade/7.5/s3e\\rvct\\bin\\armasm -o ${TARGET} ${SOURCE}'
p3795
assS'.s'
p3796
g3778
sS'.vp'
p3797
(lp3798
NaS'"C:/Marmalade/7.5/s3e/python/python.exe" "c:/marmalade/7.5/modules/iwgx/tools/compile_shaders.py" ${SOURCE}'
p3799
asssS'extproject_names'
p3800
(lp3801
sbtp3802
.