((dp0
S'arm_dbg_args'
p1
S'-via:"c:\\Marmalade\\7.6\\examples\\GameTutorial\\CPP\\marm1\\build_stage4_vc12\\Stage4_vc12_arm_debug.via" -qemu'
p2
sS'game-icf'
p3
S''
p4
sS'dist'
p5
NsS'csproj'
p6
g4
sS'module_path_append'
p7
NsS'global_path'
p8
S'c:\\marmalade\\7.6\\examples\\gametutorial\\cpp'
p9
sS'system_path'
p10
S'c:\\marmalade\\7.6\\s3e\\makefile_builder'
p11
sS'android_x86_dbg_args'
p12
S'../../tools/DeployTool/DeployTool.exe --dir "c:\\Marmalade\\7.6\\examples\\GameTutorial\\CPP\\marm1\\build_stage4_vc12"'
p13
sS'aarch64-arch-mod'
p14
g4
sS'no-emit'
p15
NsS'arm-float-abi'
p16
g4
sS'arm_rel_rtsm_args'
p17
S'-via:"c:\\Marmalade\\7.6\\examples\\GameTutorial\\CPP\\marm1\\build_stage4_vc12\\Stage4_vc12_arm_release.via" -qemu'
p18
sS'amd64'
p19
NsS'line-width'
p20
I80
sS'gcc_dbg_args'
p21
S'-via:"c:\\Marmalade\\7.6\\examples\\GameTutorial\\CPP\\marm1\\build_stage4_vc12\\Stage4_vc12_gcc_debug.via" -qemu'
p22
sS'android-x86'
p23
NsS'x86_dbg_exe'
p24
S'c:/marmalade/7.6/s3e\\win32\\s3e_simulator_debug.exe'
p25
sS'disable-runtime-checks'
p26
NsS'release'
p27
NsS'no-make'
p28
NsS'xcode-x86-build-settings'
p29
g4
sS'optimise-size'
p30
NsS'fat'
p31
NsS'output-name-debug'
p32
g4
sS'arm-fpu'
p33
g4
sS'proj_name'
p34
S'Stage4_vc12'
p35
sS'rvct-version'
p36
S'none'
p37
sS'compiler'
p38
g4
sS'execute'
p39
NsS'compile-static'
p40
NsS'msvc-project'
p41
I01
sS'buildenv'
p42
S'VC12'
p43
sS'quick'
p44
NsS'module_path'
p45
(lp46
S'c:/Marmalade/7.6/examples/GameTutorial/CPP/modules'
p47
asS'mkf_default'
p48
S's3e-default.mkf'
p49
sS'use-release-std-libs'
p50
NsS'using_perforce'
p51
I00
sS'tizen-x86'
p52
NsS'mips-s3e'
p53
NsS's3e-api-lib-name'
p54
S's3e_api_iwgl'
p55
sS'ios-no-pic'
p56
NsS'shared-arm-lib'
p57
NsS'arm-cpu'
p58
g4
sS'compile-thumb'
p59
NsS'no-ide'
p60
NsS'msvc-version'
p61
S'6.0'
p62
sS'arm'
p63
NsS'builddir'
p64
g4
sS'compile-debug-as-release'
p65
I0
sS'arm-arch'
p66
g4
sS'brief'
p67
NsS'dll'
p68
NsS'buildenv-toolset'
p69
g4
sS'version'
p70
NsS'aarch64-arch'
p71
g4
sS'ccache'
p72
I0
sS'offline'
p73
NsS'ios-version'
p74
g4
sS'hub_data'
p75
g4
sS'fake_vc_call'
p76
I01
sS'jobs'
p77
I0
sS'linkflags'
p78
NsS'gcc_aarch64_dbg_args'
p79
g13
sS'debug'
p80
NsS'xcode-build-order'
p81
g4
sS'gcc_aarch64_rel_rtsm_args'
p82
S'-via:"c:\\Marmalade\\7.6\\examples\\GameTutorial\\CPP\\marm1\\build_stage4_vc12\\Stage4_vc12_gcc_aarch64_release.via" -qemu'
p83
sS'gcc_rel_rtsm_args'
p84
S'-via:"c:\\Marmalade\\7.6\\examples\\GameTutorial\\CPP\\marm1\\build_stage4_vc12\\Stage4_vc12_gcc_release.via" -qemu'
p85
sS'done_defaults'
p86
I1
sS'path'
p87
NsS's3e-data-dir'
p88
S'c:/Marmalade/7.6/examples/GameTutorial/CPP/marm1\\data'
p89
sS'enable-exceptions'
p90
NsS'osx-dll'
p91
NsS'extension'
p92
g4
sS'no-vc6'
p93
NsS'aarch64'
p94
NsS'win32-console'
p95
NsS'dist-format'
p96
g4
sS's3e-force-arch'
p97
NsS'dump_defines'
p98
NsS'use-shared-std-libs'
p99
NsS'gcc-version'
p100
g4
sS'x86_dbg_args'
p101
S'-via:"c:\\Marmalade\\7.6\\examples\\GameTutorial\\CPP\\marm1\\build_stage4_vc12\\Stage4_vc12_debug.via"'
p102
sS'tizen_x86_dbg_args'
p103
g13
sS'arm-debugger'
p104
g4
sS'use_temp_extension'
p105
NsS'verbose'
p106
I0
sS'log'
p107
NsS'no-strip'
p108
NsS'rebuild'
p109
NsS'mips_dbg_args'
p110
g13
sS'win32-simulator-dll'
p111
NsS'strict'
p112
NsS'xcode-aarch64-build-settings'
p113
g4
sS'enable-global-path'
p114
NsS'gcc_aarch64_rel_args'
p115
g13
sS'cflags'
p116
(lp117
S'-std=gnu++0x'
p118
asS'dist-dir'
p119
g4
sS'xcode-arm-build-settings'
p120
g4
sS'jflags'
p121
NsS'csprojSDKRefs'
p122
g4
sS'tizen_x86_rel_exe'
p123
S'c:\\marmalade\\7.6\\s3e\\makefile_builder\\tool_launcher.exe'
p124
sS'test-assets'
p125
g4
sS'distcc'
p126
NsS'external-compiler'
p127
NsS'no-distcc'
p128
NsS'preinclude'
p129
NsS'using_sdk'
p130
I01
sS'nologo'
p131
NsS'warn-level'
p132
I2
sS'mips_dbg_exe'
p133
g124
sS'mkb_in'
p134
S'c:/Marmalade/7.6/examples/GameTutorial/CPP/marm1/Stage4.mkb'
p135
sS'tizen_x86_dbg_exe'
p136
g124
sS'arm_dbg_exe'
p137
S'c:/marmalade/7.6/s3e\\bin\\armdebug.exe'
p138
sS'mdev-first'
p139
NsS'csprojDLLRef'
p140
NsS'tizen_x86_rel_args'
p141
g13
sS'android_x86_dbg_exe'
p142
g124
sS'test-config'
p143
g4
sS'list-targets'
p144
NsS'arm_rel_exe'
p145
g124
sS'arm_rel_args'
p146
g13
sS'makedeps'
p147
NsS'android_x86_rel_exe'
p148
g124
sS'default-buildenv'
p149
S'vc12'
p150
sS'x86_rel_exe'
p151
g25
sS'preprocess-java'
p152
NsS'mips_rel_args'
p153
g13
sS'defines'
p154
NsS'lib'
p155
NsS'non-interactive'
p156
NsS'global_argv'
p157
(lp158
S'C:\\Marmalade\\7.6\\s3e\\makefile_builder\\mkb.py'
p159
aS'c:/Marmalade/7.6/examples/GameTutorial/CPP/marm1/Stage4.mkb'
p160
aS'--buildenv=VC12'
p161
aS'--fake-vc-call'
p162
aS'--default-buildenv=vc12'
p163
aS'--msvc-project'
p164
asS'make'
p165
NsS'optimise-speed'
p166
NsS'internal'
p167
NsS'enable-stdinc'
p168
NsS'deploy-only'
p169
NsS'x86'
p170
NsS'deploy'
p171
g4
sS'x86_run_exe'
p172
S'c:/marmalade/7.6/s3e\\win32\\s3e_console.exe'
p173
sS'cxxflags'
p174
NsS'x86_rel_args'
p175
S'-via:"c:\\Marmalade\\7.6\\examples\\GameTutorial\\CPP\\marm1\\build_stage4_vc12\\Stage4_vc12_release.via"'
p176
sS'gcc_rel_args'
p177
g13
sS'mips'
p178
NsS'xcode-build-settings'
p179
g4
sS'incredibuild'
p180
NsS'strict-compile'
p181
NsS'use-auto-subdirs'
p182
NsS'mips_rel_exe'
p183
g124
sS'android_x86_rel_args'
p184
g13
sS'app-icf'
p185
g4
sS'deployargs'
p186
NsS'iosnativedebug'
p187
NsS'use_prebuilt'
p188
NsS'mkf_in'
p189
(lp190
S'c:\\marmalade\\7.6\\s3e\\s3e-default.mkf'
p191
aS'c:\\marmalade\\7.6\\modules\\iw2d\\iw2d.mkf'
p192
aS'c:\\marmalade\\7.6\\modules\\iwgx\\iwgx.mkf'
p193
aS'c:\\marmalade\\7.6\\modules\\iwgl\\iwgl.mkf'
p194
aS'c:\\marmalade\\7.6\\modules\\iwutil\\iwutil.mkf'
p195
aS'c:\\marmalade\\7.6\\modules\\third_party\\libjpeg\\libjpeg.mkf'
p196
aS'c:\\marmalade\\7.6\\modules\\third_party\\libpng\\libpng.mkf'
p197
aS'c:\\marmalade\\7.6\\modules\\third_party\\zlib\\zlib.mkf'
p198
aS'c:\\marmalade\\7.6\\modules\\iwgeom\\iwgeom.mkf'
p199
aS'c:\\marmalade\\7.6\\modules\\iwresmanager\\iwresmanager.mkf'
p200
aS'c:\\marmalade\\7.6\\extensions\\pvrtextool\\pvrtextool.mkf'
p201
aS'c:\\marmalade\\7.6\\modules\\iwgxfont\\iwgxfont.mkf'
p202
aS'c:\\marmalade\\7.6\\modules\\third_party\\tiniconv\\tiniconv.mkf'
p203
aS'c:\\marmalade\\7.6\\modules\\iw2dscenegraph\\iw2dscenegraph.mkf'
p204
aS'c:\\marmalade\\7.6\\modules\\iw2dscenegraphcore\\iw2dscenegraphcore.mkf'
p205
aS'c:\\marmalade\\7.6\\modules\\iwtween\\iwtween.mkf'
p206
aS'c:\\marmalade\\7.6\\examples\\gametutorial\\cpp\\modules\\soundengine\\soundengine.mkf'
p207
aS'c:\\marmalade\\7.6\\examples\\marmaladeexampleresources\\marmaladeexampleresources.mkf'
p208
asS'strict-mkb'
p209
NsS'executeargs'
p210
NsS'clean'
p211
NsS'no-asm'
p212
NsS'output-name'
p213
g4
sS'no-modules'
p214
NsS'find_define'
p215
g4
s(dp216
S'c:\\marmalade\\7.6\\s3e\\makefile_builder\\templates\\win32_sln.pyc'
p217
F1426254158.0
sS'c:\\marmalade\\7.6\\s3e\\makefile_builder\\templates\\ws81_sln.pyc'
p218
F1426254158.0
sS'c:\\marmalade\\7.6\\s3e\\makefile_builder\\templates\\qmake.py'
p219
F1426247824.0
sS'c:\\marmalade\\7.6\\s3e\\makefile_builder\\templates\\xcode_pbxuser.py'
p220
F1426247824.0
sS'c:\\marmalade\\7.6\\s3e\\makefile_builder\\docs\\deprecated.defines.txt'
p221
F1426247822.0
sS'c:\\marmalade\\7.6\\s3e\\makefile_builder\\plugins\\ws81_ws81.pyc'
p222
F1426254156.0
sS'c:\\marmalade\\7.6\\s3e\\makefile_builder\\plugins\\xcode4_schememanagement.pyc'
p223
F1426761766.5207865
sS'c:\\marmalade\\7.6\\s3e\\makefile_builder\\plugins\\deploy.pyc'
p224
F1426254156.0
sS'c:\\marmalade\\7.6\\s3e\\makefile_builder\\templates'
p225
F1426760287.369184
sS'c:\\marmalade\\7.6\\s3e\\makefile_builder\\templates\\ws81_csproj.pyc'
p226
F1426254158.0
sS'c:\\marmalade\\7.6\\s3e\\makefile_builder\\plugins\\ws8_ws8.pyc'
p227
F1426254156.0
sS'c:\\marmalade\\7.6\\s3e\\makefile_builder\\templates\\gdb_start.txt'
p228
F1426247824.0
sS'c:\\marmalade\\7.6\\s3e\\makefile_builder\\templates\\vc6_opt.pyc'
p229
F1426254158.0
sS'c:\\marmalade\\7.6\\s3e\\makefile_builder\\plugins\\wp8_wp8.pyc'
p230
F1426254156.0
sS'c:\\marmalade\\7.6\\s3e\\makefile_builder\\templates\\ws8_csproj_user.pyc'
p231
F1426254158.0
sS'c:\\marmalade\\7.6\\s3e\\makefile_builder\\templates\\wp8_csproj_user.pyc'
p232
F1426254158.0
sS'c:\\marmalade\\7.6\\s3e\\makefile_builder\\plugins\\s3e_win8.pyc'
p233
F1426254156.0
sS'c:\\marmalade\\7.6\\s3e\\makefile_builder\\mkb_upstream.pyc'
p234
F1426254156.0
sS'c:\\marmalade\\7.6\\s3e\\makefile_builder\\mkb_parser.pyc'
p235
F1426254156.0
sS'c:\\marmalade\\7.6\\s3e\\makefile_builder\\templates\\xcode.py'
p236
F1426247824.0
sS'c:\\marmalade\\7.6\\s3e\\makefile_builder\\plugins\\s3e_qmake.py'
p237
F1426247824.0
sS'c:\\marmalade\\7.6\\s3e\\makefile_builder\\templates\\ws81_vcxproj.pyc'
p238
F1426254158.0
sS'c:\\marmalade\\7.6\\s3e\\makefile_builder\\plugins\\Emitter.pyc'
p239
F1426254156.0
sS'c:\\marmalade\\7.6\\s3e\\makefile_builder\\templates\\win8_csproj_user.pyc'
p240
F1426254158.0
sS'c:\\marmalade\\7.6\\s3e\\makefile_builder\\templates\\xcode4_arm.xcscheme'
p241
F1426247824.0
sS'c:\\marmalade\\7.6\\s3e\\makefile_builder\\plugins\\s3e_xcode.py'
p242
F1426247824.0
sS'c:\\marmalade\\7.6\\s3e\\makefile_builder\\templates\\win32_dsp.pyc'
p243
F1426254158.0
sS'c:\\marmalade\\7.6\\s3e\\makefile_builder\\plugins\\osx_scons.pyc'
p244
F1426254156.0
sS'c:\\marmalade\\7.6\\s3e\\makefile_builder\\templates\\vc8_user.pyc'
p245
F1426254158.0
sS'c:\\marmalade\\7.6\\s3e\\makefile_builder\\templates\\wp81_vcxproj.pyc'
p246
F1426254158.0
sS'c:\\marmalade\\7.6\\s3e\\makefile_builder\\plugins\\osx_xcode.pyc'
p247
F1426254156.0
sS'c:\\marmalade\\7.6\\s3e\\makefile_builder\\plugins\\MakeEmitter.pyc'
p248
F1426254156.0
sS'c:\\marmalade\\7.6\\s3e\\makefile_builder\\plugins\\xcode4_schememanagement.py'
p249
F1426247824.0
sS'c:\\marmalade\\7.6\\s3e\\makefile_builder\\templates\\ws8_sln.pyc'
p250
F1426254158.0
sS'c:\\marmalade\\7.6\\s3e\\makefile_builder\\plugins\\null.pyc'
p251
F1426254156.0
sS'c:\\marmalade\\7.6\\s3e\\makefile_builder\\docs\\parse_options.pyc'
p252
F1426254158.0
sS'c:\\marmalade\\7.6\\s3e\\makefile_builder\\plugins\\s3e_wp8.pyc'
p253
F1426254156.0
sS'c:\\marmalade\\7.6\\s3e\\makefile_builder\\templates\\wp81_ext_sln.pyc'
p254
F1426254158.0
sS'c:\\marmalade\\7.6\\s3e\\makefile_builder\\mkb_launcher.exe'
p255
F1426248470.0
sS'c:\\marmalade\\7.6\\s3e\\makefile_builder\\mkb.py'
p256
F1426247822.0
sS'c:\\marmalade\\7.6\\s3e\\makefile_builder\\plugins\\iphone.pyc'
p257
F1426254156.0
sS'c:\\marmalade\\7.6\\s3e\\makefile_builder\\tool_launcher.exe'
p258
F1426248470.0
sS'c:\\marmalade\\7.6\\s3e\\makefile_builder\\plugins\\vc7_utils.pyc'
p259
F1426254156.0
sS'c:\\marmalade\\7.6\\s3e\\makefile_builder\\plugins\\s3e_scons.pyc'
p260
F1426254156.0
sS'c:\\marmalade\\7.6\\s3e\\makefile_builder\\templates\\wp81_csproj_user.pyc'
p261
F1426254158.0
sS'c:\\marmalade\\7.6\\s3e\\makefile_builder\\templates\\win32_dsw.pyc'
p262
F1426254158.0
sS'c:\\marmalade\\7.6\\s3e\\makefile_builder\\plugins\\win8_utils.pyc'
p263
F1426254156.0
sS'c:\\marmalade\\7.6\\s3e\\makefile_builder\\templates\\ws81_csproj_user.pyc'
p264
F1426254158.0
sS'c:\\marmalade\\7.6\\s3e\\makefile_builder\\plugins\\s3e_web.pyc'
p265
F1426254156.0
sS'c:\\marmalade\\7.6\\s3e\\makefile_builder\\templates\\win32_vcproj.pyc'
p266
F1426254158.0
sS'c:\\marmalade\\7.6\\s3e\\makefile_builder\\docs\\deprecated.options.txt'
p267
F1426247822.0
sS'c:\\marmalade\\7.6\\s3e\\makefile_builder\\plugins\\s3e_ws8.pyc'
p268
F1426254156.0
sS'c:\\marmalade\\7.6\\s3e\\makefile_builder\\templates\\vc7_suo.pyc'
p269
F1426254158.0
sS'c:\\marmalade\\7.6\\s3e\\makefile_builder\\plugins\\vc6_utils.pyc'
p270
F1426254156.0
sS'c:\\marmalade\\7.6\\s3e\\makefile_builder\\docs\\options.txt'
p271
F1426247822.0
sS'c:\\marmalade\\7.6\\s3e\\makefile_builder\\templates\\win8_csproj.pyc'
p272
F1426254158.0
sS'c:\\marmalade\\7.6\\s3e\\makefile_builder\\templates\\wp8_ext_csproj.pyc'
p273
F1426254158.0
sS'c:\\marmalade\\7.6\\s3e\\makefile_builder\\plugins\\VisualStudioEmitter.pyc'
p274
F1426254156.0
sS'c:\\marmalade\\7.6\\s3e\\makefile_builder\\deployment.pyc'
p275
F1426254156.0
sS'c:\\marmalade\\7.6\\s3e\\makefile_builder\\templates\\wp8_vcxproj.pyc'
p276
F1426254158.0
sS'c:\\marmalade\\7.6\\s3e\\makefile_builder\\templates\\win8_vcxproj.pyc'
p277
F1426254158.0
sS'c:\\marmalade\\7.6\\s3e\\makefile_builder\\plugins\\s3e_xcode.pyc'
p278
F1426761766.8488052
sS'c:\\marmalade\\7.6\\s3e\\makefile_builder\\templates\\xcode4_DeployTool.xcscheme'
p279
F1426247824.0
sS'c:\\marmalade\\7.6\\s3e\\makefile_builder\\templates\\wp8_csproj.pyc'
p280
F1426254158.0
sS'c:\\marmalade\\7.6\\s3e\\makefile_builder\\mkb_globals.pyc'
p281
F1426254156.0
sS'c:\\marmalade\\7.6\\s3e\\makefile_builder\\templates\\ws8_csproj.pyc'
p282
F1426254158.0
sS'c:\\marmalade\\7.6\\s3e\\makefile_builder\\templates\\wp81_sln.pyc'
p283
F1426254158.0
sS'c:\\marmalade\\7.6\\s3e\\makefile_builder\\templates\\template.opt'
p284
F1426247824.0
sS'c:\\marmalade\\7.6\\s3e\\makefile_builder\\mkb_main.pyc'
p285
F1426254156.0
sS'c:\\marmalade\\7.6\\s3e\\makefile_builder\\templates\\xcode4.xcscheme'
p286
F1426247824.0
sS'c:\\marmalade\\7.6\\s3e\\makefile_builder\\templates\\wp81_ext_csproj.pyc'
p287
F1426254158.0
sS'c:\\marmalade\\7.6\\s3e\\makefile_builder\\templates\\wp8_sln.pyc'
p288
F1426254158.0
sS'c:\\marmalade\\7.6\\s3e\\makefile_builder\\plugins\\s3e_ws81.pyc'
p289
F1426254156.0
sS'c:\\marmalade\\7.6\\s3e\\makefile_builder\\plugins\\S3EEmitter.pyc'
p290
F1426254156.0
sS'c:\\marmalade\\7.6\\s3e\\makefile_builder\\templates\\win32_vcxproj_filters.pyc'
p291
F1426254158.0
sS'c:\\marmalade\\7.6\\s3e\\makefile_builder\\mkb_option.pyc'
p292
F1426254156.0
sS'c:\\marmalade\\7.6\\s3e\\makefile_builder\\plugins\\s3e_make.pyc'
p293
F1426254156.0
sS'c:\\marmalade\\7.6\\s3e\\makefile_builder\\plugins\\XcodeEmitter.pyc'
p294
F1426761766.4687836
sS'c:\\marmalade\\7.6\\s3e\\makefile_builder\\plugins\\s3e_wp81.pyc'
p295
F1426254156.0
sS'c:\\marmalade\\7.6\\s3e\\makefile_builder\\plugins\\SConsEmitter.pyc'
p296
F1426254156.0
sS'c:\\marmalade\\7.6\\s3e\\makefile_builder\\templates\\scons.pyc'
p297
F1426254158.0
sS'c:\\marmalade\\7.6\\s3e\\makefile_builder\\plugins'
p298
F1426761766.8478053
sS'c:\\marmalade\\7.6\\s3e\\makefile_builder\\plugins\\s3e_vc6.pyc'
p299
F1426254156.0
sS'c:\\marmalade\\7.6\\s3e\\makefile_builder\\templates\\vc10_user.pyc'
p300
F1426254158.0
sS'c:\\marmalade\\7.6\\s3e\\makefile_builder\\templates\\MainWindow.xib'
p301
F1426247824.0
sS'c:\\marmalade\\7.6\\s3e\\makefile_builder\\plugins\\XcodeEmitter.py'
p302
F1426247822.0
sS'c:\\marmalade\\7.6\\s3e\\makefile_builder\\templates\\win8_ext_csproj.pyc'
p303
F1426254158.0
sS'c:\\marmalade\\7.6\\s3e\\makefile_builder\\templates\\make.py'
p304
F1426247824.0
sS'c:\\marmalade\\7.6\\s3e\\makefile_builder\\plugins\\linux_scons.pyc'
p305
F1426254156.0
sS'c:\\marmalade\\7.6\\s3e\\makefile_builder\\templates\\wp81_csproj.pyc'
p306
F1426254158.0
sS'c:\\marmalade\\7.6\\s3e\\makefile_builder\\templates\\ws8_vcxproj.pyc'
p307
F1426254158.0
sS'c:\\marmalade\\7.6\\s3e\\makefile_builder\\plugins\\Win8Emitter.pyc'
p308
F1426254156.0
sS'c:\\marmalade\\7.6\\s3e\\makefile_builder\\templates\\win32_vcxproj.pyc'
p309
F1426254158.0
sS'c:\\marmalade\\7.6\\s3e\\makefile_builder\\templates\\ws8_ext_csproj.pyc'
p310
F1426254158.0
sS'c:\\marmalade\\7.6\\s3e\\makefile_builder\\mkb_util.pyc'
p311
F1426254156.0
sS'c:\\marmalade\\7.6\\s3e\\makefile_builder\\templates\\Info.plist'
p312
F1426247824.0
sS'c:\\marmalade\\7.6\\s3e\\makefile_builder\\templates\\template.suo'
p313
F1426247824.0
sS'c:\\marmalade\\7.6\\s3e\\makefile_builder\\templates\\aarch64_linker_script'
p314
F1426247824.0
sS'c:\\marmalade\\7.6\\s3e\\makefile_builder\\templates\\mips_linker_script'
p315
F1426247824.0
sS'c:\\marmalade\\7.6\\s3e\\makefile_builder\\plugins\\java.pyc'
p316
F1426254156.0
sS'c:\\marmalade\\7.6\\s3e\\makefile_builder\\templates\\ws81_ext_csproj.pyc'
p317
F1426254158.0
sS'c:\\marmalade\\7.6\\s3e\\makefile_builder\\templates\\ws8_ext_sln.pyc'
p318
F1426254158.0
sS'c:\\marmalade\\7.6\\s3e\\makefile_builder\\templates\\qmake_user.py'
p319
F1426247824.0
sS'c:\\marmalade\\7.6\\s3e\\makefile_builder\\templates\\rvct_linker_script'
p320
F1426247824.0
sS'c:\\marmalade\\7.6\\s3e\\makefile_builder\\docs'
p321
F1426760287.3801844
sS'c:\\marmalade\\7.6\\s3e\\makefile_builder\\docs\\deployment_options.txt'
p322
F1426247822.0
sS'c:\\marmalade\\7.6\\s3e\\makefile_builder\\docs\\mkb.defines.txt'
p323
F1426247822.0
sS'c:\\marmalade\\7.6\\s3e\\makefile_builder\\templates\\win8_sln.pyc'
p324
F1426254158.0
sS'c:\\marmalade\\7.6\\s3e\\makefile_builder\\templates\\ws81_ext_sln.pyc'
p325
F1426254158.0
sS'c:\\marmalade\\7.6\\s3e\\makefile_builder\\plugins\\wp81_wp81.pyc'
p326
F1426254156.0
sS'c:\\marmalade\\7.6\\s3e\\makefile_builder\\templates\\linker_script'
p327
F1426247824.0
sS'c:\\marmalade\\7.6\\s3e\\makefile_builder\\plugins\\s3e_qmake.pyc'
p328
F1426761766.7157977
sS'c:\\marmalade\\7.6\\s3e\\makefile_builder\\plugins\\win32_vc6.pyc'
p329
F1426254156.0
sccopy_reg
_reconstructor
p330
(cmkb_main
MkbFile
p331
c__builtin__
object
p332
Ntp333
Rp334
(dp335
g5
(lp336
sS'target_name'
p337
S'Stage4'
p338
sS'current_file'
p339
g135
sS'package_path'
p340
(lp341
sS'post_build'
p342
(lp343
(lp344
S'c:/marmalade/7.6/s3e/tools'
p345
aS'C:\\Marmalade\\7.6\\s3e\\python\\python.exe .\\process_map.py "$(TargetPath)"'
p346
aa(S'c:\\marmalade\\7.6\\s3e\\bin'
p347
S'"s3e_plink" -l "$(TargetPath)" '
p348
g170
tp349
asS'librarys'
p350
(lp351
g330
(cmkb_main
Library
p352
g332
Ntp353
Rp354
(dp355
S'name'
p356
S'vc6_compat.lib'
p357
sS'expand_name'
p358
I00
sS'include_spec_rvct_objs'
p359
(lp360
sS'include_all_objs'
p361
I00
sS'share_arm'
p362
I00
sS'arch'
p363
S'x86'
p364
sS'nodebug'
p365
I00
sg38
Nsbag330
(g352
g332
Ntp366
Rp367
(dp368
g356
S'iw2d'
p369
sg358
I01
sg359
(lp370
sg361
Nsg362
Nsg363
Nsg365
I00
sg38
Nsbag330
(g352
g332
Ntp371
Rp372
(dp373
g356
S'ATI_Compress_MT_VC7.lib'
p374
sg358
I00
sg359
g370
sg361
Nsg362
Nsg363
S'x86'
p375
sg365
I00
sg38
Nsbag330
(g352
g332
Ntp376
Rp377
(dp378
g356
S'iwgx'
p379
sg358
I01
sg359
g370
sg361
Nsg362
Nsg363
Nsg365
I00
sg38
Nsbag330
(g352
g332
Ntp380
Rp381
(dp382
g356
S'iwgl'
p383
sg358
I01
sg359
g370
sg361
Nsg362
Nsg363
Nsg365
I00
sg38
Nsbag330
(g352
g332
Ntp384
Rp385
(dp386
g356
S'iwutil'
p387
sg358
I01
sg359
g370
sg361
Nsg362
Nsg363
Nsg365
I00
sg38
Nsbag330
(g352
g332
Ntp388
Rp389
(dp390
g356
S'jpeg'
p391
sg358
I01
sg359
g370
sg361
Nsg362
Nsg363
Nsg365
I00
sg38
Nsbag330
(g352
g332
Ntp392
Rp393
(dp394
g356
S'z'
p395
sg358
I01
sg359
g370
sg361
Nsg362
Nsg363
Nsg365
I00
sg38
Nsbag330
(g352
g332
Ntp396
Rp397
(dp398
g356
S'png'
p399
sg358
I01
sg359
g370
sg361
Nsg362
Nsg363
Nsg365
I00
sg38
Nsbag330
(g352
g332
Ntp400
Rp401
(dp402
g356
S'iwgeom'
p403
sg358
I01
sg359
g370
sg361
Nsg362
Nsg363
Nsg365
I00
sg38
Nsbag330
(g352
g332
Ntp404
Rp405
(dp406
g356
S'iwresmanager'
p407
sg358
I01
sg359
g370
sg361
Nsg362
Nsg363
Nsg365
I00
sg38
Nsbag330
(g352
g332
Ntp408
Rp409
(dp410
g356
S'iwgxfont'
p411
sg358
I01
sg359
g370
sg361
Nsg362
Nsg363
Nsg365
I00
sg38
Nsbag330
(g352
g332
Ntp412
Rp413
(dp414
g356
S'tiniconv'
p415
sg358
I01
sg359
g370
sg361
Nsg362
Nsg363
Nsg365
I00
sg38
Nsbag330
(g352
g332
Ntp416
Rp417
(dp418
g356
S's3e_cpp'
p419
sg358
I01
sg359
g360
sg361
I00
sg362
I00
sg363
Nsg365
I00
sg38
Nsbag330
(g352
g332
Ntp420
Rp421
(dp422
g356
S's3e'
p423
sg358
I01
sg359
(lp424
S'iwcrt.o'
p425
asg361
I00
sg362
I00
sg363
Nsg365
I00
sg38
Nsbag330
(g352
g332
Ntp426
Rp427
(dp428
g356
g55
sg358
I01
sg359
g360
sg361
I00
sg362
I00
sg363
S'x86'
p429
sg365
I01
sg38
Nsbag330
(g352
g332
Ntp430
Rp431
(dp432
g356
g55
sg358
I01
sg359
g360
sg361
I00
sg362
I00
sg363
S'!x86'
p433
sg365
I01
sg38
Nsbag330
(g352
g332
Ntp434
Rp435
(dp436
g356
S'stdc++'
p437
sg358
I00
sg359
g360
sg361
I00
sg362
I00
sg363
S'mips'
p438
sg365
I00
sg38
Nsbag330
(g352
g332
Ntp439
Rp440
(dp441
g356
S'c'
p442
sg358
I00
sg359
g360
sg361
I00
sg362
I00
sg363
S'mips'
p443
sg365
I00
sg38
Nsbag330
(g352
g332
Ntp444
Rp445
(dp446
g356
S'm'
p447
sg358
I00
sg359
g360
sg361
I00
sg362
I00
sg363
S'mips'
p448
sg365
I00
sg38
Nsbag330
(g352
g332
Ntp449
Rp450
(dp451
g356
S'gcc'
p452
sg358
I00
sg359
g360
sg361
I00
sg362
I00
sg363
S'mips'
p453
sg365
I00
sg38
Nsbag330
(g352
g332
Ntp454
Rp455
(dp456
g356
S'supc++'
p457
sg358
I00
sg359
g360
sg361
I00
sg362
I00
sg363
S'gcc_x86_android'
p458
sg365
I00
sg38
Nsbag330
(g352
g332
Ntp459
Rp460
(dp461
g356
g442
sg358
I00
sg359
g360
sg361
I00
sg362
I00
sg363
S'gcc_x86_android'
p462
sg365
I00
sg38
Nsbag330
(g352
g332
Ntp463
Rp464
(dp465
g356
g447
sg358
I00
sg359
g360
sg361
I00
sg362
I00
sg363
S'gcc_x86_android'
p466
sg365
I00
sg38
Nsbag330
(g352
g332
Ntp467
Rp468
(dp469
g356
g452
sg358
I00
sg359
g360
sg361
I00
sg362
I00
sg363
S'gcc_x86_android'
p470
sg365
I00
sg38
Nsbag330
(g352
g332
Ntp471
Rp472
(dp473
g356
S'dl'
p474
sg358
I00
sg359
g360
sg361
I00
sg362
I00
sg363
S'gcc_x86_android'
p475
sg365
I00
sg38
NsbasS'library_paths'
p476
(lp477
g330
(cmkb_main
LibraryPath
p478
g332
Ntp479
Rp480
(dp481
S'expand_path'
p482
I01
sg356
S'c:/marmalade/7.6/modules/iw2d'
p483
sbag330
(g478
g332
Ntp484
Rp485
(dp486
g482
I00
sg356
S'c:/marmalade/7.6/modules/iwgx/atitools'
p487
sbag330
(g478
g332
Ntp488
Rp489
(dp490
g482
I01
sg356
S'c:/marmalade/7.6/modules/iwgx'
p491
sbag330
(g478
g332
Ntp492
Rp493
(dp494
g482
I01
sg356
S'c:/marmalade/7.6/modules/iwgl'
p495
sbag330
(g478
g332
Ntp496
Rp497
(dp498
g482
I01
sg356
S'c:/marmalade/7.6/modules/iwutil'
p499
sbag330
(g478
g332
Ntp500
Rp501
(dp502
g482
I01
sg356
S'c:/marmalade/7.6/modules/third_party/libjpeg'
p503
sbag330
(g478
g332
Ntp504
Rp505
(dp506
g482
I01
sg356
S'c:/marmalade/7.6/modules/third_party/zlib'
p507
sbag330
(g478
g332
Ntp508
Rp509
(dp510
g482
I01
sg356
S'c:/marmalade/7.6/modules/third_party/libpng'
p511
sbag330
(g478
g332
Ntp512
Rp513
(dp514
g482
I01
sg356
S'c:/marmalade/7.6/modules/iwgeom'
p515
sbag330
(g478
g332
Ntp516
Rp517
(dp518
g482
I01
sg356
S'c:/marmalade/7.6/modules/iwresmanager'
p519
sbag330
(g478
g332
Ntp520
Rp521
(dp522
g482
I01
sg356
S'c:/marmalade/7.6/modules/iwgxfont'
p523
sbag330
(g478
g332
Ntp524
Rp525
(dp526
g482
I01
sg356
S'c:/marmalade/7.6/modules/third_party/tiniconv'
p527
sbag330
(g478
g332
Ntp528
Rp529
(dp530
g482
I01
sg356
S'c:/marmalade/7.6/s3e'
p531
sbasS'macros'
p532
(dp533
S'IW_USE_CALLSTACK'
p534
NsS'IW_MKF_IWGEOM'
p535
NsS'I3D_PLATFORM_S3E'
p536
NsS'IW_TRACE_CHANNEL_PVRTEXTOOL_VERBOSE'
p537
S'2'
p538
sS'IW_MKF_LIBJPEG'
p539
NsS'I3D_OS_S3E'
p540
NsS'IW_MKF_PVRTEXTOOL'
p541
NsS'IW_MKF_TINICONV'
p542
NsS'IW_APP_VERSION'
p543
S'"1.0"'
p544
sS'__S3E__'
p545
NsS'IW_MKF_IWRESMANAGER'
p546
NsS'IW_MKF_IWUTIL'
p547
NsS'IW_PLATFORM_S3E'
p548
NsS'IW_ASSERTION_CHANNEL_2D'
p549
S'1'
p550
sS'IW_APP_NAME'
p551
S'"Stage4"'
p552
sS'IW_MKF_MARMALADEEXAMPLERESOURCES'
p553
NsS'IW_MKF_IWGXFONT'
p554
NsS'IW_MKF_IWTWEEN'
p555
NsS'IW_MKF_ZLIB'
p556
NsS'IW_MKF_S3E_DEFAULT'
p557
NsS'IW_MKF_IWGX'
p558
NsS'IW_MKF_IW2DSCENEGRAPH'
p559
NsS'IW_MKF_SOUNDENGINE'
p560
NsS'IW_USE_ASSERTIONS'
p561
NsS'_CRT_SECURE_NO_DEPRECATE'
p562
NsS'IW_MKF_IWGL'
p563
NsS'IW_MKF_LIBPNG'
p564
NsS'IW_TRACE_CHANNEL_IW_2DSCENEGRAPH'
p565
g550
sS'IW_DEBUG'
p566
NsS'IW_USE_TRACING'
p567
NsS'IW_ASSERTION_CHANNEL_IW_2DSCENEGRAPH'
p568
g550
sS'IW_TRACE_CHANNEL_PVRTEXTOOL'
p569
g550
sS'IW_SDK'
p570
NsS'S3E_INCLUDE_LEGACY'
p571
NsS'IW_MKF_IW2DSCENEGRAPHCORE'
p572
NsS'IW_MKF_IW2D'
p573
NsS'IW_ASSERTION_CHANNEL_PVRTEXTOOL'
p574
g550
ssS'done_warnings'
p575
(dp576
sS'subprojects'
p577
(dp578
g194
S'iwgl'
p579
sg193
S'iwgx'
p580
sg205
S'../iw2dscenegraphcore'
p581
sg208
S'../../../MarmaladeExampleResources'
p582
sg199
S'iwgeom'
p583
sg202
S'iwgxfont'
p584
sg195
S'iwutil'
p585
sg203
S'tiniconv'
p586
sg196
S'libjpeg'
p587
sg200
S'iwresmanager'
p588
sg204
S'iw2dscenegraph'
p589
sg192
S'iw2d'
p590
sg207
S'SoundEngine'
p591
sg206
S'iwtween'
p592
sg201
S'PVRTexTool'
p593
sg197
S'libpng'
p594
sg191
S's3e-default.mkf'
p595
sg198
S'zlib'
p596
ssS'deployments'
p597
(dp598
S'Default'
p599
g330
(cdeployment
Deployment
p600
g332
Ntp601
Rp602
(dp603
S'got_version'
p604
I0
sS'assets'
p605
g599
sS'mkb'
p606
g334
sS'target'
p607
Nsg363
(lp608
sS'options'
p609
(dp610
S'iphone-link-lib'
p611
(lp612
sS'game-icf'
p613
NsS'android-tm'
p614
NsS'winmobile-icon32'
p615
NsS'ws8-logo-image150x150'
p616
NsS'wp81-logo-image150x150'
p617
NsS'android-keystore'
p618
NsS'osx-ext-dll'
p619
(lp620
S'c:/marmalade/7.6/extensions/pvrtextool/lib/osx/libPVRTexTool.dylib'
p621
asS'iphone-provisioning-profile'
p622
NsS'ws8-splash-screen-image620x300'
p623
NsS'wp81-extra-pri'
p624
(lp625
sS'ws8-ext-capabilities'
p626
(lp627
sS'android-icon-hdpi'
p628
NsS'iphone-ipad-only'
p629
NsS'iphone-splash-full-orient'
p630
NsS'wp8-tile-fliptemplate-supports-large'
p631
NsS'iphone-show-status-bar'
p632
NsS'roku-requires-mkv'
p633
NsS'long-caption'
p634
NsS'android-pkgname'
p635
NsS'wp81-publisher-display-name'
p636
NsS'blackberry-permissions-read-device-identifying-information'
p637
NsS'ws81-certificate-end-date'
p638
NsS'psp-dlgcontentid'
p639
NsS'iphone-minimum-ios-version'
p640
NsS'target-folder'
p641
NsS'tizen-dist1-CA-path'
p642
NsS'symbian-icon2-format'
p643
NsS'tizen-author-key'
p644
NsS'firefoxos-icon-128X128'
p645
NsS'iphone-region'
p646
NsS'uiq3-icon3-mask'
p647
NsS'brew-encoding'
p648
NsS'android-x86'
p649
NsS'nds-initialcode'
p650
NsS'iphone-persistent-wifi'
p651
NsS'psp-snd0'
p652
NsS'roku-icon-focus-hd'
p653
NsS'osx-appid'
p654
NsS'winmobile-install-folder'
p655
NsS'android-external-res'
p656
(lp657
sS'ws8-product-version'
p658
NsS'brew-priviledges'
p659
NsS'iphone-info-plist-override'
p660
NsS'iphone-icon-ipad'
p661
NsS'iphone-skip-icon-generation'
p662
NsS'roku-hidden'
p663
NsS'psp-titlename'
p664
NsS'wp81-product-version'
p665
NsS'symbian-icon1-mask'
p666
NsS'psp-parentallevel'
p667
NsS'iphone-launch-storyboard'
p668
NsS'splashscreen-use-all'
p669
NsS'wp8-author'
p670
NsS'symbian-disable-ecompxl'
p671
NsS'splashscreen-auto-onblack'
p672
NsS'iphone-icon-dir'
p673
NsS'iphone-icon-extra'
p674
NsS'win32-ext-dll'
p675
(lp676
S'c:/marmalade/7.6/extensions/pvrtextool/lib/win32/PVRTexTool.dll'
p677
asS'iphone-development-key'
p678
NsS'winmobile-icon48'
p679
NsS'android-unsigned'
p680
NsS'osx-appstore-category'
p681
NsS'version-revision'
p682
NsS'roku-icon-focus-sd'
p683
NsS'ws81-product-version'
p684
NsS'winmobile-png90'
p685
NsS'iphone-icon-ipad-high-res'
p686
NsS'iphone-disable-ipad'
p687
NsS'ws81-splash-screen-background'
p688
NsS'wp8-ext-capabilities'
p689
(lp690
sS'brew-icon-large'
p691
NsS'symbian-icon1-mask-black'
p692
NsS'ws8-extra-res'
p693
(lp694
sS'iphone-bundle-localisations'
p695
NsS'winmobile-png60'
p696
NsS'blackberry-permissions-access-shared'
p697
NsS'blackberry-author'
p698
NsS'android-icon-xxxhdpi'
p699
NsS'olddeploytoolstyle'
p700
NsS'android_icon_gallery'
p701
NsS'wp81-splash-screen-background'
p702
NsS'winmobile-cab-compress'
p703
NsS'iphone-info-plist'
p704
NsS'ws81-ext-managed-dll'
p705
(lp706
sS'playbook-cskpass'
p707
NsS'win32-icon'
p708
NsS'symbian-key'
p709
NsS'app-icf'
p710
NsS'blackberry-storepass'
p711
NsS'wp8-tile-fliptemplate-back-title'
p712
NsS'brew-compress-loader'
p713
NsS'iphone-testflight'
p714
NsS'win32-pref-windowposy'
p715
NsS'win32-pref-windowposx'
p716
NsS'roku-requires-audiometadata'
p717
NsS'wp8-exclude-low-mem'
p718
NsS'android-min-sdk-version'
p719
NsS'wp8-tile-fliptemplate-title'
p720
NsS'iphone-icon-ipad-search-high-res'
p721
NsS'iphone-link-libdir'
p722
(lp723
sS'wp81-ext-capabilities'
p724
(lp725
sS'blackberry-permissions-read-geolocation'
p726
NsS'ws81-ext-device-capabilities'
p727
(lp728
sS'tizen-signed'
p729
NsS'android-extra-application-manifest'
p730
(lp731
sS'ws8-ext-native-dll'
p732
(lp733
sS'symbian-icon2-mask'
p734
NsS'iphone-launch-extra'
p735
NsS'webos-memory'
p736
NsS'android-keypass'
p737
NsS'name'
p738
NsS'uiq3-icon2-format'
p739
NsS'roku-splash-screen-sd'
p740
NsS'auto-derbh'
p741
NsS'roku-icon-side-sd'
p742
NsS'android-external-assets'
p743
(lp744
sS'nds-publicsavedatasize'
p745
NsS'splashscreen'
p746
S'c:/marmalade/7.6/examples/marmaladeexampleresources/resources/splashscreens'
p747
sS'brew-mif'
p748
NsS'iphone-icon-settings-high-res'
p749
NsS'android-manifest'
p750
NsS'ws81-splash-screen-image620x300'
p751
NsS'wp81-product-name'
p752
NsS's3e-compression'
p753
NsS'tizen-author-password'
p754
NsS'wp8-tile-fliptemplate-back-content'
p755
NsS'blackberry-extra-descriptor'
p756
(lp757
sS'android-java-source-version'
p758
NsS'symbian-icon1'
p759
NsS'symbian-icon2'
p760
NsS'nds-makercode'
p761
NsS'android-extra-styles-file'
p762
NsS'android-ext-target-sdk-version'
p763
(lp764
sS'wp81-publisher-id'
p765
NsS'nds-bannertitle-jp'
p766
NsS'wp81-logo-image44x44'
p767
NsS'osx-sign-for-store'
p768
NsS'symbian7-uid'
p769
NsS'wp8-tile-fliptemplate-large-back-content'
p770
NsS'wp81-phone-publisher-id'
p771
NsS'nds-bannertitle-cn'
p772
NsS'iphone-distribution-key'
p773
NsS'android-icon-gallery'
p774
NsS'blackberry-keystore'
p775
NsS'iphone-nosign'
p776
NsS'caption'
p777
NsS'android-extra-manifest'
p778
(lp779
sS'wp81-ext-sdk-ref'
p780
(lp781
sS'android-icon-xxhdpi'
p782
NsS'version-minor'
p783
NsS'iphone-skip-launch-generation'
p784
NsS'iphone-link-libdirs'
p785
(lp786
sS'iphone-icon-large'
p787
NsS'symbian-keypwd'
p788
NsS'symbian8-uid'
p789
NsS'symbian-cert-key'
p790
NsS'winmobile-ampd-part-number'
p791
NsS'arch'
p792
NsS'nds-romheadertemplate'
p793
NsS'webos-icon'
p794
NsS'wp81-ext-device-capabilities'
p795
(lp796
sS'psp-dlgprotectdocument'
p797
NsS'ws8-splash-screen-background'
p798
NsS'android-icon-mdpi'
p799
NsS'android-sdk-build-tools-version'
p800
NsS'nds-icon'
p801
NsS'ws8-custom-manifest-fill'
p802
NsS'iphone-development-cert'
p803
NsS'and'
p804
NsS'symbian-icon2-mask-black'
p805
NsS'blackberry-phone-icon'
p806
NsS'iphone-enable-4inch-retina'
p807
NsS'ws8-custom-manifest'
p808
NsS'version-major'
p809
NsS'wp8-genre-isgame'
p810
NsS'uiq3-uid'
p811
NsS'iphone-splash-retina-generate'
p812
NsS'tizen-hw-acceleration'
p813
NsS'iphone_bundle_localisations'
p814
NsS'tizen-dist1-key'
p815
NsS'wp81-custom-manifest-fill'
p816
NsS'wp8-custom-manifest'
p817
NsS'nds-bannertitle-ge'
p818
NsS'iphone-sign-for-distribution'
p819
NsS'wp8-tile-fliptemplate-medium-back-image'
p820
NsS'wp8-publisher-id'
p821
NsS'icon'
p822
S'c:/marmalade/7.6/examples/marmaladeexampleresources/resources/icons'
p823
sS'android-target-sdk-version'
p824
NsS'wp8-exclude-wxga'
p825
NsS'wp81-identity-name'
p826
NsS'uiq3-icon2-mask'
p827
NsS'iphone-splashscreen-portrait'
p828
NsS'iphone-icon-high-res'
p829
NsS'ws81-distribution-pfx-password'
p830
NsS'playbook-author'
p831
NsS'android-icon-xhdpi'
p832
NsS'linux-ext-lib'
p833
(lp834
sS'blackberry-permissions-access-internet'
p835
NsS'wp8-exclude-720p'
p836
NsS'lgtv-use-drm'
p837
NsS'symbian-platsecflags'
p838
NsS'ws8-description'
p839
NsS'blackberry-playbook-icon'
p840
NsS'copyright'
p841
NsS'ws8-distribution-pfx-password'
p842
NsS'win32-gles-directory'
p843
NsS'version'
p844
NsS'android-ext-min-sdk-version'
p845
(lp846
sS'iphone-uiviewcontroller-based-status-bar'
p847
NsS'ws81-logo-image150x150'
p848
NsS'osx-signing-identity-app'
p849
NsS'tizen-project-url'
p850
NsS'symbian-icon-svg'
p851
NsS'android-aliasname'
p852
NsS'psp-dlgmanual'
p853
NsS'brew-uid'
p854
NsS'symbian-locationsupport'
p855
NsS'wp81-logo-image50x50'
p856
NsS'ws8-ext-managed-dll'
p857
(lp858
sS'nds-bannertitle-it'
p859
NsS'ws81-custom-manifest-fill'
p860
NsS'ws8-ext-sdk-manifest-part'
p861
(lp862
sS'uiq3-icon1-mask'
p863
NsS'winmobile-icon16'
p864
NsS'ws8-product-name'
p865
NsS'blackberry-cskpass'
p866
NsS'winmobile-start-menu-folder'
p867
NsS'brew-clsid'
p868
NsS'roku-requires-bluetooth'
p869
NsS'iphone-default-development-profile'
p870
NsS'ws8-ext-device-capabilities'
p871
(lp872
sS'blackberry-permissions-use-camera'
p873
NsS'ws81-extra-pri'
p874
(lp875
sS'iphone-prerendered-icon'
p876
NsS'iphone-appid'
p877
NsS'ws8-identity-name'
p878
NsS'tizen-dist2-CA-path'
p879
NsS'android-external-jars'
p880
(lp881
sS'winmobile-icon64'
p882
NsS'blackberry-permissions-post-notification'
p883
NsS'winmobile-setup-dll'
p884
NsS'firefoxos-manifest'
p885
NsS'win8-winrt-extra-res'
p886
(lp887
sS'wp81-ext-sdk-manifest-part'
p888
(lp889
sS'symbian9-uid'
p890
NsS'iphone-icon-ipad-ios7'
p891
NsS'winmobile-trace-file'
p892
NsS'roku-splash-color'
p893
NsS'psp-appversion'
p894
NsS'android-java-target-version'
p895
NsS'ws8-publisher-id'
p896
NsS'android-supports-gl-texture'
p897
(lp898
sS'winmobile-png45'
p899
NsS'wp81-extra-res'
p900
(lp901
sS'android-storepass'
p902
NsS'osx-signing-identity-inst'
p903
NsS'android-custom-activity'
p904
NsS'psp-discversion'
p905
NsS'wp81-ext-managed-dll'
p906
(lp907
sS'psp-copyright'
p908
NsS'embed-icf'
p909
NsS'tizen-manifest'
p910
NsS'osx-icon'
p911
NsS'webos-appinfo'
p912
NsS'psp-dlghealthwarning'
p913
NsS'webos-appid'
p914
NsS'roku-icon-side-hd'
p915
NsS'iphone-icon-ipad-search-high-res-ios7'
p916
NsS'iphone-extra-plist'
p917
(lp918
sS'ws81-ext-sdk-manifest-part'
p919
(lp920
sS'loader_name_prefix'
p921
NsS'iphone-launch-dir'
p922
S'c:/marmalade/7.6/examples/marmaladeexampleresources/resources/splashscreens/ios'
p923
sS'nds-titlename'
p924
NsS'ws81-logo-image50x50'
p925
NsS'wp81-custom-manifest'
p926
NsS'osx-entitlements-plist'
p927
NsS'psp-dlgicon0'
p928
NsS'winmobile-nouninstall'
p929
NsS'psp-discid'
p930
NsS'tizen-dist2-password'
p931
NsS'ws8-ext-sdk-ref'
p932
(lp933
sS'iphone-extra-string'
p934
(lp935
sS'version-string'
p936
NsS'iphone-icon-high-res-ios7'
p937
NsS'ws8-certificate-end-date'
p938
NsS'tizen-so'
p939
(lp940
sS'wp8-tile-fliptemplate-small-image'
p941
NsS'playbook-authorid'
p942
NsS'iphone-signing-identity'
p943
NsS'roku-persist-quota'
p944
NsS'nds-bannertitle-fr'
p945
NsS'ws8-distribution-pfx'
p946
NsS'ws8-publisher-display-name'
p947
NsS'brew-icon-small'
p948
NsS'psp-dlgpic2'
p949
NsS'psp-dlgpic0'
p950
NsS'psp-pic0'
p951
NsS'psp-pic1'
p952
NsS'win32-pref-windowtitle'
p953
NsS'psp-icon0'
p954
NsS'psp-icon1'
p955
NsS'ws81-identity-name'
p956
NsS'winmobile-icon'
p957
NsS'iphone-no-splash'
p958
NsS'iphone-splash'
p959
NsS'iphone-app-fonts'
p960
NsS'wp8-ext-native-dll'
p961
(lp962
sS'wp81-splash-screen-image480x800'
p963
NsS'ws81-distribution-cer'
p964
NsS'iphone-backgroundmode-audio'
p965
NsS'uiq3-icon2'
p966
NsS'uiq3-icon3'
p967
NsS'uiq3-icon1'
p968
NsS'uiq3-icon1-format'
p969
NsS'ws8-logo-image50x50'
p970
NsS'iphone-icon-ipad-search'
p971
NsS'symbian-run-on-install'
p972
NsS'wp81-description'
p973
NsS'ws81-publisher-display-name'
p974
NsS'firefoxos-xulrunner'
p975
NsS'symbian-soundrecordsupport'
p976
NsS'nds-bannertitle-sp'
p977
NsS'psp-producer'
p978
NsS'iphone-apple-wwdr-cert'
p979
NsS'android-icon-nonstandard'
p980
NsS'win32-pref-processtitle'
p981
NsS'nds-bannertitle-hn'
p982
NsS'tizen-dist2-key'
p983
NsS'brew-depends'
p984
NsS'ws81-custom-manifest'
p985
NsS'iphone-allow-launch-rotation'
p986
NsS'iphone-icon-ipad-search-ios7'
p987
NsS'brew-icon-medium'
p988
NsS'iphone-bundle-url-name'
p989
NsS'wp8-tile-fliptemplate-large-front-image'
p990
NsS'tizen-dist2-CA-root-path'
p991
NsS'ws81-description'
p992
NsS'uiq3-icon3-format'
p993
NsS'ws81-logo-image30x30'
p994
NsS'win8-phone-extra-res'
p995
(lp996
sS'iphone-signing-host'
p997
NsS'tizen-icon'
p998
NsS'osx-info-plist'
p999
NsS'symbian-icon1-format'
p1000
NsS'ws81-distribution-pfx'
p1001
NsS'blackberry-authorid'
p1002
NsS'ws81-publisher-id'
p1003
NsS'win8-store-extra-res'
p1004
(lp1005
sS'wp8-description'
p1006
NsS'iphone-link-opts'
p1007
(lp1008
sS'ws81-ext-sdk-ref'
p1009
(lp1010
sS'roku-splash-min-time'
p1011
NsS'wp8-tile-fliptemplate-medium-front-image'
p1012
NsS'iphone-disable-launch-images'
p1013
NsS'android-sdk-platform-version'
p1014
NsS'provider'
p1015
NsS'playbook-keystore'
p1016
NsS'tizen-appid'
p1017
NsS'wp8-extra-res'
p1018
(lp1019
sS'symbian-osexecsupport'
p1020
NsS'android-install-location'
p1021
NsS'nds-privatesavedatasize'
p1022
NsS'iphone-disable-testflight'
p1023
NsS'playbook-storepass'
p1024
NsS'android-icon-ldpi'
p1025
NsS'manufacturer'
p1026
NsS'itunes-artwork'
p1027
NsS'iphone-extra-sections'
p1028
NsS'ws81-product-name'
p1029
NsS'ws81-ext-native-dll'
p1030
(lp1031
sS'ws8-extra-pri'
p1032
(lp1033
sS'wp8-product-id'
p1034
NsS'ws8-logo-image30x30'
p1035
NsS'wp8-ext-managed-dll'
p1036
(lp1037
sS'iphone-splashscreen-landscape'
p1038
NsS'symbian-maxheapsize'
p1039
NsS'android-extra-packages'
p1040
(lp1041
sS'priv-sign-key'
p1042
NsS'networking'
p1043
NsS'android-icon'
p1044
NsS'iphone-icon-settings'
p1045
NsS'wp81-phone-product-id'
p1046
NsS'firefoxos-icon-60X60'
p1047
NsS'iphone-distribution-cert'
p1048
NsS'android_extra_strings'
p1049
NsS'nds-bannertitle-en'
p1050
NsS'blackberry-permissions-record-audio'
p1051
NsS'android-so'
p1052
(lp1053
sS'wp8-higher-mem'
p1054
NsS'wp8-ext-sdk-ref'
p1055
(lp1056
sS'wp8-fast-resume-mode'
p1057
NsS'roku-splash-screen-hd'
p1058
NsS'iphone-bundle-url-schemes'
p1059
NsS'roku-screensaver-private'
p1060
NsS'osx-extra-res'
p1061
(lp1062
sS'ws81-extra-res'
p1063
(lp1064
sS'playbook-icon'
p1065
NsS'uid'
p1066
NsS'pkguid-as-uid'
p1067
NsS'wp81-ext-native-dll'
p1068
(lp1069
sS'tizen-dist1-password'
p1070
NsS'roku-screensaver-title'
p1071
NsS'osx-minimum-osx-version'
p1072
NsS'symbian-cert'
p1073
NsS'iphone-icon'
p1074
NsS'ws81-ext-capabilities'
p1075
(lp1076
sS'ws8-distribution-cer'
p1077
NsS'playbook-access-shared'
p1078
NsS'iphone-icon-ipad-high-res-ios7'
p1079
NsS'iphone-link-libs'
p1080
(lp1081
sS'wp8-exclude-wvga'
p1082
NsS'assets'
p1083
NsS'wp8-tile-fliptemplate-large-back-image'
p1084
NsS'wp8-custom-manifest-fill'
p1085
NsS'pub-sign-key'
p1086
NsS'android-extra-strings'
p1087
NsS'tizen-author-CA-path'
p1088
Nssg356
g599
sbssS'platform'
p1089
S'S3E'
p1090
sg70
S'1.0'
p1091
sS'arcade_platform'
p1092
g4
sS'extensions'
p1093
(dp1094
sS'source_groups_tree'
p1095
(dp1096
S'(libpng)'
p1097
(dp1098
S'h'
p1099
(dp1100
S'c:/marmalade/7.6/modules/third_party/libpng/h/png.h'
p1101
(lp1102
I1
a(dp1103
asS'c:/marmalade/7.6/modules/third_party/libpng/h/pngconf.h'
p1104
(lp1105
I1
ag1103
assS'c:/marmalade/7.6/modules/third_party/libpng/libpng.mkf'
p1106
(lp1107
I1
a(dp1108
assS'(libjpeg)'
p1109
(dp1110
g1099
(dp1111
S'c:/marmalade/7.6/modules/third_party/libjpeg/h/jpeglib.h'
p1112
(lp1113
I1
a(dp1114
asS'c:/marmalade/7.6/modules/third_party/libjpeg/h/transupp.h'
p1115
(lp1116
I1
ag1114
asS'c:/marmalade/7.6/modules/third_party/libjpeg/h/jchuff.h'
p1117
(lp1118
I1
ag1114
asS'c:/marmalade/7.6/modules/third_party/libjpeg/h/jerror.h'
p1119
(lp1120
I1
ag1114
asS'c:/marmalade/7.6/modules/third_party/libjpeg/h/jconfig.h'
p1121
(lp1122
I1
ag1114
asS'c:/marmalade/7.6/modules/third_party/libjpeg/h/jpegint.h'
p1123
(lp1124
I1
ag1114
asS'c:/marmalade/7.6/modules/third_party/libjpeg/h/jinclude.h'
p1125
(lp1126
I1
ag1114
asS'c:/marmalade/7.6/modules/third_party/libjpeg/h/jdhuff.h'
p1127
(lp1128
I1
ag1114
asS'c:/marmalade/7.6/modules/third_party/libjpeg/h/cderror.h'
p1129
(lp1130
I1
ag1114
asS'c:/marmalade/7.6/modules/third_party/libjpeg/h/jversion.h'
p1131
(lp1132
I1
ag1114
asS'c:/marmalade/7.6/modules/third_party/libjpeg/h/cdjpeg.h'
p1133
(lp1134
I1
ag1114
asS'c:/marmalade/7.6/modules/third_party/libjpeg/h/jmemsys.h'
p1135
(lp1136
I1
ag1114
asS'c:/marmalade/7.6/modules/third_party/libjpeg/h/jdct.h'
p1137
(lp1138
I1
ag1114
asS'c:/marmalade/7.6/modules/third_party/libjpeg/h/jmorecfg.h'
p1139
(lp1140
I1
ag1114
assS'c:/marmalade/7.6/modules/third_party/libjpeg/libjpeg.mkf'
p1141
(lp1142
I1
a(dp1143
assS'(tiniconv)'
p1144
(dp1145
S'c:/marmalade/7.6/modules/third_party/tiniconv/source/tiniconv.h'
p1146
(lp1147
I1
a(dp1148
asS'c:/marmalade/7.6/modules/third_party/tiniconv/source/tiniconv_int.h'
p1149
(lp1150
I1
ag1148
asS'c:/marmalade/7.6/modules/third_party/tiniconv/tiniconv.mkf'
p1151
(lp1152
I1
a(dp1153
assS'(SoundEngine)'
p1154
(dp1155
S'c:/marmalade/7.6/examples/gametutorial/cpp/modules/soundengine/h/IwSoundParams.h'
p1156
(lp1157
I1
a(dp1158
asS'c:/marmalade/7.6/examples/gametutorial/cpp/modules/soundengine/source/IwSoundWAV.cpp'
p1159
(lp1160
I1
ag1158
asS'c:/marmalade/7.6/examples/gametutorial/cpp/modules/soundengine/source/IwSoundManager.cpp'
p1161
(lp1162
I1
ag1158
asS'c:/marmalade/7.6/examples/gametutorial/cpp/modules/soundengine/h/IwSoundSpec.h'
p1163
(lp1164
I1
ag1158
asS'c:/marmalade/7.6/examples/gametutorial/cpp/modules/soundengine/h/IwSoundManager.h'
p1165
(lp1166
I1
ag1158
asS'c:/marmalade/7.6/examples/gametutorial/cpp/modules/soundengine/source/IwResHandlerWAV.cpp'
p1167
(lp1168
I1
ag1158
asS'c:/marmalade/7.6/examples/gametutorial/cpp/modules/soundengine/h/IwSoundPCM.h'
p1169
(lp1170
I1
ag1158
asS'c:/marmalade/7.6/examples/gametutorial/cpp/modules/soundengine/source/IwSoundData.cpp'
p1171
(lp1172
I1
ag1158
asS'c:/marmalade/7.6/examples/gametutorial/cpp/modules/soundengine/h/IwSoundADPCM.h'
p1173
(lp1174
I1
ag1158
asS'Docs'
p1175
(dp1176
S'c:/marmalade/7.6/examples/gametutorial/cpp/modules/soundengine/docs/iwsound.config.txt'
p1177
(lp1178
I1
ag1158
assS'c:/marmalade/7.6/examples/gametutorial/cpp/modules/soundengine/h/IwSoundGroup.h'
p1179
(lp1180
I1
ag1158
asS'c:/marmalade/7.6/examples/gametutorial/cpp/modules/soundengine/h/IwSoundWAV.h'
p1181
(lp1182
I1
ag1158
asS'c:/marmalade/7.6/examples/gametutorial/cpp/modules/soundengine/h/IwSound.h'
p1183
(lp1184
I1
ag1158
asS'c:/marmalade/7.6/examples/gametutorial/cpp/modules/soundengine/h/IwResHandlerWAV.h'
p1185
(lp1186
I1
ag1158
asS'c:/marmalade/7.6/examples/gametutorial/cpp/modules/soundengine/source/IwSoundInst.cpp'
p1187
(lp1188
I1
ag1158
asS'c:/marmalade/7.6/examples/gametutorial/cpp/modules/soundengine/source/IwSoundADPCM.cpp'
p1189
(lp1190
I1
ag1158
asS'c:/marmalade/7.6/examples/gametutorial/cpp/modules/soundengine/soundengine.mkf'
p1191
(lp1192
I1
a(dp1193
asS'c:/marmalade/7.6/examples/gametutorial/cpp/modules/soundengine/h/IwSoundData.h'
p1194
(lp1195
I1
ag1158
asS'c:/marmalade/7.6/examples/gametutorial/cpp/modules/soundengine/source/IwSoundGroup.cpp'
p1196
(lp1197
I1
ag1158
asS'c:/marmalade/7.6/examples/gametutorial/cpp/modules/soundengine/h/IwSoundInst.h'
p1198
(lp1199
I1
ag1158
asS'c:/marmalade/7.6/examples/gametutorial/cpp/modules/soundengine/source/IwSoundSpec.cpp'
p1200
(lp1201
I1
ag1158
asS'c:/marmalade/7.6/examples/gametutorial/cpp/modules/soundengine/source/IwSoundParams.cpp'
p1202
(lp1203
I1
ag1158
asS'c:/marmalade/7.6/examples/gametutorial/cpp/modules/soundengine/source/IwSoundPCM.cpp'
p1204
(lp1205
I1
ag1158
assS'(MarmaladeExampleResources)'
p1206
(dp1207
S'c:/marmalade/7.6/examples/marmaladeexampleresources/marmaladeexampleresources.mkf'
p1208
(lp1209
I1
a(dp1210
assS'source'
p1211
(dp1212
S'c:/Marmalade/7.6/examples/GameTutorial/CPP/marm1/source/hero.h'
p1213
(lp1214
I1
a(dp1215
asS'c:/Marmalade/7.6/examples/GameTutorial/CPP/marm1/source/audio.cpp'
p1216
(lp1217
I1
ag1215
asS'c:/Marmalade/7.6/examples/GameTutorial/CPP/marm1/source/Level.h'
p1218
(lp1219
I1
ag1215
asS'c:/Marmalade/7.6/examples/GameTutorial/CPP/marm1/source/input.cpp'
p1220
(lp1221
I1
ag1215
asS'c:/Marmalade/7.6/examples/GameTutorial/CPP/marm1/source/Enemymanager.cpp'
p1222
(lp1223
I1
ag1215
asS'c:/Marmalade/7.6/examples/GameTutorial/CPP/marm1/source/enemy.h'
p1224
(lp1225
I1
ag1215
asS'c:/Marmalade/7.6/examples/GameTutorial/CPP/marm1/source/Enemymanager.h'
p1226
(lp1227
I1
ag1215
asS'c:/Marmalade/7.6/examples/GameTutorial/CPP/marm1/source/mainMenu.cpp'
p1228
(lp1229
I1
ag1215
asS'c:/Marmalade/7.6/examples/GameTutorial/CPP/marm1/source/main.cpp'
p1230
(lp1231
I1
ag1215
asS'c:/Marmalade/7.6/examples/GameTutorial/CPP/marm1/source/Shark.cpp'
p1232
(lp1233
I1
ag1215
asS'c:/Marmalade/7.6/examples/GameTutorial/CPP/marm1/source/resources.h'
p1234
(lp1235
I1
ag1215
asS'c:/Marmalade/7.6/examples/GameTutorial/CPP/marm1/source/main.h'
p1236
(lp1237
I1
ag1215
asS'c:/Marmalade/7.6/examples/GameTutorial/CPP/marm1/source/scene.h'
p1238
(lp1239
I1
ag1215
asS'c:/Marmalade/7.6/examples/GameTutorial/CPP/marm1/source/pauseMenu.h'
p1240
(lp1241
I1
ag1215
asS'c:/Marmalade/7.6/examples/GameTutorial/CPP/marm1/source/Shark.h'
p1242
(lp1243
I1
ag1215
asS'c:/Marmalade/7.6/examples/GameTutorial/CPP/marm1/source/scene.cpp'
p1244
(lp1245
I1
ag1215
asS'c:/Marmalade/7.6/examples/GameTutorial/CPP/marm1/source/GameScene.h'
p1246
(lp1247
I1
ag1215
asS'c:/Marmalade/7.6/examples/GameTutorial/CPP/marm1/source/GameScene.cpp'
p1248
(lp1249
I1
ag1215
asS'c:/Marmalade/7.6/examples/GameTutorial/CPP/marm1/source/Levelmanager.h'
p1250
(lp1251
I1
ag1215
asS'c:/Marmalade/7.6/examples/GameTutorial/CPP/marm1/source/mainMenu.h'
p1252
(lp1253
I1
ag1215
asS'c:/Marmalade/7.6/examples/GameTutorial/CPP/marm1/source/Levelmanager.cpp'
p1254
(lp1255
I1
ag1215
asS'c:/Marmalade/7.6/examples/GameTutorial/CPP/marm1/source/resources.cpp'
p1256
(lp1257
I1
ag1215
asS'c:/Marmalade/7.6/examples/GameTutorial/CPP/marm1/source/pauseMenu.cpp'
p1258
(lp1259
I1
ag1215
asS'c:/Marmalade/7.6/examples/GameTutorial/CPP/marm1/source/audio.h'
p1260
(lp1261
I1
ag1215
asS'c:/Marmalade/7.6/examples/GameTutorial/CPP/marm1/source/enemy.cpp'
p1262
(lp1263
I1
ag1215
asS'c:/Marmalade/7.6/examples/GameTutorial/CPP/marm1/source/hero.cpp'
p1264
(lp1265
I1
ag1215
asS'c:/Marmalade/7.6/examples/GameTutorial/CPP/marm1/source/input.h'
p1266
(lp1267
I1
ag1215
assS'Extensions'
p1268
(dp1269
S'PVRTexTool'
p1270
(dp1271
S'interface'
p1272
(dp1273
S'c:/marmalade/7.6/extensions/pvrtextool/interface/PVRTexTool.defines.txt'
p1274
(lp1275
I1
a(dp1276
asS'c:/marmalade/7.6/extensions/pvrtextool/interface/PVRTexTool_interface.cpp'
p1277
(lp1278
I1
ag1276
assS'c:/marmalade/7.6/extensions/pvrtextool/pvrtextool.mkf'
p1279
(lp1280
I1
a(dp1281
asS'c:/marmalade/7.6/extensions/pvrtextool/h/PVRTexTool.h'
p1282
(lp1283
I1
ag1276
asssS"'Marmalade Studio'"
p1284
(dp1285
S'iw2dscenegraph'
p1286
(dp1287
S'c:/marmalade/7.6/modules/iw2dscenegraph/h/Iw2DSceneGraph.h'
p1288
(lp1289
I1
a(dp1290
asS'c:/marmalade/7.6/modules/iw2dscenegraph/iw2dscenegraph.mkf'
p1291
(lp1292
I1
a(dp1293
asS'c:/marmalade/7.6/modules/iw2dscenegraph/docs/iw2dscenegraph.defines.txt'
p1294
(lp1295
I1
ag1290
asS'c:/marmalade/7.6/modules/iw2dscenegraph/source/Iw2DSceneGraph.cpp'
p1296
(lp1297
I1
ag1290
assS'iwgl'
p1298
(dp1299
S'c:/marmalade/7.6/modules/iwgl/h/IwGL.h'
p1300
(lp1301
I1
a(dp1302
asS'c:/marmalade/7.6/modules/iwgl/iwgl.mkf'
p1303
(lp1304
I1
a(dp1305
asS'c:/marmalade/7.6/modules/iwgl/docs/iwgl.config.txt'
p1306
(lp1307
I1
ag1302
asS'c:/marmalade/7.6/modules/iwgl/h/IwGLExt.h'
p1308
(lp1309
I1
ag1302
assS'iw2d'
p1310
(dp1311
S'c:/marmalade/7.6/modules/iw2d/iw2d.mkf'
p1312
(lp1313
I1
a(dp1314
asS'c:/marmalade/7.6/modules/iw2d/docs/iw2d_public.defines.txt'
p1315
(lp1316
I1
a(dp1317
asS'c:/marmalade/7.6/modules/iw2d/h/Iw2D.h'
p1318
(lp1319
I1
ag1317
asS'c:/marmalade/7.6/modules/iw2d/docs/iw2d.config.txt'
p1320
(lp1321
I1
ag1317
assS'iwgxfont'
p1322
(dp1323
S'c:/marmalade/7.6/modules/iwgxfont/h/IwGxFontPreparedData.h'
p1324
(lp1325
I1
a(dp1326
asS'c:/marmalade/7.6/modules/iwgxfont/h/IwGxFontState.h'
p1327
(lp1328
I1
ag1326
asS'c:/marmalade/7.6/modules/iwgxfont/iwgxfont.mkf'
p1329
(lp1330
I1
a(dp1331
asS'c:/marmalade/7.6/modules/iwgxfont/h/IwGxFontTypes.h'
p1332
(lp1333
I1
ag1326
asS'c:/marmalade/7.6/modules/iwgxfont/h/IwGxFontContainer.h'
p1334
(lp1335
I1
ag1326
asS'c:/marmalade/7.6/modules/iwgxfont/docs/iwgxfont_public.defines.txt'
p1336
(lp1337
I1
ag1326
asS'c:/marmalade/7.6/modules/iwgxfont/h/IwGxFont.h'
p1338
(lp1339
I1
ag1326
asS'c:/marmalade/7.6/modules/iwgxfont/h/IwGxFontGlyph.h'
p1340
(lp1341
I1
ag1326
asS'c:/marmalade/7.6/modules/iwgxfont/docs/iwgxfont.config.txt'
p1342
(lp1343
I1
ag1326
assS'iwgeom'
p1344
(dp1345
S'c:/marmalade/7.6/modules/iwgeom/h/IwGeomSVec3.h'
p1346
(lp1347
I1
a(dp1348
asS'c:/marmalade/7.6/modules/iwgeom/h/IwGeomFPlane.h'
p1349
(lp1350
I1
ag1348
asS'c:/marmalade/7.6/modules/iwgeom/h/IwGeomPlane.h'
p1351
(lp1352
I1
ag1348
asS'c:/marmalade/7.6/modules/iwgeom/h/IwGeomSVec2.h'
p1353
(lp1354
I1
ag1348
asS'c:/marmalade/7.6/modules/iwgeom/h/IwGeomVec3.h'
p1355
(lp1356
I1
ag1348
asS'c:/marmalade/7.6/modules/iwgeom/h/IwGeomMat2D.h'
p1357
(lp1358
I1
ag1348
asS'c:/marmalade/7.6/modules/iwgeom/h/IwGeomVec2.h'
p1359
(lp1360
I1
ag1348
asS'c:/marmalade/7.6/modules/iwgeom/h/IwGeomSqrt.h'
p1361
(lp1362
I1
ag1348
asS'c:/marmalade/7.6/modules/iwgeom/h/IwGeomQuat.h'
p1363
(lp1364
I1
ag1348
asS'c:/marmalade/7.6/modules/iwgeom/h/IwGeomMat.h.tpl'
p1365
(lp1366
I1
ag1348
asS'c:/marmalade/7.6/modules/iwgeom/h/IwGeomVec4.h'
p1367
(lp1368
I1
ag1348
asS'c:/marmalade/7.6/modules/iwgeom/docs/iwgeom.config.txt'
p1369
(lp1370
I1
ag1348
asS'c:/marmalade/7.6/modules/iwgeom/h/IwGeomBBox.h'
p1371
(lp1372
I1
ag1348
asS'c:/marmalade/7.6/modules/iwgeom/h/IwGeomFIntersect.h'
p1373
(lp1374
I1
ag1348
asS'c:/marmalade/7.6/modules/iwgeom/h/IwGeomSVec4.h'
p1375
(lp1376
I1
ag1348
asS'c:/marmalade/7.6/modules/iwgeom/h/IwGeomCore.h'
p1377
(lp1378
I1
ag1348
asS'c:/marmalade/7.6/modules/iwgeom/h/IwGeomMat.h'
p1379
(lp1380
I1
ag1348
asS'c:/marmalade/7.6/modules/iwgeom/h/IwGeomMat2D.h.tpl'
p1381
(lp1382
I1
ag1348
asS'c:/marmalade/7.6/modules/iwgeom/h/IwGeomIntersect.h'
p1383
(lp1384
I1
ag1348
asS'c:/marmalade/7.6/modules/iwgeom/h/IwGeomFQuat.h'
p1385
(lp1386
I1
ag1348
asS'c:/marmalade/7.6/modules/iwgeom/h/IwGeomVec.h'
p1387
(lp1388
I1
ag1348
asS'c:/marmalade/7.6/modules/iwgeom/h/IwGeomFMat.h'
p1389
(lp1390
I1
ag1348
asS'c:/marmalade/7.6/modules/iwgeom/h/IwGeom.h'
p1391
(lp1392
I1
ag1348
asS'c:/marmalade/7.6/modules/iwgeom/h/IwGeomMenu.h'
p1393
(lp1394
I1
ag1348
asS'c:/marmalade/7.6/modules/iwgeom/h/IwGeomFVec4.h'
p1395
(lp1396
I1
ag1348
asS'c:/marmalade/7.6/modules/iwgeom/h/IwGeomFBBox.h'
p1397
(lp1398
I1
ag1348
asS'c:/marmalade/7.6/modules/iwgeom/h/IwGeomFVec2.h'
p1399
(lp1400
I1
ag1348
asS'c:/marmalade/7.6/modules/iwgeom/h/IwGeomFMat2D.h'
p1401
(lp1402
I1
ag1348
asS'c:/marmalade/7.6/modules/iwgeom/h/IwGeomQuat.h.tpl'
p1403
(lp1404
I1
ag1348
asS'c:/marmalade/7.6/modules/iwgeom/h/IwGeomFSphere.h'
p1405
(lp1406
I1
ag1348
asS'c:/marmalade/7.6/modules/iwgeom/h/IwGeomSphere.h'
p1407
(lp1408
I1
ag1348
asS'c:/marmalade/7.6/modules/iwgeom/h/IwGeomFVec3.h'
p1409
(lp1410
I1
ag1348
asS'c:/marmalade/7.6/modules/iwgeom/h/IwGeomSQuat.h'
p1411
(lp1412
I1
ag1348
asS'c:/marmalade/7.6/modules/iwgeom/h/IwGeomVec.h.tpl'
p1413
(lp1414
I1
ag1348
asS'c:/marmalade/7.6/modules/iwgeom/h/IwGeomLegacy.h'
p1415
(lp1416
I1
ag1348
asS'c:/marmalade/7.6/modules/iwgeom/iwgeom.mkf'
p1417
(lp1418
I1
a(dp1419
assS'iwresmanager'
p1420
(dp1421
S'c:/marmalade/7.6/modules/iwresmanager/h/IwResManagerClass.h'
p1422
(lp1423
I1
a(dp1424
asS'c:/marmalade/7.6/modules/iwresmanager/h/IwResHandlerITX.h'
p1425
(lp1426
I1
ag1424
asS'c:/marmalade/7.6/modules/iwresmanager/h/IwResHandler.h'
p1427
(lp1428
I1
ag1424
asS'c:/marmalade/7.6/modules/iwresmanager/h/IwResHandlerGROUP.h'
p1429
(lp1430
I1
ag1424
asS'c:/marmalade/7.6/modules/iwresmanager/docs/iwresmanager.config.txt'
p1431
(lp1432
I1
ag1424
asS'c:/marmalade/7.6/modules/iwresmanager/h/IwResGroup.h'
p1433
(lp1434
I1
ag1424
asS'c:/marmalade/7.6/modules/iwresmanager/iwresmanager.mkf'
p1435
(lp1436
I1
a(dp1437
asS'c:/marmalade/7.6/modules/iwresmanager/h/IwResHandlerImage.h'
p1438
(lp1439
I1
ag1424
asS'c:/marmalade/7.6/modules/iwresmanager/h/IwResSerialise.h'
p1440
(lp1441
I1
ag1424
asS'c:/marmalade/7.6/modules/iwresmanager/h/IwResManager.h'
p1442
(lp1443
I1
ag1424
assS'iwgx'
p1444
(dp1445
S'c:/marmalade/7.6/modules/iwgx/h/IwGxTransformSW.h'
p1446
(lp1447
I1
a(dp1448
asS'c:/marmalade/7.6/modules/iwgx/h/IwGxDebug.h'
p1449
(lp1450
I1
ag1448
asS'c:/marmalade/7.6/modules/iwgx/h/IwMatAnim.h'
p1451
(lp1452
I1
ag1448
asS'c:/marmalade/7.6/modules/iwgx/h/IwFColour.h'
p1453
(lp1454
I1
ag1448
asS'c:/marmalade/7.6/modules/iwgx/h/IwGxFuncTable.h'
p1455
(lp1456
I1
ag1448
asS'c:/marmalade/7.6/modules/iwgx/h/IwClip.h'
p1457
(lp1458
I1
ag1448
asS'c:/marmalade/7.6/modules/iwgx/h/IwClip.inl'
p1459
(lp1460
I1
ag1448
asS'c:/marmalade/7.6/modules/iwgx/h/IwResHandlerMTL.h'
p1461
(lp1462
I1
ag1448
asS'c:/marmalade/7.6/modules/iwgx/h/IwGxError.h'
p1463
(lp1464
I1
ag1448
asS'c:/marmalade/7.6/modules/iwgx/h/IwGxMetrics.h'
p1465
(lp1466
I1
ag1448
asS'c:/marmalade/7.6/modules/iwgx/h/IwTexture.h'
p1467
(lp1468
I1
ag1448
asS'c:/marmalade/7.6/modules/iwgx/h/IwGxSurface.h'
p1469
(lp1470
I1
ag1448
asS'c:/marmalade/7.6/modules/iwgx/docs/iwgx_public.defines.txt'
p1471
(lp1472
I1
ag1448
asS'c:/marmalade/7.6/modules/iwgx/h/IwColour.h'
p1473
(lp1474
I1
ag1448
asS'c:/marmalade/7.6/modules/iwgx/h/IwDebugPrim.h'
p1475
(lp1476
I1
ag1448
asS'c:/marmalade/7.6/modules/iwgx/h/IwGxState.h'
p1477
(lp1478
I1
ag1448
asS'c:/marmalade/7.6/modules/iwgx/docs/iwgx.config.txt'
p1479
(lp1480
I1
ag1448
asS'c:/marmalade/7.6/modules/iwgx/h/IwGx.h'
p1481
(lp1482
I1
ag1448
asS'c:/marmalade/7.6/modules/iwgx/h/IwGxPrint.h'
p1483
(lp1484
I1
ag1448
asS'c:/marmalade/7.6/modules/iwgx/h/IwTPage.h'
p1485
(lp1486
I1
ag1448
asS'c:/marmalade/7.6/modules/iwgx/iwgx.mkf'
p1487
(lp1488
I1
a(dp1489
asS'c:/marmalade/7.6/modules/iwgx/h/IwGxShaderTechnique.h'
p1490
(lp1491
I1
ag1448
asS'c:/marmalade/7.6/modules/iwgx/h/IwGxStream.h'
p1492
(lp1493
I1
ag1448
asS'c:/marmalade/7.6/modules/iwgx/h/IwMaterial.h'
p1494
(lp1495
I1
ag1448
asS'c:/marmalade/7.6/modules/iwgx/h/IwGxTypes.h'
p1496
(lp1497
I1
ag1448
assS'iw2dscenegraphcore'
p1498
(dp1499
S'c:/marmalade/7.6/modules/iw2dscenegraphcore/source/Iw2DSceneGraphCore.cpp'
p1500
(lp1501
I1
a(dp1502
asS'c:/marmalade/7.6/modules/iw2dscenegraphcore/iw2dscenegraphcore.mkf'
p1503
(lp1504
I1
a(dp1505
asS'c:/marmalade/7.6/modules/iw2dscenegraphcore/h/Iw2DSceneGraphCore.h'
p1506
(lp1507
I1
ag1502
assS'iwutil'
p1508
(dp1509
S'c:/marmalade/7.6/modules/iwutil/h/IwMenu.h'
p1510
(lp1511
I1
a(dp1512
asS'c:/marmalade/7.6/modules/iwutil/h/IwFile.h'
p1513
(lp1514
I1
ag1512
asS'c:/marmalade/7.6/modules/iwutil/h/IwOptimiseARM.h'
p1515
(lp1516
I1
ag1512
asS'c:/marmalade/7.6/modules/iwutil/iwutil.mkf'
p1517
(lp1518
I1
a(dp1519
asS'c:/marmalade/7.6/modules/iwutil/h/IwArray.h'
p1520
(lp1521
I1
ag1512
asS'c:/marmalade/7.6/modules/iwutil/h/IwEvent.h'
p1522
(lp1523
I1
ag1512
asS'c:/marmalade/7.6/modules/iwutil/h/IwRandom.h'
p1524
(lp1525
I1
ag1512
asS'c:/marmalade/7.6/modules/iwutil/h/IwMemBucket.h'
p1526
(lp1527
I1
ag1512
asS'c:/marmalade/7.6/modules/iwutil/h/IwOptimiseSize.h'
p1528
(lp1529
I1
ag1512
asS'c:/marmalade/7.6/modules/iwutil/h/IwResource.h'
p1530
(lp1531
I1
ag1512
asS'c:/marmalade/7.6/modules/iwutil/h/IwTextParser.h'
p1532
(lp1533
I1
ag1512
asS'c:/marmalade/7.6/modules/iwutil/h/IwKeymap.h'
p1534
(lp1535
I1
ag1512
asS'c:/marmalade/7.6/modules/iwutil/h/IwClassFactory.h'
p1536
(lp1537
I1
ag1512
asS'c:/marmalade/7.6/modules/iwutil/h/IwPath.h'
p1538
(lp1539
I1
ag1512
asS'c:/marmalade/7.6/modules/iwutil/h/IwUtilInitTerm.h'
p1540
(lp1541
I1
ag1512
asS'c:/marmalade/7.6/modules/iwutil/h/IwVariableBitField.h'
p1542
(lp1543
I1
ag1512
asS'c:/marmalade/7.6/modules/iwutil/h/IwManaged.h'
p1544
(lp1545
I1
ag1512
asS'c:/marmalade/7.6/modules/iwutil/h/IwUTF8.h'
p1546
(lp1547
I1
ag1512
asS'c:/marmalade/7.6/modules/iwutil/h/IwTextParserITX.h'
p1548
(lp1549
I1
ag1512
asS'c:/marmalade/7.6/modules/iwutil/h/IwImage.h'
p1550
(lp1551
I1
ag1512
asS'c:/marmalade/7.6/modules/iwutil/docs/iwutil.config.txt'
p1552
(lp1553
I1
ag1512
asS'c:/marmalade/7.6/modules/iwutil/h/IwUncopyable.h'
p1554
(lp1555
I1
ag1512
asS'c:/marmalade/7.6/modules/iwutil/h/IwAllocator.h'
p1556
(lp1557
I1
ag1512
asS'c:/marmalade/7.6/modules/iwutil/h/IwDivTable.h'
p1558
(lp1559
I1
ag1512
asS'c:/marmalade/7.6/modules/iwutil/h/IwManagedList.h'
p1560
(lp1561
I1
ag1512
asS'c:/marmalade/7.6/modules/iwutil/h/IwFibre.h'
p1562
(lp1563
I1
ag1512
asS'c:/marmalade/7.6/modules/iwutil/h/IwMemBucketHelpers.h'
p1564
(lp1565
I1
ag1512
asS'c:/marmalade/7.6/modules/iwutil/h/IwCopyingPtr.h'
p1566
(lp1567
I1
ag1512
asS'c:/marmalade/7.6/modules/iwutil/h/IwCore.h'
p1568
(lp1569
I1
ag1512
asS'c:/marmalade/7.6/modules/iwutil/h/IwOptimiseThumb.h'
p1570
(lp1571
I1
ag1512
asS'c:/marmalade/7.6/modules/iwutil/h/IwProfileMenu.h'
p1572
(lp1573
I1
ag1512
asS'c:/marmalade/7.6/modules/iwutil/h/IwHashString.h'
p1574
(lp1575
I1
ag1512
asS'c:/marmalade/7.6/modules/iwutil/h/IwMath.h'
p1576
(lp1577
I1
ag1512
asS'c:/marmalade/7.6/modules/iwutil/h/IwString.h'
p1578
(lp1579
I1
ag1512
asS'c:/marmalade/7.6/modules/iwutil/h/IwList.h'
p1580
(lp1581
I1
ag1512
asS'c:/marmalade/7.6/modules/iwutil/h/IwTextParseable.h'
p1582
(lp1583
I1
ag1512
asS'c:/marmalade/7.6/modules/iwutil/h/IwOptimiseSpeed.h'
p1584
(lp1585
I1
ag1512
asS'c:/marmalade/7.6/modules/iwutil/h/IwMemManagerDL.h'
p1586
(lp1587
I1
ag1512
asS'c:/marmalade/7.6/modules/iwutil/h/IwSingleton.h'
p1588
(lp1589
I1
ag1512
asS'c:/marmalade/7.6/modules/iwutil/h/IwUtil.h'
p1590
(lp1591
I1
ag1512
asS'c:/marmalade/7.6/modules/iwutil/h/IwImageHelper.h'
p1592
(lp1593
I1
ag1512
asS'c:/marmalade/7.6/modules/iwutil/h/IwDebug.h'
p1594
(lp1595
I1
ag1512
asS'c:/marmalade/7.6/modules/iwutil/h/IwBuffer.h'
p1596
(lp1597
I1
ag1512
asS'c:/marmalade/7.6/modules/iwutil/h/IwRuntime.h'
p1598
(lp1599
I1
ag1512
asS'c:/marmalade/7.6/modules/iwutil/h/IwChar.h'
p1600
(lp1601
I1
ag1512
asS'c:/marmalade/7.6/modules/iwutil/h/IwAutoFile.h'
p1602
(lp1603
I1
ag1512
asS'c:/marmalade/7.6/modules/iwutil/h/IwSerialise.h'
p1604
(lp1605
I1
ag1512
asS'c:/marmalade/7.6/modules/iwutil/h/IwDivide.h'
p1606
(lp1607
I1
ag1512
asS'c:/marmalade/7.6/modules/iwutil/h/IwTypes.h'
p1608
(lp1609
I1
ag1512
asS'c:/marmalade/7.6/modules/iwutil/h/IwMemory.h'
p1610
(lp1611
I1
ag1512
asssS'(zlib)'
p1612
(dp1613
g1099
(dp1614
S'c:/marmalade/7.6/modules/third_party/zlib/h/zlib.h'
p1615
(lp1616
I1
a(dp1617
asS'c:/marmalade/7.6/modules/third_party/zlib/h/zconf.h'
p1618
(lp1619
I1
ag1617
assS'c:/marmalade/7.6/modules/third_party/zlib/zlib.mkf'
p1620
(lp1621
I1
a(dp1622
assS'(iwtween)'
p1623
(dp1624
S'c:/marmalade/7.6/modules/iwtween/iwtween.mkf'
p1625
(lp1626
I1
a(dp1627
asS'c:/marmalade/7.6/modules/iwtween/source/IwTween.cpp'
p1628
(lp1629
I1
a(dp1630
asS'c:/marmalade/7.6/modules/iwtween/h/IwTween.h'
p1631
(lp1632
I1
ag1630
assS'(s3e-default)'
p1633
(dp1634
S'c:/marmalade/7.6/s3e/s3e-default.mkf'
p1635
(lp1636
I1
a(dp1637
asssS'files'
p1638
(dp1639
S'IwGxFontPreparedData.h'
p1640
g330
(cmkb_main
File
p1641
g332
Ntp1642
Rp1643
(dp1644
S'flags'
p1645
g1326
sS'group'
p1646
(lp1647
S"'Marmalade Studio'"
p1648
ag1322
asg356
g1324
sbsS'iterator'
p1649
g330
(g1641
g332
Ntp1650
Rp1651
(dp1652
g1645
(dp1653
sg1646
(lp1654
S"'Marmalade System (S3E)'"
p1655
aS'stdc headers'
p1656
aS'c++'
p1657
asg356
S'c:/marmalade/7.6/s3e/h/std/c++/iterator'
p1658
sbsS'IwGL.h'
p1659
g330
(g1641
g332
Ntp1660
Rp1661
(dp1662
g1645
g1302
sg1646
(lp1663
S"'Marmalade Studio'"
p1664
ag1298
asg356
g1300
sbsS's3e.h'
p1665
g330
(g1641
g332
Ntp1666
Rp1667
(dp1668
g1645
g1653
sg1646
(lp1669
g1655
asg356
S'c:/marmalade/7.6/s3e/h/s3e.h'
p1670
sbsS'errno.h'
p1671
g330
(g1641
g332
Ntp1672
Rp1673
(dp1674
g1645
g1653
sg1646
(lp1675
g1655
aS'stdc headers'
p1676
asg356
S'c:/marmalade/7.6/s3e/h/std/errno.h'
p1677
sbsS'IwSingleton.h'
p1678
g330
(g1641
g332
Ntp1679
Rp1680
(dp1681
g1645
g1512
sg1646
(lp1682
S"'Marmalade Studio'"
p1683
ag1508
asg356
g1588
sbsS'dlfcn.h'
p1684
g330
(g1641
g332
Ntp1685
Rp1686
(dp1687
g1645
g1653
sg1646
g1675
sg356
S'c:/marmalade/7.6/s3e/h/std/dlfcn.h'
p1688
sbsS'IwSoundWAV.cpp'
p1689
g330
(g1641
g332
Ntp1690
Rp1691
(dp1692
g1645
g1158
sg1646
(lp1693
g1154
asg356
g1159
sbsS'sched.h'
p1694
g330
(g1641
g332
Ntp1695
Rp1696
(dp1697
g1645
g1653
sg1646
g1675
sg356
S'c:/marmalade/7.6/s3e/h/std/sched.h'
p1698
sbsS'IwSoundPCM.h'
p1699
g330
(g1641
g332
Ntp1700
Rp1701
(dp1702
g1645
g1158
sg1646
g1693
sg356
g1169
sbsS'IwGeomFMat2D.h'
p1703
g330
(g1641
g332
Ntp1704
Rp1705
(dp1706
g1645
g1348
sg1646
(lp1707
S"'Marmalade Studio'"
p1708
ag1344
asg356
g1401
sbsS'cassert'
p1709
g330
(g1641
g332
Ntp1710
Rp1711
(dp1712
g1645
g1653
sg1646
g1654
sg356
S'c:/marmalade/7.6/s3e/h/std/c++/cassert'
p1713
sbsS'grp.h'
p1714
g330
(g1641
g332
Ntp1715
Rp1716
(dp1717
g1645
g1653
sg1646
g1675
sg356
S'c:/marmalade/7.6/s3e/h/std/grp.h'
p1718
sbsS'list'
p1719
g330
(g1641
g332
Ntp1720
Rp1721
(dp1722
g1645
g1653
sg1646
g1654
sg356
S'c:/marmalade/7.6/s3e/h/std/c++/list'
p1723
sbsS'IwSoundSpec.cpp'
p1724
g330
(g1641
g332
Ntp1725
Rp1726
(dp1727
g1645
g1158
sg1646
g1693
sg356
g1200
sbsS'IwGeomMat.h.tpl'
p1728
g330
(g1641
g332
Ntp1729
Rp1730
(dp1731
g1645
g1348
sg1646
g1707
sg356
g1365
sbsS'istream'
p1732
g330
(g1641
g332
Ntp1733
Rp1734
(dp1735
g1645
g1653
sg1646
g1654
sg356
S'c:/marmalade/7.6/s3e/h/std/c++/istream'
p1736
sbsS'jpeglib.h'
p1737
g330
(g1641
g332
Ntp1738
Rp1739
(dp1740
g1645
g1114
sg1646
(lp1741
g1109
ag1099
asg356
g1112
sbsS'iw2d_public.defines.txt'
p1742
g330
(g1641
g332
Ntp1743
Rp1744
(dp1745
g1645
g1317
sg1646
(lp1746
S"'Marmalade Studio'"
p1747
ag1310
asg356
g1315
sbsS'iostream.h'
p1748
g330
(g1641
g332
Ntp1749
Rp1750
(dp1751
g1645
g1653
sg1646
g1654
sg356
S'c:/marmalade/7.6/s3e/h/std/c++/iostream.h'
p1752
sbsS'IwSoundADPCM.h'
p1753
g330
(g1641
g332
Ntp1754
Rp1755
(dp1756
g1645
g1158
sg1646
g1693
sg356
g1173
sbsS'string'
p1757
g330
(g1641
g332
Ntp1758
Rp1759
(dp1760
g1645
g1653
sg1646
g1654
sg356
S'c:/marmalade/7.6/s3e/h/std/c++/string'
p1761
sbsS'IwMemory.h'
p1762
g330
(g1641
g332
Ntp1763
Rp1764
(dp1765
g1645
g1512
sg1646
g1682
sg356
g1610
sbsS'IwGeomPlane.h'
p1766
g330
(g1641
g332
Ntp1767
Rp1768
(dp1769
g1645
g1348
sg1646
g1707
sg356
g1351
sbsS'iw2d.config.txt'
p1770
g330
(g1641
g332
Ntp1771
Rp1772
(dp1773
g1645
g1317
sg1646
g1746
sg356
g1320
sbsS'iomanip'
p1774
g330
(g1641
g332
Ntp1775
Rp1776
(dp1777
g1645
g1653
sg1646
g1654
sg356
S'c:/marmalade/7.6/s3e/h/std/c++/iomanip'
p1778
sbsS'iwgeom.mkf'
p1779
g330
(g1641
g332
Ntp1780
Rp1781
(dp1782
g1645
g1419
sg1646
g1707
sg356
g1417
sbsS'IwGxError.h'
p1783
g330
(g1641
g332
Ntp1784
Rp1785
(dp1786
g1645
g1448
sg1646
(lp1787
S"'Marmalade Studio'"
p1788
ag1444
asg356
g1463
sbsS'IwGeom.h'
p1789
g330
(g1641
g332
Ntp1790
Rp1791
(dp1792
g1645
g1348
sg1646
g1707
sg356
g1391
sbsS'scene.cpp'
p1793
g330
(g1641
g332
Ntp1794
Rp1795
(dp1796
g1645
g1215
sg1646
(lp1797
g1211
asg356
g1244
sbsS'IwGeomVec4.h'
p1798
g330
(g1641
g332
Ntp1799
Rp1800
(dp1801
g1645
g1348
sg1646
g1707
sg356
g1367
sbsS'dir.h'
p1802
g330
(g1641
g332
Ntp1803
Rp1804
(dp1805
g1645
g1653
sg1646
(lp1806
g1655
aS'stdc headers'
p1807
aS'sys'
p1808
asg356
S'c:/marmalade/7.6/s3e/h/std/sys/dir.h'
p1809
sbsS'locale.h'
p1810
g330
(g1641
g332
Ntp1811
Rp1812
(dp1813
g1645
g1653
sg1646
g1675
sg356
S'c:/marmalade/7.6/s3e/h/std/locale.h'
p1814
sbsS'vector'
p1815
g330
(g1641
g332
Ntp1816
Rp1817
(dp1818
g1645
g1653
sg1646
g1654
sg356
S'c:/marmalade/7.6/s3e/h/std/c++/vector'
p1819
sbsS'IwManaged.h'
p1820
g330
(g1641
g332
Ntp1821
Rp1822
(dp1823
g1645
g1512
sg1646
g1682
sg356
g1544
sbsS's3eCompass.h'
p1824
g330
(g1641
g332
Ntp1825
Rp1826
(dp1827
g1645
g1653
sg1646
g1669
sg356
S'c:/marmalade/7.6/s3e/h/s3eCompass.h'
p1828
sbsS'cderror.h'
p1829
g330
(g1641
g332
Ntp1830
Rp1831
(dp1832
g1645
g1114
sg1646
g1741
sg356
g1129
sbsS'climits'
p1833
g330
(g1641
g332
Ntp1834
Rp1835
(dp1836
g1645
g1653
sg1646
g1654
sg356
S'c:/marmalade/7.6/s3e/h/std/c++/climits'
p1837
sbsS's3eVibra.h'
p1838
g330
(g1641
g332
Ntp1839
Rp1840
(dp1841
g1645
g1653
sg1646
g1669
sg356
S'c:/marmalade/7.6/s3e/h/s3eVibra.h'
p1842
sbsS'jversion.h'
p1843
g330
(g1641
g332
Ntp1844
Rp1845
(dp1846
g1645
g1114
sg1646
g1741
sg356
g1131
sbsS'fnmatch.h'
p1847
g330
(g1641
g332
Ntp1848
Rp1849
(dp1850
g1645
g1653
sg1646
g1675
sg356
S'c:/marmalade/7.6/s3e/h/std/fnmatch.h'
p1851
sbsS'IwGxState.h'
p1852
g330
(g1641
g332
Ntp1853
Rp1854
(dp1855
g1645
g1448
sg1646
g1787
sg356
g1477
sbsS'rope'
p1856
g330
(g1641
g332
Ntp1857
Rp1858
(dp1859
g1645
g1653
sg1646
g1654
sg356
S'c:/marmalade/7.6/s3e/h/std/c++/rope'
p1860
sbsS's3eAudio.h'
p1861
g330
(g1641
g332
Ntp1862
Rp1863
(dp1864
g1645
g1653
sg1646
g1669
sg356
S'c:/marmalade/7.6/s3e/h/s3eAudio.h'
p1865
sbsS's3eSurface.h'
p1866
g330
(g1641
g332
Ntp1867
Rp1868
(dp1869
g1645
g1653
sg1646
g1669
sg356
S'c:/marmalade/7.6/s3e/h/s3eSurface.h'
p1870
sbsS'new'
p1871
g330
(g1641
g332
Ntp1872
Rp1873
(dp1874
g1645
g1653
sg1646
g1654
sg356
S'c:/marmalade/7.6/s3e/h/std/c++/new'
p1875
sbsS's3eWindow.h'
p1876
g330
(g1641
g332
Ntp1877
Rp1878
(dp1879
g1645
g1653
sg1646
(lp1880
g1655
aS'Extensions'
p1881
asg356
S'c:/marmalade/7.6/s3e/h/ext/s3eWindow.h'
p1882
sbsS'IwBuffer.h'
p1883
g330
(g1641
g332
Ntp1884
Rp1885
(dp1886
g1645
g1512
sg1646
g1682
sg356
g1596
sbsS'stdio_streambuf'
p1887
g330
(g1641
g332
Ntp1888
Rp1889
(dp1890
g1645
g1653
sg1646
g1654
sg356
S'c:/marmalade/7.6/s3e/h/std/c++/stdio_streambuf'
p1891
sbsS'IwGeomQuat.h.tpl'
p1892
g330
(g1641
g332
Ntp1893
Rp1894
(dp1895
g1645
g1348
sg1646
g1707
sg356
g1403
sbsS's3eOSExec.h'
p1896
g330
(g1641
g332
Ntp1897
Rp1898
(dp1899
g1645
g1653
sg1646
g1880
sg356
S'c:/marmalade/7.6/s3e/h/ext/s3eOSExec.h'
p1900
sbsS'IwGxTransformSW.h'
p1901
g330
(g1641
g332
Ntp1902
Rp1903
(dp1904
g1645
g1448
sg1646
g1787
sg356
g1446
sbsS'IwGxMetrics.h'
p1905
g330
(g1641
g332
Ntp1906
Rp1907
(dp1908
g1645
g1448
sg1646
g1787
sg356
g1465
sbsS'iwgxfont.config.txt'
p1909
g330
(g1641
g332
Ntp1910
Rp1911
(dp1912
g1645
g1326
sg1646
g1647
sg356
g1342
sbsS'gl2platform.h'
p1913
g330
(g1641
g332
Ntp1914
Rp1915
(dp1916
g1645
g1653
sg1646
(lp1917
g1655
aS'GL'
p1918
aS'GLES 2.0'
p1919
asg356
S'c:/marmalade/7.6/s3e/h/GLES2/gl2platform.h'
p1920
sbsS'IwResManagerClass.h'
p1921
g330
(g1641
g332
Ntp1922
Rp1923
(dp1924
g1645
g1424
sg1646
(lp1925
g1284
ag1420
asg356
g1422
sbsS'queue'
p1926
g330
(g1641
g332
Ntp1927
Rp1928
(dp1929
g1645
g1653
sg1646
g1654
sg356
S'c:/marmalade/7.6/s3e/h/std/c++/queue'
p1930
sbsS'time_1.h'
p1931
g330
(g1641
g332
Ntp1932
Rp1933
(dp1934
g1645
g1653
sg1646
g1806
sg356
S'c:/marmalade/7.6/s3e/h/std/sys/time.h'
p1935
sbsS'Iw2D.h'
p1936
g330
(g1641
g332
Ntp1937
Rp1938
(dp1939
g1645
g1317
sg1646
g1746
sg356
g1318
sbsS'IwGeomVec2.h'
p1940
g330
(g1641
g332
Ntp1941
Rp1942
(dp1943
g1645
g1348
sg1646
g1707
sg356
g1359
sbsS'sendfile.h'
p1944
g330
(g1641
g332
Ntp1945
Rp1946
(dp1947
g1645
g1653
sg1646
g1806
sg356
S'c:/marmalade/7.6/s3e/h/std/sys/sendfile.h'
p1948
sbsS'malloc.h'
p1949
g330
(g1641
g332
Ntp1950
Rp1951
(dp1952
g1645
g1653
sg1646
g1675
sg356
S'c:/marmalade/7.6/s3e/h/std/malloc.h'
p1953
sbsS'stdarg.h'
p1954
g330
(g1641
g332
Ntp1955
Rp1956
(dp1957
g1645
g1653
sg1646
g1675
sg356
S'c:/marmalade/7.6/s3e/h/std/stdarg.h'
p1958
sbsS'IwGeomCore.h'
p1959
g330
(g1641
g332
Ntp1960
Rp1961
(dp1962
g1645
g1348
sg1646
g1707
sg356
g1377
sbsS'Iw2DSceneGraph.h'
p1963
g330
(g1641
g332
Ntp1964
Rp1965
(dp1966
g1645
g1290
sg1646
(lp1967
S"'Marmalade Studio'"
p1968
ag1286
asg356
g1288
sbsS'endian.h'
p1969
g330
(g1641
g332
Ntp1970
Rp1971
(dp1972
g1645
g1653
sg1646
g1675
sg356
S'c:/marmalade/7.6/s3e/h/std/endian.h'
p1973
sbsS'gl3ext.h'
p1974
g330
(g1641
g332
Ntp1975
Rp1976
(dp1977
g1645
g1653
sg1646
(lp1978
g1655
aS'GL'
p1979
aS'GLES 3.0'
p1980
asg356
S'c:/marmalade/7.6/s3e/h/GLES3/gl3ext.h'
p1981
sbsS'glob.h'
p1982
g330
(g1641
g332
Ntp1983
Rp1984
(dp1985
g1645
g1653
sg1646
g1675
sg356
S'c:/marmalade/7.6/s3e/h/std/glob.h'
p1986
sbsS'fstream'
p1987
g330
(g1641
g332
Ntp1988
Rp1989
(dp1990
g1645
g1653
sg1646
g1654
sg356
S'c:/marmalade/7.6/s3e/h/std/c++/fstream'
p1991
sbsS's3eCamera.h'
p1992
g330
(g1641
g332
Ntp1993
Rp1994
(dp1995
g1645
g1653
sg1646
g1669
sg356
S'c:/marmalade/7.6/s3e/h/s3eCamera.h'
p1996
sbsS'jconfig.h'
p1997
g330
(g1641
g332
Ntp1998
Rp1999
(dp2000
g1645
g1114
sg1646
g1741
sg356
g1121
sbsS'memory'
p2001
g330
(g1641
g332
Ntp2002
Rp2003
(dp2004
g1645
g1653
sg1646
g1654
sg356
S'c:/marmalade/7.6/s3e/h/std/c++/memory'
p2005
sbsS'egl.h'
p2006
g330
(g1641
g332
Ntp2007
Rp2008
(dp2009
g1645
g1653
sg1646
(lp2010
g1655
aS'GL'
p2011
aS'EGL'
p2012
asg356
S'c:/marmalade/7.6/s3e/h/EGL/egl.h'
p2013
sbsS'egl_1.h'
p2014
g330
(g1641
g332
Ntp2015
Rp2016
(dp2017
g1645
g1653
sg1646
(lp2018
g1655
aS'GL'
p2019
aS'GLES 1.x'
p2020
asg356
S'c:/marmalade/7.6/s3e/h/GLES/egl.h'
p2021
sbsS'IwMemManagerDL.h'
p2022
g330
(g1641
g332
Ntp2023
Rp2024
(dp2025
g1645
g1512
sg1646
g1682
sg356
g1586
sbsS'deque'
p2026
g330
(g1641
g332
Ntp2027
Rp2028
(dp2029
g1645
g1653
sg1646
g1654
sg356
S'c:/marmalade/7.6/s3e/h/std/c++/deque'
p2030
sbsS'IwString.h'
p2031
g330
(g1641
g332
Ntp2032
Rp2033
(dp2034
g1645
g1512
sg1646
g1682
sg356
g1578
sbsS'GameScene.h'
p2035
g330
(g1641
g332
Ntp2036
Rp2037
(dp2038
g1645
g1215
sg1646
g1797
sg356
g1246
sbsS'cwchar'
p2039
g330
(g1641
g332
Ntp2040
Rp2041
(dp2042
g1645
g1653
sg1646
g1654
sg356
S'c:/marmalade/7.6/s3e/h/std/c++/cwchar'
p2043
sbsS'iwutil.mkf'
p2044
g330
(g1641
g332
Ntp2045
Rp2046
(dp2047
g1645
g1519
sg1646
g1682
sg356
g1517
sbsS'csignal'
p2048
g330
(g1641
g332
Ntp2049
Rp2050
(dp2051
g1645
g1653
sg1646
g1654
sg356
S'c:/marmalade/7.6/s3e/h/std/c++/csignal'
p2052
sbsS'pthread_types.h'
p2053
g330
(g1641
g332
Ntp2054
Rp2055
(dp2056
g1645
g1653
sg1646
g1675
sg356
S'c:/marmalade/7.6/s3e/h/std/pthread_types.h'
p2057
sbsS'pthread_alloc'
p2058
g330
(g1641
g332
Ntp2059
Rp2060
(dp2061
g1645
g1653
sg1646
g1654
sg356
S'c:/marmalade/7.6/s3e/h/std/c++/pthread_alloc'
p2062
sbsS'getopt.h'
p2063
g330
(g1641
g332
Ntp2064
Rp2065
(dp2066
g1645
g1653
sg1646
g1675
sg356
S'c:/marmalade/7.6/s3e/h/std/getopt.h'
p2067
sbsS'IwOptimiseARM.h'
p2068
g330
(g1641
g332
Ntp2069
Rp2070
(dp2071
g1645
g1512
sg1646
g1682
sg356
g1515
sbsS'times.h'
p2072
g330
(g1641
g332
Ntp2073
Rp2074
(dp2075
g1645
g1653
sg1646
g1806
sg356
S'c:/marmalade/7.6/s3e/h/std/sys/times.h'
p2076
sbsS'IwGeomFSphere.h'
p2077
g330
(g1641
g332
Ntp2078
Rp2079
(dp2080
g1645
g1348
sg1646
g1707
sg356
g1405
sbsS'functional'
p2081
g330
(g1641
g332
Ntp2082
Rp2083
(dp2084
g1645
g1653
sg1646
g1654
sg356
S'c:/marmalade/7.6/s3e/h/std/c++/functional'
p2085
sbsS'IwTypes.h'
p2086
g330
(g1641
g332
Ntp2087
Rp2088
(dp2089
g1645
g1512
sg1646
g1682
sg356
g1608
sbsS'unistd.h'
p2090
g330
(g1641
g332
Ntp2091
Rp2092
(dp2093
g1645
g1653
sg1646
g1675
sg356
S'c:/marmalade/7.6/s3e/h/std/unistd.h'
p2094
sbsS'audio.cpp'
p2095
g330
(g1641
g332
Ntp2096
Rp2097
(dp2098
g1645
g1215
sg1646
g1797
sg356
g1216
sbsS's3eCompression.h'
p2099
g330
(g1641
g332
Ntp2100
Rp2101
(dp2102
g1645
g1653
sg1646
g1669
sg356
S'c:/marmalade/7.6/s3e/h/s3eCompression.h'
p2103
sbsS'langinfo.h'
p2104
g330
(g1641
g332
Ntp2105
Rp2106
(dp2107
g1645
g1653
sg1646
g1675
sg356
S'c:/marmalade/7.6/s3e/h/std/langinfo.h'
p2108
sbsS's3edebugHeap.h'
p2109
g330
(g1641
g332
Ntp2110
Rp2111
(dp2112
g1645
g1653
sg1646
g1880
sg356
S'c:/marmalade/7.6/s3e/h/ext/s3edebugHeap.h'
p2113
sbsS'AirplayVersion.h'
p2114
g330
(g1641
g332
Ntp2115
Rp2116
(dp2117
g1645
g1653
sg1646
g1669
sg356
S'c:/marmalade/7.6/s3e/h/AirplayVersion.h'
p2118
sbsS'gl2extimg.h'
p2119
g330
(g1641
g332
Ntp2120
Rp2121
(dp2122
g1645
g1653
sg1646
g1917
sg356
S'c:/marmalade/7.6/s3e/h/GLES2/gl2extimg.h'
p2123
sbsS'IwGeomSqrt.h'
p2124
g330
(g1641
g332
Ntp2125
Rp2126
(dp2127
g1645
g1348
sg1646
g1707
sg356
g1361
sbsS'tiniconv_int.h'
p2128
g330
(g1641
g332
Ntp2129
Rp2130
(dp2131
g1645
g1148
sg1646
(lp2132
g1144
asg356
g1149
sbsS'syslog.h'
p2133
g330
(g1641
g332
Ntp2134
Rp2135
(dp2136
g1645
g1653
sg1646
g1675
sg356
S'c:/marmalade/7.6/s3e/h/std/syslog.h'
p2137
sbsS'IwGxFontTypes.h'
p2138
g330
(g1641
g332
Ntp2139
Rp2140
(dp2141
g1645
g1326
sg1646
g1647
sg356
g1332
sbsS'IwGeomFIntersect.h'
p2142
g330
(g1641
g332
Ntp2143
Rp2144
(dp2145
g1645
g1348
sg1646
g1707
sg356
g1373
sbsS'hash_map'
p2146
g330
(g1641
g332
Ntp2147
Rp2148
(dp2149
g1645
g1653
sg1646
g1654
sg356
S'c:/marmalade/7.6/s3e/h/std/c++/hash_map'
p2150
sbsS's3e.mkf'
p2151
g330
(g1641
g332
Ntp2152
Rp2153
(dp2154
g1645
(dp2155
sg1646
g1669
sg356
S'c:/marmalade/7.6/s3e/s3e.mkf'
p2156
sbsS'IwGeomMat2D.h.tpl'
p2157
g330
(g1641
g332
Ntp2158
Rp2159
(dp2160
g1645
g1348
sg1646
g1707
sg356
g1381
sbsS's3eOSReadString.h'
p2161
g330
(g1641
g332
Ntp2162
Rp2163
(dp2164
g1645
g1653
sg1646
g1880
sg356
S'c:/marmalade/7.6/s3e/h/ext/s3eOSReadString.h'
p2165
sbsS'IwSound.h'
p2166
g330
(g1641
g332
Ntp2167
Rp2168
(dp2169
g1645
g1158
sg1646
g1693
sg356
g1183
sbsS'map'
p2170
g330
(g1641
g332
Ntp2171
Rp2172
(dp2173
g1645
g1653
sg1646
g1654
sg356
S'c:/marmalade/7.6/s3e/h/std/c++/map'
p2174
sbsS'iwtween.mkf'
p2175
g330
(g1641
g332
Ntp2176
Rp2177
(dp2178
g1645
g1627
sg1646
(lp2179
g1623
asg356
g1625
sbsS'IwOptimiseSpeed.h'
p2180
g330
(g1641
g332
Ntp2181
Rp2182
(dp2183
g1645
g1512
sg1646
g1682
sg356
g1584
sbsS'ostream'
p2184
g330
(g1641
g332
Ntp2185
Rp2186
(dp2187
g1645
g1653
sg1646
g1654
sg356
S'c:/marmalade/7.6/s3e/h/std/c++/ostream'
p2188
sbsS'msl_string.h'
p2189
g330
(g1641
g332
Ntp2190
Rp2191
(dp2192
g1645
g1653
sg1646
g1654
sg356
S'c:/marmalade/7.6/s3e/h/std/c++/msl_string.h'
p2193
sbsS'select.h'
p2194
g330
(g1641
g332
Ntp2195
Rp2196
(dp2197
g1645
g1653
sg1646
g1806
sg356
S'c:/marmalade/7.6/s3e/h/std/sys/select.h'
p2198
sbsS'hero.cpp'
p2199
g330
(g1641
g332
Ntp2200
Rp2201
(dp2202
g1645
g1215
sg1646
g1797
sg356
g1264
sbsS'zlib.mkf'
p2203
g330
(g1641
g332
Ntp2204
Rp2205
(dp2206
g1645
g1622
sg1646
(lp2207
g1612
asg356
g1620
sbsS'signal.h'
p2208
g330
(g1641
g332
Ntp2209
Rp2210
(dp2211
g1645
g1653
sg1646
g1675
sg356
S'c:/marmalade/7.6/s3e/h/std/signal.h'
p2212
sbsS'sigcontext.h'
p2213
g330
(g1641
g332
Ntp2214
Rp2215
(dp2216
g1645
g1653
sg1646
g1675
sg356
S'c:/marmalade/7.6/s3e/h/std/sigcontext.h'
p2217
sbsS'libpng.mkf'
p2218
g330
(g1641
g332
Ntp2219
Rp2220
(dp2221
g1645
g1108
sg1646
(lp2222
g1097
asg356
g1106
sbsS's3eClipboard.h'
p2223
g330
(g1641
g332
Ntp2224
Rp2225
(dp2226
g1645
g1653
sg1646
g1669
sg356
S'c:/marmalade/7.6/s3e/h/s3eClipboard.h'
p2227
sbsS'IwGxFuncTable.h'
p2228
g330
(g1641
g332
Ntp2229
Rp2230
(dp2231
g1645
g1448
sg1646
g1787
sg356
g1455
sbsS'IwResHandlerGROUP.h'
p2232
g330
(g1641
g332
Ntp2233
Rp2234
(dp2235
g1645
g1424
sg1646
g1925
sg356
g1429
sbsS's3eDebug.h'
p2236
g330
(g1641
g332
Ntp2237
Rp2238
(dp2239
g1645
g1653
sg1646
g1669
sg356
S'c:/marmalade/7.6/s3e/h/s3eDebug.h'
p2240
sbsS'socket.h'
p2241
g330
(g1641
g332
Ntp2242
Rp2243
(dp2244
g1645
g1653
sg1646
g1806
sg356
S'c:/marmalade/7.6/s3e/h/std/sys/socket.h'
p2245
sbsS'glext.h'
p2246
g330
(g1641
g332
Ntp2247
Rp2248
(dp2249
g1645
g1653
sg1646
g2018
sg356
S'c:/marmalade/7.6/s3e/h/GLES/glext.h'
p2250
sbsS'typeinfo.h'
p2251
g330
(g1641
g332
Ntp2252
Rp2253
(dp2254
g1645
g1653
sg1646
g1654
sg356
S'c:/marmalade/7.6/s3e/h/std/c++/typeinfo.h'
p2255
sbsS'typeinfo'
p2256
g330
(g1641
g332
Ntp2257
Rp2258
(dp2259
g1645
g1653
sg1646
g1654
sg356
S'c:/marmalade/7.6/s3e/h/std/c++/typeinfo'
p2260
sbsS'iwsound.config.txt'
p2261
g330
(g1641
g332
Ntp2262
Rp2263
(dp2264
g1645
g1158
sg1646
(lp2265
g1154
ag1175
asg356
g1177
sbsS'fstream.h'
p2266
g330
(g1641
g332
Ntp2267
Rp2268
(dp2269
g1645
g1653
sg1646
g1654
sg356
S'c:/marmalade/7.6/s3e/h/std/c++/fstream.h'
p2270
sbsS'IwGeomMat.h'
p2271
g330
(g1641
g332
Ntp2272
Rp2273
(dp2274
g1645
g1348
sg1646
g1707
sg356
g1379
sbsS's3ePointer.h'
p2275
g330
(g1641
g332
Ntp2276
Rp2277
(dp2278
g1645
g1653
sg1646
g1669
sg356
S'c:/marmalade/7.6/s3e/h/s3ePointer.h'
p2279
sbsS'IwMemBucket.h'
p2280
g330
(g1641
g332
Ntp2281
Rp2282
(dp2283
g1645
g1512
sg1646
g1682
sg356
g1526
sbsS'PVRTexTool.h'
p2284
g330
(g1641
g332
Ntp2285
Rp2286
(dp2287
g1645
g1276
sg1646
(lp2288
g1268
ag1270
asg356
g1282
sbsS's3eGL.h'
p2289
g330
(g1641
g332
Ntp2290
Rp2291
(dp2292
g1645
g1653
sg1646
g1669
sg356
S'c:/marmalade/7.6/s3e/h/s3eGL.h'
p2293
sbsS'IwGeomFVec2.h'
p2294
g330
(g1641
g332
Ntp2295
Rp2296
(dp2297
g1645
g1348
sg1646
g1707
sg356
g1399
sbsS'IwGeomSVec4.h'
p2298
g330
(g1641
g332
Ntp2299
Rp2300
(dp2301
g1645
g1348
sg1646
g1707
sg356
g1375
sbsS'poll.h'
p2302
g330
(g1641
g332
Ntp2303
Rp2304
(dp2305
g1645
g1653
sg1646
g1675
sg356
S'c:/marmalade/7.6/s3e/h/std/poll.h'
p2306
sbsS'IwMatAnim.h'
p2307
g330
(g1641
g332
Ntp2308
Rp2309
(dp2310
g1645
g1448
sg1646
g1787
sg356
g1451
sbsS'IwGeomFVec4.h'
p2311
g330
(g1641
g332
Ntp2312
Rp2313
(dp2314
g1645
g1348
sg1646
g1707
sg356
g1395
sbsS'IwGx.h'
p2315
g330
(g1641
g332
Ntp2316
Rp2317
(dp2318
g1645
g1448
sg1646
g1787
sg356
g1481
sbsS'valarray'
p2319
g330
(g1641
g332
Ntp2320
Rp2321
(dp2322
g1645
g1653
sg1646
g1654
sg356
S'c:/marmalade/7.6/s3e/h/std/c++/valarray'
p2323
sbsS'iosfwd'
p2324
g330
(g1641
g332
Ntp2325
Rp2326
(dp2327
g1645
g1653
sg1646
g1654
sg356
S'c:/marmalade/7.6/s3e/h/std/c++/iosfwd'
p2328
sbsS'gl2.h'
p2329
g330
(g1641
g332
Ntp2330
Rp2331
(dp2332
g1645
g1653
sg1646
g1917
sg356
S'c:/marmalade/7.6/s3e/h/GLES2/gl2.h'
p2333
sbsS'jpegint.h'
p2334
g330
(g1641
g332
Ntp2335
Rp2336
(dp2337
g1645
g1114
sg1646
g1741
sg356
g1123
sbsS'stdiostream.h'
p2338
g330
(g1641
g332
Ntp2339
Rp2340
(dp2341
g1645
g1653
sg1646
g1654
sg356
S'c:/marmalade/7.6/s3e/h/std/c++/stdiostream.h'
p2342
sbsS'mem.h'
p2343
g330
(g1641
g332
Ntp2344
Rp2345
(dp2346
g1645
g1653
sg1646
g1654
sg356
S'c:/marmalade/7.6/s3e/h/std/c++/mem.h'
p2347
sbsS'jerror.h'
p2348
g330
(g1641
g332
Ntp2349
Rp2350
(dp2351
g1645
g1114
sg1646
g1741
sg356
g1119
sbsS'zconf.h'
p2352
g330
(g1641
g332
Ntp2353
Rp2354
(dp2355
g1645
g1617
sg1646
(lp2356
g1612
ag1099
asg356
g1618
sbsS's3e.config.txt'
p2357
g330
(g1641
g332
Ntp2358
Rp2359
(dp2360
g1645
g1653
sg1646
g1669
sg356
S'c:/marmalade/7.6/s3e/s3e.config.txt'
p2361
sbsS'numeric'
p2362
g330
(g1641
g332
Ntp2363
Rp2364
(dp2365
g1645
g1653
sg1646
g1654
sg356
S'c:/marmalade/7.6/s3e/h/std/c++/numeric'
p2366
sbsS'utime.h'
p2367
g330
(g1641
g332
Ntp2368
Rp2369
(dp2370
g1645
g1653
sg1646
g1675
sg356
S'c:/marmalade/7.6/s3e/h/std/utime.h'
p2371
sbsS'jdhuff.h'
p2372
g330
(g1641
g332
Ntp2373
Rp2374
(dp2375
g1645
g1114
sg1646
g1741
sg356
g1127
sbsS'IwResHandlerWAV.cpp'
p2376
g330
(g1641
g332
Ntp2377
Rp2378
(dp2379
g1645
g1158
sg1646
g1693
sg356
g1167
sbsS'un.h'
p2380
g330
(g1641
g332
Ntp2381
Rp2382
(dp2383
g1645
g1653
sg1646
g1806
sg356
S'c:/marmalade/7.6/s3e/h/std/sys/un.h'
p2384
sbsS'IwImage.h'
p2385
g330
(g1641
g332
Ntp2386
Rp2387
(dp2388
g1645
g1512
sg1646
g1682
sg356
g1550
sbsS's3eImagePicker.h'
p2389
g330
(g1641
g332
Ntp2390
Rp2391
(dp2392
g1645
g1653
sg1646
g1880
sg356
S'c:/marmalade/7.6/s3e/h/ext/s3eImagePicker.h'
p2393
sbsS'stdlib.h'
p2394
g330
(g1641
g332
Ntp2395
Rp2396
(dp2397
g1645
g1653
sg1646
g1675
sg356
S'c:/marmalade/7.6/s3e/h/std/stdlib.h'
p2398
sbsS'IwCopyingPtr.h'
p2399
g330
(g1641
g332
Ntp2400
Rp2401
(dp2402
g1645
g1512
sg1646
g1682
sg356
g1566
sbsS'iostream'
p2403
g330
(g1641
g332
Ntp2404
Rp2405
(dp2406
g1645
g1653
sg1646
g1654
sg356
S'c:/marmalade/7.6/s3e/h/std/c++/iostream'
p2407
sbsS'png.h'
p2408
g330
(g1641
g332
Ntp2409
Rp2410
(dp2411
g1645
g1103
sg1646
(lp2412
g1097
ag1099
asg356
g1101
sbsS'stddef.h'
p2413
g330
(g1641
g332
Ntp2414
Rp2415
(dp2416
g1645
g1653
sg1646
g1675
sg356
S'c:/marmalade/7.6/s3e/h/std/stddef.h'
p2417
sbsS'setjmp_win32.h'
p2418
g330
(g1641
g332
Ntp2419
Rp2420
(dp2421
g1645
g1653
sg1646
g1675
sg356
S'c:/marmalade/7.6/s3e/h/std/setjmp_win32.h'
p2422
sbsS'pauseMenu.h'
p2423
g330
(g1641
g332
Ntp2424
Rp2425
(dp2426
g1645
g1215
sg1646
g1797
sg356
g1240
sbsS'IwGxPrint.h'
p2427
g330
(g1641
g332
Ntp2428
Rp2429
(dp2430
g1645
g1448
sg1646
g1787
sg356
g1483
sbsS'iwgx_public.defines.txt'
p2431
g330
(g1641
g332
Ntp2432
Rp2433
(dp2434
g1645
g1448
sg1646
g1787
sg356
g1471
sbsS'streambuf.h'
p2435
g330
(g1641
g332
Ntp2436
Rp2437
(dp2438
g1645
g1653
sg1646
g1654
sg356
S'c:/marmalade/7.6/s3e/h/std/c++/streambuf.h'
p2439
sbsS'resources.cpp'
p2440
g330
(g1641
g332
Ntp2441
Rp2442
(dp2443
g1645
g1215
sg1646
g1797
sg356
g1256
sbsS'IwGeomFPlane.h'
p2444
g330
(g1641
g332
Ntp2445
Rp2446
(dp2447
g1645
g1348
sg1646
g1707
sg356
g1349
sbsS'wchar.h'
p2448
g330
(g1641
g332
Ntp2449
Rp2450
(dp2451
g1645
g1653
sg1646
g1675
sg356
S'c:/marmalade/7.6/s3e/h/std/wchar.h'
p2452
sbsS's3eCameraCapture.h'
p2453
g330
(g1641
g332
Ntp2454
Rp2455
(dp2456
g1645
g1653
sg1646
g1880
sg356
S'c:/marmalade/7.6/s3e/h/ext/s3eCameraCapture.h'
p2457
sbsS'eglext.h'
p2458
g330
(g1641
g332
Ntp2459
Rp2460
(dp2461
g1645
g1653
sg1646
g2010
sg356
S'c:/marmalade/7.6/s3e/h/EGL/eglext.h'
p2462
sbsS'IwResHandlerImage.h'
p2463
g330
(g1641
g332
Ntp2464
Rp2465
(dp2466
g1645
g1424
sg1646
g1925
sg356
g1438
sbsS'strstream.h'
p2467
g330
(g1641
g332
Ntp2468
Rp2469
(dp2470
g1645
g1653
sg1646
g1654
sg356
S'c:/marmalade/7.6/s3e/h/std/c++/strstream.h'
p2471
sbsS'tiniconv.h'
p2472
g330
(g1641
g332
Ntp2473
Rp2474
(dp2475
g1645
g1148
sg1646
g2132
sg356
g1146
sbsS'IwGLExt.h'
p2476
g330
(g1641
g332
Ntp2477
Rp2478
(dp2479
g1645
g1302
sg1646
g1663
sg356
g1308
sbsS'app.icf'
p2480
g330
(g1641
g332
Ntp2481
Rp2482
(dp2483
g1645
(dp2484
sg1646
g4
sg356
S'c:/Marmalade/7.6/examples/GameTutorial/CPP/marm1/data/app.icf'
p2485
sbsS'IwClassFactory.h'
p2486
g330
(g1641
g332
Ntp2487
Rp2488
(dp2489
g1645
g1512
sg1646
g1682
sg356
g1536
sbsS'file.h'
p2490
g330
(g1641
g332
Ntp2491
Rp2492
(dp2493
g1645
g1653
sg1646
g1806
sg356
S'c:/marmalade/7.6/s3e/h/std/sys/file.h'
p2494
sbsS'cstring'
p2495
g330
(g1641
g332
Ntp2496
Rp2497
(dp2498
g1645
g1653
sg1646
g1654
sg356
S'c:/marmalade/7.6/s3e/h/std/c++/cstring'
p2499
sbsS'IwSoundInst.cpp'
p2500
g330
(g1641
g332
Ntp2501
Rp2502
(dp2503
g1645
g1158
sg1646
g1693
sg356
g1187
sbsS'iwutil.config.txt'
p2504
g330
(g1641
g332
Ntp2505
Rp2506
(dp2507
g1645
g1512
sg1646
g1682
sg356
g1552
sbsS's3eSMS.h'
p2508
g330
(g1641
g332
Ntp2509
Rp2510
(dp2511
g1645
g1653
sg1646
g1880
sg356
S'c:/marmalade/7.6/s3e/h/ext/s3eSMS.h'
p2512
sbsS'limits.h'
p2513
g330
(g1641
g332
Ntp2514
Rp2515
(dp2516
g1645
g1653
sg1646
g1675
sg356
S'c:/marmalade/7.6/s3e/h/std/limits.h'
p2517
sbsS'scene.h'
p2518
g330
(g1641
g332
Ntp2519
Rp2520
(dp2521
g1645
g1215
sg1646
g1797
sg356
g1238
sbsS'IwMaterial.h'
p2522
g330
(g1641
g332
Ntp2523
Rp2524
(dp2525
g1645
g1448
sg1646
g1787
sg356
g1494
sbsS'PVRTexTool_interface.cpp'
p2526
g330
(g1641
g332
Ntp2527
Rp2528
(dp2529
g1645
g1276
sg1646
(lp2530
g1268
ag1270
ag1272
asg356
g1277
sbsS'IwGxSurface.h'
p2531
g330
(g1641
g332
Ntp2532
Rp2533
(dp2534
g1645
g1448
sg1646
g1787
sg356
g1469
sbsS's3eSocket.h'
p2535
g330
(g1641
g332
Ntp2536
Rp2537
(dp2538
g1645
g1653
sg1646
g1669
sg356
S'c:/marmalade/7.6/s3e/h/s3eSocket.h'
p2539
sbsS'IwAutoFile.h'
p2540
g330
(g1641
g332
Ntp2541
Rp2542
(dp2543
g1645
g1512
sg1646
g1682
sg356
g1602
sbsS'ipc.h'
p2544
g330
(g1641
g332
Ntp2545
Rp2546
(dp2547
g1645
g1653
sg1646
g1806
sg356
S'c:/marmalade/7.6/s3e/h/std/sys/ipc.h'
p2548
sbsS'poll_1.h'
p2549
g330
(g1641
g332
Ntp2550
Rp2551
(dp2552
g1645
g1653
sg1646
g1806
sg356
S'c:/marmalade/7.6/s3e/h/std/sys/poll.h'
p2553
sbsS's3eThread.h'
p2554
g330
(g1641
g332
Ntp2555
Rp2556
(dp2557
g1645
g1653
sg1646
g1669
sg356
S'c:/marmalade/7.6/s3e/h/s3eThread.h'
p2558
sbsS'ucontext.h'
p2559
g330
(g1641
g332
Ntp2560
Rp2561
(dp2562
g1645
g1653
sg1646
g1675
sg356
S'c:/marmalade/7.6/s3e/h/std/ucontext.h'
p2563
sbsS'time.h'
p2564
g330
(g1641
g332
Ntp2565
Rp2566
(dp2567
g1645
g1653
sg1646
g1675
sg356
S'c:/marmalade/7.6/s3e/h/std/time.h'
p2568
sbsS'jchuff.h'
p2569
g330
(g1641
g332
Ntp2570
Rp2571
(dp2572
g1645
g1114
sg1646
g1741
sg356
g1117
sbsS'IwSoundPCM.cpp'
p2573
g330
(g1641
g332
Ntp2574
Rp2575
(dp2576
g1645
g1158
sg1646
g1693
sg356
g1204
sbsS's3eSoundRecord.h'
p2577
g330
(g1641
g332
Ntp2578
Rp2579
(dp2580
g1645
g1653
sg1646
g1669
sg356
S'c:/marmalade/7.6/s3e/h/s3eSoundRecord.h'
p2581
sbsS'IwFibre.h'
p2582
g330
(g1641
g332
Ntp2583
Rp2584
(dp2585
g1645
g1512
sg1646
g1682
sg356
g1562
sbsS's3eVersion.h'
p2586
g330
(g1641
g332
Ntp2587
Rp2588
(dp2589
g1645
g1653
sg1646
g1669
sg356
S'c:/marmalade/7.6/s3e/h/s3eVersion.h'
p2590
sbsS'input.cpp'
p2591
g330
(g1641
g332
Ntp2592
Rp2593
(dp2594
g1645
g1215
sg1646
g1797
sg356
g1220
sbsS'IwSoundGroup.h'
p2595
g330
(g1641
g332
Ntp2596
Rp2597
(dp2598
g1645
g1158
sg1646
g1693
sg356
g1179
sbsS'IwSoundWAV.h'
p2599
g330
(g1641
g332
Ntp2600
Rp2601
(dp2602
g1645
g1158
sg1646
g1693
sg356
g1181
sbsS'IwGxFontGlyph.h'
p2603
g330
(g1641
g332
Ntp2604
Rp2605
(dp2606
g1645
g1326
sg1646
g1647
sg356
g1340
sbsS's3eTypes.h'
p2607
g330
(g1641
g332
Ntp2608
Rp2609
(dp2610
g1645
g1653
sg1646
g1669
sg356
S'c:/marmalade/7.6/s3e/h/s3eTypes.h'
p2611
sbsS'IwSoundSpec.h'
p2612
g330
(g1641
g332
Ntp2613
Rp2614
(dp2615
g1645
g1158
sg1646
g1693
sg356
g1163
sbsS'signal_2.h'
p2616
g330
(g1641
g332
Ntp2617
Rp2618
(dp2619
g1645
g1653
sg1646
g1654
sg356
S'c:/marmalade/7.6/s3e/h/std/c++/signal.h'
p2620
sbsS'termios.h'
p2621
g330
(g1641
g332
Ntp2622
Rp2623
(dp2624
g1645
g1653
sg1646
g1675
sg356
S'c:/marmalade/7.6/s3e/h/std/termios.h'
p2625
sbsS'iw2dscenegraph.mkf'
p2626
g330
(g1641
g332
Ntp2627
Rp2628
(dp2629
g1645
g1293
sg1646
g1967
sg356
g1291
sbsS'slist'
p2630
g330
(g1641
g332
Ntp2631
Rp2632
(dp2633
g1645
g1653
sg1646
g1654
sg356
S'c:/marmalade/7.6/s3e/h/std/c++/slist'
p2634
sbsS'cstdlib'
p2635
g330
(g1641
g332
Ntp2636
Rp2637
(dp2638
g1645
g1653
sg1646
g1654
sg356
S'c:/marmalade/7.6/s3e/h/std/c++/cstdlib'
p2639
sbsS's3eLocation.h'
p2640
g330
(g1641
g332
Ntp2641
Rp2642
(dp2643
g1645
g1653
sg1646
g1669
sg356
S'c:/marmalade/7.6/s3e/h/s3eLocation.h'
p2644
sbsS'IwMemBucketHelpers.h'
p2645
g330
(g1641
g332
Ntp2646
Rp2647
(dp2648
g1645
g1512
sg1646
g1682
sg356
g1564
sbsS's3eHash.h'
p2649
g330
(g1641
g332
Ntp2650
Rp2651
(dp2652
g1645
g1653
sg1646
g1669
sg356
S'c:/marmalade/7.6/s3e/h/s3eHash.h'
p2653
sbsS'IwSoundGroup.cpp'
p2654
g330
(g1641
g332
Ntp2655
Rp2656
(dp2657
g1645
g1158
sg1646
g1693
sg356
g1196
sbsS'Enemymanager.h'
p2658
g330
(g1641
g332
Ntp2659
Rp2660
(dp2661
g1645
g1215
sg1646
g1797
sg356
g1226
sbsS'IwGeomFMat.h'
p2662
g330
(g1641
g332
Ntp2663
Rp2664
(dp2665
g1645
g1348
sg1646
g1707
sg356
g1389
sbsS'type_traits.h'
p2666
g330
(g1641
g332
Ntp2667
Rp2668
(dp2669
g1645
g1653
sg1646
g1654
sg356
S'c:/marmalade/7.6/s3e/h/std/c++/type_traits.h'
p2670
sbsS's3eAtomic.h'
p2671
g330
(g1641
g332
Ntp2672
Rp2673
(dp2674
g1645
g1653
sg1646
g1669
sg356
S'c:/marmalade/7.6/s3e/h/s3eAtomic.h'
p2675
sbsS'IwMenu.h'
p2676
g330
(g1641
g332
Ntp2677
Rp2678
(dp2679
g1645
g1512
sg1646
g1682
sg356
g1510
sbsS'IwResHandlerITX.h'
p2680
g330
(g1641
g332
Ntp2681
Rp2682
(dp2683
g1645
g1424
sg1646
g1925
sg356
g1425
sbsS'IwSoundData.h'
p2684
g330
(g1641
g332
Ntp2685
Rp2686
(dp2687
g1645
g1158
sg1646
g1693
sg356
g1194
sbsS'IwArray.h'
p2688
g330
(g1641
g332
Ntp2689
Rp2690
(dp2691
g1645
g1512
sg1646
g1682
sg356
g1520
sbsS'IwUTF8.h'
p2692
g330
(g1641
g332
Ntp2693
Rp2694
(dp2695
g1645
g1512
sg1646
g1682
sg356
g1546
sbsS'math_rvct.h'
p2696
g330
(g1641
g332
Ntp2697
Rp2698
(dp2699
g1645
g1653
sg1646
g1675
sg356
S'c:/marmalade/7.6/s3e/h/std/math_rvct.h'
p2700
sbsS'IwUtil.h'
p2701
g330
(g1641
g332
Ntp2702
Rp2703
(dp2704
g1645
g1512
sg1646
g1682
sg356
g1590
sbsS'IwFColour.h'
p2705
g330
(g1641
g332
Ntp2706
Rp2707
(dp2708
g1645
g1448
sg1646
g1787
sg356
g1453
sbsS'wctype.h'
p2709
g330
(g1641
g332
Ntp2710
Rp2711
(dp2712
g1645
g1653
sg1646
g1675
sg356
S'c:/marmalade/7.6/s3e/h/std/wctype.h'
p2713
sbsS'mainMenu.h'
p2714
g330
(g1641
g332
Ntp2715
Rp2716
(dp2717
g1645
g1215
sg1646
g1797
sg356
g1252
sbsS'cstddef'
p2718
g330
(g1641
g332
Ntp2719
Rp2720
(dp2721
g1645
g1653
sg1646
g1654
sg356
S'c:/marmalade/7.6/s3e/h/std/c++/cstddef'
p2722
sbsS'assert.h'
p2723
g330
(g1641
g332
Ntp2724
Rp2725
(dp2726
g1645
g1653
sg1646
g1675
sg356
S'c:/marmalade/7.6/s3e/h/std/assert.h'
p2727
sbsS'mman.h'
p2728
g330
(g1641
g332
Ntp2729
Rp2730
(dp2731
g1645
g1653
sg1646
g1806
sg356
S'c:/marmalade/7.6/s3e/h/std/sys/mman.h'
p2732
sbsS'IwRandom.h'
p2733
g330
(g1641
g332
Ntp2734
Rp2735
(dp2736
g1645
g1512
sg1646
g1682
sg356
g1524
sbsS'libgen.h'
p2737
g330
(g1641
g332
Ntp2738
Rp2739
(dp2740
g1645
g1653
sg1646
g1675
sg356
S'c:/marmalade/7.6/s3e/h/std/libgen.h'
p2741
sbsS'utsname.h'
p2742
g330
(g1641
g332
Ntp2743
Rp2744
(dp2745
g1645
g1653
sg1646
g1806
sg356
S'c:/marmalade/7.6/s3e/h/std/sys/utsname.h'
p2746
sbsS'wait.h'
p2747
g330
(g1641
g332
Ntp2748
Rp2749
(dp2750
g1645
g1653
sg1646
g1806
sg356
S'c:/marmalade/7.6/s3e/h/std/sys/wait.h'
p2751
sbsS'param.h'
p2752
g330
(g1641
g332
Ntp2753
Rp2754
(dp2755
g1645
g1653
sg1646
g1806
sg356
S'c:/marmalade/7.6/s3e/h/std/sys/param.h'
p2756
sbsS'IwDivide.h'
p2757
g330
(g1641
g332
Ntp2758
Rp2759
(dp2760
g1645
g1512
sg1646
g1682
sg356
g1606
sbsS'Iw2DSceneGraphCore.cpp'
p2761
g330
(g1641
g332
Ntp2762
Rp2763
(dp2764
g1645
g1502
sg1646
(lp2765
S"'Marmalade Studio'"
p2766
ag1498
asg356
g1500
sbsS'IwResManager.h'
p2767
g330
(g1641
g332
Ntp2768
Rp2769
(dp2770
g1645
g1424
sg1646
g1925
sg356
g1442
sbsS'IwSoundManager.h'
p2771
g330
(g1641
g332
Ntp2772
Rp2773
(dp2774
g1645
g1158
sg1646
g1693
sg356
g1165
sbsS'cwctype'
p2775
g330
(g1641
g332
Ntp2776
Rp2777
(dp2778
g1645
g1653
sg1646
g1654
sg356
S'c:/marmalade/7.6/s3e/h/std/c++/cwctype'
p2779
sbsS'set'
p2780
g330
(g1641
g332
Ntp2781
Rp2782
(dp2783
g1645
g1653
sg1646
g1654
sg356
S'c:/marmalade/7.6/s3e/h/std/c++/set'
p2784
sbsS'IwGeomSQuat.h'
p2785
g330
(g1641
g332
Ntp2786
Rp2787
(dp2788
g1645
g1348
sg1646
g1707
sg356
g1411
sbsS'locale'
p2789
g330
(g1641
g332
Ntp2790
Rp2791
(dp2792
g1645
g1653
sg1646
g1654
sg356
S'c:/marmalade/7.6/s3e/h/std/c++/locale'
p2793
sbsS'cstdio'
p2794
g330
(g1641
g332
Ntp2795
Rp2796
(dp2797
g1645
g1653
sg1646
g1654
sg356
S'c:/marmalade/7.6/s3e/h/std/c++/cstdio'
p2798
sbsS'cdjpeg.h'
p2799
g330
(g1641
g332
Ntp2800
Rp2801
(dp2802
g1645
g1114
sg1646
g1741
sg356
g1133
sbsS'audio.h'
p2803
g330
(g1641
g332
Ntp2804
Rp2805
(dp2806
g1645
g1215
sg1646
g1797
sg356
g1260
sbsS'IwList.h'
p2807
g330
(g1641
g332
Ntp2808
Rp2809
(dp2810
g1645
g1512
sg1646
g1682
sg356
g1580
sbsS'pauseMenu.cpp'
p2811
g330
(g1641
g332
Ntp2812
Rp2813
(dp2814
g1645
g1215
sg1646
g1797
sg356
g1258
sbsS'inttypes.h'
p2815
g330
(g1641
g332
Ntp2816
Rp2817
(dp2818
g1645
g1653
sg1646
g1675
sg356
S'c:/marmalade/7.6/s3e/h/std/inttypes.h'
p2819
sbsS'dirent.h'
p2820
g330
(g1641
g332
Ntp2821
Rp2822
(dp2823
g1645
g1653
sg1646
g1675
sg356
S'c:/marmalade/7.6/s3e/h/std/dirent.h'
p2824
sbsS'IwGeomVec3.h'
p2825
g330
(g1641
g332
Ntp2826
Rp2827
(dp2828
g1645
g1348
sg1646
g1707
sg356
g1355
sbsS'transupp.h'
p2829
g330
(g1641
g332
Ntp2830
Rp2831
(dp2832
g1645
g1114
sg1646
g1741
sg356
g1115
sbsS'IwMath.h'
p2833
g330
(g1641
g332
Ntp2834
Rp2835
(dp2836
g1645
g1512
sg1646
g1682
sg356
g1576
sbsS'IwGeomQuat.h'
p2837
g330
(g1641
g332
Ntp2838
Rp2839
(dp2840
g1645
g1348
sg1646
g1707
sg356
g1363
sbsS'glplatform.h'
p2841
g330
(g1641
g332
Ntp2842
Rp2843
(dp2844
g1645
g1653
sg1646
g2018
sg356
S'c:/marmalade/7.6/s3e/h/GLES/glplatform.h'
p2845
sbsS's3e-default.mkf'
p2846
g330
(g1641
g332
Ntp2847
Rp2848
(dp2849
g1645
g1637
sg1646
(lp2850
g1633
asg356
g1635
sbsS'iwgl.config.txt'
p2851
g330
(g1641
g332
Ntp2852
Rp2853
(dp2854
g1645
g1302
sg1646
g1663
sg356
g1306
sbsS'bitset'
p2855
g330
(g1641
g332
Ntp2856
Rp2857
(dp2858
g1645
g1653
sg1646
g1654
sg356
S'c:/marmalade/7.6/s3e/h/std/c++/bitset'
p2859
sbsS'alloca.h'
p2860
g330
(g1641
g332
Ntp2861
Rp2862
(dp2863
g1645
g1653
sg1646
g1675
sg356
S'c:/marmalade/7.6/s3e/h/std/alloca.h'
p2864
sbsS'IwResHandler.h'
p2865
g330
(g1641
g332
Ntp2866
Rp2867
(dp2868
g1645
g1424
sg1646
g1925
sg356
g1427
sbsS'IwResHandlerMTL.h'
p2869
g330
(g1641
g332
Ntp2870
Rp2871
(dp2872
g1645
g1448
sg1646
g1787
sg356
g1461
sbsS'IwRuntime.h'
p2873
g330
(g1641
g332
Ntp2874
Rp2875
(dp2876
g1645
g1512
sg1646
g1682
sg356
g1598
sbsS'enemy.cpp'
p2877
g330
(g1641
g332
Ntp2878
Rp2879
(dp2880
g1645
g1215
sg1646
g1797
sg356
g1262
sbsS'limits'
p2881
g330
(g1641
g332
Ntp2882
Rp2883
(dp2884
g1645
g1653
sg1646
g1654
sg356
S'c:/marmalade/7.6/s3e/h/std/c++/limits'
p2885
sbsS'IwGeomBBox.h'
p2886
g330
(g1641
g332
Ntp2887
Rp2888
(dp2889
g1645
g1348
sg1646
g1707
sg356
g1371
sbsS's3eContacts.h'
p2890
g330
(g1641
g332
Ntp2891
Rp2892
(dp2893
g1645
g1653
sg1646
g1669
sg356
S'c:/marmalade/7.6/s3e/h/s3eContacts.h'
p2894
sbsS's3eLicense.h'
p2895
g330
(g1641
g332
Ntp2896
Rp2897
(dp2898
g1645
g1653
sg1646
g1669
sg356
S'c:/marmalade/7.6/s3e/h/s3eLicense.h'
p2899
sbsS'iwgx.config.txt'
p2900
g330
(g1641
g332
Ntp2901
Rp2902
(dp2903
g1645
g1448
sg1646
g1787
sg356
g1479
sbsS'IwTextParser.h'
p2904
g330
(g1641
g332
Ntp2905
Rp2906
(dp2907
g1645
g1512
sg1646
g1682
sg356
g1532
sbsS's3eTimer.h'
p2908
g330
(g1641
g332
Ntp2909
Rp2910
(dp2911
g1645
g1653
sg1646
g1669
sg356
S'c:/marmalade/7.6/s3e/h/s3eTimer.h'
p2912
sbsS'IwGeomVec.h'
p2913
g330
(g1641
g332
Ntp2914
Rp2915
(dp2916
g1645
g1348
sg1646
g1707
sg356
g1387
sbsS'IwSerialise.h'
p2917
g330
(g1641
g332
Ntp2918
Rp2919
(dp2920
g1645
g1512
sg1646
g1682
sg356
g1604
sbsS'cstdarg'
p2921
g330
(g1641
g332
Ntp2922
Rp2923
(dp2924
g1645
g1653
sg1646
g1654
sg356
S'c:/marmalade/7.6/s3e/h/std/c++/cstdarg'
p2925
sbsS'gl2ext.h'
p2926
g330
(g1641
g332
Ntp2927
Rp2928
(dp2929
g1645
g1653
sg1646
g1917
sg356
S'c:/marmalade/7.6/s3e/h/GLES2/gl2ext.h'
p2930
sbsS'IwChar.h'
p2931
g330
(g1641
g332
Ntp2932
Rp2933
(dp2934
g1645
g1512
sg1646
g1682
sg356
g1600
sbsS's3eSound.h'
p2935
g330
(g1641
g332
Ntp2936
Rp2937
(dp2938
g1645
g1653
sg1646
g1669
sg356
S'c:/marmalade/7.6/s3e/h/s3eSound.h'
p2939
sbsS's3eIOSBackgroundAudio.h'
p2940
g330
(g1641
g332
Ntp2941
Rp2942
(dp2943
g1645
g1653
sg1646
g1880
sg356
S'c:/marmalade/7.6/s3e/h/ext/s3eIOSBackgroundAudio.h'
p2944
sbsS'exception.h'
p2945
g330
(g1641
g332
Ntp2946
Rp2947
(dp2948
g1645
g1653
sg1646
g1654
sg356
S'c:/marmalade/7.6/s3e/h/std/c++/exception.h'
p2949
sbsS'iwgeom.config.txt'
p2950
g330
(g1641
g332
Ntp2951
Rp2952
(dp2953
g1645
g1348
sg1646
g1707
sg356
g1369
sbsS'Shark.h'
p2954
g330
(g1641
g332
Ntp2955
Rp2956
(dp2957
g1645
g1215
sg1646
g1797
sg356
g1242
sbsS'iwgx.mkf'
p2958
g330
(g1641
g332
Ntp2959
Rp2960
(dp2961
g1645
g1489
sg1646
g1787
sg356
g1487
sbsS'gl.h'
p2962
g330
(g1641
g332
Ntp2963
Rp2964
(dp2965
g1645
g1653
sg1646
g2018
sg356
S'c:/marmalade/7.6/s3e/h/GLES/gl.h'
p2966
sbsS'zlib.h'
p2967
g330
(g1641
g332
Ntp2968
Rp2969
(dp2970
g1645
g1617
sg1646
g2356
sg356
g1615
sbsS'temp_defines_release.h'
p2971
g330
(g1641
g332
Ntp2972
Rp2973
(dp2974
g1645
(lp2975
sg1646
(lp2976
S"'generated files'"
p2977
asg356
S'c:/Marmalade/7.6/examples/GameTutorial/CPP/marm1/build_stage4_vc12/temp_defines_release.h'
p2978
sbsS'iwgl.mkf'
p2979
g330
(g1641
g332
Ntp2980
Rp2981
(dp2982
g1645
g1305
sg1646
g1663
sg356
g1303
sbsS'IwColour.h'
p2983
g330
(g1641
g332
Ntp2984
Rp2985
(dp2986
g1645
g1448
sg1646
g1787
sg356
g1473
sbsS's3eLibrary.h'
p2987
g330
(g1641
g332
Ntp2988
Rp2989
(dp2990
g1645
g1653
sg1646
g1880
sg356
S'c:/marmalade/7.6/s3e/h/ext/s3eLibrary.h'
p2991
sbsS'types.h'
p2992
g330
(g1641
g332
Ntp2993
Rp2994
(dp2995
g1645
g1653
sg1646
g1806
sg356
S'c:/marmalade/7.6/s3e/h/std/sys/types.h'
p2996
sbsS'ifaddrs.h'
p2997
g330
(g1641
g332
Ntp2998
Rp2999
(dp3000
g1645
g1653
sg1646
g1675
sg356
S'c:/marmalade/7.6/s3e/h/std/ifaddrs.h'
p3001
sbsS'strstream'
p3002
g330
(g1641
g332
Ntp3003
Rp3004
(dp3005
g1645
g1653
sg1646
g1654
sg356
S'c:/marmalade/7.6/s3e/h/std/c++/strstream'
p3006
sbsS'IwTween.cpp'
p3007
g330
(g1641
g332
Ntp3008
Rp3009
(dp3010
g1645
g1630
sg1646
g2179
sg356
g1628
sbsS'exception'
p3011
g330
(g1641
g332
Ntp3012
Rp3013
(dp3014
g1645
g1653
sg1646
g1654
sg356
S'c:/marmalade/7.6/s3e/h/std/c++/exception'
p3015
sbsS'Enemymanager.cpp'
p3016
g330
(g1641
g332
Ntp3017
Rp3018
(dp3019
g1645
g1215
sg1646
g1797
sg356
g1222
sbsS'rlocks.h'
p3020
g330
(g1641
g332
Ntp3021
Rp3022
(dp3023
g1645
g1653
sg1646
g1654
sg356
S'c:/marmalade/7.6/s3e/h/std/c++/rlocks.h'
p3024
sbsS'ioctl.h'
p3025
g330
(g1641
g332
Ntp3026
Rp3027
(dp3028
g1645
g1653
sg1646
g1806
sg356
S'c:/marmalade/7.6/s3e/h/std/sys/ioctl.h'
p3029
sbsS'sem.h'
p3030
g330
(g1641
g332
Ntp3031
Rp3032
(dp3033
g1645
g1653
sg1646
g1806
sg356
S'c:/marmalade/7.6/s3e/h/std/sys/sem.h'
p3034
sbsS'jinclude.h'
p3035
g330
(g1641
g332
Ntp3036
Rp3037
(dp3038
g1645
g1114
sg1646
g1741
sg356
g1125
sbsS'IwEvent.h'
p3039
g330
(g1641
g332
Ntp3040
Rp3041
(dp3042
g1645
g1512
sg1646
g1682
sg356
g1522
sbsS'IwOptimiseSize.h'
p3043
g330
(g1641
g332
Ntp3044
Rp3045
(dp3046
g1645
g1512
sg1646
g1682
sg356
g1528
sbsS'iwgxfont_public.defines.txt'
p3047
g330
(g1641
g332
Ntp3048
Rp3049
(dp3050
g1645
g1326
sg1646
g1647
sg356
g1336
sbsS'iconv.h'
p3051
g330
(g1641
g332
Ntp3052
Rp3053
(dp3054
g1645
g1653
sg1646
g1675
sg356
S'c:/marmalade/7.6/s3e/h/std/iconv.h'
p3055
sbsS's3eDevice.h'
p3056
g330
(g1641
g332
Ntp3057
Rp3058
(dp3059
g1645
g1653
sg1646
g1669
sg356
S'c:/marmalade/7.6/s3e/h/s3eDevice.h'
p3060
sbsS'IwGeomSphere.h'
p3061
g330
(g1641
g332
Ntp3062
Rp3063
(dp3064
g1645
g1348
sg1646
g1707
sg356
g1407
sbsS'tiniconv.mkf'
p3065
g330
(g1641
g332
Ntp3066
Rp3067
(dp3068
g1645
g1153
sg1646
g2132
sg356
g1151
sbsS'iw2dscenegraph.defines.txt'
p3069
g330
(g1641
g332
Ntp3070
Rp3071
(dp3072
g1645
g1290
sg1646
g1967
sg356
g1294
sbsS'jdct.h'
p3073
g330
(g1641
g332
Ntp3074
Rp3075
(dp3076
g1645
g1114
sg1646
g1741
sg356
g1137
sbsS'cctype'
p3077
g330
(g1641
g332
Ntp3078
Rp3079
(dp3080
g1645
g1653
sg1646
g1654
sg356
S'c:/marmalade/7.6/s3e/h/std/c++/cctype'
p3081
sbsS'IwSoundADPCM.cpp'
p3082
g330
(g1641
g332
Ntp3083
Rp3084
(dp3085
g1645
g1158
sg1646
g1693
sg356
g1189
sbsS's3eConfig.h'
p3086
g330
(g1641
g332
Ntp3087
Rp3088
(dp3089
g1645
g1653
sg1646
g1669
sg356
S'c:/marmalade/7.6/s3e/h/s3eConfig.h'
p3090
sbsS'IwHashString.h'
p3091
g330
(g1641
g332
Ntp3092
Rp3093
(dp3094
g1645
g1512
sg1646
g1682
sg356
g1574
sbsS'stat.h'
p3095
g330
(g1641
g332
Ntp3096
Rp3097
(dp3098
g1645
g1653
sg1646
g1806
sg356
S'c:/marmalade/7.6/s3e/h/std/sys/stat.h'
p3099
sbsS'byteswap.h'
p3100
g330
(g1641
g332
Ntp3101
Rp3102
(dp3103
g1645
g1653
sg1646
g1675
sg356
S'c:/marmalade/7.6/s3e/h/std/byteswap.h'
p3104
sbsS'iwresmanager.mkf'
p3105
g330
(g1641
g332
Ntp3106
Rp3107
(dp3108
g1645
g1437
sg1646
g1925
sg356
g1435
sbsS'IwUtilInitTerm.h'
p3109
g330
(g1641
g332
Ntp3110
Rp3111
(dp3112
g1645
g1512
sg1646
g1682
sg356
g1540
sbsS'pthread_1.h'
p3113
g330
(g1641
g332
Ntp3114
Rp3115
(dp3116
g1645
g1653
sg1646
g1654
sg356
S'c:/marmalade/7.6/s3e/h/std/c++/pthread.h'
p3117
sbsS'iw2d.mkf'
p3118
g330
(g1641
g332
Ntp3119
Rp3120
(dp3121
g1645
g1314
sg1646
g1746
sg356
g1312
sbsS'complex'
p3122
g330
(g1641
g332
Ntp3123
Rp3124
(dp3125
g1645
g1653
sg1646
g1654
sg356
S'c:/marmalade/7.6/s3e/h/std/c++/complex'
p3126
sbsS'algorithm'
p3127
g330
(g1641
g332
Ntp3128
Rp3129
(dp3130
g1645
g1653
sg1646
g1654
sg356
S'c:/marmalade/7.6/s3e/h/std/c++/algorithm'
p3131
sbsS's3e.icf'
p3132
g330
(g1641
g332
Ntp3133
Rp3134
(dp3135
g1645
g1653
sg1646
g1669
sg356
S'c:/marmalade/7.6/s3e/s3e.icf'
p3136
sbsS'resources.h'
p3137
g330
(g1641
g332
Ntp3138
Rp3139
(dp3140
g1645
g1215
sg1646
g1797
sg356
g1234
sbsS'IwGxFontState.h'
p3141
g330
(g1641
g332
Ntp3142
Rp3143
(dp3144
g1645
g1326
sg1646
g1647
sg356
g1327
sbsS'marmaladeexampleresources.mkf'
p3145
g330
(g1641
g332
Ntp3146
Rp3147
(dp3148
g1645
g1210
sg1646
(lp3149
g1206
asg356
g1208
sbsS'stdio.h'
p3150
g330
(g1641
g332
Ntp3151
Rp3152
(dp3153
g1645
g1653
sg1646
g1675
sg356
S'c:/marmalade/7.6/s3e/h/std/stdio.h'
p3154
sbsS'jmemsys.h'
p3155
g330
(g1641
g332
Ntp3156
Rp3157
(dp3158
g1645
g1114
sg1646
g1741
sg356
g1135
sbsS'ios'
p3159
g330
(g1641
g332
Ntp3160
Rp3161
(dp3162
g1645
g1653
sg1646
g1654
sg356
S'c:/marmalade/7.6/s3e/h/std/c++/ios'
p3163
sbsS'IwTween.h'
p3164
g330
(g1641
g332
Ntp3165
Rp3166
(dp3167
g1645
g1630
sg1646
g2179
sg356
g1631
sbsS'PVRTexTool.defines.txt'
p3168
g330
(g1641
g332
Ntp3169
Rp3170
(dp3171
g1645
g1276
sg1646
g2530
sg356
g1274
sbsS'stack'
p3172
g330
(g1641
g332
Ntp3173
Rp3174
(dp3175
g1645
g1653
sg1646
g1654
sg356
S'c:/marmalade/7.6/s3e/h/std/c++/stack'
p3176
sbsS'IwSoundParams.h'
p3177
g330
(g1641
g332
Ntp3178
Rp3179
(dp3180
g1645
g1158
sg1646
g1693
sg356
g1156
sbsS'new.h'
p3181
g330
(g1641
g332
Ntp3182
Rp3183
(dp3184
g1645
g1653
sg1646
g1654
sg356
S'c:/marmalade/7.6/s3e/h/std/c++/new.h'
p3185
sbsS's3eEMail.h'
p3186
g330
(g1641
g332
Ntp3187
Rp3188
(dp3189
g1645
g1653
sg1646
g1880
sg356
S'c:/marmalade/7.6/s3e/h/ext/s3eEMail.h'
p3190
sbsS's3eVideo.h'
p3191
g330
(g1641
g332
Ntp3192
Rp3193
(dp3194
g1645
g1653
sg1646
g1669
sg356
S'c:/marmalade/7.6/s3e/h/s3eVideo.h'
p3195
sbsS'pngconf.h'
p3196
g330
(g1641
g332
Ntp3197
Rp3198
(dp3199
g1645
g1103
sg1646
g2412
sg356
g1104
sbsS'pwd.h'
p3200
g330
(g1641
g332
Ntp3201
Rp3202
(dp3203
g1645
g1653
sg1646
g1675
sg356
S'c:/marmalade/7.6/s3e/h/std/pwd.h'
p3204
sbsS'IwOptimiseThumb.h'
p3205
g330
(g1641
g332
Ntp3206
Rp3207
(dp3208
g1645
g1512
sg1646
g1682
sg356
g1570
sbsS'gl3.h'
p3209
g330
(g1641
g332
Ntp3210
Rp3211
(dp3212
g1645
g1653
sg1646
g1978
sg356
S'c:/marmalade/7.6/s3e/h/GLES3/gl3.h'
p3213
sbsS'IwClip.h'
p3214
g330
(g1641
g332
Ntp3215
Rp3216
(dp3217
g1645
g1448
sg1646
g1787
sg356
g1457
sbsS'IwSoundInst.h'
p3218
g330
(g1641
g332
Ntp3219
Rp3220
(dp3221
g1645
g1158
sg1646
g1693
sg356
g1198
sbsS'iwresmanager.config.txt'
p3222
g330
(g1641
g332
Ntp3223
Rp3224
(dp3225
g1645
g1424
sg1646
g1925
sg356
g1431
sbsS'IwGxShaderTechnique.h'
p3226
g330
(g1641
g332
Ntp3227
Rp3228
(dp3229
g1645
g1448
sg1646
g1787
sg356
g1490
sbsS'IwCore.h'
p3230
g330
(g1641
g332
Ntp3231
Rp3232
(dp3233
g1645
g1512
sg1646
g1682
sg356
g1568
sbsS'cfloat'
p3234
g330
(g1641
g332
Ntp3235
Rp3236
(dp3237
g1645
g1653
sg1646
g1654
sg356
S'c:/marmalade/7.6/s3e/h/std/c++/cfloat'
p3238
sbsS'IwGeomMat2D.h'
p3239
g330
(g1641
g332
Ntp3240
Rp3241
(dp3242
g1645
g1348
sg1646
g1707
sg356
g1357
sbsS'IwAllocator.h'
p3243
g330
(g1641
g332
Ntp3244
Rp3245
(dp3246
g1645
g1512
sg1646
g1682
sg356
g1556
sbsS'Levelmanager.cpp'
p3247
g330
(g1641
g332
Ntp3248
Rp3249
(dp3250
g1645
g1215
sg1646
g1797
sg356
g1254
sbsS'IwPath.h'
p3251
g330
(g1641
g332
Ntp3252
Rp3253
(dp3254
g1645
g1512
sg1646
g1682
sg356
g1538
sbsS'iwgxfont.mkf'
p3255
g330
(g1641
g332
Ntp3256
Rp3257
(dp3258
g1645
g1331
sg1646
g1647
sg356
g1329
sbsS'IwTexture.h'
p3259
g330
(g1641
g332
Ntp3260
Rp3261
(dp3262
g1645
g1448
sg1646
g1787
sg356
g1467
sbsS'IwGeomVec.h.tpl'
p3263
g330
(g1641
g332
Ntp3264
Rp3265
(dp3266
g1645
g1348
sg1646
g1707
sg356
g1413
sbsS's3eAccelerometer.h'
p3267
g330
(g1641
g332
Ntp3268
Rp3269
(dp3270
g1645
g1653
sg1646
g1669
sg356
S'c:/marmalade/7.6/s3e/h/s3eAccelerometer.h'
p3271
sbsS'setjmp.h'
p3272
g330
(g1641
g332
Ntp3273
Rp3274
(dp3275
g1645
g1653
sg1646
g1675
sg356
S'c:/marmalade/7.6/s3e/h/std/setjmp.h'
p3276
sbsS'IwSoundParams.cpp'
p3277
g330
(g1641
g332
Ntp3278
Rp3279
(dp3280
g1645
g1158
sg1646
g1693
sg356
g1202
sbsS'IwFile.h'
p3281
g330
(g1641
g332
Ntp3282
Rp3283
(dp3284
g1645
g1512
sg1646
g1682
sg356
g1513
sbsS'IwTextParseable.h'
p3285
g330
(g1641
g332
Ntp3286
Rp3287
(dp3288
g1645
g1512
sg1646
g1682
sg356
g1582
sbsS'istream.h'
p3289
g330
(g1641
g332
Ntp3290
Rp3291
(dp3292
g1645
g1653
sg1646
g1654
sg356
S'c:/marmalade/7.6/s3e/h/std/c++/istream.h'
p3293
sbsS'Level.h'
p3294
g330
(g1641
g332
Ntp3295
Rp3296
(dp3297
g1645
g1215
sg1646
g1797
sg356
g1218
sbsS'stdint.h'
p3298
g330
(g1641
g332
Ntp3299
Rp3300
(dp3301
g1645
g1653
sg1646
g1675
sg356
S'c:/marmalade/7.6/s3e/h/std/stdint.h'
p3302
sbsS'semaphore.h'
p3303
g330
(g1641
g332
Ntp3304
Rp3305
(dp3306
g1645
g1653
sg1646
g1675
sg356
S'c:/marmalade/7.6/s3e/h/std/semaphore.h'
p3307
sbsS'ctime'
p3308
g330
(g1641
g332
Ntp3309
Rp3310
(dp3311
g1645
g1653
sg1646
g1654
sg356
S'c:/marmalade/7.6/s3e/h/std/c++/ctime'
p3312
sbsS'sstream'
p3313
g330
(g1641
g332
Ntp3314
Rp3315
(dp3316
g1645
g1653
sg1646
g1654
sg356
S'c:/marmalade/7.6/s3e/h/std/c++/sstream'
p3317
sbsS'IwGeomFBBox.h'
p3318
g330
(g1641
g332
Ntp3319
Rp3320
(dp3321
g1645
g1348
sg1646
g1707
sg356
g1397
sbsS'IwDebugPrim.h'
p3322
g330
(g1641
g332
Ntp3323
Rp3324
(dp3325
g1645
g1448
sg1646
g1787
sg356
g1475
sbsS'GameScene.cpp'
p3326
g330
(g1641
g332
Ntp3327
Rp3328
(dp3329
g1645
g1215
sg1646
g1797
sg356
g1248
sbsS'IwGxFontContainer.h'
p3330
g330
(g1641
g332
Ntp3331
Rp3332
(dp3333
g1645
g1326
sg1646
g1647
sg356
g1334
sbsS'IwGeomSVec3.h'
p3334
g330
(g1641
g332
Ntp3335
Rp3336
(dp3337
g1645
g1348
sg1646
g1707
sg356
g1346
sbsS'hero.h'
p3338
g330
(g1641
g332
Ntp3339
Rp3340
(dp3341
g1645
g1215
sg1646
g1797
sg356
g1213
sbsS'iw2dscenegraphcore.mkf'
p3342
g330
(g1641
g332
Ntp3343
Rp3344
(dp3345
g1645
g1505
sg1646
g2765
sg356
g1503
sbsS's3eExt.h'
p3346
g330
(g1641
g332
Ntp3347
Rp3348
(dp3349
g1645
g1653
sg1646
g1669
sg356
S'c:/marmalade/7.6/s3e/h/s3eExt.h'
p3350
sbsS'IwGeomFVec3.h'
p3351
g330
(g1641
g332
Ntp3352
Rp3353
(dp3354
g1645
g1348
sg1646
g1707
sg356
g1409
sbsS'streambuf'
p3355
g330
(g1641
g332
Ntp3356
Rp3357
(dp3358
g1645
g1653
sg1646
g1654
sg356
S'c:/marmalade/7.6/s3e/h/std/c++/streambuf'
p3359
sbsS's3eMetrics.h'
p3360
g330
(g1641
g332
Ntp3361
Rp3362
(dp3363
g1645
g1653
sg1646
g1880
sg356
S'c:/marmalade/7.6/s3e/h/ext/s3eMetrics.h'
p3364
sbsS'Shark.cpp'
p3365
g330
(g1641
g332
Ntp3366
Rp3367
(dp3368
g1645
g1215
sg1646
g1797
sg356
g1232
sbsS'IwGxFont.h'
p3369
g330
(g1641
g332
Ntp3370
Rp3371
(dp3372
g1645
g1326
sg1646
g1647
sg356
g1338
sbsS's3eSecureStorage.h'
p3373
g330
(g1641
g332
Ntp3374
Rp3375
(dp3376
g1645
g1653
sg1646
g1669
sg356
S'c:/marmalade/7.6/s3e/h/s3eSecureStorage.h'
p3377
sbsS'string.h'
p3378
g330
(g1641
g332
Ntp3379
Rp3380
(dp3381
g1645
g1653
sg1646
g1675
sg356
S'c:/marmalade/7.6/s3e/h/std/string.h'
p3382
sbsS'IwResource.h'
p3383
g330
(g1641
g332
Ntp3384
Rp3385
(dp3386
g1645
g1512
sg1646
g1682
sg356
g1530
sbsS'IwGeomSVec2.h'
p3387
g330
(g1641
g332
Ntp3388
Rp3389
(dp3390
g1645
g1348
sg1646
g1707
sg356
g1353
sbsS'libjpeg.mkf'
p3391
g330
(g1641
g332
Ntp3392
Rp3393
(dp3394
g1645
g1143
sg1646
(lp3395
g1109
asg356
g1141
sbsS'IwGxDebug.h'
p3396
g330
(g1641
g332
Ntp3397
Rp3398
(dp3399
g1645
g1448
sg1646
g1787
sg356
g1449
sbsS'float.h'
p3400
g330
(g1641
g332
Ntp3401
Rp3402
(dp3403
g1645
g1653
sg1646
g1675
sg356
S'c:/marmalade/7.6/s3e/h/std/float.h'
p3404
sbsS'iomanip.h'
p3405
g330
(g1641
g332
Ntp3406
Rp3407
(dp3408
g1645
g1653
sg1646
g1654
sg356
S'c:/marmalade/7.6/s3e/h/std/c++/iomanip.h'
p3409
sbsS'enemy.h'
p3410
g330
(g1641
g332
Ntp3411
Rp3412
(dp3413
g1645
g1215
sg1646
g1797
sg356
g1224
sbsS'IwKeymap.h'
p3414
g330
(g1641
g332
Ntp3415
Rp3416
(dp3417
g1645
g1512
sg1646
g1682
sg356
g1534
sbsS'IwDebug.h'
p3418
g330
(g1641
g332
Ntp3419
Rp3420
(dp3421
g1645
g1512
sg1646
g1682
sg356
g1594
sbsS'IwVariableBitField.h'
p3422
g330
(g1641
g332
Ntp3423
Rp3424
(dp3425
g1645
g1512
sg1646
g1682
sg356
g1542
sbsS'IwGeomMenu.h'
p3426
g330
(g1641
g332
Ntp3427
Rp3428
(dp3429
g1645
g1348
sg1646
g1707
sg356
g1393
sbsS'IwDivTable.h'
p3430
g330
(g1641
g332
Ntp3431
Rp3432
(dp3433
g1645
g1512
sg1646
g1682
sg356
g1558
sbsS'ctype.h'
p3434
g330
(g1641
g332
Ntp3435
Rp3436
(dp3437
g1645
g1653
sg1646
g1675
sg356
S'c:/marmalade/7.6/s3e/h/std/ctype.h'
p3438
sbsS'mainMenu.cpp'
p3439
g330
(g1641
g332
Ntp3440
Rp3441
(dp3442
g1645
g1215
sg1646
g1797
sg356
g1228
sbsS'IwResGroup.h'
p3443
g330
(g1641
g332
Ntp3444
Rp3445
(dp3446
g1645
g1424
sg1646
g1925
sg356
g1433
sbsS'signal_1.h'
p3447
g330
(g1641
g332
Ntp3448
Rp3449
(dp3450
g1645
g1653
sg1646
g1806
sg356
S'c:/marmalade/7.6/s3e/h/std/sys/signal.h'
p3451
sbsS'IwSoundData.cpp'
p3452
g330
(g1641
g332
Ntp3453
Rp3454
(dp3455
g1645
g1158
sg1646
g1693
sg356
g1171
sbsS'main.cpp'
p3456
g330
(g1641
g332
Ntp3457
Rp3458
(dp3459
g1645
g1215
sg1646
g1797
sg356
g1230
sbsS'shm.h'
p3460
g330
(g1641
g332
Ntp3461
Rp3462
(dp3463
g1645
g1653
sg1646
g1806
sg356
S'c:/marmalade/7.6/s3e/h/std/sys/shm.h'
p3464
sbsS'IwManagedList.h'
p3465
g330
(g1641
g332
Ntp3466
Rp3467
(dp3468
g1645
g1512
sg1646
g1682
sg356
g1560
sbsS'prctl.h'
p3469
g330
(g1641
g332
Ntp3470
Rp3471
(dp3472
g1645
g1653
sg1646
g1806
sg356
S'c:/marmalade/7.6/s3e/h/std/sys/prctl.h'
p3473
sbsS'IwGxStream.h'
p3474
g330
(g1641
g332
Ntp3475
Rp3476
(dp3477
g1645
g1448
sg1646
g1787
sg356
g1492
sbsS'temp_defines_debug.h'
p3478
g330
(g1641
g332
Ntp3479
Rp3480
(dp3481
g1645
(lp3482
sg1646
(lp3483
g2977
asg356
S'c:/Marmalade/7.6/examples/GameTutorial/CPP/marm1/build_stage4_vc12/temp_defines_debug.h'
p3484
sbsS'utility'
p3485
g330
(g1641
g332
Ntp3486
Rp3487
(dp3488
g1645
g1653
sg1646
g1654
sg356
S'c:/marmalade/7.6/s3e/h/std/c++/utility'
p3489
sbsS'input.h'
p3490
g330
(g1641
g332
Ntp3491
Rp3492
(dp3493
g1645
g1215
sg1646
g1797
sg356
g1266
sbsS'Levelmanager.h'
p3494
g330
(g1641
g332
Ntp3495
Rp3496
(dp3497
g1645
g1215
sg1646
g1797
sg356
g1250
sbsS'IwGeomLegacy.h'
p3498
g330
(g1641
g332
Ntp3499
Rp3500
(dp3501
g1645
g1348
sg1646
g1707
sg356
g1415
sbsS'IwTPage.h'
p3502
g330
(g1641
g332
Ntp3503
Rp3504
(dp3505
g1645
g1448
sg1646
g1787
sg356
g1485
sbsS'IwResSerialise.h'
p3506
g330
(g1641
g332
Ntp3507
Rp3508
(dp3509
g1645
g1424
sg1646
g1925
sg356
g1440
sbsS's3eCrypto.h'
p3510
g330
(g1641
g332
Ntp3511
Rp3512
(dp3513
g1645
g1653
sg1646
g1669
sg356
S'c:/marmalade/7.6/s3e/h/s3eCrypto.h'
p3514
sbsS's3eKeyboard.h'
p3515
g330
(g1641
g332
Ntp3516
Rp3517
(dp3518
g1645
g1653
sg1646
g1669
sg356
S'c:/marmalade/7.6/s3e/h/s3eKeyboard.h'
p3519
sbsS'fcntl.h'
p3520
g330
(g1641
g332
Ntp3521
Rp3522
(dp3523
g1645
g1653
sg1646
g1675
sg356
S'c:/marmalade/7.6/s3e/h/std/fcntl.h'
p3524
sbsS'Iw2DSceneGraphCore.h'
p3525
g330
(g1641
g332
Ntp3526
Rp3527
(dp3528
g1645
g1502
sg1646
g2765
sg356
g1506
sbsS'memory.h'
p3529
g330
(g1641
g332
Ntp3530
Rp3531
(dp3532
g1645
g1653
sg1646
g1675
sg356
S'c:/marmalade/7.6/s3e/h/std/memory.h'
p3533
sbsS'pthread.h'
p3534
g330
(g1641
g332
Ntp3535
Rp3536
(dp3537
g1645
g1653
sg1646
g1675
sg356
S'c:/marmalade/7.6/s3e/h/std/pthread.h'
p3538
sbsS'IwGeomIntersect.h'
p3539
g330
(g1641
g332
Ntp3540
Rp3541
(dp3542
g1645
g1348
sg1646
g1707
sg356
g1383
sbsS'IwTextParserITX.h'
p3543
g330
(g1641
g332
Ntp3544
Rp3545
(dp3546
g1645
g1512
sg1646
g1682
sg356
g1548
sbsS'IwClip.inl'
p3547
g330
(g1641
g332
Ntp3548
Rp3549
(dp3550
g1645
g1448
sg1646
g1787
sg356
g1459
sbsS'Iw2DSceneGraph.cpp'
p3551
g330
(g1641
g332
Ntp3552
Rp3553
(dp3554
g1645
g1290
sg1646
g1967
sg356
g1296
sbsS'ostream.h'
p3555
g330
(g1641
g332
Ntp3556
Rp3557
(dp3558
g1645
g1653
sg1646
g1654
sg356
S'c:/marmalade/7.6/s3e/h/std/c++/ostream.h'
p3559
sbsS'stl_user_config.h'
p3560
g330
(g1641
g332
Ntp3561
Rp3562
(dp3563
g1645
g1653
sg1646
g1654
sg356
S'c:/marmalade/7.6/s3e/h/std/c++/stl_user_config.h'
p3564
sbsS'IwProfileMenu.h'
p3565
g330
(g1641
g332
Ntp3566
Rp3567
(dp3568
g1645
g1512
sg1646
g1682
sg356
g1572
sbsS'MarmaladeVersion.h'
p3569
g330
(g1641
g332
Ntp3570
Rp3571
(dp3572
g1645
g1653
sg1646
g1669
sg356
S'c:/marmalade/7.6/s3e/h/MarmaladeVersion.h'
p3573
sbsS'IwResHandlerWAV.h'
p3574
g330
(g1641
g332
Ntp3575
Rp3576
(dp3577
g1645
g1158
sg1646
g1693
sg356
g1185
sbsS'gl3platform.h'
p3578
g330
(g1641
g332
Ntp3579
Rp3580
(dp3581
g1645
g1653
sg1646
g1978
sg356
S'c:/marmalade/7.6/s3e/h/GLES3/gl3platform.h'
p3582
sbsS'ios.h'
p3583
g330
(g1641
g332
Ntp3584
Rp3585
(dp3586
g1645
g1653
sg1646
g1654
sg356
S'c:/marmalade/7.6/s3e/h/std/c++/ios.h'
p3587
sbsS'IwImageHelper.h'
p3588
g330
(g1641
g332
Ntp3589
Rp3590
(dp3591
g1645
g1512
sg1646
g1682
sg356
g1592
sbsS'hash_set'
p3592
g330
(g1641
g332
Ntp3593
Rp3594
(dp3595
g1645
g1653
sg1646
g1654
sg356
S'c:/marmalade/7.6/s3e/h/std/c++/hash_set'
p3596
sbsS'IwGeomFQuat.h'
p3597
g330
(g1641
g332
Ntp3598
Rp3599
(dp3600
g1645
g1348
sg1646
g1707
sg356
g1385
sbsS'jmorecfg.h'
p3601
g330
(g1641
g332
Ntp3602
Rp3603
(dp3604
g1645
g1114
sg1646
g1741
sg356
g1139
sbsS'eglplatform.h'
p3605
g330
(g1641
g332
Ntp3606
Rp3607
(dp3608
g1645
g1653
sg1646
g2010
sg356
S'c:/marmalade/7.6/s3e/h/EGL/eglplatform.h'
p3609
sbsS'cmath'
p3610
g330
(g1641
g332
Ntp3611
Rp3612
(dp3613
g1645
g1653
sg1646
g1654
sg356
S'c:/marmalade/7.6/s3e/h/std/c++/cmath'
p3614
sbsS'math_gcc.h'
p3615
g330
(g1641
g332
Ntp3616
Rp3617
(dp3618
g1645
g1653
sg1646
g1675
sg356
S'c:/marmalade/7.6/s3e/h/std/math_gcc.h'
p3619
sbsS's3eMemory.h'
p3620
g330
(g1641
g332
Ntp3621
Rp3622
(dp3623
g1645
g1653
sg1646
g1669
sg356
S'c:/marmalade/7.6/s3e/h/s3eMemory.h'
p3624
sbsS'strings.h'
p3625
g330
(g1641
g332
Ntp3626
Rp3627
(dp3628
g1645
g1653
sg1646
g1675
sg356
S'c:/marmalade/7.6/s3e/h/std/strings.h'
p3629
sbsS's3eFile.h'
p3630
g330
(g1641
g332
Ntp3631
Rp3632
(dp3633
g1645
g1653
sg1646
g1669
sg356
S'c:/marmalade/7.6/s3e/h/s3eFile.h'
p3634
sbsS'IwGxTypes.h'
p3635
g330
(g1641
g332
Ntp3636
Rp3637
(dp3638
g1645
g1448
sg1646
g1787
sg356
g1496
sbsS'cerrno'
p3639
g330
(g1641
g332
Ntp3640
Rp3641
(dp3642
g1645
g1653
sg1646
g1654
sg356
S'c:/marmalade/7.6/s3e/h/std/c++/cerrno'
p3643
sbsS'IwSoundManager.cpp'
p3644
g330
(g1641
g332
Ntp3645
Rp3646
(dp3647
g1645
g1158
sg1646
g1693
sg356
g1161
sbsS'main.h'
p3648
g330
(g1641
g332
Ntp3649
Rp3650
(dp3651
g1645
g1215
sg1646
g1797
sg356
g1236
sbsS'soundengine.mkf'
p3652
g330
(g1641
g332
Ntp3653
Rp3654
(dp3655
g1645
g1193
sg1646
g1693
sg356
g1191
sbsS'resource.h'
p3656
g330
(g1641
g332
Ntp3657
Rp3658
(dp3659
g1645
g1653
sg1646
g1806
sg356
S'c:/marmalade/7.6/s3e/h/std/sys/resource.h'
p3660
sbsS'clocale'
p3661
g330
(g1641
g332
Ntp3662
Rp3663
(dp3664
g1645
g1653
sg1646
g1654
sg356
S'c:/marmalade/7.6/s3e/h/std/c++/clocale'
p3665
sbsS'pvrtextool.mkf'
p3666
g330
(g1641
g332
Ntp3667
Rp3668
(dp3669
g1645
g1281
sg1646
g2288
sg356
g1279
sbsS'csetjmp'
p3670
g330
(g1641
g332
Ntp3671
Rp3672
(dp3673
g1645
g1653
sg1646
g1654
sg356
S'c:/marmalade/7.6/s3e/h/std/c++/csetjmp'
p3674
sbsS'netdb.h'
p3675
g330
(g1641
g332
Ntp3676
Rp3677
(dp3678
g1645
g1653
sg1646
g1675
sg356
S'c:/marmalade/7.6/s3e/h/std/netdb.h'
p3679
sbsS's3eAndroidJNI.h'
p3680
g330
(g1641
g332
Ntp3681
Rp3682
(dp3683
g1645
g1653
sg1646
g1880
sg356
S'c:/marmalade/7.6/s3e/h/ext/s3eAndroidJNI.h'
p3684
sbsS'stdexcept'
p3685
g330
(g1641
g332
Ntp3686
Rp3687
(dp3688
g1645
g1653
sg1646
g1654
sg356
S'c:/marmalade/7.6/s3e/h/std/c++/stdexcept'
p3689
sbsS'math.h'
p3690
g330
(g1641
g332
Ntp3691
Rp3692
(dp3693
g1645
g1653
sg1646
g1675
sg356
S'c:/marmalade/7.6/s3e/h/std/math.h'
p3694
sbsS'stdbool.h'
p3695
g330
(g1641
g332
Ntp3696
Rp3697
(dp3698
g1645
g1653
sg1646
g1675
sg356
S'c:/marmalade/7.6/s3e/h/std/stdbool.h'
p3699
sbsS'uio.h'
p3700
g330
(g1641
g332
Ntp3701
Rp3702
(dp3703
g1645
g1653
sg1646
g1806
sg356
S'c:/marmalade/7.6/s3e/h/std/sys/uio.h'
p3704
sbsS'IwUncopyable.h'
p3705
g330
(g1641
g332
Ntp3706
Rp3707
(dp3708
g1645
g1512
sg1646
g1682
sg356
g1554
sbssS'juice_build_type'
p3709
g4
sS'tests'
p3710
(lp3711
sS'project_name'
p3712
g338
sS'root_file'
p3713
g135
sS'current_root'
p3714
S'c:/Marmalade/7.6/examples/GameTutorial/CPP/marm1'
p3715
sS'dependencies'
p3716
(lp3717
sS'include_paths'
p3718
(lp3719
S'c:/marmalade/7.6/modules/iw2d/h'
p3720
aS'c:/marmalade/7.6/modules/iwgx/h'
p3721
aS'c:/marmalade/7.6/modules/iwgl/h'
p3722
aS'c:/marmalade/7.6/modules/iwutil/h'
p3723
aS'c:/marmalade/7.6/modules/third_party/libjpeg/h'
p3724
aS'c:/marmalade/7.6/modules/third_party/zlib/h'
p3725
aS'c:/marmalade/7.6/modules/third_party/libpng/h'
p3726
aS'c:/marmalade/7.6/modules/iwgeom/h'
p3727
aS'c:/marmalade/7.6/modules/iwresmanager/h'
p3728
aS'c:/marmalade/7.6/extensions/pvrtextool/h'
p3729
aS'c:/marmalade/7.6/modules/iwgxfont/h'
p3730
aS'c:/marmalade/7.6/modules/third_party/tiniconv/source'
p3731
aS'c:/marmalade/7.6/modules/iw2dscenegraph/h'
p3732
aS'c:/marmalade/7.6/modules/iw2dscenegraphcore/h'
p3733
aS'c:/marmalade/7.6/modules/iwtween/h'
p3734
aS'c:/marmalade/7.6/examples/gametutorial/cpp/modules/soundengine/h'
p3735
aS'c:/marmalade/7.6/examples/gametutorial/cpp/modules/soundengine/source'
p3736
aS'c:/marmalade/7.6/s3e/h'
p3737
aS'c:/marmalade/7.6/s3e/h/ext'
p3738
aS'c:/marmalade/7.6/s3e/h/std'
p3739
aS'c:/marmalade/7.6/s3e/h/std/c++'
p3740
aS'c:/marmalade/7.6/s3e/h/ext_legacy'
p3741
aS'c:/marmalade/7.6/s3e/h/legacy'
p3742
asS'weak_frameworks'
p3743
(lp3744
sS'extprojects'
p3745
(dp3746
sg605
(dp3747
g599
(lp3748
(S'c:/Marmalade/7.6/examples/GameTutorial/CPP/marm1/data/audio'
p3749
S'audio'
p3750
I0
tp3751
a(S'c:/Marmalade/7.6/examples/GameTutorial/CPP/marm1/data/textures'
p3752
S'textures'
p3753
I0
tp3754
a(S'c:/Marmalade/7.6/examples/GameTutorial/CPP/marm1/data/fonts'
p3755
S'fonts'
p3756
I0
tp3757
a(S'c:/Marmalade/7.6/examples/GameTutorial/CPP/marm1/data-ram/data-gles1,c:/Marmalade/7.6/examples/GameTutorial/CPP/marm1/data'
p3758
S'.'
p3759
I0
tp3760
assS'macro_types'
p3761
(dp3762
g534
I1
sg535
I0
sg536
I0
sg537
I0
sg539
I0
sg540
I0
sg541
I0
sg542
I0
sg543
I0
sg545
I0
sg546
I0
sg547
I0
sg548
I0
sg549
I0
sg551
I0
sg553
I0
sg554
I0
sg555
I0
sg556
I0
sg557
I0
sg558
I0
sg559
I0
sg560
I0
sg561
I1
sg562
I0
sg563
I0
sg564
I0
sg565
I0
sg566
I01
sg567
I1
sg568
I0
sg569
I0
sg570
I0
sg571
I0
sg572
I0
sg573
I0
sg574
I0
ssS'commands'
p3763
(lp3764
sg607
(g1090
S'VC12'
p3765
S'X86ARMAARCH64'
p3766
tp3767
sS'build_libs'
p3768
(dp3769
sg609
g0
sS'frameworks'
p3770
(lp3771
sS'environ'
p3772
(dp3773
sS'target_name_debug'
p3774
g338
sS'builders'
p3775
(dp3776
g599
(dp3777
S'.S'
p3778
(dp3779
S'gcc_aarch64'
p3780
(lp3781
S'.obj'
p3782
aS'echo AARCH64 Assembling(GCC) ${SOURCE}...'
p3783
aS'c:/marmalade/7.6/s3e\\gcc\\win32\\aarch64\\bin\\aarch64-none-elf-gcc -c -o ${TARGET} ${SOURCE}'
p3784
asS'rvct'
p3785
(lp3786
g3782
aS'echo ARM Assembling(RVCT) ${SOURCE}...'
p3787
aS'c:/marmalade/7.6/s3e\\rvct\\bin\\armasm -o ${TARGET} ${SOURCE}'
p3788
asg452
(lp3789
g3782
aS'echo ARM Assembling(GCC) ${SOURCE}...'
p3790
aS'c:/marmalade/7.6/s3e\\gcc\\win32\\arm\\bin\\arm-none-eabi-gcc -c -o ${TARGET} ${SOURCE}'
p3791
asS'ppu'
p3792
(lp3793
S'.a'
p3794
aS'echo PPU Assembling(SNC) ${SOURCE}...'
p3795
aS'c:/marmalade/7.6/s3e\\rvct\\bin\\armasm -o ${TARGET} ${SOURCE}'
p3796
assS'.s'
p3797
g3779
sS'.vp'
p3798
(lp3799
NaS'"C:/Marmalade/7.6/s3e/python/python.exe" "c:/marmalade/7.6/modules/iwgx/tools/compile_shaders.py" ${SOURCE}'
p3800
asssS'extproject_names'
p3801
(lp3802
sbtp3803
.