((dp0
S'arm_dbg_args'
p1
S'-via:"c:\\Marmalade\\7.5\\examples\\GameTutorial\\CPP\\marm1\\build_stage4_vc12\\Stage4_vc12_arm_debug.via" -qemu'
p2
sS'game-icf'
p3
S''
p4
sS'dist'
p5
NsS'csproj'
p6
g4
sS'module_path_append'
p7
NsS'global_path'
p8
S'c:\\marmalade\\7.5\\examples\\gametutorial\\cpp'
p9
sS'system_path'
p10
S'c:\\marmalade\\7.5\\s3e\\makefile_builder'
p11
sS'android_x86_dbg_args'
p12
S'../../tools/DeployTool/DeployTool.exe --dir "c:\\Marmalade\\7.5\\examples\\GameTutorial\\CPP\\marm1\\build_stage4_vc12"'
p13
sS'aarch64-arch-mod'
p14
g4
sS'no-emit'
p15
NsS'arm-float-abi'
p16
g4
sS'arm_rel_rtsm_args'
p17
S'-via:"c:\\Marmalade\\7.5\\examples\\GameTutorial\\CPP\\marm1\\build_stage4_vc12\\Stage4_vc12_arm_release.via" -qemu'
p18
sS'amd64'
p19
NsS'line-width'
p20
I80
sS'gcc_dbg_args'
p21
S'-via:"c:\\Marmalade\\7.5\\examples\\GameTutorial\\CPP\\marm1\\build_stage4_vc12\\Stage4_vc12_gcc_debug.via" -qemu'
p22
sS'android-x86'
p23
NsS'x86_dbg_exe'
p24
S'c:/marmalade/7.5/s3e\\win32\\s3e_simulator_debug.exe'
p25
sS'disable-runtime-checks'
p26
NsS'release'
p27
NsS'no-make'
p28
NsS'xcode-x86-build-settings'
p29
g4
sS'optimise-size'
p30
NsS'fat'
p31
NsS'output-name-debug'
p32
g4
sS'arm-fpu'
p33
g4
sS'proj_name'
p34
S'Stage4_vc12'
p35
sS'rvct-version'
p36
S'none'
p37
sS'compiler'
p38
S'gcc'
p39
sS'execute'
p40
NsS'compile-static'
p41
NsS'msvc-project'
p42
NsS'buildenv'
p43
S'VC12'
p44
sS'quick'
p45
NsS'module_path'
p46
(lp47
S'c:/Marmalade/7.5/examples/GameTutorial/CPP/modules'
p48
asS'mkf_default'
p49
S's3e-default.mkf'
p50
sS'use-release-std-libs'
p51
NsS'using_perforce'
p52
I00
sS'tizen-x86'
p53
NsS'mips-s3e'
p54
NsS's3e-api-lib-name'
p55
S's3e_api_iwgl'
p56
sS'ios-no-pic'
p57
NsS'shared-arm-lib'
p58
NsS'arm-cpu'
p59
g4
sS'compile-thumb'
p60
NsS'no-ide'
p61
I01
sS'msvc-version'
p62
S'6.0'
p63
sS'arm'
p64
I01
sS'builddir'
p65
g4
sS'compile-debug-as-release'
p66
I0
sS'arm-arch'
p67
g4
sS'brief'
p68
NsS'dll'
p69
NsS'buildenv-toolset'
p70
g4
sS'version'
p71
NsS'aarch64-arch'
p72
g4
sS'ccache'
p73
I0
sS'offline'
p74
NsS'ios-version'
p75
g4
sS'hub_data'
p76
g4
sS'fake_vc_call'
p77
NsS'jobs'
p78
I0
sS'linkflags'
p79
NsS'gcc_aarch64_dbg_args'
p80
g13
sS'debug'
p81
I01
sS'xcode-build-order'
p82
g4
sS'gcc_aarch64_rel_rtsm_args'
p83
S'-via:"c:\\Marmalade\\7.5\\examples\\GameTutorial\\CPP\\marm1\\build_stage4_vc12\\Stage4_vc12_gcc_aarch64_release.via" -qemu'
p84
sS'gcc_rel_rtsm_args'
p85
S'-via:"c:\\Marmalade\\7.5\\examples\\GameTutorial\\CPP\\marm1\\build_stage4_vc12\\Stage4_vc12_gcc_release.via" -qemu'
p86
sS'done_defaults'
p87
I1
sS'path'
p88
NsS's3e-data-dir'
p89
S'c:/Marmalade/7.5/examples/GameTutorial/CPP/marm1\\data'
p90
sS'enable-exceptions'
p91
NsS'osx-dll'
p92
NsS'extension'
p93
g4
sS'no-vc6'
p94
NsS'aarch64'
p95
NsS'win32-console'
p96
NsS'dist-format'
p97
g4
sS's3e-force-arch'
p98
NsS'dump_defines'
p99
NsS'use-shared-std-libs'
p100
NsS'gcc-version'
p101
g4
sS'x86_dbg_args'
p102
S'-via:"c:\\Marmalade\\7.5\\examples\\GameTutorial\\CPP\\marm1\\build_stage4_vc12\\Stage4_vc12_debug.via"'
p103
sS'tizen_x86_dbg_args'
p104
g13
sS'arm-debugger'
p105
g4
sS'use_temp_extension'
p106
NsS'verbose'
p107
I0
sS'log'
p108
NsS'no-strip'
p109
NsS'rebuild'
p110
NsS'mips_dbg_args'
p111
g13
sS'win32-simulator-dll'
p112
NsS'strict'
p113
NsS'xcode-aarch64-build-settings'
p114
g4
sS'enable-global-path'
p115
NsS'gcc_aarch64_rel_args'
p116
g13
sS'cflags'
p117
NsS'dist-dir'
p118
g4
sS'xcode-arm-build-settings'
p119
g4
sS'jflags'
p120
NsS'csprojSDKRefs'
p121
g4
sS'tizen_x86_rel_exe'
p122
S'c:\\marmalade\\7.5\\s3e\\makefile_builder\\tool_launcher.exe'
p123
sS'test-assets'
p124
g4
sS'distcc'
p125
NsS'external-compiler'
p126
NsS'no-distcc'
p127
NsS'preinclude'
p128
NsS'using_sdk'
p129
I01
sS'nologo'
p130
NsS'warn-level'
p131
I2
sS'mips_dbg_exe'
p132
g123
sS'mkb_in'
p133
S'c:/Marmalade/7.5/examples/GameTutorial/CPP/marm1/Stage4.mkb'
p134
sS'tizen_x86_dbg_exe'
p135
g123
sS'arm_dbg_exe'
p136
S'c:/marmalade/7.5/s3e\\bin\\armdebug.exe'
p137
sS'mdev-first'
p138
NsS'csprojDLLRef'
p139
NsS'tizen_x86_rel_args'
p140
g13
sS'android_x86_dbg_exe'
p141
g123
sS'test-config'
p142
g4
sS'list-targets'
p143
NsS'arm_rel_exe'
p144
g123
sS'arm_rel_args'
p145
g13
sS'makedeps'
p146
NsS'android_x86_rel_exe'
p147
g123
sS'default-buildenv'
p148
S'VC12'
p149
sS'x86_rel_exe'
p150
g25
sS'preprocess-java'
p151
NsS'mips_rel_args'
p152
g13
sS'defines'
p153
NsS'lib'
p154
NsS'non-interactive'
p155
NsS'global_argv'
p156
(lp157
S'C:\\Marmalade\\7.5\\s3e\\makefile_builder\\mkb.py'
p158
aS'C:/Marmalade/7.5/examples/GameTutorial/CPP/marm1/Stage4.mkb'
p159
aS'--buildenv=VC12'
p160
aS'--debug'
p161
aS'--arm'
p162
aS'--compiler=gcc'
p163
aS'--no-ide'
p164
aS'--make'
p165
asS'make'
p166
I01
sS'optimise-speed'
p167
NsS'internal'
p168
NsS'enable-stdinc'
p169
NsS'deploy-only'
p170
NsS'x86'
p171
NsS'deploy'
p172
g4
sS'x86_run_exe'
p173
S'c:/marmalade/7.5/s3e\\win32\\s3e_console.exe'
p174
sS'cxxflags'
p175
NsS'x86_rel_args'
p176
S'-via:"c:\\Marmalade\\7.5\\examples\\GameTutorial\\CPP\\marm1\\build_stage4_vc12\\Stage4_vc12_release.via"'
p177
sS'gcc_rel_args'
p178
g13
sS'mips'
p179
NsS'xcode-build-settings'
p180
g4
sS'incredibuild'
p181
NsS'strict-compile'
p182
NsS'use-auto-subdirs'
p183
NsS'mips_rel_exe'
p184
g123
sS'android_x86_rel_args'
p185
g13
sS'app-icf'
p186
g4
sS'deployargs'
p187
NsS'iosnativedebug'
p188
NsS'use_prebuilt'
p189
NsS'mkf_in'
p190
(lp191
S'c:\\marmalade\\7.5\\s3e\\s3e-default.mkf'
p192
aS'c:\\marmalade\\7.5\\modules\\iw2d\\iw2d.mkf'
p193
aS'c:\\marmalade\\7.5\\modules\\iwgx\\iwgx.mkf'
p194
aS'c:\\marmalade\\7.5\\modules\\iwgl\\iwgl.mkf'
p195
aS'c:\\marmalade\\7.5\\modules\\iwutil\\iwutil.mkf'
p196
aS'c:\\marmalade\\7.5\\modules\\third_party\\libjpeg\\libjpeg.mkf'
p197
aS'c:\\marmalade\\7.5\\modules\\third_party\\libpng\\libpng.mkf'
p198
aS'c:\\marmalade\\7.5\\modules\\third_party\\zlib\\zlib.mkf'
p199
aS'c:\\marmalade\\7.5\\modules\\iwgeom\\iwgeom.mkf'
p200
aS'c:\\marmalade\\7.5\\modules\\iwresmanager\\iwresmanager.mkf'
p201
aS'c:\\marmalade\\7.5\\extensions\\pvrtextool\\pvrtextool.mkf'
p202
aS'c:\\marmalade\\7.5\\modules\\iwgxfont\\iwgxfont.mkf'
p203
aS'c:\\marmalade\\7.5\\modules\\third_party\\tiniconv\\tiniconv.mkf'
p204
aS'c:\\marmalade\\7.5\\modules\\iw2dscenegraph\\iw2dscenegraph.mkf'
p205
aS'c:\\marmalade\\7.5\\modules\\iw2dscenegraphcore\\iw2dscenegraphcore.mkf'
p206
aS'c:\\marmalade\\7.5\\modules\\iwtween\\iwtween.mkf'
p207
aS'c:\\marmalade\\7.5\\examples\\gametutorial\\cpp\\modules\\soundengine\\soundengine.mkf'
p208
aS'c:\\marmalade\\7.5\\examples\\marmaladeexampleresources\\marmaladeexampleresources.mkf'
p209
asS'strict-mkb'
p210
NsS'executeargs'
p211
NsS'clean'
p212
NsS'no-asm'
p213
NsS'output-name'
p214
g4
sS'no-modules'
p215
NsS'find_define'
p216
g4
s(dp217
S'c:\\marmalade\\7.5\\s3e\\makefile_builder\\templates\\vc7_suo.pyc'
p218
F1424160376.0
sS'c:\\marmalade\\7.5\\s3e\\makefile_builder\\templates\\ws81_vcxproj.pyc'
p219
F1424160380.0
sS'c:\\marmalade\\7.5\\s3e\\makefile_builder\\plugins\\s3e_ws8.pyc'
p220
F1424160376.0
sS'c:\\marmalade\\7.5\\s3e\\makefile_builder\\templates'
p221
F1424630747.758857
sS'c:\\marmalade\\7.5\\s3e\\makefile_builder\\templates\\qmake.py'
p222
F1424159312.0
sS'c:\\marmalade\\7.5\\s3e\\makefile_builder\\templates\\vc10_user.pyc'
p223
F1424160378.0
sS'c:\\marmalade\\7.5\\s3e\\makefile_builder\\plugins'
p224
F1424631019.086376
sS'c:\\marmalade\\7.5\\s3e\\makefile_builder\\mkb_main.pyc'
p225
F1424160376.0
sS'c:\\marmalade\\7.5\\s3e\\makefile_builder\\templates\\mips_linker_script'
p226
F1424159312.0
sS'c:\\marmalade\\7.5\\s3e\\makefile_builder\\plugins\\XcodeEmitter.py'
p227
F1424159310.0
sS'c:\\marmalade\\7.5\\s3e\\makefile_builder\\mkb.py'
p228
F1424159310.0
sS'c:\\marmalade\\7.5\\s3e\\makefile_builder\\templates\\ws81_ext_sln.pyc'
p229
F1424160380.0
sS'c:\\marmalade\\7.5\\s3e\\makefile_builder\\templates\\win32_dsp.pyc'
p230
F1424160376.0
sS'c:\\marmalade\\7.5\\s3e\\makefile_builder\\templates\\ws8_csproj.pyc'
p231
F1424160380.0
sS'c:\\marmalade\\7.5\\s3e\\makefile_builder\\deployment.pyc'
p232
F1424160376.0
sS'c:\\marmalade\\7.5\\s3e\\makefile_builder\\plugins\\win32_vc6.pyc'
p233
F1424160376.0
sS'c:\\marmalade\\7.5\\s3e\\makefile_builder\\plugins\\osx_xcode.pyc'
p234
F1424160376.0
sS'c:\\marmalade\\7.5\\s3e\\makefile_builder\\plugins\\null.pyc'
p235
F1424160376.0
sS'c:\\marmalade\\7.5\\s3e\\makefile_builder\\templates\\wp81_csproj.pyc'
p236
F1424160380.0
sS'c:\\marmalade\\7.5\\s3e\\makefile_builder\\templates\\qmake_user.py'
p237
F1424159312.0
sS'c:\\marmalade\\7.5\\s3e\\makefile_builder\\templates\\vc6_opt.pyc'
p238
F1424160376.0
sS'c:\\marmalade\\7.5\\s3e\\makefile_builder\\plugins\\vc7_utils.pyc'
p239
F1424160376.0
sS'c:\\marmalade\\7.5\\s3e\\makefile_builder\\templates\\wp81_vcxproj.pyc'
p240
F1424160380.0
sS'c:\\marmalade\\7.5\\s3e\\makefile_builder\\templates\\win32_vcxproj.pyc'
p241
F1424160378.0
sS'c:\\marmalade\\7.5\\s3e\\makefile_builder\\templates\\ws8_ext_sln.pyc'
p242
F1424160380.0
sS'c:\\marmalade\\7.5\\s3e\\makefile_builder\\templates\\ws8_ext_csproj.pyc'
p243
F1424160380.0
sS'c:\\marmalade\\7.5\\s3e\\makefile_builder\\templates\\wp8_ext_csproj.pyc'
p244
F1424160378.0
sS'c:\\marmalade\\7.5\\s3e\\makefile_builder\\plugins\\s3e_wp8.pyc'
p245
F1424160376.0
sS'c:\\marmalade\\7.5\\s3e\\makefile_builder\\templates\\ws81_csproj.pyc'
p246
F1424160380.0
sS'c:\\marmalade\\7.5\\s3e\\makefile_builder\\docs\\deprecated.options.txt'
p247
F1424159310.0
sS'c:\\marmalade\\7.5\\s3e\\makefile_builder\\plugins\\s3e_make.pyc'
p248
F1424160376.0
sS'c:\\marmalade\\7.5\\s3e\\makefile_builder\\templates\\win8_ext_csproj.pyc'
p249
F1424160378.0
sS'c:\\marmalade\\7.5\\s3e\\makefile_builder\\mkb_parser.pyc'
p250
F1424160376.0
sS'c:\\marmalade\\7.5\\s3e\\makefile_builder\\plugins\\s3e_web.pyc'
p251
F1424160376.0
sS'c:\\marmalade\\7.5\\s3e\\makefile_builder\\docs\\mkb.defines.txt'
p252
F1424159310.0
sS'c:\\marmalade\\7.5\\s3e\\makefile_builder\\plugins\\osx_scons.pyc'
p253
F1424160376.0
sS'c:\\marmalade\\7.5\\s3e\\makefile_builder\\plugins\\ws81_ws81.pyc'
p254
F1424160376.0
sS'c:\\marmalade\\7.5\\s3e\\makefile_builder\\plugins\\s3e_qmake.py'
p255
F1424159312.0
sS'c:\\marmalade\\7.5\\s3e\\makefile_builder\\templates\\win8_csproj.pyc'
p256
F1424160378.0
sS'c:\\marmalade\\7.5\\s3e\\makefile_builder\\plugins\\s3e_vc6.pyc'
p257
F1424160376.0
sS'c:\\marmalade\\7.5\\s3e\\makefile_builder\\plugins\\wp81_wp81.pyc'
p258
F1424160376.0
sS'c:\\marmalade\\7.5\\s3e\\makefile_builder\\templates\\wp81_csproj_user.pyc'
p259
F1424160380.0
sS'c:\\marmalade\\7.5\\s3e\\makefile_builder\\templates\\win32_dsw.pyc'
p260
F1424160376.0
sS'c:\\marmalade\\7.5\\s3e\\makefile_builder\\templates\\xcode4.xcscheme'
p261
F1424159312.0
sS'c:\\marmalade\\7.5\\s3e\\makefile_builder\\templates\\template.opt'
p262
F1424159312.0
sS'c:\\marmalade\\7.5\\s3e\\makefile_builder\\templates\\template.suo'
p263
F1424159312.0
sS'c:\\marmalade\\7.5\\s3e\\makefile_builder\\templates\\linker_script'
p264
F1424159312.0
sS'c:\\marmalade\\7.5\\s3e\\makefile_builder\\templates\\gdb_start.txt'
p265
F1424159312.0
sS'c:\\marmalade\\7.5\\s3e\\makefile_builder\\mkb_launcher.exe'
p266
F1424159548.0
sS'c:\\marmalade\\7.5\\s3e\\makefile_builder\\templates\\scons.pyc'
p267
F1424160376.0
sS'c:\\marmalade\\7.5\\s3e\\makefile_builder\\docs\\parse_options.pyc'
p268
F1424160380.0
sS'c:\\marmalade\\7.5\\s3e\\makefile_builder\\templates\\xcode4_arm.xcscheme'
p269
F1424159312.0
sS'c:\\marmalade\\7.5\\s3e\\makefile_builder\\plugins\\VisualStudioEmitter.pyc'
p270
F1424160376.0
sS'c:\\marmalade\\7.5\\s3e\\makefile_builder\\plugins\\s3e_xcode.pyc'
p271
F1424631019.087376
sS'c:\\marmalade\\7.5\\s3e\\makefile_builder\\plugins\\Emitter.pyc'
p272
F1424160376.0
sS'c:\\marmalade\\7.5\\s3e\\makefile_builder\\templates\\ws8_sln.pyc'
p273
F1424160380.0
sS'c:\\marmalade\\7.5\\s3e\\makefile_builder\\tool_launcher.exe'
p274
F1424159548.0
sS'c:\\marmalade\\7.5\\s3e\\makefile_builder\\templates\\wp8_sln.pyc'
p275
F1424160378.0
sS'c:\\marmalade\\7.5\\s3e\\makefile_builder\\mkb_upstream.pyc'
p276
F1424160376.0
sS'c:\\marmalade\\7.5\\s3e\\makefile_builder\\templates\\ws81_csproj_user.pyc'
p277
F1424160380.0
sS'c:\\marmalade\\7.5\\s3e\\makefile_builder\\templates\\win32_sln.pyc'
p278
F1424160376.0
sS'c:\\marmalade\\7.5\\s3e\\makefile_builder\\templates\\xcode4_DeployTool.xcscheme'
p279
F1424159312.0
sS'c:\\marmalade\\7.5\\s3e\\makefile_builder\\plugins\\deploy.pyc'
p280
F1424160376.0
sS'c:\\marmalade\\7.5\\s3e\\makefile_builder\\plugins\\s3e_win8.pyc'
p281
F1424160376.0
sS'c:\\marmalade\\7.5\\s3e\\makefile_builder\\plugins\\iphone.pyc'
p282
F1424160376.0
sS'c:\\marmalade\\7.5\\s3e\\makefile_builder\\plugins\\Win8Emitter.pyc'
p283
F1424160376.0
sS'c:\\marmalade\\7.5\\s3e\\makefile_builder\\plugins\\s3e_qmake.pyc'
p284
F1424631018.9523683
sS'c:\\marmalade\\7.5\\s3e\\makefile_builder\\docs'
p285
F1424630747.7758577
sS'c:\\marmalade\\7.5\\s3e\\makefile_builder\\mkb_globals.pyc'
p286
F1424160376.0
sS'c:\\marmalade\\7.5\\s3e\\makefile_builder\\plugins\\win8_utils.pyc'
p287
F1424160376.0
sS'c:\\marmalade\\7.5\\s3e\\makefile_builder\\plugins\\xcode4_schememanagement.py'
p288
F1424159312.0
sS'c:\\marmalade\\7.5\\s3e\\makefile_builder\\templates\\wp81_ext_sln.pyc'
p289
F1424160380.0
sS'c:\\marmalade\\7.5\\s3e\\makefile_builder\\templates\\make.py'
p290
F1424159312.0
sS'c:\\marmalade\\7.5\\s3e\\makefile_builder\\templates\\ws81_ext_csproj.pyc'
p291
F1424160380.0
sS'c:\\marmalade\\7.5\\s3e\\makefile_builder\\plugins\\s3e_xcode.py'
p292
F1424159312.0
sS'c:\\marmalade\\7.5\\s3e\\makefile_builder\\plugins\\XcodeEmitter.pyc'
p293
F1424631018.8013597
sS'c:\\marmalade\\7.5\\s3e\\makefile_builder\\docs\\deployment_options.txt'
p294
F1424159310.0
sS'c:\\marmalade\\7.5\\s3e\\makefile_builder\\templates\\win8_sln.pyc'
p295
F1424160378.0
sS'c:\\marmalade\\7.5\\s3e\\makefile_builder\\plugins\\java.pyc'
p296
F1424160376.0
sS'c:\\marmalade\\7.5\\s3e\\makefile_builder\\plugins\\xcode4_schememanagement.pyc'
p297
F1424631018.80836
sS'c:\\marmalade\\7.5\\s3e\\makefile_builder\\plugins\\SConsEmitter.pyc'
p298
F1424160376.0
sS'c:\\marmalade\\7.5\\s3e\\makefile_builder\\templates\\win32_vcproj.pyc'
p299
F1424160378.0
sS'c:\\marmalade\\7.5\\s3e\\makefile_builder\\plugins\\wp8_wp8.pyc'
p300
F1424160376.0
sS'c:\\marmalade\\7.5\\s3e\\makefile_builder\\templates\\MainWindow.xib'
p301
F1424159312.0
sS'c:\\marmalade\\7.5\\s3e\\makefile_builder\\mkb_util.pyc'
p302
F1424160376.0
sS'c:\\marmalade\\7.5\\s3e\\makefile_builder\\templates\\vc8_user.pyc'
p303
F1424160378.0
sS'c:\\marmalade\\7.5\\s3e\\makefile_builder\\templates\\Info.plist'
p304
F1424159312.0
sS'c:\\marmalade\\7.5\\s3e\\makefile_builder\\templates\\wp8_csproj_user.pyc'
p305
F1424160378.0
sS'c:\\marmalade\\7.5\\s3e\\makefile_builder\\docs\\deprecated.defines.txt'
p306
F1424159310.0
sS'c:\\marmalade\\7.5\\s3e\\makefile_builder\\templates\\ws8_csproj_user.pyc'
p307
F1424160380.0
sS'c:\\marmalade\\7.5\\s3e\\makefile_builder\\plugins\\S3EEmitter.pyc'
p308
F1424160376.0
sS'c:\\marmalade\\7.5\\s3e\\makefile_builder\\templates\\rvct_linker_script'
p309
F1424159312.0
sS'c:\\marmalade\\7.5\\s3e\\makefile_builder\\templates\\xcode_pbxuser.py'
p310
F1424159312.0
sS'c:\\marmalade\\7.5\\s3e\\makefile_builder\\docs\\options.txt'
p311
F1424159310.0
sS'c:\\marmalade\\7.5\\s3e\\makefile_builder\\templates\\wp81_sln.pyc'
p312
F1424160380.0
sS'c:\\marmalade\\7.5\\s3e\\makefile_builder\\templates\\ws81_sln.pyc'
p313
F1424160380.0
sS'c:\\marmalade\\7.5\\s3e\\makefile_builder\\plugins\\vc6_utils.pyc'
p314
F1424160376.0
sS'c:\\marmalade\\7.5\\s3e\\makefile_builder\\templates\\wp81_ext_csproj.pyc'
p315
F1424160380.0
sS'c:\\marmalade\\7.5\\s3e\\makefile_builder\\plugins\\s3e_wp81.pyc'
p316
F1424160376.0
sS'c:\\marmalade\\7.5\\s3e\\makefile_builder\\templates\\aarch64_linker_script'
p317
F1424159312.0
sS'c:\\marmalade\\7.5\\s3e\\makefile_builder\\templates\\ws8_vcxproj.pyc'
p318
F1424160380.0
sS'c:\\marmalade\\7.5\\s3e\\makefile_builder\\plugins\\MakeEmitter.pyc'
p319
F1424160376.0
sS'c:\\marmalade\\7.5\\s3e\\makefile_builder\\templates\\win32_vcxproj_filters.pyc'
p320
F1424160378.0
sS'c:\\marmalade\\7.5\\s3e\\makefile_builder\\templates\\xcode.py'
p321
F1424159312.0
sS'c:\\marmalade\\7.5\\s3e\\makefile_builder\\plugins\\s3e_ws81.pyc'
p322
F1424160376.0
sS'c:\\marmalade\\7.5\\s3e\\makefile_builder\\plugins\\linux_scons.pyc'
p323
F1424160376.0
sS'c:\\marmalade\\7.5\\s3e\\makefile_builder\\templates\\win8_vcxproj.pyc'
p324
F1424160378.0
sS'c:\\marmalade\\7.5\\s3e\\makefile_builder\\plugins\\s3e_scons.pyc'
p325
F1424160376.0
sS'c:\\marmalade\\7.5\\s3e\\makefile_builder\\templates\\wp8_csproj.pyc'
p326
F1424160378.0
sS'c:\\marmalade\\7.5\\s3e\\makefile_builder\\templates\\win8_csproj_user.pyc'
p327
F1424160378.0
sS'c:\\marmalade\\7.5\\s3e\\makefile_builder\\plugins\\ws8_ws8.pyc'
p328
F1424160376.0
sS'c:\\marmalade\\7.5\\s3e\\makefile_builder\\templates\\wp8_vcxproj.pyc'
p329
F1424160378.0
sS'c:\\marmalade\\7.5\\s3e\\makefile_builder\\mkb_option.pyc'
p330
F1424160376.0
sccopy_reg
_reconstructor
p331
(cmkb_main
MkbFile
p332
c__builtin__
object
p333
Ntp334
Rp335
(dp336
g5
(lp337
sS'target_name'
p338
S'Stage4'
p339
sS'current_file'
p340
g134
sS'package_path'
p341
(lp342
sS'post_build'
p343
(lp344
(lp345
S'c:/marmalade/7.5/s3e/tools'
p346
aS'C:\\Marmalade\\7.5\\s3e\\python\\python.exe .\\process_map.py "$(TargetPath)"'
p347
aa(S'c:\\marmalade\\7.5\\s3e\\bin'
p348
S'"s3e_plink" -l "$(TargetPath)" '
p349
g171
tp350
asS'librarys'
p351
(lp352
g331
(cmkb_main
Library
p353
g333
Ntp354
Rp355
(dp356
S'name'
p357
S'vc6_compat.lib'
p358
sS'expand_name'
p359
I00
sS'include_spec_rvct_objs'
p360
(lp361
sS'include_all_objs'
p362
I00
sS'share_arm'
p363
I00
sS'arch'
p364
S'x86'
p365
sS'nodebug'
p366
I00
sg38
Nsbag331
(g353
g333
Ntp367
Rp368
(dp369
g357
S'iw2d'
p370
sg359
I01
sg360
(lp371
sg362
Nsg363
Nsg364
Nsg366
I00
sg38
Nsbag331
(g353
g333
Ntp372
Rp373
(dp374
g357
S'ATI_Compress_MT_VC7.lib'
p375
sg359
I00
sg360
g371
sg362
Nsg363
Nsg364
S'x86'
p376
sg366
I00
sg38
Nsbag331
(g353
g333
Ntp377
Rp378
(dp379
g357
S'iwgx'
p380
sg359
I01
sg360
g371
sg362
Nsg363
Nsg364
Nsg366
I00
sg38
Nsbag331
(g353
g333
Ntp381
Rp382
(dp383
g357
S'iwgl'
p384
sg359
I01
sg360
g371
sg362
Nsg363
Nsg364
Nsg366
I00
sg38
Nsbag331
(g353
g333
Ntp385
Rp386
(dp387
g357
S'iwutil'
p388
sg359
I01
sg360
g371
sg362
Nsg363
Nsg364
Nsg366
I00
sg38
Nsbag331
(g353
g333
Ntp389
Rp390
(dp391
g357
S'jpeg'
p392
sg359
I01
sg360
g371
sg362
Nsg363
Nsg364
Nsg366
I00
sg38
Nsbag331
(g353
g333
Ntp393
Rp394
(dp395
g357
S'z'
p396
sg359
I01
sg360
g371
sg362
Nsg363
Nsg364
Nsg366
I00
sg38
Nsbag331
(g353
g333
Ntp397
Rp398
(dp399
g357
S'png'
p400
sg359
I01
sg360
g371
sg362
Nsg363
Nsg364
Nsg366
I00
sg38
Nsbag331
(g353
g333
Ntp401
Rp402
(dp403
g357
S'iwgeom'
p404
sg359
I01
sg360
g371
sg362
Nsg363
Nsg364
Nsg366
I00
sg38
Nsbag331
(g353
g333
Ntp405
Rp406
(dp407
g357
S'iwresmanager'
p408
sg359
I01
sg360
g371
sg362
Nsg363
Nsg364
Nsg366
I00
sg38
Nsbag331
(g353
g333
Ntp409
Rp410
(dp411
g357
S'iwgxfont'
p412
sg359
I01
sg360
g371
sg362
Nsg363
Nsg364
Nsg366
I00
sg38
Nsbag331
(g353
g333
Ntp413
Rp414
(dp415
g357
S'tiniconv'
p416
sg359
I01
sg360
g371
sg362
Nsg363
Nsg364
Nsg366
I00
sg38
Nsbag331
(g353
g333
Ntp417
Rp418
(dp419
g357
S's3e_cpp'
p420
sg359
I01
sg360
g361
sg362
I00
sg363
I00
sg364
Nsg366
I00
sg38
Nsbag331
(g353
g333
Ntp421
Rp422
(dp423
g357
S's3e'
p424
sg359
I01
sg360
(lp425
S'iwcrt.o'
p426
asg362
I00
sg363
I00
sg364
Nsg366
I00
sg38
Nsbag331
(g353
g333
Ntp427
Rp428
(dp429
g357
g56
sg359
I01
sg360
g361
sg362
I00
sg363
I00
sg364
S'x86'
p430
sg366
I01
sg38
Nsbag331
(g353
g333
Ntp431
Rp432
(dp433
g357
g56
sg359
I01
sg360
g361
sg362
I00
sg363
I00
sg364
S'!x86'
p434
sg366
I01
sg38
Nsbag331
(g353
g333
Ntp435
Rp436
(dp437
g357
S'stdc++'
p438
sg359
I00
sg360
g361
sg362
I00
sg363
I00
sg364
S'mips'
p439
sg366
I00
sg38
Nsbag331
(g353
g333
Ntp440
Rp441
(dp442
g357
S'c'
p443
sg359
I00
sg360
g361
sg362
I00
sg363
I00
sg364
S'mips'
p444
sg366
I00
sg38
Nsbag331
(g353
g333
Ntp445
Rp446
(dp447
g357
S'm'
p448
sg359
I00
sg360
g361
sg362
I00
sg363
I00
sg364
S'mips'
p449
sg366
I00
sg38
Nsbag331
(g353
g333
Ntp450
Rp451
(dp452
g357
S'gcc'
p453
sg359
I00
sg360
g361
sg362
I00
sg363
I00
sg364
S'mips'
p454
sg366
I00
sg38
Nsbag331
(g353
g333
Ntp455
Rp456
(dp457
g357
S'stdc++'
p458
sg359
I00
sg360
g361
sg362
I00
sg363
I00
sg364
S'gcc_x86_android'
p459
sg366
I00
sg38
Nsbag331
(g353
g333
Ntp460
Rp461
(dp462
g357
g443
sg359
I00
sg360
g361
sg362
I00
sg363
I00
sg364
S'gcc_x86_android'
p463
sg366
I00
sg38
Nsbag331
(g353
g333
Ntp464
Rp465
(dp466
g357
g448
sg359
I00
sg360
g361
sg362
I00
sg363
I00
sg364
S'gcc_x86_android'
p467
sg366
I00
sg38
Nsbag331
(g353
g333
Ntp468
Rp469
(dp470
g357
g453
sg359
I00
sg360
g361
sg362
I00
sg363
I00
sg364
S'gcc_x86_android'
p471
sg366
I00
sg38
NsbasS'library_paths'
p472
(lp473
g331
(cmkb_main
LibraryPath
p474
g333
Ntp475
Rp476
(dp477
S'expand_path'
p478
I01
sg357
S'c:/marmalade/7.5/modules/iw2d'
p479
sbag331
(g474
g333
Ntp480
Rp481
(dp482
g478
I00
sg357
S'c:/marmalade/7.5/modules/iwgx/atitools'
p483
sbag331
(g474
g333
Ntp484
Rp485
(dp486
g478
I01
sg357
S'c:/marmalade/7.5/modules/iwgx'
p487
sbag331
(g474
g333
Ntp488
Rp489
(dp490
g478
I01
sg357
S'c:/marmalade/7.5/modules/iwgl'
p491
sbag331
(g474
g333
Ntp492
Rp493
(dp494
g478
I01
sg357
S'c:/marmalade/7.5/modules/iwutil'
p495
sbag331
(g474
g333
Ntp496
Rp497
(dp498
g478
I01
sg357
S'c:/marmalade/7.5/modules/third_party/libjpeg'
p499
sbag331
(g474
g333
Ntp500
Rp501
(dp502
g478
I01
sg357
S'c:/marmalade/7.5/modules/third_party/zlib'
p503
sbag331
(g474
g333
Ntp504
Rp505
(dp506
g478
I01
sg357
S'c:/marmalade/7.5/modules/third_party/libpng'
p507
sbag331
(g474
g333
Ntp508
Rp509
(dp510
g478
I01
sg357
S'c:/marmalade/7.5/modules/iwgeom'
p511
sbag331
(g474
g333
Ntp512
Rp513
(dp514
g478
I01
sg357
S'c:/marmalade/7.5/modules/iwresmanager'
p515
sbag331
(g474
g333
Ntp516
Rp517
(dp518
g478
I01
sg357
S'c:/marmalade/7.5/modules/iwgxfont'
p519
sbag331
(g474
g333
Ntp520
Rp521
(dp522
g478
I01
sg357
S'c:/marmalade/7.5/modules/third_party/tiniconv'
p523
sbag331
(g474
g333
Ntp524
Rp525
(dp526
g478
I01
sg357
S'c:/marmalade/7.5/s3e'
p527
sbasS'macros'
p528
(dp529
S'IW_USE_CALLSTACK'
p530
NsS'IW_MKF_IWGEOM'
p531
NsS'I3D_PLATFORM_S3E'
p532
NsS'IW_TRACE_CHANNEL_PVRTEXTOOL_VERBOSE'
p533
S'2'
p534
sS'IW_MKF_LIBJPEG'
p535
NsS'I3D_OS_S3E'
p536
NsS'IW_MKF_PVRTEXTOOL'
p537
NsS'IW_MKF_TINICONV'
p538
NsS'IW_APP_VERSION'
p539
S'"1.0"'
p540
sS'__S3E__'
p541
NsS'IW_MKF_IWRESMANAGER'
p542
NsS'IW_MKF_IWUTIL'
p543
NsS'IW_PLATFORM_S3E'
p544
NsS'IW_ASSERTION_CHANNEL_2D'
p545
S'1'
p546
sS'IW_APP_NAME'
p547
S'"Stage4"'
p548
sS'IW_MKF_MARMALADEEXAMPLERESOURCES'
p549
NsS'IW_MKF_IWGXFONT'
p550
NsS'IW_MKF_IWTWEEN'
p551
NsS'IW_MKF_ZLIB'
p552
NsS'IW_MKF_S3E_DEFAULT'
p553
NsS'IW_MKF_IWGX'
p554
NsS'IW_MKF_IW2DSCENEGRAPH'
p555
NsS'IW_MKF_SOUNDENGINE'
p556
NsS'IW_USE_ASSERTIONS'
p557
NsS'_CRT_SECURE_NO_DEPRECATE'
p558
NsS'IW_MKF_IWGL'
p559
NsS'IW_MKF_LIBPNG'
p560
NsS'IW_TRACE_CHANNEL_IW_2DSCENEGRAPH'
p561
g546
sS'IW_DEBUG'
p562
NsS'IW_USE_TRACING'
p563
NsS'IW_ASSERTION_CHANNEL_IW_2DSCENEGRAPH'
p564
g546
sS'IW_TRACE_CHANNEL_PVRTEXTOOL'
p565
g546
sS'IW_SDK'
p566
NsS'S3E_INCLUDE_LEGACY'
p567
NsS'IW_MKF_IW2DSCENEGRAPHCORE'
p568
NsS'IW_MKF_IW2D'
p569
NsS'IW_ASSERTION_CHANNEL_PVRTEXTOOL'
p570
g546
ssS'done_warnings'
p571
(dp572
sS'subprojects'
p573
(dp574
g194
S'iwgx'
p575
sg203
S'iwgxfont'
p576
sg192
S's3e-default.mkf'
p577
sg206
S'../iw2dscenegraphcore'
p578
sg199
S'zlib'
p579
sg201
S'iwresmanager'
p580
sg204
S'tiniconv'
p581
sg197
S'libjpeg'
p582
sg193
S'iw2d'
p583
sg209
S'../../../MarmaladeExampleResources'
p584
sg196
S'iwutil'
p585
sg207
S'iwtween'
p586
sg198
S'libpng'
p587
sg205
S'iw2dscenegraph'
p588
sg208
S'SoundEngine'
p589
sg195
S'iwgl'
p590
sg200
S'iwgeom'
p591
sg202
S'PVRTexTool'
p592
ssS'deployments'
p593
(dp594
S'Default'
p595
g331
(cdeployment
Deployment
p596
g333
Ntp597
Rp598
(dp599
S'got_version'
p600
I0
sS'assets'
p601
g595
sS'mkb'
p602
g335
sS'target'
p603
Nsg364
(lp604
sS'options'
p605
(dp606
S'iphone-link-lib'
p607
(lp608
sS'game-icf'
p609
NsS'android-tm'
p610
NsS'winmobile-icon32'
p611
NsS'ws8-logo-image150x150'
p612
NsS'wp81-logo-image150x150'
p613
NsS'android-keystore'
p614
NsS'osx-ext-dll'
p615
(lp616
S'c:/marmalade/7.5/extensions/pvrtextool/lib/osx/libPVRTexTool.dylib'
p617
asS'iphone-provisioning-profile'
p618
NsS'ws8-splash-screen-image620x300'
p619
NsS'wp81-extra-pri'
p620
(lp621
sS'ws8-ext-capabilities'
p622
(lp623
sS'android-icon-hdpi'
p624
NsS'iphone-ipad-only'
p625
NsS'iphone-splash-full-orient'
p626
NsS'wp8-tile-fliptemplate-supports-large'
p627
NsS'iphone-show-status-bar'
p628
NsS'roku-requires-mkv'
p629
NsS'long-caption'
p630
NsS'android-pkgname'
p631
NsS'wp81-publisher-display-name'
p632
NsS'blackberry-permissions-read-device-identifying-information'
p633
NsS'ws81-certificate-end-date'
p634
NsS'psp-dlgcontentid'
p635
NsS'iphone-minimum-ios-version'
p636
NsS'target-folder'
p637
NsS'tizen-dist1-CA-path'
p638
NsS'symbian-icon2-format'
p639
NsS'tizen-author-key'
p640
NsS'firefoxos-icon-128X128'
p641
NsS'iphone-region'
p642
NsS'uiq3-icon3-mask'
p643
NsS'brew-encoding'
p644
NsS'android-x86'
p645
NsS'nds-initialcode'
p646
NsS'iphone-persistent-wifi'
p647
NsS'psp-snd0'
p648
NsS'roku-icon-focus-hd'
p649
NsS'osx-appid'
p650
NsS'winmobile-install-folder'
p651
NsS'android-external-res'
p652
(lp653
sS'ws8-product-version'
p654
NsS'brew-priviledges'
p655
NsS'iphone-info-plist-override'
p656
NsS'iphone-icon-ipad'
p657
NsS'iphone-skip-icon-generation'
p658
NsS'roku-hidden'
p659
NsS'psp-titlename'
p660
NsS'wp81-product-version'
p661
NsS'symbian-icon1-mask'
p662
NsS'psp-parentallevel'
p663
NsS'iphone-launch-storyboard'
p664
NsS'splashscreen-use-all'
p665
NsS'wp8-author'
p666
NsS'symbian-disable-ecompxl'
p667
NsS'splashscreen-auto-onblack'
p668
NsS'iphone-icon-dir'
p669
NsS'iphone-icon-extra'
p670
NsS'win32-ext-dll'
p671
(lp672
S'c:/marmalade/7.5/extensions/pvrtextool/lib/win32/PVRTexTool.dll'
p673
asS'iphone-development-key'
p674
NsS'winmobile-icon48'
p675
NsS'android-unsigned'
p676
NsS'osx-appstore-category'
p677
NsS'version-revision'
p678
NsS'roku-icon-focus-sd'
p679
NsS'ws81-product-version'
p680
NsS'winmobile-png90'
p681
NsS'iphone-icon-ipad-high-res'
p682
NsS'iphone-disable-ipad'
p683
NsS'ws81-splash-screen-background'
p684
NsS'wp8-ext-capabilities'
p685
(lp686
sS'brew-icon-large'
p687
NsS'symbian-icon1-mask-black'
p688
NsS'ws8-extra-res'
p689
(lp690
sS'iphone-bundle-localisations'
p691
NsS'winmobile-png60'
p692
NsS'blackberry-permissions-access-shared'
p693
NsS'blackberry-author'
p694
NsS'android-icon-xxxhdpi'
p695
NsS'olddeploytoolstyle'
p696
NsS'android_icon_gallery'
p697
NsS'wp81-splash-screen-background'
p698
NsS'winmobile-cab-compress'
p699
NsS'iphone-info-plist'
p700
NsS'ws81-ext-managed-dll'
p701
(lp702
sS'playbook-cskpass'
p703
NsS'win32-icon'
p704
NsS'symbian-key'
p705
NsS'app-icf'
p706
NsS'blackberry-storepass'
p707
NsS'wp8-tile-fliptemplate-back-title'
p708
NsS'brew-compress-loader'
p709
NsS'iphone-testflight'
p710
NsS'win32-pref-windowposy'
p711
NsS'win32-pref-windowposx'
p712
NsS'roku-requires-audiometadata'
p713
NsS'wp8-exclude-low-mem'
p714
NsS'iphone-icon-ipad-search-high-res'
p715
NsS'iphone-link-libdir'
p716
(lp717
sS'wp81-ext-capabilities'
p718
(lp719
sS'blackberry-permissions-read-geolocation'
p720
NsS'ws81-ext-device-capabilities'
p721
(lp722
sS'tizen-signed'
p723
NsS'android-extra-application-manifest'
p724
(lp725
sS'ws8-ext-native-dll'
p726
(lp727
sS'symbian-icon2-mask'
p728
NsS'iphone-launch-extra'
p729
NsS'webos-memory'
p730
NsS'android-keypass'
p731
NsS'name'
p732
NsS'uiq3-icon2-format'
p733
NsS'roku-splash-screen-sd'
p734
NsS'auto-derbh'
p735
NsS'roku-icon-side-sd'
p736
NsS'android-external-assets'
p737
(lp738
sS'nds-publicsavedatasize'
p739
NsS'splashscreen'
p740
S'c:/marmalade/7.5/examples/marmaladeexampleresources/resources/splashscreens'
p741
sS'brew-mif'
p742
NsS'iphone-icon-settings-high-res'
p743
NsS'android-manifest'
p744
NsS'ws81-splash-screen-image620x300'
p745
NsS'wp81-product-name'
p746
NsS's3e-compression'
p747
NsS'tizen-author-password'
p748
NsS'wp8-tile-fliptemplate-back-content'
p749
NsS'blackberry-extra-descriptor'
p750
(lp751
sS'symbian-icon1'
p752
NsS'symbian-icon2'
p753
NsS'nds-makercode'
p754
NsS'android-extra-styles-file'
p755
NsS'wp81-publisher-id'
p756
NsS'nds-bannertitle-jp'
p757
NsS'wp81-logo-image44x44'
p758
NsS'osx-sign-for-store'
p759
NsS'symbian7-uid'
p760
NsS'wp8-tile-fliptemplate-large-back-content'
p761
NsS'wp81-phone-publisher-id'
p762
NsS'nds-bannertitle-cn'
p763
NsS'iphone-distribution-key'
p764
NsS'android-icon-gallery'
p765
NsS'blackberry-keystore'
p766
NsS'iphone-nosign'
p767
NsS'caption'
p768
NsS'android-extra-manifest'
p769
(lp770
sS'wp81-ext-sdk-ref'
p771
(lp772
sS'android-icon-xxhdpi'
p773
NsS'version-minor'
p774
NsS'iphone-skip-launch-generation'
p775
NsS'iphone-link-libdirs'
p776
(lp777
sS'iphone-icon-large'
p778
NsS'symbian-keypwd'
p779
NsS'symbian8-uid'
p780
NsS'symbian-cert-key'
p781
NsS'winmobile-ampd-part-number'
p782
NsS'arch'
p783
NsS'nds-romheadertemplate'
p784
NsS'webos-icon'
p785
NsS'wp81-ext-device-capabilities'
p786
(lp787
sS'psp-dlgprotectdocument'
p788
NsS'ws8-splash-screen-background'
p789
NsS'android-icon-mdpi'
p790
NsS'nds-icon'
p791
NsS'ws8-custom-manifest-fill'
p792
NsS'iphone-development-cert'
p793
NsS'and'
p794
NsS'symbian-icon2-mask-black'
p795
NsS'blackberry-phone-icon'
p796
NsS'iphone-enable-4inch-retina'
p797
NsS'ws8-custom-manifest'
p798
NsS'version-major'
p799
NsS'wp8-genre-isgame'
p800
NsS'uiq3-uid'
p801
NsS'iphone-splash-retina-generate'
p802
NsS'tizen-hw-acceleration'
p803
NsS'iphone_bundle_localisations'
p804
NsS'tizen-dist1-key'
p805
NsS'wp81-custom-manifest-fill'
p806
NsS'wp8-custom-manifest'
p807
NsS'nds-bannertitle-ge'
p808
NsS'iphone-sign-for-distribution'
p809
NsS'wp8-tile-fliptemplate-medium-back-image'
p810
NsS'wp8-publisher-id'
p811
NsS'icon'
p812
S'c:/marmalade/7.5/examples/marmaladeexampleresources/resources/icons'
p813
sS'wp8-exclude-wxga'
p814
NsS'wp81-identity-name'
p815
NsS'uiq3-icon2-mask'
p816
NsS'iphone-splashscreen-portrait'
p817
NsS'iphone-icon-high-res'
p818
NsS'ws81-distribution-pfx-password'
p819
NsS'playbook-author'
p820
NsS'android-icon-xhdpi'
p821
NsS'linux-ext-lib'
p822
(lp823
sS'blackberry-permissions-access-internet'
p824
NsS'wp8-exclude-720p'
p825
NsS'lgtv-use-drm'
p826
NsS'symbian-platsecflags'
p827
NsS'ws8-description'
p828
NsS'blackberry-playbook-icon'
p829
NsS'copyright'
p830
NsS'ws8-distribution-pfx-password'
p831
NsS'win32-gles-directory'
p832
NsS'version'
p833
NsS'iphone-uiviewcontroller-based-status-bar'
p834
NsS'ws81-logo-image150x150'
p835
NsS'osx-signing-identity-app'
p836
NsS'tizen-project-url'
p837
NsS'symbian-icon-svg'
p838
NsS'android-aliasname'
p839
NsS'psp-dlgmanual'
p840
NsS'brew-uid'
p841
NsS'symbian-locationsupport'
p842
NsS'wp81-logo-image50x50'
p843
NsS'ws8-ext-managed-dll'
p844
(lp845
sS'nds-bannertitle-it'
p846
NsS'ws81-custom-manifest-fill'
p847
NsS'ws8-ext-sdk-manifest-part'
p848
(lp849
sS'uiq3-icon1-mask'
p850
NsS'winmobile-icon16'
p851
NsS'ws8-product-name'
p852
NsS'blackberry-cskpass'
p853
NsS'winmobile-start-menu-folder'
p854
NsS'brew-clsid'
p855
NsS'roku-requires-bluetooth'
p856
NsS'iphone-default-development-profile'
p857
NsS'ws8-ext-device-capabilities'
p858
(lp859
sS'blackberry-permissions-use-camera'
p860
NsS'ws81-extra-pri'
p861
(lp862
sS'iphone-prerendered-icon'
p863
NsS'iphone-appid'
p864
NsS'ws8-identity-name'
p865
NsS'tizen-dist2-CA-path'
p866
NsS'android-external-jars'
p867
(lp868
sS'winmobile-icon64'
p869
NsS'blackberry-permissions-post-notification'
p870
NsS'winmobile-setup-dll'
p871
NsS'firefoxos-manifest'
p872
NsS'win8-winrt-extra-res'
p873
(lp874
sS'wp81-ext-sdk-manifest-part'
p875
(lp876
sS'symbian9-uid'
p877
NsS'iphone-icon-ipad-ios7'
p878
NsS'winmobile-trace-file'
p879
NsS'roku-splash-color'
p880
NsS'psp-appversion'
p881
NsS'ws8-publisher-id'
p882
NsS'android-supports-gl-texture'
p883
(lp884
sS'winmobile-png45'
p885
NsS'wp81-extra-res'
p886
(lp887
sS'android-storepass'
p888
NsS'osx-signing-identity-inst'
p889
NsS'android-custom-activity'
p890
NsS'psp-discversion'
p891
NsS'wp81-ext-managed-dll'
p892
(lp893
sS'psp-copyright'
p894
NsS'embed-icf'
p895
NsS'tizen-manifest'
p896
NsS'osx-icon'
p897
NsS'webos-appinfo'
p898
NsS'psp-dlghealthwarning'
p899
NsS'webos-appid'
p900
NsS'roku-icon-side-hd'
p901
NsS'iphone-icon-ipad-search-high-res-ios7'
p902
NsS'iphone-extra-plist'
p903
(lp904
sS'ws81-ext-sdk-manifest-part'
p905
(lp906
sS'loader_name_prefix'
p907
NsS'iphone-launch-dir'
p908
NsS'nds-titlename'
p909
NsS'ws81-logo-image50x50'
p910
NsS'wp81-custom-manifest'
p911
NsS'osx-entitlements-plist'
p912
NsS'psp-dlgicon0'
p913
NsS'winmobile-nouninstall'
p914
NsS'psp-discid'
p915
NsS'tizen-dist2-password'
p916
NsS'ws8-ext-sdk-ref'
p917
(lp918
sS'iphone-extra-string'
p919
(lp920
sS'version-string'
p921
NsS'iphone-icon-high-res-ios7'
p922
NsS'blackberry-permissions-record-audio'
p923
NsS'ws8-certificate-end-date'
p924
NsS'tizen-so'
p925
(lp926
sS'wp8-tile-fliptemplate-small-image'
p927
NsS'playbook-authorid'
p928
NsS'iphone-signing-identity'
p929
NsS'roku-persist-quota'
p930
NsS'nds-bannertitle-fr'
p931
NsS'ws8-distribution-pfx'
p932
NsS'ws8-publisher-display-name'
p933
NsS'brew-icon-small'
p934
NsS'psp-dlgpic2'
p935
NsS'psp-dlgpic0'
p936
NsS'psp-pic0'
p937
NsS'psp-pic1'
p938
NsS'win32-pref-windowtitle'
p939
NsS'psp-icon0'
p940
NsS'psp-icon1'
p941
NsS'ws81-identity-name'
p942
NsS'winmobile-icon'
p943
NsS'iphone-no-splash'
p944
NsS'iphone-splash'
p945
NsS'iphone-app-fonts'
p946
NsS'wp8-ext-native-dll'
p947
(lp948
sS'wp81-splash-screen-image480x800'
p949
NsS'ws81-distribution-cer'
p950
NsS'iphone-backgroundmode-audio'
p951
NsS'uiq3-icon2'
p952
NsS'uiq3-icon3'
p953
NsS'uiq3-icon1'
p954
NsS'uiq3-icon1-format'
p955
NsS'ws8-logo-image50x50'
p956
NsS'iphone-icon-ipad-search'
p957
NsS'symbian-run-on-install'
p958
NsS'wp81-description'
p959
NsS'ws81-publisher-display-name'
p960
NsS'firefoxos-xulrunner'
p961
NsS'symbian-soundrecordsupport'
p962
NsS'nds-bannertitle-sp'
p963
NsS'psp-producer'
p964
NsS'iphone-apple-wwdr-cert'
p965
NsS'android-icon-nonstandard'
p966
NsS'win32-pref-processtitle'
p967
NsS'nds-bannertitle-hn'
p968
NsS'tizen-dist2-key'
p969
NsS'brew-depends'
p970
NsS'ws81-custom-manifest'
p971
NsS'iphone-allow-launch-rotation'
p972
NsS'iphone-icon-ipad-search-ios7'
p973
NsS'brew-icon-medium'
p974
NsS'iphone-bundle-url-name'
p975
NsS'wp8-tile-fliptemplate-large-front-image'
p976
NsS'tizen-dist2-CA-root-path'
p977
NsS'ws81-description'
p978
NsS'uiq3-icon3-format'
p979
NsS'ws81-logo-image30x30'
p980
NsS'win8-phone-extra-res'
p981
(lp982
sS'iphone-signing-host'
p983
NsS'tizen-icon'
p984
NsS'osx-info-plist'
p985
NsS'symbian-icon1-format'
p986
NsS'ws81-distribution-pfx'
p987
NsS'blackberry-authorid'
p988
NsS'ws81-publisher-id'
p989
NsS'win8-store-extra-res'
p990
(lp991
sS'wp8-description'
p992
NsS'iphone-link-opts'
p993
(lp994
sS'ws81-ext-sdk-ref'
p995
(lp996
sS'roku-splash-min-time'
p997
NsS'wp8-tile-fliptemplate-medium-front-image'
p998
NsS'iphone-disable-launch-images'
p999
NsS'provider'
p1000
NsS'playbook-keystore'
p1001
NsS'tizen-appid'
p1002
NsS'wp8-extra-res'
p1003
(lp1004
sS'symbian-osexecsupport'
p1005
NsS'android-install-location'
p1006
NsS'nds-privatesavedatasize'
p1007
NsS'iphone-disable-testflight'
p1008
NsS'playbook-storepass'
p1009
NsS'android-icon-ldpi'
p1010
NsS'manufacturer'
p1011
NsS'itunes-artwork'
p1012
NsS'iphone-extra-sections'
p1013
NsS'ws81-product-name'
p1014
NsS'ws81-ext-native-dll'
p1015
(lp1016
sS'ws8-extra-pri'
p1017
(lp1018
sS'wp8-product-id'
p1019
NsS'ws8-logo-image30x30'
p1020
NsS'wp8-ext-managed-dll'
p1021
(lp1022
sS'iphone-splashscreen-landscape'
p1023
NsS'symbian-maxheapsize'
p1024
NsS'android-extra-packages'
p1025
(lp1026
sS'priv-sign-key'
p1027
NsS'networking'
p1028
NsS'android-icon'
p1029
NsS'iphone-icon-settings'
p1030
NsS'wp81-phone-product-id'
p1031
NsS'firefoxos-icon-60X60'
p1032
NsS'iphone-distribution-cert'
p1033
NsS'android_extra_strings'
p1034
NsS'nds-bannertitle-en'
p1035
NsS'wp8-tile-fliptemplate-title'
p1036
NsS'android-so'
p1037
(lp1038
sS'wp8-higher-mem'
p1039
NsS'wp8-ext-sdk-ref'
p1040
(lp1041
sS'wp8-fast-resume-mode'
p1042
NsS'roku-splash-screen-hd'
p1043
NsS'iphone-bundle-url-schemes'
p1044
NsS'roku-screensaver-private'
p1045
NsS'osx-extra-res'
p1046
(lp1047
sS'ws81-extra-res'
p1048
(lp1049
sS'playbook-icon'
p1050
NsS'uid'
p1051
NsS'pkguid-as-uid'
p1052
NsS'wp81-ext-native-dll'
p1053
(lp1054
sS'tizen-dist1-password'
p1055
NsS'roku-screensaver-title'
p1056
NsS'osx-minimum-osx-version'
p1057
NsS'symbian-cert'
p1058
NsS'iphone-icon'
p1059
NsS'ws81-ext-capabilities'
p1060
(lp1061
sS'ws8-distribution-cer'
p1062
NsS'playbook-access-shared'
p1063
NsS'iphone-icon-ipad-high-res-ios7'
p1064
NsS'iphone-link-libs'
p1065
(lp1066
sS'wp8-exclude-wvga'
p1067
NsS'assets'
p1068
NsS'wp8-tile-fliptemplate-large-back-image'
p1069
NsS'wp8-custom-manifest-fill'
p1070
NsS'pub-sign-key'
p1071
NsS'android-extra-strings'
p1072
NsS'tizen-author-CA-path'
p1073
Nssg357
g595
sbssS'platform'
p1074
S'S3E'
p1075
sg71
S'1.0'
p1076
sS'arcade_platform'
p1077
g4
sS'extensions'
p1078
(dp1079
sS'source_groups_tree'
p1080
(dp1081
S'(libpng)'
p1082
(dp1083
S'h'
p1084
(dp1085
S'c:/marmalade/7.5/modules/third_party/libpng/h/png.h'
p1086
(lp1087
I1
a(dp1088
asS'c:/marmalade/7.5/modules/third_party/libpng/h/pngconf.h'
p1089
(lp1090
I1
ag1088
assS'c:/marmalade/7.5/modules/third_party/libpng/libpng.mkf'
p1091
(lp1092
I1
a(dp1093
assS'(libjpeg)'
p1094
(dp1095
S'c:/marmalade/7.5/modules/third_party/libjpeg/libjpeg.mkf'
p1096
(lp1097
I1
a(dp1098
asg1084
(dp1099
S'c:/marmalade/7.5/modules/third_party/libjpeg/h/jerror.h'
p1100
(lp1101
I1
a(dp1102
asS'c:/marmalade/7.5/modules/third_party/libjpeg/h/jdhuff.h'
p1103
(lp1104
I1
ag1102
asS'c:/marmalade/7.5/modules/third_party/libjpeg/h/cderror.h'
p1105
(lp1106
I1
ag1102
asS'c:/marmalade/7.5/modules/third_party/libjpeg/h/transupp.h'
p1107
(lp1108
I1
ag1102
asS'c:/marmalade/7.5/modules/third_party/libjpeg/h/jinclude.h'
p1109
(lp1110
I1
ag1102
asS'c:/marmalade/7.5/modules/third_party/libjpeg/h/jmorecfg.h'
p1111
(lp1112
I1
ag1102
asS'c:/marmalade/7.5/modules/third_party/libjpeg/h/jdct.h'
p1113
(lp1114
I1
ag1102
asS'c:/marmalade/7.5/modules/third_party/libjpeg/h/jmemsys.h'
p1115
(lp1116
I1
ag1102
asS'c:/marmalade/7.5/modules/third_party/libjpeg/h/jpegint.h'
p1117
(lp1118
I1
ag1102
asS'c:/marmalade/7.5/modules/third_party/libjpeg/h/jchuff.h'
p1119
(lp1120
I1
ag1102
asS'c:/marmalade/7.5/modules/third_party/libjpeg/h/cdjpeg.h'
p1121
(lp1122
I1
ag1102
asS'c:/marmalade/7.5/modules/third_party/libjpeg/h/jversion.h'
p1123
(lp1124
I1
ag1102
asS'c:/marmalade/7.5/modules/third_party/libjpeg/h/jconfig.h'
p1125
(lp1126
I1
ag1102
asS'c:/marmalade/7.5/modules/third_party/libjpeg/h/jpeglib.h'
p1127
(lp1128
I1
ag1102
asssS'(tiniconv)'
p1129
(dp1130
S'c:/marmalade/7.5/modules/third_party/tiniconv/tiniconv.mkf'
p1131
(lp1132
I1
a(dp1133
asS'c:/marmalade/7.5/modules/third_party/tiniconv/source/tiniconv_int.h'
p1134
(lp1135
I1
a(dp1136
asS'c:/marmalade/7.5/modules/third_party/tiniconv/source/tiniconv.h'
p1137
(lp1138
I1
ag1136
assS'(SoundEngine)'
p1139
(dp1140
S'c:/marmalade/7.5/examples/gametutorial/cpp/modules/soundengine/source/IwSoundGroup.cpp'
p1141
(lp1142
I1
a(dp1143
asS'c:/marmalade/7.5/examples/gametutorial/cpp/modules/soundengine/h/IwSoundADPCM.h'
p1144
(lp1145
I1
ag1143
asS'c:/marmalade/7.5/examples/gametutorial/cpp/modules/soundengine/source/IwResHandlerWAV.cpp'
p1146
(lp1147
I1
ag1143
asS'c:/marmalade/7.5/examples/gametutorial/cpp/modules/soundengine/h/IwResHandlerWAV.h'
p1148
(lp1149
I1
ag1143
asS'Docs'
p1150
(dp1151
S'c:/marmalade/7.5/examples/gametutorial/cpp/modules/soundengine/docs/iwsound.config.txt'
p1152
(lp1153
I1
ag1143
assS'c:/marmalade/7.5/examples/gametutorial/cpp/modules/soundengine/h/IwSoundInst.h'
p1154
(lp1155
I1
ag1143
asS'c:/marmalade/7.5/examples/gametutorial/cpp/modules/soundengine/source/IwSoundManager.cpp'
p1156
(lp1157
I1
ag1143
asS'c:/marmalade/7.5/examples/gametutorial/cpp/modules/soundengine/h/IwSoundSpec.h'
p1158
(lp1159
I1
ag1143
asS'c:/marmalade/7.5/examples/gametutorial/cpp/modules/soundengine/source/IwSoundParams.cpp'
p1160
(lp1161
I1
ag1143
asS'c:/marmalade/7.5/examples/gametutorial/cpp/modules/soundengine/h/IwSoundManager.h'
p1162
(lp1163
I1
ag1143
asS'c:/marmalade/7.5/examples/gametutorial/cpp/modules/soundengine/source/IwSoundPCM.cpp'
p1164
(lp1165
I1
ag1143
asS'c:/marmalade/7.5/examples/gametutorial/cpp/modules/soundengine/source/IwSoundWAV.cpp'
p1166
(lp1167
I1
ag1143
asS'c:/marmalade/7.5/examples/gametutorial/cpp/modules/soundengine/source/IwSoundInst.cpp'
p1168
(lp1169
I1
ag1143
asS'c:/marmalade/7.5/examples/gametutorial/cpp/modules/soundengine/h/IwSoundWAV.h'
p1170
(lp1171
I1
ag1143
asS'c:/marmalade/7.5/examples/gametutorial/cpp/modules/soundengine/source/IwSoundSpec.cpp'
p1172
(lp1173
I1
ag1143
asS'c:/marmalade/7.5/examples/gametutorial/cpp/modules/soundengine/h/IwSoundParams.h'
p1174
(lp1175
I1
ag1143
asS'c:/marmalade/7.5/examples/gametutorial/cpp/modules/soundengine/source/IwSoundADPCM.cpp'
p1176
(lp1177
I1
ag1143
asS'c:/marmalade/7.5/examples/gametutorial/cpp/modules/soundengine/h/IwSound.h'
p1178
(lp1179
I1
ag1143
asS'c:/marmalade/7.5/examples/gametutorial/cpp/modules/soundengine/source/IwSoundData.cpp'
p1180
(lp1181
I1
ag1143
asS'c:/marmalade/7.5/examples/gametutorial/cpp/modules/soundengine/h/IwSoundData.h'
p1182
(lp1183
I1
ag1143
asS'c:/marmalade/7.5/examples/gametutorial/cpp/modules/soundengine/h/IwSoundPCM.h'
p1184
(lp1185
I1
ag1143
asS'c:/marmalade/7.5/examples/gametutorial/cpp/modules/soundengine/soundengine.mkf'
p1186
(lp1187
I1
a(dp1188
asS'c:/marmalade/7.5/examples/gametutorial/cpp/modules/soundengine/h/IwSoundGroup.h'
p1189
(lp1190
I1
ag1143
assS'(MarmaladeExampleResources)'
p1191
(dp1192
S'c:/marmalade/7.5/examples/marmaladeexampleresources/marmaladeexampleresources.mkf'
p1193
(lp1194
I1
a(dp1195
assS'source'
p1196
(dp1197
S'c:/Marmalade/7.5/examples/GameTutorial/CPP/marm1/source/pauseMenu.h'
p1198
(lp1199
I1
a(dp1200
asS'c:/Marmalade/7.5/examples/GameTutorial/CPP/marm1/source/input.h'
p1201
(lp1202
I1
ag1200
asS'c:/Marmalade/7.5/examples/GameTutorial/CPP/marm1/source/resources.cpp'
p1203
(lp1204
I1
ag1200
asS'c:/Marmalade/7.5/examples/GameTutorial/CPP/marm1/source/mainMenu.h'
p1205
(lp1206
I1
ag1200
asS'c:/Marmalade/7.5/examples/GameTutorial/CPP/marm1/source/audio.h'
p1207
(lp1208
I1
ag1200
asS'c:/Marmalade/7.5/examples/GameTutorial/CPP/marm1/source/mainMenu.cpp'
p1209
(lp1210
I1
ag1200
asS'c:/Marmalade/7.5/examples/GameTutorial/CPP/marm1/source/input.cpp'
p1211
(lp1212
I1
ag1200
asS'c:/Marmalade/7.5/examples/GameTutorial/CPP/marm1/source/main.cpp'
p1213
(lp1214
I1
ag1200
asS'c:/Marmalade/7.5/examples/GameTutorial/CPP/marm1/source/main.h'
p1215
(lp1216
I1
ag1200
asS'c:/Marmalade/7.5/examples/GameTutorial/CPP/marm1/source/audio.cpp'
p1217
(lp1218
I1
ag1200
asS'c:/Marmalade/7.5/examples/GameTutorial/CPP/marm1/source/resources.h'
p1219
(lp1220
I1
ag1200
asS'c:/Marmalade/7.5/examples/GameTutorial/CPP/marm1/source/scene.h'
p1221
(lp1222
I1
ag1200
asS'c:/Marmalade/7.5/examples/GameTutorial/CPP/marm1/source/game.h'
p1223
(lp1224
I1
ag1200
asS'c:/Marmalade/7.5/examples/GameTutorial/CPP/marm1/source/scene.cpp'
p1225
(lp1226
I1
ag1200
asS'c:/Marmalade/7.5/examples/GameTutorial/CPP/marm1/source/game.cpp'
p1227
(lp1228
I1
ag1200
asS'c:/Marmalade/7.5/examples/GameTutorial/CPP/marm1/source/pauseMenu.cpp'
p1229
(lp1230
I1
ag1200
assS'Extensions'
p1231
(dp1232
S'PVRTexTool'
p1233
(dp1234
S'interface'
p1235
(dp1236
S'c:/marmalade/7.5/extensions/pvrtextool/interface/PVRTexTool.defines.txt'
p1237
(lp1238
I1
a(dp1239
asS'c:/marmalade/7.5/extensions/pvrtextool/interface/PVRTexTool_interface.cpp'
p1240
(lp1241
I1
ag1239
assS'c:/marmalade/7.5/extensions/pvrtextool/h/PVRTexTool.h'
p1242
(lp1243
I1
ag1239
asS'c:/marmalade/7.5/extensions/pvrtextool/pvrtextool.mkf'
p1244
(lp1245
I1
a(dp1246
asssS"'Marmalade Studio'"
p1247
(dp1248
S'iw2dscenegraph'
p1249
(dp1250
S'c:/marmalade/7.5/modules/iw2dscenegraph/source/Iw2DSceneGraph.cpp'
p1251
(lp1252
I1
a(dp1253
asS'c:/marmalade/7.5/modules/iw2dscenegraph/docs/iw2dscenegraph.defines.txt'
p1254
(lp1255
I1
ag1253
asS'c:/marmalade/7.5/modules/iw2dscenegraph/h/Iw2DSceneGraph.h'
p1256
(lp1257
I1
ag1253
asS'c:/marmalade/7.5/modules/iw2dscenegraph/iw2dscenegraph.mkf'
p1258
(lp1259
I1
a(dp1260
assS'iwgl'
p1261
(dp1262
S'c:/marmalade/7.5/modules/iwgl/iwgl.mkf'
p1263
(lp1264
I1
a(dp1265
asS'c:/marmalade/7.5/modules/iwgl/h/IwGL.h'
p1266
(lp1267
I1
a(dp1268
asS'c:/marmalade/7.5/modules/iwgl/docs/iwgl.config.txt'
p1269
(lp1270
I1
ag1268
asS'c:/marmalade/7.5/modules/iwgl/h/IwGLExt.h'
p1271
(lp1272
I1
ag1268
assS'iw2d'
p1273
(dp1274
S'c:/marmalade/7.5/modules/iw2d/docs/iw2d_public.defines.txt'
p1275
(lp1276
I1
a(dp1277
asS'c:/marmalade/7.5/modules/iw2d/docs/iw2d.config.txt'
p1278
(lp1279
I1
ag1277
asS'c:/marmalade/7.5/modules/iw2d/h/Iw2D.h'
p1280
(lp1281
I1
ag1277
asS'c:/marmalade/7.5/modules/iw2d/iw2d.mkf'
p1282
(lp1283
I1
a(dp1284
assS'iwgxfont'
p1285
(dp1286
S'c:/marmalade/7.5/modules/iwgxfont/h/IwGxFontGlyph.h'
p1287
(lp1288
I1
a(dp1289
asS'c:/marmalade/7.5/modules/iwgxfont/h/IwGxFontTypes.h'
p1290
(lp1291
I1
ag1289
asS'c:/marmalade/7.5/modules/iwgxfont/docs/iwgxfont.config.txt'
p1292
(lp1293
I1
ag1289
asS'c:/marmalade/7.5/modules/iwgxfont/h/IwGxFontState.h'
p1294
(lp1295
I1
ag1289
asS'c:/marmalade/7.5/modules/iwgxfont/h/IwGxFontContainer.h'
p1296
(lp1297
I1
ag1289
asS'c:/marmalade/7.5/modules/iwgxfont/iwgxfont.mkf'
p1298
(lp1299
I1
a(dp1300
asS'c:/marmalade/7.5/modules/iwgxfont/h/IwGxFontPreparedData.h'
p1301
(lp1302
I1
ag1289
asS'c:/marmalade/7.5/modules/iwgxfont/h/IwGxFont.h'
p1303
(lp1304
I1
ag1289
asS'c:/marmalade/7.5/modules/iwgxfont/docs/iwgxfont_public.defines.txt'
p1305
(lp1306
I1
ag1289
assS'iwgeom'
p1307
(dp1308
S'c:/marmalade/7.5/modules/iwgeom/h/IwGeomSVec2.h'
p1309
(lp1310
I1
a(dp1311
asS'c:/marmalade/7.5/modules/iwgeom/h/IwGeomSphere.h'
p1312
(lp1313
I1
ag1311
asS'c:/marmalade/7.5/modules/iwgeom/h/IwGeomSVec3.h'
p1314
(lp1315
I1
ag1311
asS'c:/marmalade/7.5/modules/iwgeom/iwgeom.mkf'
p1316
(lp1317
I1
a(dp1318
asS'c:/marmalade/7.5/modules/iwgeom/h/IwGeomSqrt.h'
p1319
(lp1320
I1
ag1311
asS'c:/marmalade/7.5/modules/iwgeom/h/IwGeomFQuat.h'
p1321
(lp1322
I1
ag1311
asS'c:/marmalade/7.5/modules/iwgeom/h/IwGeomQuat.h.tpl'
p1323
(lp1324
I1
ag1311
asS'c:/marmalade/7.5/modules/iwgeom/h/IwGeomVec2.h'
p1325
(lp1326
I1
ag1311
asS'c:/marmalade/7.5/modules/iwgeom/h/IwGeomMat.h'
p1327
(lp1328
I1
ag1311
asS'c:/marmalade/7.5/modules/iwgeom/h/IwGeomVec3.h'
p1329
(lp1330
I1
ag1311
asS'c:/marmalade/7.5/modules/iwgeom/h/IwGeomLegacy.h'
p1331
(lp1332
I1
ag1311
asS'c:/marmalade/7.5/modules/iwgeom/h/IwGeom.h'
p1333
(lp1334
I1
ag1311
asS'c:/marmalade/7.5/modules/iwgeom/h/IwGeomSQuat.h'
p1335
(lp1336
I1
ag1311
asS'c:/marmalade/7.5/modules/iwgeom/h/IwGeomFBBox.h'
p1337
(lp1338
I1
ag1311
asS'c:/marmalade/7.5/modules/iwgeom/h/IwGeomFMat.h'
p1339
(lp1340
I1
ag1311
asS'c:/marmalade/7.5/modules/iwgeom/h/IwGeomPlane.h'
p1341
(lp1342
I1
ag1311
asS'c:/marmalade/7.5/modules/iwgeom/h/IwGeomMat2D.h'
p1343
(lp1344
I1
ag1311
asS'c:/marmalade/7.5/modules/iwgeom/h/IwGeomFVec2.h'
p1345
(lp1346
I1
ag1311
asS'c:/marmalade/7.5/modules/iwgeom/h/IwGeomSVec4.h'
p1347
(lp1348
I1
ag1311
asS'c:/marmalade/7.5/modules/iwgeom/h/IwGeomVec4.h'
p1349
(lp1350
I1
ag1311
asS'c:/marmalade/7.5/modules/iwgeom/h/IwGeomCore.h'
p1351
(lp1352
I1
ag1311
asS'c:/marmalade/7.5/modules/iwgeom/h/IwGeomVec.h.tpl'
p1353
(lp1354
I1
ag1311
asS'c:/marmalade/7.5/modules/iwgeom/h/IwGeomVec.h'
p1355
(lp1356
I1
ag1311
asS'c:/marmalade/7.5/modules/iwgeom/h/IwGeomIntersect.h'
p1357
(lp1358
I1
ag1311
asS'c:/marmalade/7.5/modules/iwgeom/h/IwGeomFVec4.h'
p1359
(lp1360
I1
ag1311
asS'c:/marmalade/7.5/modules/iwgeom/h/IwGeomMat.h.tpl'
p1361
(lp1362
I1
ag1311
asS'c:/marmalade/7.5/modules/iwgeom/h/IwGeomMat2D.h.tpl'
p1363
(lp1364
I1
ag1311
asS'c:/marmalade/7.5/modules/iwgeom/h/IwGeomFMat2D.h'
p1365
(lp1366
I1
ag1311
asS'c:/marmalade/7.5/modules/iwgeom/h/IwGeomMenu.h'
p1367
(lp1368
I1
ag1311
asS'c:/marmalade/7.5/modules/iwgeom/h/IwGeomBBox.h'
p1369
(lp1370
I1
ag1311
asS'c:/marmalade/7.5/modules/iwgeom/h/IwGeomFSphere.h'
p1371
(lp1372
I1
ag1311
asS'c:/marmalade/7.5/modules/iwgeom/h/IwGeomFVec3.h'
p1373
(lp1374
I1
ag1311
asS'c:/marmalade/7.5/modules/iwgeom/h/IwGeomFPlane.h'
p1375
(lp1376
I1
ag1311
asS'c:/marmalade/7.5/modules/iwgeom/docs/iwgeom.config.txt'
p1377
(lp1378
I1
ag1311
asS'c:/marmalade/7.5/modules/iwgeom/h/IwGeomQuat.h'
p1379
(lp1380
I1
ag1311
asS'c:/marmalade/7.5/modules/iwgeom/h/IwGeomFIntersect.h'
p1381
(lp1382
I1
ag1311
assS'iwresmanager'
p1383
(dp1384
S'c:/marmalade/7.5/modules/iwresmanager/h/IwResHandlerITX.h'
p1385
(lp1386
I1
a(dp1387
asS'c:/marmalade/7.5/modules/iwresmanager/h/IwResSerialise.h'
p1388
(lp1389
I1
ag1387
asS'c:/marmalade/7.5/modules/iwresmanager/h/IwResManagerClass.h'
p1390
(lp1391
I1
ag1387
asS'c:/marmalade/7.5/modules/iwresmanager/h/IwResHandlerGROUP.h'
p1392
(lp1393
I1
ag1387
asS'c:/marmalade/7.5/modules/iwresmanager/h/IwResManager.h'
p1394
(lp1395
I1
ag1387
asS'c:/marmalade/7.5/modules/iwresmanager/iwresmanager.mkf'
p1396
(lp1397
I1
a(dp1398
asS'c:/marmalade/7.5/modules/iwresmanager/docs/iwresmanager.config.txt'
p1399
(lp1400
I1
ag1387
asS'c:/marmalade/7.5/modules/iwresmanager/h/IwResGroup.h'
p1401
(lp1402
I1
ag1387
asS'c:/marmalade/7.5/modules/iwresmanager/h/IwResHandler.h'
p1403
(lp1404
I1
ag1387
asS'c:/marmalade/7.5/modules/iwresmanager/h/IwResHandlerImage.h'
p1405
(lp1406
I1
ag1387
assS'iwgx'
p1407
(dp1408
S'c:/marmalade/7.5/modules/iwgx/h/IwDebugPrim.h'
p1409
(lp1410
I1
a(dp1411
asS'c:/marmalade/7.5/modules/iwgx/h/IwMatAnim.h'
p1412
(lp1413
I1
ag1411
asS'c:/marmalade/7.5/modules/iwgx/h/IwTexture.h'
p1414
(lp1415
I1
ag1411
asS'c:/marmalade/7.5/modules/iwgx/h/IwGxFuncTable.h'
p1416
(lp1417
I1
ag1411
asS'c:/marmalade/7.5/modules/iwgx/h/IwResHandlerMTL.h'
p1418
(lp1419
I1
ag1411
asS'c:/marmalade/7.5/modules/iwgx/h/IwGxPrint.h'
p1420
(lp1421
I1
ag1411
asS'c:/marmalade/7.5/modules/iwgx/h/IwGxStream.h'
p1422
(lp1423
I1
ag1411
asS'c:/marmalade/7.5/modules/iwgx/h/IwClip.h'
p1424
(lp1425
I1
ag1411
asS'c:/marmalade/7.5/modules/iwgx/h/IwGxSurface.h'
p1426
(lp1427
I1
ag1411
asS'c:/marmalade/7.5/modules/iwgx/h/IwGxError.h'
p1428
(lp1429
I1
ag1411
asS'c:/marmalade/7.5/modules/iwgx/h/IwGx.h'
p1430
(lp1431
I1
ag1411
asS'c:/marmalade/7.5/modules/iwgx/docs/iwgx_public.defines.txt'
p1432
(lp1433
I1
ag1411
asS'c:/marmalade/7.5/modules/iwgx/h/IwGxDebug.h'
p1434
(lp1435
I1
ag1411
asS'c:/marmalade/7.5/modules/iwgx/h/IwGxShaderTechnique.h'
p1436
(lp1437
I1
ag1411
asS'c:/marmalade/7.5/modules/iwgx/h/IwGxTransformSW.h'
p1438
(lp1439
I1
ag1411
asS'c:/marmalade/7.5/modules/iwgx/h/IwMaterial.h'
p1440
(lp1441
I1
ag1411
asS'c:/marmalade/7.5/modules/iwgx/h/IwGxMetrics.h'
p1442
(lp1443
I1
ag1411
asS'c:/marmalade/7.5/modules/iwgx/h/IwClip.inl'
p1444
(lp1445
I1
ag1411
asS'c:/marmalade/7.5/modules/iwgx/h/IwFColour.h'
p1446
(lp1447
I1
ag1411
asS'c:/marmalade/7.5/modules/iwgx/h/IwGxTypes.h'
p1448
(lp1449
I1
ag1411
asS'c:/marmalade/7.5/modules/iwgx/iwgx.mkf'
p1450
(lp1451
I1
a(dp1452
asS'c:/marmalade/7.5/modules/iwgx/docs/iwgx.config.txt'
p1453
(lp1454
I1
ag1411
asS'c:/marmalade/7.5/modules/iwgx/h/IwColour.h'
p1455
(lp1456
I1
ag1411
asS'c:/marmalade/7.5/modules/iwgx/h/IwGxState.h'
p1457
(lp1458
I1
ag1411
asS'c:/marmalade/7.5/modules/iwgx/h/IwTPage.h'
p1459
(lp1460
I1
ag1411
assS'iw2dscenegraphcore'
p1461
(dp1462
S'c:/marmalade/7.5/modules/iw2dscenegraphcore/iw2dscenegraphcore.mkf'
p1463
(lp1464
I1
a(dp1465
asS'c:/marmalade/7.5/modules/iw2dscenegraphcore/h/Iw2DSceneGraphCore.h'
p1466
(lp1467
I1
a(dp1468
asS'c:/marmalade/7.5/modules/iw2dscenegraphcore/source/Iw2DSceneGraphCore.cpp'
p1469
(lp1470
I1
ag1468
assS'iwutil'
p1471
(dp1472
S'c:/marmalade/7.5/modules/iwutil/h/IwSingleton.h'
p1473
(lp1474
I1
a(dp1475
asS'c:/marmalade/7.5/modules/iwutil/h/IwMath.h'
p1476
(lp1477
I1
ag1475
asS'c:/marmalade/7.5/modules/iwutil/h/IwBuffer.h'
p1478
(lp1479
I1
ag1475
asS'c:/marmalade/7.5/modules/iwutil/h/IwCore.h'
p1480
(lp1481
I1
ag1475
asS'c:/marmalade/7.5/modules/iwutil/h/IwDivide.h'
p1482
(lp1483
I1
ag1475
asS'c:/marmalade/7.5/modules/iwutil/h/IwMemory.h'
p1484
(lp1485
I1
ag1475
asS'c:/marmalade/7.5/modules/iwutil/h/IwImageHelper.h'
p1486
(lp1487
I1
ag1475
asS'c:/marmalade/7.5/modules/iwutil/h/IwManagedList.h'
p1488
(lp1489
I1
ag1475
asS'c:/marmalade/7.5/modules/iwutil/h/IwProfileMenu.h'
p1490
(lp1491
I1
ag1475
asS'c:/marmalade/7.5/modules/iwutil/h/IwClassFactory.h'
p1492
(lp1493
I1
ag1475
asS'c:/marmalade/7.5/modules/iwutil/h/IwDivTable.h'
p1494
(lp1495
I1
ag1475
asS'c:/marmalade/7.5/modules/iwutil/h/IwManaged.h'
p1496
(lp1497
I1
ag1475
asS'c:/marmalade/7.5/modules/iwutil/h/IwTextParseable.h'
p1498
(lp1499
I1
ag1475
asS'c:/marmalade/7.5/modules/iwutil/h/IwChar.h'
p1500
(lp1501
I1
ag1475
asS'c:/marmalade/7.5/modules/iwutil/h/IwRandom.h'
p1502
(lp1503
I1
ag1475
asS'c:/marmalade/7.5/modules/iwutil/h/IwDebug.h'
p1504
(lp1505
I1
ag1475
asS'c:/marmalade/7.5/modules/iwutil/h/IwUTF8.h'
p1506
(lp1507
I1
ag1475
asS'c:/marmalade/7.5/modules/iwutil/docs/iwutil.config.txt'
p1508
(lp1509
I1
ag1475
asS'c:/marmalade/7.5/modules/iwutil/h/IwAllocator.h'
p1510
(lp1511
I1
ag1475
asS'c:/marmalade/7.5/modules/iwutil/h/IwMemBucketHelpers.h'
p1512
(lp1513
I1
ag1475
asS'c:/marmalade/7.5/modules/iwutil/h/IwTextParserITX.h'
p1514
(lp1515
I1
ag1475
asS'c:/marmalade/7.5/modules/iwutil/h/IwKeymap.h'
p1516
(lp1517
I1
ag1475
asS'c:/marmalade/7.5/modules/iwutil/h/IwImage.h'
p1518
(lp1519
I1
ag1475
asS'c:/marmalade/7.5/modules/iwutil/h/IwOptimiseARM.h'
p1520
(lp1521
I1
ag1475
asS'c:/marmalade/7.5/modules/iwutil/h/IwMemBucket.h'
p1522
(lp1523
I1
ag1475
asS'c:/marmalade/7.5/modules/iwutil/h/IwOptimiseSize.h'
p1524
(lp1525
I1
ag1475
asS'c:/marmalade/7.5/modules/iwutil/h/IwRuntime.h'
p1526
(lp1527
I1
ag1475
asS'c:/marmalade/7.5/modules/iwutil/h/IwMemManagerDL.h'
p1528
(lp1529
I1
ag1475
asS'c:/marmalade/7.5/modules/iwutil/h/IwPath.h'
p1530
(lp1531
I1
ag1475
asS'c:/marmalade/7.5/modules/iwutil/h/IwOptimiseSpeed.h'
p1532
(lp1533
I1
ag1475
asS'c:/marmalade/7.5/modules/iwutil/h/IwList.h'
p1534
(lp1535
I1
ag1475
asS'c:/marmalade/7.5/modules/iwutil/h/IwAutoFile.h'
p1536
(lp1537
I1
ag1475
asS'c:/marmalade/7.5/modules/iwutil/h/IwVariableBitField.h'
p1538
(lp1539
I1
ag1475
asS'c:/marmalade/7.5/modules/iwutil/h/IwHashString.h'
p1540
(lp1541
I1
ag1475
asS'c:/marmalade/7.5/modules/iwutil/h/IwOptimiseThumb.h'
p1542
(lp1543
I1
ag1475
asS'c:/marmalade/7.5/modules/iwutil/iwutil.mkf'
p1544
(lp1545
I1
a(dp1546
asS'c:/marmalade/7.5/modules/iwutil/h/IwUtil.h'
p1547
(lp1548
I1
ag1475
asS'c:/marmalade/7.5/modules/iwutil/h/IwString.h'
p1549
(lp1550
I1
ag1475
asS'c:/marmalade/7.5/modules/iwutil/h/IwFile.h'
p1551
(lp1552
I1
ag1475
asS'c:/marmalade/7.5/modules/iwutil/h/IwUncopyable.h'
p1553
(lp1554
I1
ag1475
asS'c:/marmalade/7.5/modules/iwutil/h/IwTextParser.h'
p1555
(lp1556
I1
ag1475
asS'c:/marmalade/7.5/modules/iwutil/h/IwCopyingPtr.h'
p1557
(lp1558
I1
ag1475
asS'c:/marmalade/7.5/modules/iwutil/h/IwEvent.h'
p1559
(lp1560
I1
ag1475
asS'c:/marmalade/7.5/modules/iwutil/h/IwFibre.h'
p1561
(lp1562
I1
ag1475
asS'c:/marmalade/7.5/modules/iwutil/h/IwArray.h'
p1563
(lp1564
I1
ag1475
asS'c:/marmalade/7.5/modules/iwutil/h/IwMenu.h'
p1565
(lp1566
I1
ag1475
asS'c:/marmalade/7.5/modules/iwutil/h/IwTypes.h'
p1567
(lp1568
I1
ag1475
asS'c:/marmalade/7.5/modules/iwutil/h/IwUtilInitTerm.h'
p1569
(lp1570
I1
ag1475
asS'c:/marmalade/7.5/modules/iwutil/h/IwResource.h'
p1571
(lp1572
I1
ag1475
asS'c:/marmalade/7.5/modules/iwutil/h/IwSerialise.h'
p1573
(lp1574
I1
ag1475
asssS'(zlib)'
p1575
(dp1576
g1084
(dp1577
S'c:/marmalade/7.5/modules/third_party/zlib/h/zconf.h'
p1578
(lp1579
I1
a(dp1580
asS'c:/marmalade/7.5/modules/third_party/zlib/h/zlib.h'
p1581
(lp1582
I1
ag1580
assS'c:/marmalade/7.5/modules/third_party/zlib/zlib.mkf'
p1583
(lp1584
I1
a(dp1585
assS'(iwtween)'
p1586
(dp1587
S'c:/marmalade/7.5/modules/iwtween/h/IwTween.h'
p1588
(lp1589
I1
a(dp1590
asS'c:/marmalade/7.5/modules/iwtween/source/IwTween.cpp'
p1591
(lp1592
I1
ag1590
asS'c:/marmalade/7.5/modules/iwtween/iwtween.mkf'
p1593
(lp1594
I1
a(dp1595
assS'(s3e-default)'
p1596
(dp1597
S'c:/marmalade/7.5/s3e/s3e-default.mkf'
p1598
(lp1599
I1
a(dp1600
asssS'files'
p1601
(dp1602
S'IwGxFontPreparedData.h'
p1603
g331
(cmkb_main
File
p1604
g333
Ntp1605
Rp1606
(dp1607
S'flags'
p1608
g1289
sS'group'
p1609
(lp1610
S"'Marmalade Studio'"
p1611
ag1285
asg357
g1301
sbsS'iterator'
p1612
g331
(g1604
g333
Ntp1613
Rp1614
(dp1615
g1608
(dp1616
sg1609
(lp1617
S"'Marmalade System (S3E)'"
p1618
aS'stdc headers'
p1619
aS'c++'
p1620
asg357
S'c:/marmalade/7.5/s3e/h/std/c++/iterator'
p1621
sbsS'IwGL.h'
p1622
g331
(g1604
g333
Ntp1623
Rp1624
(dp1625
g1608
g1268
sg1609
(lp1626
S"'Marmalade Studio'"
p1627
ag1261
asg357
g1266
sbsS's3e.h'
p1628
g331
(g1604
g333
Ntp1629
Rp1630
(dp1631
g1608
g1616
sg1609
(lp1632
g1618
asg357
S'c:/marmalade/7.5/s3e/h/s3e.h'
p1633
sbsS'errno.h'
p1634
g331
(g1604
g333
Ntp1635
Rp1636
(dp1637
g1608
g1616
sg1609
(lp1638
g1618
aS'stdc headers'
p1639
asg357
S'c:/marmalade/7.5/s3e/h/std/errno.h'
p1640
sbsS'IwSingleton.h'
p1641
g331
(g1604
g333
Ntp1642
Rp1643
(dp1644
g1608
g1475
sg1609
(lp1645
S"'Marmalade Studio'"
p1646
ag1471
asg357
g1473
sbsS'dlfcn.h'
p1647
g331
(g1604
g333
Ntp1648
Rp1649
(dp1650
g1608
g1616
sg1609
g1638
sg357
S'c:/marmalade/7.5/s3e/h/std/dlfcn.h'
p1651
sbsS'IwSoundWAV.cpp'
p1652
g331
(g1604
g333
Ntp1653
Rp1654
(dp1655
g1608
g1143
sg1609
(lp1656
g1139
asg357
g1166
sbsS'sched.h'
p1657
g331
(g1604
g333
Ntp1658
Rp1659
(dp1660
g1608
g1616
sg1609
g1638
sg357
S'c:/marmalade/7.5/s3e/h/std/sched.h'
p1661
sbsS'IwSoundPCM.h'
p1662
g331
(g1604
g333
Ntp1663
Rp1664
(dp1665
g1608
g1143
sg1609
g1656
sg357
g1184
sbsS'IwGeomFMat2D.h'
p1666
g331
(g1604
g333
Ntp1667
Rp1668
(dp1669
g1608
g1311
sg1609
(lp1670
S"'Marmalade Studio'"
p1671
ag1307
asg357
g1365
sbsS'cassert'
p1672
g331
(g1604
g333
Ntp1673
Rp1674
(dp1675
g1608
g1616
sg1609
g1617
sg357
S'c:/marmalade/7.5/s3e/h/std/c++/cassert'
p1676
sbsS'grp.h'
p1677
g331
(g1604
g333
Ntp1678
Rp1679
(dp1680
g1608
g1616
sg1609
g1638
sg357
S'c:/marmalade/7.5/s3e/h/std/grp.h'
p1681
sbsS'list'
p1682
g331
(g1604
g333
Ntp1683
Rp1684
(dp1685
g1608
g1616
sg1609
g1617
sg357
S'c:/marmalade/7.5/s3e/h/std/c++/list'
p1686
sbsS'IwSoundSpec.cpp'
p1687
g331
(g1604
g333
Ntp1688
Rp1689
(dp1690
g1608
g1143
sg1609
g1656
sg357
g1172
sbsS'IwGeomMat.h.tpl'
p1691
g331
(g1604
g333
Ntp1692
Rp1693
(dp1694
g1608
g1311
sg1609
g1670
sg357
g1361
sbsS'istream'
p1695
g331
(g1604
g333
Ntp1696
Rp1697
(dp1698
g1608
g1616
sg1609
g1617
sg357
S'c:/marmalade/7.5/s3e/h/std/c++/istream'
p1699
sbsS'jpeglib.h'
p1700
g331
(g1604
g333
Ntp1701
Rp1702
(dp1703
g1608
g1102
sg1609
(lp1704
g1094
ag1084
asg357
g1127
sbsS'iw2d_public.defines.txt'
p1705
g331
(g1604
g333
Ntp1706
Rp1707
(dp1708
g1608
g1277
sg1609
(lp1709
S"'Marmalade Studio'"
p1710
ag1273
asg357
g1275
sbsS'iostream.h'
p1711
g331
(g1604
g333
Ntp1712
Rp1713
(dp1714
g1608
g1616
sg1609
g1617
sg357
S'c:/marmalade/7.5/s3e/h/std/c++/iostream.h'
p1715
sbsS'IwSoundADPCM.h'
p1716
g331
(g1604
g333
Ntp1717
Rp1718
(dp1719
g1608
g1143
sg1609
g1656
sg357
g1144
sbsS'string'
p1720
g331
(g1604
g333
Ntp1721
Rp1722
(dp1723
g1608
g1616
sg1609
g1617
sg357
S'c:/marmalade/7.5/s3e/h/std/c++/string'
p1724
sbsS'IwMemory.h'
p1725
g331
(g1604
g333
Ntp1726
Rp1727
(dp1728
g1608
g1475
sg1609
g1645
sg357
g1484
sbsS'IwGeomPlane.h'
p1729
g331
(g1604
g333
Ntp1730
Rp1731
(dp1732
g1608
g1311
sg1609
g1670
sg357
g1341
sbsS'iw2d.config.txt'
p1733
g331
(g1604
g333
Ntp1734
Rp1735
(dp1736
g1608
g1277
sg1609
g1709
sg357
g1278
sbsS'iomanip'
p1737
g331
(g1604
g333
Ntp1738
Rp1739
(dp1740
g1608
g1616
sg1609
g1617
sg357
S'c:/marmalade/7.5/s3e/h/std/c++/iomanip'
p1741
sbsS'iwgeom.mkf'
p1742
g331
(g1604
g333
Ntp1743
Rp1744
(dp1745
g1608
g1318
sg1609
g1670
sg357
g1316
sbsS'IwGxError.h'
p1746
g331
(g1604
g333
Ntp1747
Rp1748
(dp1749
g1608
g1411
sg1609
(lp1750
S"'Marmalade Studio'"
p1751
ag1407
asg357
g1428
sbsS'IwGeom.h'
p1752
g331
(g1604
g333
Ntp1753
Rp1754
(dp1755
g1608
g1311
sg1609
g1670
sg357
g1333
sbsS'scene.cpp'
p1756
g331
(g1604
g333
Ntp1757
Rp1758
(dp1759
g1608
g1200
sg1609
(lp1760
g1196
asg357
g1225
sbsS'IwGeomVec4.h'
p1761
g331
(g1604
g333
Ntp1762
Rp1763
(dp1764
g1608
g1311
sg1609
g1670
sg357
g1349
sbsS'dir.h'
p1765
g331
(g1604
g333
Ntp1766
Rp1767
(dp1768
g1608
g1616
sg1609
(lp1769
g1618
aS'stdc headers'
p1770
aS'sys'
p1771
asg357
S'c:/marmalade/7.5/s3e/h/std/sys/dir.h'
p1772
sbsS'locale.h'
p1773
g331
(g1604
g333
Ntp1774
Rp1775
(dp1776
g1608
g1616
sg1609
g1638
sg357
S'c:/marmalade/7.5/s3e/h/std/locale.h'
p1777
sbsS'vector'
p1778
g331
(g1604
g333
Ntp1779
Rp1780
(dp1781
g1608
g1616
sg1609
g1617
sg357
S'c:/marmalade/7.5/s3e/h/std/c++/vector'
p1782
sbsS'IwManaged.h'
p1783
g331
(g1604
g333
Ntp1784
Rp1785
(dp1786
g1608
g1475
sg1609
g1645
sg357
g1496
sbsS's3eCompass.h'
p1787
g331
(g1604
g333
Ntp1788
Rp1789
(dp1790
g1608
g1616
sg1609
g1632
sg357
S'c:/marmalade/7.5/s3e/h/s3eCompass.h'
p1791
sbsS'cderror.h'
p1792
g331
(g1604
g333
Ntp1793
Rp1794
(dp1795
g1608
g1102
sg1609
g1704
sg357
g1105
sbsS'climits'
p1796
g331
(g1604
g333
Ntp1797
Rp1798
(dp1799
g1608
g1616
sg1609
g1617
sg357
S'c:/marmalade/7.5/s3e/h/std/c++/climits'
p1800
sbsS'ipc.h'
p1801
g331
(g1604
g333
Ntp1802
Rp1803
(dp1804
g1608
g1616
sg1609
g1769
sg357
S'c:/marmalade/7.5/s3e/h/std/sys/ipc.h'
p1805
sbsS'jversion.h'
p1806
g331
(g1604
g333
Ntp1807
Rp1808
(dp1809
g1608
g1102
sg1609
g1704
sg357
g1123
sbsS'fnmatch.h'
p1810
g331
(g1604
g333
Ntp1811
Rp1812
(dp1813
g1608
g1616
sg1609
g1638
sg357
S'c:/marmalade/7.5/s3e/h/std/fnmatch.h'
p1814
sbsS'IwGxState.h'
p1815
g331
(g1604
g333
Ntp1816
Rp1817
(dp1818
g1608
g1411
sg1609
g1750
sg357
g1457
sbsS'rope'
p1819
g331
(g1604
g333
Ntp1820
Rp1821
(dp1822
g1608
g1616
sg1609
g1617
sg357
S'c:/marmalade/7.5/s3e/h/std/c++/rope'
p1823
sbsS's3eAudio.h'
p1824
g331
(g1604
g333
Ntp1825
Rp1826
(dp1827
g1608
g1616
sg1609
g1632
sg357
S'c:/marmalade/7.5/s3e/h/s3eAudio.h'
p1828
sbsS's3eSurface.h'
p1829
g331
(g1604
g333
Ntp1830
Rp1831
(dp1832
g1608
g1616
sg1609
g1632
sg357
S'c:/marmalade/7.5/s3e/h/s3eSurface.h'
p1833
sbsS'new'
p1834
g331
(g1604
g333
Ntp1835
Rp1836
(dp1837
g1608
g1616
sg1609
g1617
sg357
S'c:/marmalade/7.5/s3e/h/std/c++/new'
p1838
sbsS's3eWindow.h'
p1839
g331
(g1604
g333
Ntp1840
Rp1841
(dp1842
g1608
g1616
sg1609
(lp1843
g1618
aS'Extensions'
p1844
asg357
S'c:/marmalade/7.5/s3e/h/ext/s3eWindow.h'
p1845
sbsS'IwBuffer.h'
p1846
g331
(g1604
g333
Ntp1847
Rp1848
(dp1849
g1608
g1475
sg1609
g1645
sg357
g1478
sbsS'stdio_streambuf'
p1850
g331
(g1604
g333
Ntp1851
Rp1852
(dp1853
g1608
g1616
sg1609
g1617
sg357
S'c:/marmalade/7.5/s3e/h/std/c++/stdio_streambuf'
p1854
sbsS'IwGeomQuat.h.tpl'
p1855
g331
(g1604
g333
Ntp1856
Rp1857
(dp1858
g1608
g1311
sg1609
g1670
sg357
g1323
sbsS's3eOSExec.h'
p1859
g331
(g1604
g333
Ntp1860
Rp1861
(dp1862
g1608
g1616
sg1609
g1843
sg357
S'c:/marmalade/7.5/s3e/h/ext/s3eOSExec.h'
p1863
sbsS'IwGxTransformSW.h'
p1864
g331
(g1604
g333
Ntp1865
Rp1866
(dp1867
g1608
g1411
sg1609
g1750
sg357
g1438
sbsS'IwGxMetrics.h'
p1868
g331
(g1604
g333
Ntp1869
Rp1870
(dp1871
g1608
g1411
sg1609
g1750
sg357
g1442
sbsS'iwgxfont.config.txt'
p1872
g331
(g1604
g333
Ntp1873
Rp1874
(dp1875
g1608
g1289
sg1609
g1610
sg357
g1292
sbsS'gl2platform.h'
p1876
g331
(g1604
g333
Ntp1877
Rp1878
(dp1879
g1608
g1616
sg1609
(lp1880
g1618
aS'GL'
p1881
aS'GLES 2.0'
p1882
asg357
S'c:/marmalade/7.5/s3e/h/GLES2/gl2platform.h'
p1883
sbsS'IwResManagerClass.h'
p1884
g331
(g1604
g333
Ntp1885
Rp1886
(dp1887
g1608
g1387
sg1609
(lp1888
g1247
ag1383
asg357
g1390
sbsS'queue'
p1889
g331
(g1604
g333
Ntp1890
Rp1891
(dp1892
g1608
g1616
sg1609
g1617
sg357
S'c:/marmalade/7.5/s3e/h/std/c++/queue'
p1893
sbsS'time_1.h'
p1894
g331
(g1604
g333
Ntp1895
Rp1896
(dp1897
g1608
g1616
sg1609
g1769
sg357
S'c:/marmalade/7.5/s3e/h/std/sys/time.h'
p1898
sbsS'Iw2D.h'
p1899
g331
(g1604
g333
Ntp1900
Rp1901
(dp1902
g1608
g1277
sg1609
g1709
sg357
g1280
sbsS'IwGeomVec2.h'
p1903
g331
(g1604
g333
Ntp1904
Rp1905
(dp1906
g1608
g1311
sg1609
g1670
sg357
g1325
sbsS'sendfile.h'
p1907
g331
(g1604
g333
Ntp1908
Rp1909
(dp1910
g1608
g1616
sg1609
g1769
sg357
S'c:/marmalade/7.5/s3e/h/std/sys/sendfile.h'
p1911
sbsS'malloc.h'
p1912
g331
(g1604
g333
Ntp1913
Rp1914
(dp1915
g1608
g1616
sg1609
g1638
sg357
S'c:/marmalade/7.5/s3e/h/std/malloc.h'
p1916
sbsS'stdarg.h'
p1917
g331
(g1604
g333
Ntp1918
Rp1919
(dp1920
g1608
g1616
sg1609
g1638
sg357
S'c:/marmalade/7.5/s3e/h/std/stdarg.h'
p1921
sbsS'IwGeomCore.h'
p1922
g331
(g1604
g333
Ntp1923
Rp1924
(dp1925
g1608
g1311
sg1609
g1670
sg357
g1351
sbsS'Iw2DSceneGraph.h'
p1926
g331
(g1604
g333
Ntp1927
Rp1928
(dp1929
g1608
g1253
sg1609
(lp1930
S"'Marmalade Studio'"
p1931
ag1249
asg357
g1256
sbsS'endian.h'
p1932
g331
(g1604
g333
Ntp1933
Rp1934
(dp1935
g1608
g1616
sg1609
g1638
sg357
S'c:/marmalade/7.5/s3e/h/std/endian.h'
p1936
sbsS'gl3ext.h'
p1937
g331
(g1604
g333
Ntp1938
Rp1939
(dp1940
g1608
g1616
sg1609
(lp1941
g1618
aS'GL'
p1942
aS'GLES 3.0'
p1943
asg357
S'c:/marmalade/7.5/s3e/h/GLES3/gl3ext.h'
p1944
sbsS'glob.h'
p1945
g331
(g1604
g333
Ntp1946
Rp1947
(dp1948
g1608
g1616
sg1609
g1638
sg357
S'c:/marmalade/7.5/s3e/h/std/glob.h'
p1949
sbsS'fstream'
p1950
g331
(g1604
g333
Ntp1951
Rp1952
(dp1953
g1608
g1616
sg1609
g1617
sg357
S'c:/marmalade/7.5/s3e/h/std/c++/fstream'
p1954
sbsS's3eCamera.h'
p1955
g331
(g1604
g333
Ntp1956
Rp1957
(dp1958
g1608
g1616
sg1609
g1632
sg357
S'c:/marmalade/7.5/s3e/h/s3eCamera.h'
p1959
sbsS'jconfig.h'
p1960
g331
(g1604
g333
Ntp1961
Rp1962
(dp1963
g1608
g1102
sg1609
g1704
sg357
g1125
sbsS'memory'
p1964
g331
(g1604
g333
Ntp1965
Rp1966
(dp1967
g1608
g1616
sg1609
g1617
sg357
S'c:/marmalade/7.5/s3e/h/std/c++/memory'
p1968
sbsS'egl.h'
p1969
g331
(g1604
g333
Ntp1970
Rp1971
(dp1972
g1608
g1616
sg1609
(lp1973
g1618
aS'GL'
p1974
aS'EGL'
p1975
asg357
S'c:/marmalade/7.5/s3e/h/EGL/egl.h'
p1976
sbsS'egl_1.h'
p1977
g331
(g1604
g333
Ntp1978
Rp1979
(dp1980
g1608
g1616
sg1609
(lp1981
g1618
aS'GL'
p1982
aS'GLES 1.x'
p1983
asg357
S'c:/marmalade/7.5/s3e/h/GLES/egl.h'
p1984
sbsS'IwMemManagerDL.h'
p1985
g331
(g1604
g333
Ntp1986
Rp1987
(dp1988
g1608
g1475
sg1609
g1645
sg357
g1528
sbsS'deque'
p1989
g331
(g1604
g333
Ntp1990
Rp1991
(dp1992
g1608
g1616
sg1609
g1617
sg357
S'c:/marmalade/7.5/s3e/h/std/c++/deque'
p1993
sbsS'IwString.h'
p1994
g331
(g1604
g333
Ntp1995
Rp1996
(dp1997
g1608
g1475
sg1609
g1645
sg357
g1549
sbsS'cwchar'
p1998
g331
(g1604
g333
Ntp1999
Rp2000
(dp2001
g1608
g1616
sg1609
g1617
sg357
S'c:/marmalade/7.5/s3e/h/std/c++/cwchar'
p2002
sbsS'iwutil.mkf'
p2003
g331
(g1604
g333
Ntp2004
Rp2005
(dp2006
g1608
g1546
sg1609
g1645
sg357
g1544
sbsS'csignal'
p2007
g331
(g1604
g333
Ntp2008
Rp2009
(dp2010
g1608
g1616
sg1609
g1617
sg357
S'c:/marmalade/7.5/s3e/h/std/c++/csignal'
p2011
sbsS'float.h'
p2012
g331
(g1604
g333
Ntp2013
Rp2014
(dp2015
g1608
g1616
sg1609
g1638
sg357
S'c:/marmalade/7.5/s3e/h/std/float.h'
p2016
sbsS'pthread_alloc'
p2017
g331
(g1604
g333
Ntp2018
Rp2019
(dp2020
g1608
g1616
sg1609
g1617
sg357
S'c:/marmalade/7.5/s3e/h/std/c++/pthread_alloc'
p2021
sbsS'getopt.h'
p2022
g331
(g1604
g333
Ntp2023
Rp2024
(dp2025
g1608
g1616
sg1609
g1638
sg357
S'c:/marmalade/7.5/s3e/h/std/getopt.h'
p2026
sbsS'IwOptimiseARM.h'
p2027
g331
(g1604
g333
Ntp2028
Rp2029
(dp2030
g1608
g1475
sg1609
g1645
sg357
g1520
sbsS'times.h'
p2031
g331
(g1604
g333
Ntp2032
Rp2033
(dp2034
g1608
g1616
sg1609
g1769
sg357
S'c:/marmalade/7.5/s3e/h/std/sys/times.h'
p2035
sbsS'IwGeomFSphere.h'
p2036
g331
(g1604
g333
Ntp2037
Rp2038
(dp2039
g1608
g1311
sg1609
g1670
sg357
g1371
sbsS'game.h'
p2040
g331
(g1604
g333
Ntp2041
Rp2042
(dp2043
g1608
g1200
sg1609
g1760
sg357
g1223
sbsS'functional'
p2044
g331
(g1604
g333
Ntp2045
Rp2046
(dp2047
g1608
g1616
sg1609
g1617
sg357
S'c:/marmalade/7.5/s3e/h/std/c++/functional'
p2048
sbsS'IwTypes.h'
p2049
g331
(g1604
g333
Ntp2050
Rp2051
(dp2052
g1608
g1475
sg1609
g1645
sg357
g1567
sbsS'unistd.h'
p2053
g331
(g1604
g333
Ntp2054
Rp2055
(dp2056
g1608
g1616
sg1609
g1638
sg357
S'c:/marmalade/7.5/s3e/h/std/unistd.h'
p2057
sbsS'audio.cpp'
p2058
g331
(g1604
g333
Ntp2059
Rp2060
(dp2061
g1608
g1200
sg1609
g1760
sg357
g1217
sbsS's3eCompression.h'
p2062
g331
(g1604
g333
Ntp2063
Rp2064
(dp2065
g1608
g1616
sg1609
g1632
sg357
S'c:/marmalade/7.5/s3e/h/s3eCompression.h'
p2066
sbsS'langinfo.h'
p2067
g331
(g1604
g333
Ntp2068
Rp2069
(dp2070
g1608
g1616
sg1609
g1638
sg357
S'c:/marmalade/7.5/s3e/h/std/langinfo.h'
p2071
sbsS's3edebugHeap.h'
p2072
g331
(g1604
g333
Ntp2073
Rp2074
(dp2075
g1608
g1616
sg1609
g1843
sg357
S'c:/marmalade/7.5/s3e/h/ext/s3edebugHeap.h'
p2076
sbsS'AirplayVersion.h'
p2077
g331
(g1604
g333
Ntp2078
Rp2079
(dp2080
g1608
g1616
sg1609
g1632
sg357
S'c:/marmalade/7.5/s3e/h/AirplayVersion.h'
p2081
sbsS'gl2extimg.h'
p2082
g331
(g1604
g333
Ntp2083
Rp2084
(dp2085
g1608
g1616
sg1609
g1880
sg357
S'c:/marmalade/7.5/s3e/h/GLES2/gl2extimg.h'
p2086
sbsS'IwGeomSqrt.h'
p2087
g331
(g1604
g333
Ntp2088
Rp2089
(dp2090
g1608
g1311
sg1609
g1670
sg357
g1319
sbsS'tiniconv_int.h'
p2091
g331
(g1604
g333
Ntp2092
Rp2093
(dp2094
g1608
g1136
sg1609
(lp2095
g1129
asg357
g1134
sbsS'syslog.h'
p2096
g331
(g1604
g333
Ntp2097
Rp2098
(dp2099
g1608
g1616
sg1609
g1638
sg357
S'c:/marmalade/7.5/s3e/h/std/syslog.h'
p2100
sbsS'IwGxFontTypes.h'
p2101
g331
(g1604
g333
Ntp2102
Rp2103
(dp2104
g1608
g1289
sg1609
g1610
sg357
g1290
sbsS'IwGeomFIntersect.h'
p2105
g331
(g1604
g333
Ntp2106
Rp2107
(dp2108
g1608
g1311
sg1609
g1670
sg357
g1381
sbsS'hash_map'
p2109
g331
(g1604
g333
Ntp2110
Rp2111
(dp2112
g1608
g1616
sg1609
g1617
sg357
S'c:/marmalade/7.5/s3e/h/std/c++/hash_map'
p2113
sbsS's3e.mkf'
p2114
g331
(g1604
g333
Ntp2115
Rp2116
(dp2117
g1608
(dp2118
sg1609
g1632
sg357
S'c:/marmalade/7.5/s3e/s3e.mkf'
p2119
sbsS'IwGeomMat2D.h.tpl'
p2120
g331
(g1604
g333
Ntp2121
Rp2122
(dp2123
g1608
g1311
sg1609
g1670
sg357
g1363
sbsS's3eOSReadString.h'
p2124
g331
(g1604
g333
Ntp2125
Rp2126
(dp2127
g1608
g1616
sg1609
g1843
sg357
S'c:/marmalade/7.5/s3e/h/ext/s3eOSReadString.h'
p2128
sbsS'IwSound.h'
p2129
g331
(g1604
g333
Ntp2130
Rp2131
(dp2132
g1608
g1143
sg1609
g1656
sg357
g1178
sbsS'map'
p2133
g331
(g1604
g333
Ntp2134
Rp2135
(dp2136
g1608
g1616
sg1609
g1617
sg357
S'c:/marmalade/7.5/s3e/h/std/c++/map'
p2137
sbsS'iwtween.mkf'
p2138
g331
(g1604
g333
Ntp2139
Rp2140
(dp2141
g1608
g1595
sg1609
(lp2142
g1586
asg357
g1593
sbsS'IwOptimiseSpeed.h'
p2143
g331
(g1604
g333
Ntp2144
Rp2145
(dp2146
g1608
g1475
sg1609
g1645
sg357
g1532
sbsS'ostream'
p2147
g331
(g1604
g333
Ntp2148
Rp2149
(dp2150
g1608
g1616
sg1609
g1617
sg357
S'c:/marmalade/7.5/s3e/h/std/c++/ostream'
p2151
sbsS'msl_string.h'
p2152
g331
(g1604
g333
Ntp2153
Rp2154
(dp2155
g1608
g1616
sg1609
g1617
sg357
S'c:/marmalade/7.5/s3e/h/std/c++/msl_string.h'
p2156
sbsS'select.h'
p2157
g331
(g1604
g333
Ntp2158
Rp2159
(dp2160
g1608
g1616
sg1609
g1769
sg357
S'c:/marmalade/7.5/s3e/h/std/sys/select.h'
p2161
sbsS'zlib.mkf'
p2162
g331
(g1604
g333
Ntp2163
Rp2164
(dp2165
g1608
g1585
sg1609
(lp2166
g1575
asg357
g1583
sbsS'signal.h'
p2167
g331
(g1604
g333
Ntp2168
Rp2169
(dp2170
g1608
g1616
sg1609
g1638
sg357
S'c:/marmalade/7.5/s3e/h/std/signal.h'
p2171
sbsS'sigcontext.h'
p2172
g331
(g1604
g333
Ntp2173
Rp2174
(dp2175
g1608
g1616
sg1609
g1638
sg357
S'c:/marmalade/7.5/s3e/h/std/sigcontext.h'
p2176
sbsS'libpng.mkf'
p2177
g331
(g1604
g333
Ntp2178
Rp2179
(dp2180
g1608
g1093
sg1609
(lp2181
g1082
asg357
g1091
sbsS's3eClipboard.h'
p2182
g331
(g1604
g333
Ntp2183
Rp2184
(dp2185
g1608
g1616
sg1609
g1632
sg357
S'c:/marmalade/7.5/s3e/h/s3eClipboard.h'
p2186
sbsS'IwGxFuncTable.h'
p2187
g331
(g1604
g333
Ntp2188
Rp2189
(dp2190
g1608
g1411
sg1609
g1750
sg357
g1416
sbsS'IwResHandlerGROUP.h'
p2191
g331
(g1604
g333
Ntp2192
Rp2193
(dp2194
g1608
g1387
sg1609
g1888
sg357
g1392
sbsS's3eDebug.h'
p2195
g331
(g1604
g333
Ntp2196
Rp2197
(dp2198
g1608
g1616
sg1609
g1632
sg357
S'c:/marmalade/7.5/s3e/h/s3eDebug.h'
p2199
sbsS'socket.h'
p2200
g331
(g1604
g333
Ntp2201
Rp2202
(dp2203
g1608
g1616
sg1609
g1769
sg357
S'c:/marmalade/7.5/s3e/h/std/sys/socket.h'
p2204
sbsS'glext.h'
p2205
g331
(g1604
g333
Ntp2206
Rp2207
(dp2208
g1608
g1616
sg1609
g1981
sg357
S'c:/marmalade/7.5/s3e/h/GLES/glext.h'
p2209
sbsS'typeinfo.h'
p2210
g331
(g1604
g333
Ntp2211
Rp2212
(dp2213
g1608
g1616
sg1609
g1617
sg357
S'c:/marmalade/7.5/s3e/h/std/c++/typeinfo.h'
p2214
sbsS'typeinfo'
p2215
g331
(g1604
g333
Ntp2216
Rp2217
(dp2218
g1608
g1616
sg1609
g1617
sg357
S'c:/marmalade/7.5/s3e/h/std/c++/typeinfo'
p2219
sbsS'iwsound.config.txt'
p2220
g331
(g1604
g333
Ntp2221
Rp2222
(dp2223
g1608
g1143
sg1609
(lp2224
g1139
ag1150
asg357
g1152
sbsS'fstream.h'
p2225
g331
(g1604
g333
Ntp2226
Rp2227
(dp2228
g1608
g1616
sg1609
g1617
sg357
S'c:/marmalade/7.5/s3e/h/std/c++/fstream.h'
p2229
sbsS'IwGeomMat.h'
p2230
g331
(g1604
g333
Ntp2231
Rp2232
(dp2233
g1608
g1311
sg1609
g1670
sg357
g1327
sbsS's3ePointer.h'
p2234
g331
(g1604
g333
Ntp2235
Rp2236
(dp2237
g1608
g1616
sg1609
g1632
sg357
S'c:/marmalade/7.5/s3e/h/s3ePointer.h'
p2238
sbsS'IwMemBucket.h'
p2239
g331
(g1604
g333
Ntp2240
Rp2241
(dp2242
g1608
g1475
sg1609
g1645
sg357
g1522
sbsS'PVRTexTool.h'
p2243
g331
(g1604
g333
Ntp2244
Rp2245
(dp2246
g1608
g1239
sg1609
(lp2247
g1231
ag1233
asg357
g1242
sbsS's3eGL.h'
p2248
g331
(g1604
g333
Ntp2249
Rp2250
(dp2251
g1608
g1616
sg1609
g1632
sg357
S'c:/marmalade/7.5/s3e/h/s3eGL.h'
p2252
sbsS'IwGeomFVec2.h'
p2253
g331
(g1604
g333
Ntp2254
Rp2255
(dp2256
g1608
g1311
sg1609
g1670
sg357
g1345
sbsS'IwGeomSVec4.h'
p2257
g331
(g1604
g333
Ntp2258
Rp2259
(dp2260
g1608
g1311
sg1609
g1670
sg357
g1347
sbsS'poll.h'
p2261
g331
(g1604
g333
Ntp2262
Rp2263
(dp2264
g1608
g1616
sg1609
g1638
sg357
S'c:/marmalade/7.5/s3e/h/std/poll.h'
p2265
sbsS'IwMatAnim.h'
p2266
g331
(g1604
g333
Ntp2267
Rp2268
(dp2269
g1608
g1411
sg1609
g1750
sg357
g1412
sbsS'IwGeomFVec4.h'
p2270
g331
(g1604
g333
Ntp2271
Rp2272
(dp2273
g1608
g1311
sg1609
g1670
sg357
g1359
sbsS'IwGx.h'
p2274
g331
(g1604
g333
Ntp2275
Rp2276
(dp2277
g1608
g1411
sg1609
g1750
sg357
g1430
sbsS'valarray'
p2278
g331
(g1604
g333
Ntp2279
Rp2280
(dp2281
g1608
g1616
sg1609
g1617
sg357
S'c:/marmalade/7.5/s3e/h/std/c++/valarray'
p2282
sbsS'iosfwd'
p2283
g331
(g1604
g333
Ntp2284
Rp2285
(dp2286
g1608
g1616
sg1609
g1617
sg357
S'c:/marmalade/7.5/s3e/h/std/c++/iosfwd'
p2287
sbsS'gl2.h'
p2288
g331
(g1604
g333
Ntp2289
Rp2290
(dp2291
g1608
g1616
sg1609
g1880
sg357
S'c:/marmalade/7.5/s3e/h/GLES2/gl2.h'
p2292
sbsS'jpegint.h'
p2293
g331
(g1604
g333
Ntp2294
Rp2295
(dp2296
g1608
g1102
sg1609
g1704
sg357
g1117
sbsS'stdiostream.h'
p2297
g331
(g1604
g333
Ntp2298
Rp2299
(dp2300
g1608
g1616
sg1609
g1617
sg357
S'c:/marmalade/7.5/s3e/h/std/c++/stdiostream.h'
p2301
sbsS'mem.h'
p2302
g331
(g1604
g333
Ntp2303
Rp2304
(dp2305
g1608
g1616
sg1609
g1617
sg357
S'c:/marmalade/7.5/s3e/h/std/c++/mem.h'
p2306
sbsS'jerror.h'
p2307
g331
(g1604
g333
Ntp2308
Rp2309
(dp2310
g1608
g1102
sg1609
g1704
sg357
g1100
sbsS'zconf.h'
p2311
g331
(g1604
g333
Ntp2312
Rp2313
(dp2314
g1608
g1580
sg1609
(lp2315
g1575
ag1084
asg357
g1578
sbsS's3e.config.txt'
p2316
g331
(g1604
g333
Ntp2317
Rp2318
(dp2319
g1608
g1616
sg1609
g1632
sg357
S'c:/marmalade/7.5/s3e/s3e.config.txt'
p2320
sbsS'numeric'
p2321
g331
(g1604
g333
Ntp2322
Rp2323
(dp2324
g1608
g1616
sg1609
g1617
sg357
S'c:/marmalade/7.5/s3e/h/std/c++/numeric'
p2325
sbsS'utime.h'
p2326
g331
(g1604
g333
Ntp2327
Rp2328
(dp2329
g1608
g1616
sg1609
g1638
sg357
S'c:/marmalade/7.5/s3e/h/std/utime.h'
p2330
sbsS'jdhuff.h'
p2331
g331
(g1604
g333
Ntp2332
Rp2333
(dp2334
g1608
g1102
sg1609
g1704
sg357
g1103
sbsS'IwResHandlerWAV.cpp'
p2335
g331
(g1604
g333
Ntp2336
Rp2337
(dp2338
g1608
g1143
sg1609
g1656
sg357
g1146
sbsS'un.h'
p2339
g331
(g1604
g333
Ntp2340
Rp2341
(dp2342
g1608
g1616
sg1609
g1769
sg357
S'c:/marmalade/7.5/s3e/h/std/sys/un.h'
p2343
sbsS'IwImage.h'
p2344
g331
(g1604
g333
Ntp2345
Rp2346
(dp2347
g1608
g1475
sg1609
g1645
sg357
g1518
sbsS's3eImagePicker.h'
p2348
g331
(g1604
g333
Ntp2349
Rp2350
(dp2351
g1608
g1616
sg1609
g1843
sg357
S'c:/marmalade/7.5/s3e/h/ext/s3eImagePicker.h'
p2352
sbsS'stdlib.h'
p2353
g331
(g1604
g333
Ntp2354
Rp2355
(dp2356
g1608
g1616
sg1609
g1638
sg357
S'c:/marmalade/7.5/s3e/h/std/stdlib.h'
p2357
sbsS'IwCopyingPtr.h'
p2358
g331
(g1604
g333
Ntp2359
Rp2360
(dp2361
g1608
g1475
sg1609
g1645
sg357
g1557
sbsS'iostream'
p2362
g331
(g1604
g333
Ntp2363
Rp2364
(dp2365
g1608
g1616
sg1609
g1617
sg357
S'c:/marmalade/7.5/s3e/h/std/c++/iostream'
p2366
sbsS'png.h'
p2367
g331
(g1604
g333
Ntp2368
Rp2369
(dp2370
g1608
g1088
sg1609
(lp2371
g1082
ag1084
asg357
g1086
sbsS'stddef.h'
p2372
g331
(g1604
g333
Ntp2373
Rp2374
(dp2375
g1608
g1616
sg1609
g1638
sg357
S'c:/marmalade/7.5/s3e/h/std/stddef.h'
p2376
sbsS'setjmp_win32.h'
p2377
g331
(g1604
g333
Ntp2378
Rp2379
(dp2380
g1608
g1616
sg1609
g1638
sg357
S'c:/marmalade/7.5/s3e/h/std/setjmp_win32.h'
p2381
sbsS'pauseMenu.h'
p2382
g331
(g1604
g333
Ntp2383
Rp2384
(dp2385
g1608
g1200
sg1609
g1760
sg357
g1198
sbsS'IwGxPrint.h'
p2386
g331
(g1604
g333
Ntp2387
Rp2388
(dp2389
g1608
g1411
sg1609
g1750
sg357
g1420
sbsS'iwgx_public.defines.txt'
p2390
g331
(g1604
g333
Ntp2391
Rp2392
(dp2393
g1608
g1411
sg1609
g1750
sg357
g1432
sbsS'streambuf.h'
p2394
g331
(g1604
g333
Ntp2395
Rp2396
(dp2397
g1608
g1616
sg1609
g1617
sg357
S'c:/marmalade/7.5/s3e/h/std/c++/streambuf.h'
p2398
sbsS'resources.cpp'
p2399
g331
(g1604
g333
Ntp2400
Rp2401
(dp2402
g1608
g1200
sg1609
g1760
sg357
g1203
sbsS'IwGeomFPlane.h'
p2403
g331
(g1604
g333
Ntp2404
Rp2405
(dp2406
g1608
g1311
sg1609
g1670
sg357
g1375
sbsS'wchar.h'
p2407
g331
(g1604
g333
Ntp2408
Rp2409
(dp2410
g1608
g1616
sg1609
g1638
sg357
S'c:/marmalade/7.5/s3e/h/std/wchar.h'
p2411
sbsS's3eCameraCapture.h'
p2412
g331
(g1604
g333
Ntp2413
Rp2414
(dp2415
g1608
g1616
sg1609
g1843
sg357
S'c:/marmalade/7.5/s3e/h/ext/s3eCameraCapture.h'
p2416
sbsS'eglext.h'
p2417
g331
(g1604
g333
Ntp2418
Rp2419
(dp2420
g1608
g1616
sg1609
g1973
sg357
S'c:/marmalade/7.5/s3e/h/EGL/eglext.h'
p2421
sbsS'IwResHandlerImage.h'
p2422
g331
(g1604
g333
Ntp2423
Rp2424
(dp2425
g1608
g1387
sg1609
g1888
sg357
g1405
sbsS'strstream.h'
p2426
g331
(g1604
g333
Ntp2427
Rp2428
(dp2429
g1608
g1616
sg1609
g1617
sg357
S'c:/marmalade/7.5/s3e/h/std/c++/strstream.h'
p2430
sbsS'tiniconv.h'
p2431
g331
(g1604
g333
Ntp2432
Rp2433
(dp2434
g1608
g1136
sg1609
g2095
sg357
g1137
sbsS'IwGLExt.h'
p2435
g331
(g1604
g333
Ntp2436
Rp2437
(dp2438
g1608
g1268
sg1609
g1626
sg357
g1271
sbsS'app.icf'
p2439
g331
(g1604
g333
Ntp2440
Rp2441
(dp2442
g1608
(dp2443
sg1609
g4
sg357
S'c:/Marmalade/7.5/examples/GameTutorial/CPP/marm1/data/app.icf'
p2444
sbsS'IwClassFactory.h'
p2445
g331
(g1604
g333
Ntp2446
Rp2447
(dp2448
g1608
g1475
sg1609
g1645
sg357
g1492
sbsS'file.h'
p2449
g331
(g1604
g333
Ntp2450
Rp2451
(dp2452
g1608
g1616
sg1609
g1769
sg357
S'c:/marmalade/7.5/s3e/h/std/sys/file.h'
p2453
sbsS'cstring'
p2454
g331
(g1604
g333
Ntp2455
Rp2456
(dp2457
g1608
g1616
sg1609
g1617
sg357
S'c:/marmalade/7.5/s3e/h/std/c++/cstring'
p2458
sbsS'IwSoundInst.cpp'
p2459
g331
(g1604
g333
Ntp2460
Rp2461
(dp2462
g1608
g1143
sg1609
g1656
sg357
g1168
sbsS'iwutil.config.txt'
p2463
g331
(g1604
g333
Ntp2464
Rp2465
(dp2466
g1608
g1475
sg1609
g1645
sg357
g1508
sbsS's3eSMS.h'
p2467
g331
(g1604
g333
Ntp2468
Rp2469
(dp2470
g1608
g1616
sg1609
g1843
sg357
S'c:/marmalade/7.5/s3e/h/ext/s3eSMS.h'
p2471
sbsS'limits.h'
p2472
g331
(g1604
g333
Ntp2473
Rp2474
(dp2475
g1608
g1616
sg1609
g1638
sg357
S'c:/marmalade/7.5/s3e/h/std/limits.h'
p2476
sbsS'scene.h'
p2477
g331
(g1604
g333
Ntp2478
Rp2479
(dp2480
g1608
g1200
sg1609
g1760
sg357
g1221
sbsS'IwMaterial.h'
p2481
g331
(g1604
g333
Ntp2482
Rp2483
(dp2484
g1608
g1411
sg1609
g1750
sg357
g1440
sbsS'PVRTexTool_interface.cpp'
p2485
g331
(g1604
g333
Ntp2486
Rp2487
(dp2488
g1608
g1239
sg1609
(lp2489
g1231
ag1233
ag1235
asg357
g1240
sbsS'IwGxSurface.h'
p2490
g331
(g1604
g333
Ntp2491
Rp2492
(dp2493
g1608
g1411
sg1609
g1750
sg357
g1426
sbsS's3eSocket.h'
p2494
g331
(g1604
g333
Ntp2495
Rp2496
(dp2497
g1608
g1616
sg1609
g1632
sg357
S'c:/marmalade/7.5/s3e/h/s3eSocket.h'
p2498
sbsS'IwAutoFile.h'
p2499
g331
(g1604
g333
Ntp2500
Rp2501
(dp2502
g1608
g1475
sg1609
g1645
sg357
g1536
sbsS's3eVibra.h'
p2503
g331
(g1604
g333
Ntp2504
Rp2505
(dp2506
g1608
g1616
sg1609
g1632
sg357
S'c:/marmalade/7.5/s3e/h/s3eVibra.h'
p2507
sbsS'poll_1.h'
p2508
g331
(g1604
g333
Ntp2509
Rp2510
(dp2511
g1608
g1616
sg1609
g1769
sg357
S'c:/marmalade/7.5/s3e/h/std/sys/poll.h'
p2512
sbsS's3eThread.h'
p2513
g331
(g1604
g333
Ntp2514
Rp2515
(dp2516
g1608
g1616
sg1609
g1632
sg357
S'c:/marmalade/7.5/s3e/h/s3eThread.h'
p2517
sbsS'ucontext.h'
p2518
g331
(g1604
g333
Ntp2519
Rp2520
(dp2521
g1608
g1616
sg1609
g1638
sg357
S'c:/marmalade/7.5/s3e/h/std/ucontext.h'
p2522
sbsS'time.h'
p2523
g331
(g1604
g333
Ntp2524
Rp2525
(dp2526
g1608
g1616
sg1609
g1638
sg357
S'c:/marmalade/7.5/s3e/h/std/time.h'
p2527
sbsS'jchuff.h'
p2528
g331
(g1604
g333
Ntp2529
Rp2530
(dp2531
g1608
g1102
sg1609
g1704
sg357
g1119
sbsS'IwSoundPCM.cpp'
p2532
g331
(g1604
g333
Ntp2533
Rp2534
(dp2535
g1608
g1143
sg1609
g1656
sg357
g1164
sbsS's3eSoundRecord.h'
p2536
g331
(g1604
g333
Ntp2537
Rp2538
(dp2539
g1608
g1616
sg1609
g1632
sg357
S'c:/marmalade/7.5/s3e/h/s3eSoundRecord.h'
p2540
sbsS'IwFibre.h'
p2541
g331
(g1604
g333
Ntp2542
Rp2543
(dp2544
g1608
g1475
sg1609
g1645
sg357
g1561
sbsS's3eVersion.h'
p2545
g331
(g1604
g333
Ntp2546
Rp2547
(dp2548
g1608
g1616
sg1609
g1632
sg357
S'c:/marmalade/7.5/s3e/h/s3eVersion.h'
p2549
sbsS'input.cpp'
p2550
g331
(g1604
g333
Ntp2551
Rp2552
(dp2553
g1608
g1200
sg1609
g1760
sg357
g1211
sbsS'IwSoundGroup.h'
p2554
g331
(g1604
g333
Ntp2555
Rp2556
(dp2557
g1608
g1143
sg1609
g1656
sg357
g1189
sbsS'IwSoundWAV.h'
p2558
g331
(g1604
g333
Ntp2559
Rp2560
(dp2561
g1608
g1143
sg1609
g1656
sg357
g1170
sbsS'IwGxFontGlyph.h'
p2562
g331
(g1604
g333
Ntp2563
Rp2564
(dp2565
g1608
g1289
sg1609
g1610
sg357
g1287
sbsS's3eTypes.h'
p2566
g331
(g1604
g333
Ntp2567
Rp2568
(dp2569
g1608
g1616
sg1609
g1632
sg357
S'c:/marmalade/7.5/s3e/h/s3eTypes.h'
p2570
sbsS'IwSoundSpec.h'
p2571
g331
(g1604
g333
Ntp2572
Rp2573
(dp2574
g1608
g1143
sg1609
g1656
sg357
g1158
sbsS'signal_2.h'
p2575
g331
(g1604
g333
Ntp2576
Rp2577
(dp2578
g1608
g1616
sg1609
g1617
sg357
S'c:/marmalade/7.5/s3e/h/std/c++/signal.h'
p2579
sbsS'termios.h'
p2580
g331
(g1604
g333
Ntp2581
Rp2582
(dp2583
g1608
g1616
sg1609
g1638
sg357
S'c:/marmalade/7.5/s3e/h/std/termios.h'
p2584
sbsS'iw2dscenegraph.mkf'
p2585
g331
(g1604
g333
Ntp2586
Rp2587
(dp2588
g1608
g1260
sg1609
g1930
sg357
g1258
sbsS'slist'
p2589
g331
(g1604
g333
Ntp2590
Rp2591
(dp2592
g1608
g1616
sg1609
g1617
sg357
S'c:/marmalade/7.5/s3e/h/std/c++/slist'
p2593
sbsS'cstdlib'
p2594
g331
(g1604
g333
Ntp2595
Rp2596
(dp2597
g1608
g1616
sg1609
g1617
sg357
S'c:/marmalade/7.5/s3e/h/std/c++/cstdlib'
p2598
sbsS's3eLocation.h'
p2599
g331
(g1604
g333
Ntp2600
Rp2601
(dp2602
g1608
g1616
sg1609
g1632
sg357
S'c:/marmalade/7.5/s3e/h/s3eLocation.h'
p2603
sbsS'IwMemBucketHelpers.h'
p2604
g331
(g1604
g333
Ntp2605
Rp2606
(dp2607
g1608
g1475
sg1609
g1645
sg357
g1512
sbsS's3eHash.h'
p2608
g331
(g1604
g333
Ntp2609
Rp2610
(dp2611
g1608
g1616
sg1609
g1632
sg357
S'c:/marmalade/7.5/s3e/h/s3eHash.h'
p2612
sbsS'IwSoundGroup.cpp'
p2613
g331
(g1604
g333
Ntp2614
Rp2615
(dp2616
g1608
g1143
sg1609
g1656
sg357
g1141
sbsS'IwGeomFMat.h'
p2617
g331
(g1604
g333
Ntp2618
Rp2619
(dp2620
g1608
g1311
sg1609
g1670
sg357
g1339
sbsS'type_traits.h'
p2621
g331
(g1604
g333
Ntp2622
Rp2623
(dp2624
g1608
g1616
sg1609
g1617
sg357
S'c:/marmalade/7.5/s3e/h/std/c++/type_traits.h'
p2625
sbsS's3eAtomic.h'
p2626
g331
(g1604
g333
Ntp2627
Rp2628
(dp2629
g1608
g1616
sg1609
g1632
sg357
S'c:/marmalade/7.5/s3e/h/s3eAtomic.h'
p2630
sbsS'IwMenu.h'
p2631
g331
(g1604
g333
Ntp2632
Rp2633
(dp2634
g1608
g1475
sg1609
g1645
sg357
g1565
sbsS'IwResHandlerITX.h'
p2635
g331
(g1604
g333
Ntp2636
Rp2637
(dp2638
g1608
g1387
sg1609
g1888
sg357
g1385
sbsS'IwSoundData.h'
p2639
g331
(g1604
g333
Ntp2640
Rp2641
(dp2642
g1608
g1143
sg1609
g1656
sg357
g1182
sbsS'IwArray.h'
p2643
g331
(g1604
g333
Ntp2644
Rp2645
(dp2646
g1608
g1475
sg1609
g1645
sg357
g1563
sbsS'IwUTF8.h'
p2647
g331
(g1604
g333
Ntp2648
Rp2649
(dp2650
g1608
g1475
sg1609
g1645
sg357
g1506
sbsS'math_rvct.h'
p2651
g331
(g1604
g333
Ntp2652
Rp2653
(dp2654
g1608
g1616
sg1609
g1638
sg357
S'c:/marmalade/7.5/s3e/h/std/math_rvct.h'
p2655
sbsS'IwUtil.h'
p2656
g331
(g1604
g333
Ntp2657
Rp2658
(dp2659
g1608
g1475
sg1609
g1645
sg357
g1547
sbsS'IwFColour.h'
p2660
g331
(g1604
g333
Ntp2661
Rp2662
(dp2663
g1608
g1411
sg1609
g1750
sg357
g1446
sbsS'wctype.h'
p2664
g331
(g1604
g333
Ntp2665
Rp2666
(dp2667
g1608
g1616
sg1609
g1638
sg357
S'c:/marmalade/7.5/s3e/h/std/wctype.h'
p2668
sbsS'mainMenu.h'
p2669
g331
(g1604
g333
Ntp2670
Rp2671
(dp2672
g1608
g1200
sg1609
g1760
sg357
g1205
sbsS'cstddef'
p2673
g331
(g1604
g333
Ntp2674
Rp2675
(dp2676
g1608
g1616
sg1609
g1617
sg357
S'c:/marmalade/7.5/s3e/h/std/c++/cstddef'
p2677
sbsS'assert.h'
p2678
g331
(g1604
g333
Ntp2679
Rp2680
(dp2681
g1608
g1616
sg1609
g1638
sg357
S'c:/marmalade/7.5/s3e/h/std/assert.h'
p2682
sbsS'mman.h'
p2683
g331
(g1604
g333
Ntp2684
Rp2685
(dp2686
g1608
g1616
sg1609
g1769
sg357
S'c:/marmalade/7.5/s3e/h/std/sys/mman.h'
p2687
sbsS'IwRandom.h'
p2688
g331
(g1604
g333
Ntp2689
Rp2690
(dp2691
g1608
g1475
sg1609
g1645
sg357
g1502
sbsS'libgen.h'
p2692
g331
(g1604
g333
Ntp2693
Rp2694
(dp2695
g1608
g1616
sg1609
g1638
sg357
S'c:/marmalade/7.5/s3e/h/std/libgen.h'
p2696
sbsS'utsname.h'
p2697
g331
(g1604
g333
Ntp2698
Rp2699
(dp2700
g1608
g1616
sg1609
g1769
sg357
S'c:/marmalade/7.5/s3e/h/std/sys/utsname.h'
p2701
sbsS'wait.h'
p2702
g331
(g1604
g333
Ntp2703
Rp2704
(dp2705
g1608
g1616
sg1609
g1769
sg357
S'c:/marmalade/7.5/s3e/h/std/sys/wait.h'
p2706
sbsS'param.h'
p2707
g331
(g1604
g333
Ntp2708
Rp2709
(dp2710
g1608
g1616
sg1609
g1769
sg357
S'c:/marmalade/7.5/s3e/h/std/sys/param.h'
p2711
sbsS'IwDivide.h'
p2712
g331
(g1604
g333
Ntp2713
Rp2714
(dp2715
g1608
g1475
sg1609
g1645
sg357
g1482
sbsS'Iw2DSceneGraphCore.cpp'
p2716
g331
(g1604
g333
Ntp2717
Rp2718
(dp2719
g1608
g1468
sg1609
(lp2720
S"'Marmalade Studio'"
p2721
ag1461
asg357
g1469
sbsS'IwResManager.h'
p2722
g331
(g1604
g333
Ntp2723
Rp2724
(dp2725
g1608
g1387
sg1609
g1888
sg357
g1394
sbsS'IwSoundManager.h'
p2726
g331
(g1604
g333
Ntp2727
Rp2728
(dp2729
g1608
g1143
sg1609
g1656
sg357
g1162
sbsS'cwctype'
p2730
g331
(g1604
g333
Ntp2731
Rp2732
(dp2733
g1608
g1616
sg1609
g1617
sg357
S'c:/marmalade/7.5/s3e/h/std/c++/cwctype'
p2734
sbsS'set'
p2735
g331
(g1604
g333
Ntp2736
Rp2737
(dp2738
g1608
g1616
sg1609
g1617
sg357
S'c:/marmalade/7.5/s3e/h/std/c++/set'
p2739
sbsS'IwGeomSQuat.h'
p2740
g331
(g1604
g333
Ntp2741
Rp2742
(dp2743
g1608
g1311
sg1609
g1670
sg357
g1335
sbsS'locale'
p2744
g331
(g1604
g333
Ntp2745
Rp2746
(dp2747
g1608
g1616
sg1609
g1617
sg357
S'c:/marmalade/7.5/s3e/h/std/c++/locale'
p2748
sbsS'cstdio'
p2749
g331
(g1604
g333
Ntp2750
Rp2751
(dp2752
g1608
g1616
sg1609
g1617
sg357
S'c:/marmalade/7.5/s3e/h/std/c++/cstdio'
p2753
sbsS'cdjpeg.h'
p2754
g331
(g1604
g333
Ntp2755
Rp2756
(dp2757
g1608
g1102
sg1609
g1704
sg357
g1121
sbsS'audio.h'
p2758
g331
(g1604
g333
Ntp2759
Rp2760
(dp2761
g1608
g1200
sg1609
g1760
sg357
g1207
sbsS'IwList.h'
p2762
g331
(g1604
g333
Ntp2763
Rp2764
(dp2765
g1608
g1475
sg1609
g1645
sg357
g1534
sbsS'pauseMenu.cpp'
p2766
g331
(g1604
g333
Ntp2767
Rp2768
(dp2769
g1608
g1200
sg1609
g1760
sg357
g1229
sbsS'inttypes.h'
p2770
g331
(g1604
g333
Ntp2771
Rp2772
(dp2773
g1608
g1616
sg1609
g1638
sg357
S'c:/marmalade/7.5/s3e/h/std/inttypes.h'
p2774
sbsS'dirent.h'
p2775
g331
(g1604
g333
Ntp2776
Rp2777
(dp2778
g1608
g1616
sg1609
g1638
sg357
S'c:/marmalade/7.5/s3e/h/std/dirent.h'
p2779
sbsS'IwGeomVec3.h'
p2780
g331
(g1604
g333
Ntp2781
Rp2782
(dp2783
g1608
g1311
sg1609
g1670
sg357
g1329
sbsS'transupp.h'
p2784
g331
(g1604
g333
Ntp2785
Rp2786
(dp2787
g1608
g1102
sg1609
g1704
sg357
g1107
sbsS'IwMath.h'
p2788
g331
(g1604
g333
Ntp2789
Rp2790
(dp2791
g1608
g1475
sg1609
g1645
sg357
g1476
sbsS'IwGeomQuat.h'
p2792
g331
(g1604
g333
Ntp2793
Rp2794
(dp2795
g1608
g1311
sg1609
g1670
sg357
g1379
sbsS'glplatform.h'
p2796
g331
(g1604
g333
Ntp2797
Rp2798
(dp2799
g1608
g1616
sg1609
g1981
sg357
S'c:/marmalade/7.5/s3e/h/GLES/glplatform.h'
p2800
sbsS's3e-default.mkf'
p2801
g331
(g1604
g333
Ntp2802
Rp2803
(dp2804
g1608
g1600
sg1609
(lp2805
g1596
asg357
g1598
sbsS'iwgl.config.txt'
p2806
g331
(g1604
g333
Ntp2807
Rp2808
(dp2809
g1608
g1268
sg1609
g1626
sg357
g1269
sbsS'bitset'
p2810
g331
(g1604
g333
Ntp2811
Rp2812
(dp2813
g1608
g1616
sg1609
g1617
sg357
S'c:/marmalade/7.5/s3e/h/std/c++/bitset'
p2814
sbsS'alloca.h'
p2815
g331
(g1604
g333
Ntp2816
Rp2817
(dp2818
g1608
g1616
sg1609
g1638
sg357
S'c:/marmalade/7.5/s3e/h/std/alloca.h'
p2819
sbsS'IwResHandler.h'
p2820
g331
(g1604
g333
Ntp2821
Rp2822
(dp2823
g1608
g1387
sg1609
g1888
sg357
g1403
sbsS'IwResHandlerMTL.h'
p2824
g331
(g1604
g333
Ntp2825
Rp2826
(dp2827
g1608
g1411
sg1609
g1750
sg357
g1418
sbsS'IwRuntime.h'
p2828
g331
(g1604
g333
Ntp2829
Rp2830
(dp2831
g1608
g1475
sg1609
g1645
sg357
g1526
sbsS'limits'
p2832
g331
(g1604
g333
Ntp2833
Rp2834
(dp2835
g1608
g1616
sg1609
g1617
sg357
S'c:/marmalade/7.5/s3e/h/std/c++/limits'
p2836
sbsS'IwGeomBBox.h'
p2837
g331
(g1604
g333
Ntp2838
Rp2839
(dp2840
g1608
g1311
sg1609
g1670
sg357
g1369
sbsS's3eContacts.h'
p2841
g331
(g1604
g333
Ntp2842
Rp2843
(dp2844
g1608
g1616
sg1609
g1632
sg357
S'c:/marmalade/7.5/s3e/h/s3eContacts.h'
p2845
sbsS's3eLicense.h'
p2846
g331
(g1604
g333
Ntp2847
Rp2848
(dp2849
g1608
g1616
sg1609
g1632
sg357
S'c:/marmalade/7.5/s3e/h/s3eLicense.h'
p2850
sbsS'iwgx.config.txt'
p2851
g331
(g1604
g333
Ntp2852
Rp2853
(dp2854
g1608
g1411
sg1609
g1750
sg357
g1453
sbsS'IwTextParser.h'
p2855
g331
(g1604
g333
Ntp2856
Rp2857
(dp2858
g1608
g1475
sg1609
g1645
sg357
g1555
sbsS's3eTimer.h'
p2859
g331
(g1604
g333
Ntp2860
Rp2861
(dp2862
g1608
g1616
sg1609
g1632
sg357
S'c:/marmalade/7.5/s3e/h/s3eTimer.h'
p2863
sbsS'IwGeomVec.h'
p2864
g331
(g1604
g333
Ntp2865
Rp2866
(dp2867
g1608
g1311
sg1609
g1670
sg357
g1355
sbsS'IwSerialise.h'
p2868
g331
(g1604
g333
Ntp2869
Rp2870
(dp2871
g1608
g1475
sg1609
g1645
sg357
g1573
sbsS'cstdarg'
p2872
g331
(g1604
g333
Ntp2873
Rp2874
(dp2875
g1608
g1616
sg1609
g1617
sg357
S'c:/marmalade/7.5/s3e/h/std/c++/cstdarg'
p2876
sbsS'gl2ext.h'
p2877
g331
(g1604
g333
Ntp2878
Rp2879
(dp2880
g1608
g1616
sg1609
g1880
sg357
S'c:/marmalade/7.5/s3e/h/GLES2/gl2ext.h'
p2881
sbsS'IwChar.h'
p2882
g331
(g1604
g333
Ntp2883
Rp2884
(dp2885
g1608
g1475
sg1609
g1645
sg357
g1500
sbsS's3eSound.h'
p2886
g331
(g1604
g333
Ntp2887
Rp2888
(dp2889
g1608
g1616
sg1609
g1632
sg357
S'c:/marmalade/7.5/s3e/h/s3eSound.h'
p2890
sbsS'IwVariableBitField.h'
p2891
g331
(g1604
g333
Ntp2892
Rp2893
(dp2894
g1608
g1475
sg1609
g1645
sg357
g1538
sbsS'exception.h'
p2895
g331
(g1604
g333
Ntp2896
Rp2897
(dp2898
g1608
g1616
sg1609
g1617
sg357
S'c:/marmalade/7.5/s3e/h/std/c++/exception.h'
p2899
sbsS'iwgeom.config.txt'
p2900
g331
(g1604
g333
Ntp2901
Rp2902
(dp2903
g1608
g1311
sg1609
g1670
sg357
g1377
sbsS'iwgx.mkf'
p2904
g331
(g1604
g333
Ntp2905
Rp2906
(dp2907
g1608
g1452
sg1609
g1750
sg357
g1450
sbsS'gl.h'
p2908
g331
(g1604
g333
Ntp2909
Rp2910
(dp2911
g1608
g1616
sg1609
g1981
sg357
S'c:/marmalade/7.5/s3e/h/GLES/gl.h'
p2912
sbsS'zlib.h'
p2913
g331
(g1604
g333
Ntp2914
Rp2915
(dp2916
g1608
g1580
sg1609
g2315
sg357
g1581
sbsS'temp_defines_release.h'
p2917
g331
(g1604
g333
Ntp2918
Rp2919
(dp2920
g1608
(lp2921
sg1609
(lp2922
S"'generated files'"
p2923
asg357
S'c:/Marmalade/7.5/examples/GameTutorial/CPP/marm1/build_stage4_vc12/temp_defines_release.h'
p2924
sbsS'iwgl.mkf'
p2925
g331
(g1604
g333
Ntp2926
Rp2927
(dp2928
g1608
g1265
sg1609
g1626
sg357
g1263
sbsS'IwColour.h'
p2929
g331
(g1604
g333
Ntp2930
Rp2931
(dp2932
g1608
g1411
sg1609
g1750
sg357
g1455
sbsS's3eLibrary.h'
p2933
g331
(g1604
g333
Ntp2934
Rp2935
(dp2936
g1608
g1616
sg1609
g1843
sg357
S'c:/marmalade/7.5/s3e/h/ext/s3eLibrary.h'
p2937
sbsS'types.h'
p2938
g331
(g1604
g333
Ntp2939
Rp2940
(dp2941
g1608
g1616
sg1609
g1769
sg357
S'c:/marmalade/7.5/s3e/h/std/sys/types.h'
p2942
sbsS'ifaddrs.h'
p2943
g331
(g1604
g333
Ntp2944
Rp2945
(dp2946
g1608
g1616
sg1609
g1638
sg357
S'c:/marmalade/7.5/s3e/h/std/ifaddrs.h'
p2947
sbsS'strstream'
p2948
g331
(g1604
g333
Ntp2949
Rp2950
(dp2951
g1608
g1616
sg1609
g1617
sg357
S'c:/marmalade/7.5/s3e/h/std/c++/strstream'
p2952
sbsS'IwTween.cpp'
p2953
g331
(g1604
g333
Ntp2954
Rp2955
(dp2956
g1608
g1590
sg1609
g2142
sg357
g1591
sbsS'exception'
p2957
g331
(g1604
g333
Ntp2958
Rp2959
(dp2960
g1608
g1616
sg1609
g1617
sg357
S'c:/marmalade/7.5/s3e/h/std/c++/exception'
p2961
sbsS'rlocks.h'
p2962
g331
(g1604
g333
Ntp2963
Rp2964
(dp2965
g1608
g1616
sg1609
g1617
sg357
S'c:/marmalade/7.5/s3e/h/std/c++/rlocks.h'
p2966
sbsS'ioctl.h'
p2967
g331
(g1604
g333
Ntp2968
Rp2969
(dp2970
g1608
g1616
sg1609
g1769
sg357
S'c:/marmalade/7.5/s3e/h/std/sys/ioctl.h'
p2971
sbsS'sem.h'
p2972
g331
(g1604
g333
Ntp2973
Rp2974
(dp2975
g1608
g1616
sg1609
g1769
sg357
S'c:/marmalade/7.5/s3e/h/std/sys/sem.h'
p2976
sbsS'jinclude.h'
p2977
g331
(g1604
g333
Ntp2978
Rp2979
(dp2980
g1608
g1102
sg1609
g1704
sg357
g1109
sbsS'IwEvent.h'
p2981
g331
(g1604
g333
Ntp2982
Rp2983
(dp2984
g1608
g1475
sg1609
g1645
sg357
g1559
sbsS'IwOptimiseSize.h'
p2985
g331
(g1604
g333
Ntp2986
Rp2987
(dp2988
g1608
g1475
sg1609
g1645
sg357
g1524
sbsS'iwgxfont_public.defines.txt'
p2989
g331
(g1604
g333
Ntp2990
Rp2991
(dp2992
g1608
g1289
sg1609
g1610
sg357
g1305
sbsS'iconv.h'
p2993
g331
(g1604
g333
Ntp2994
Rp2995
(dp2996
g1608
g1616
sg1609
g1638
sg357
S'c:/marmalade/7.5/s3e/h/std/iconv.h'
p2997
sbsS's3eDevice.h'
p2998
g331
(g1604
g333
Ntp2999
Rp3000
(dp3001
g1608
g1616
sg1609
g1632
sg357
S'c:/marmalade/7.5/s3e/h/s3eDevice.h'
p3002
sbsS'IwGeomSphere.h'
p3003
g331
(g1604
g333
Ntp3004
Rp3005
(dp3006
g1608
g1311
sg1609
g1670
sg357
g1312
sbsS'tiniconv.mkf'
p3007
g331
(g1604
g333
Ntp3008
Rp3009
(dp3010
g1608
g1133
sg1609
g2095
sg357
g1131
sbsS'iw2dscenegraph.defines.txt'
p3011
g331
(g1604
g333
Ntp3012
Rp3013
(dp3014
g1608
g1253
sg1609
g1930
sg357
g1254
sbsS'jdct.h'
p3015
g331
(g1604
g333
Ntp3016
Rp3017
(dp3018
g1608
g1102
sg1609
g1704
sg357
g1113
sbsS'cctype'
p3019
g331
(g1604
g333
Ntp3020
Rp3021
(dp3022
g1608
g1616
sg1609
g1617
sg357
S'c:/marmalade/7.5/s3e/h/std/c++/cctype'
p3023
sbsS'IwSoundADPCM.cpp'
p3024
g331
(g1604
g333
Ntp3025
Rp3026
(dp3027
g1608
g1143
sg1609
g1656
sg357
g1176
sbsS's3eConfig.h'
p3028
g331
(g1604
g333
Ntp3029
Rp3030
(dp3031
g1608
g1616
sg1609
g1632
sg357
S'c:/marmalade/7.5/s3e/h/s3eConfig.h'
p3032
sbsS'IwHashString.h'
p3033
g331
(g1604
g333
Ntp3034
Rp3035
(dp3036
g1608
g1475
sg1609
g1645
sg357
g1540
sbsS'stat.h'
p3037
g331
(g1604
g333
Ntp3038
Rp3039
(dp3040
g1608
g1616
sg1609
g1769
sg357
S'c:/marmalade/7.5/s3e/h/std/sys/stat.h'
p3041
sbsS'byteswap.h'
p3042
g331
(g1604
g333
Ntp3043
Rp3044
(dp3045
g1608
g1616
sg1609
g1638
sg357
S'c:/marmalade/7.5/s3e/h/std/byteswap.h'
p3046
sbsS'iwresmanager.mkf'
p3047
g331
(g1604
g333
Ntp3048
Rp3049
(dp3050
g1608
g1398
sg1609
g1888
sg357
g1396
sbsS'IwUtilInitTerm.h'
p3051
g331
(g1604
g333
Ntp3052
Rp3053
(dp3054
g1608
g1475
sg1609
g1645
sg357
g1569
sbsS'pthread_1.h'
p3055
g331
(g1604
g333
Ntp3056
Rp3057
(dp3058
g1608
g1616
sg1609
g1617
sg357
S'c:/marmalade/7.5/s3e/h/std/c++/pthread.h'
p3059
sbsS'iw2d.mkf'
p3060
g331
(g1604
g333
Ntp3061
Rp3062
(dp3063
g1608
g1284
sg1609
g1709
sg357
g1282
sbsS'complex'
p3064
g331
(g1604
g333
Ntp3065
Rp3066
(dp3067
g1608
g1616
sg1609
g1617
sg357
S'c:/marmalade/7.5/s3e/h/std/c++/complex'
p3068
sbsS'game.cpp'
p3069
g331
(g1604
g333
Ntp3070
Rp3071
(dp3072
g1608
g1200
sg1609
g1760
sg357
g1227
sbsS'algorithm'
p3073
g331
(g1604
g333
Ntp3074
Rp3075
(dp3076
g1608
g1616
sg1609
g1617
sg357
S'c:/marmalade/7.5/s3e/h/std/c++/algorithm'
p3077
sbsS's3e.icf'
p3078
g331
(g1604
g333
Ntp3079
Rp3080
(dp3081
g1608
g1616
sg1609
g1632
sg357
S'c:/marmalade/7.5/s3e/s3e.icf'
p3082
sbsS'resources.h'
p3083
g331
(g1604
g333
Ntp3084
Rp3085
(dp3086
g1608
g1200
sg1609
g1760
sg357
g1219
sbsS'IwGxFontState.h'
p3087
g331
(g1604
g333
Ntp3088
Rp3089
(dp3090
g1608
g1289
sg1609
g1610
sg357
g1294
sbsS'marmaladeexampleresources.mkf'
p3091
g331
(g1604
g333
Ntp3092
Rp3093
(dp3094
g1608
g1195
sg1609
(lp3095
g1191
asg357
g1193
sbsS'stdio.h'
p3096
g331
(g1604
g333
Ntp3097
Rp3098
(dp3099
g1608
g1616
sg1609
g1638
sg357
S'c:/marmalade/7.5/s3e/h/std/stdio.h'
p3100
sbsS'jmemsys.h'
p3101
g331
(g1604
g333
Ntp3102
Rp3103
(dp3104
g1608
g1102
sg1609
g1704
sg357
g1115
sbsS'ios'
p3105
g331
(g1604
g333
Ntp3106
Rp3107
(dp3108
g1608
g1616
sg1609
g1617
sg357
S'c:/marmalade/7.5/s3e/h/std/c++/ios'
p3109
sbsS'IwTween.h'
p3110
g331
(g1604
g333
Ntp3111
Rp3112
(dp3113
g1608
g1590
sg1609
g2142
sg357
g1588
sbsS'PVRTexTool.defines.txt'
p3114
g331
(g1604
g333
Ntp3115
Rp3116
(dp3117
g1608
g1239
sg1609
g2489
sg357
g1237
sbsS'stack'
p3118
g331
(g1604
g333
Ntp3119
Rp3120
(dp3121
g1608
g1616
sg1609
g1617
sg357
S'c:/marmalade/7.5/s3e/h/std/c++/stack'
p3122
sbsS'IwSoundParams.h'
p3123
g331
(g1604
g333
Ntp3124
Rp3125
(dp3126
g1608
g1143
sg1609
g1656
sg357
g1174
sbsS'new.h'
p3127
g331
(g1604
g333
Ntp3128
Rp3129
(dp3130
g1608
g1616
sg1609
g1617
sg357
S'c:/marmalade/7.5/s3e/h/std/c++/new.h'
p3131
sbsS's3eEMail.h'
p3132
g331
(g1604
g333
Ntp3133
Rp3134
(dp3135
g1608
g1616
sg1609
g1843
sg357
S'c:/marmalade/7.5/s3e/h/ext/s3eEMail.h'
p3136
sbsS's3eVideo.h'
p3137
g331
(g1604
g333
Ntp3138
Rp3139
(dp3140
g1608
g1616
sg1609
g1632
sg357
S'c:/marmalade/7.5/s3e/h/s3eVideo.h'
p3141
sbsS'pngconf.h'
p3142
g331
(g1604
g333
Ntp3143
Rp3144
(dp3145
g1608
g1088
sg1609
g2371
sg357
g1089
sbsS'pwd.h'
p3146
g331
(g1604
g333
Ntp3147
Rp3148
(dp3149
g1608
g1616
sg1609
g1638
sg357
S'c:/marmalade/7.5/s3e/h/std/pwd.h'
p3150
sbsS'IwOptimiseThumb.h'
p3151
g331
(g1604
g333
Ntp3152
Rp3153
(dp3154
g1608
g1475
sg1609
g1645
sg357
g1542
sbsS'gl3.h'
p3155
g331
(g1604
g333
Ntp3156
Rp3157
(dp3158
g1608
g1616
sg1609
g1941
sg357
S'c:/marmalade/7.5/s3e/h/GLES3/gl3.h'
p3159
sbsS'IwClip.h'
p3160
g331
(g1604
g333
Ntp3161
Rp3162
(dp3163
g1608
g1411
sg1609
g1750
sg357
g1424
sbsS'IwSoundInst.h'
p3164
g331
(g1604
g333
Ntp3165
Rp3166
(dp3167
g1608
g1143
sg1609
g1656
sg357
g1154
sbsS'iwresmanager.config.txt'
p3168
g331
(g1604
g333
Ntp3169
Rp3170
(dp3171
g1608
g1387
sg1609
g1888
sg357
g1399
sbsS'IwGxShaderTechnique.h'
p3172
g331
(g1604
g333
Ntp3173
Rp3174
(dp3175
g1608
g1411
sg1609
g1750
sg357
g1436
sbsS'IwCore.h'
p3176
g331
(g1604
g333
Ntp3177
Rp3178
(dp3179
g1608
g1475
sg1609
g1645
sg357
g1480
sbsS'cfloat'
p3180
g331
(g1604
g333
Ntp3181
Rp3182
(dp3183
g1608
g1616
sg1609
g1617
sg357
S'c:/marmalade/7.5/s3e/h/std/c++/cfloat'
p3184
sbsS'IwGeomMat2D.h'
p3185
g331
(g1604
g333
Ntp3186
Rp3187
(dp3188
g1608
g1311
sg1609
g1670
sg357
g1343
sbsS'IwAllocator.h'
p3189
g331
(g1604
g333
Ntp3190
Rp3191
(dp3192
g1608
g1475
sg1609
g1645
sg357
g1510
sbsS'IwPath.h'
p3193
g331
(g1604
g333
Ntp3194
Rp3195
(dp3196
g1608
g1475
sg1609
g1645
sg357
g1530
sbsS'iwgxfont.mkf'
p3197
g331
(g1604
g333
Ntp3198
Rp3199
(dp3200
g1608
g1300
sg1609
g1610
sg357
g1298
sbsS'IwTexture.h'
p3201
g331
(g1604
g333
Ntp3202
Rp3203
(dp3204
g1608
g1411
sg1609
g1750
sg357
g1414
sbsS'IwGeomVec.h.tpl'
p3205
g331
(g1604
g333
Ntp3206
Rp3207
(dp3208
g1608
g1311
sg1609
g1670
sg357
g1353
sbsS's3eAccelerometer.h'
p3209
g331
(g1604
g333
Ntp3210
Rp3211
(dp3212
g1608
g1616
sg1609
g1632
sg357
S'c:/marmalade/7.5/s3e/h/s3eAccelerometer.h'
p3213
sbsS'setjmp.h'
p3214
g331
(g1604
g333
Ntp3215
Rp3216
(dp3217
g1608
g1616
sg1609
g1638
sg357
S'c:/marmalade/7.5/s3e/h/std/setjmp.h'
p3218
sbsS'IwSoundParams.cpp'
p3219
g331
(g1604
g333
Ntp3220
Rp3221
(dp3222
g1608
g1143
sg1609
g1656
sg357
g1160
sbsS'IwFile.h'
p3223
g331
(g1604
g333
Ntp3224
Rp3225
(dp3226
g1608
g1475
sg1609
g1645
sg357
g1551
sbsS'IwTextParseable.h'
p3227
g331
(g1604
g333
Ntp3228
Rp3229
(dp3230
g1608
g1475
sg1609
g1645
sg357
g1498
sbsS'istream.h'
p3231
g331
(g1604
g333
Ntp3232
Rp3233
(dp3234
g1608
g1616
sg1609
g1617
sg357
S'c:/marmalade/7.5/s3e/h/std/c++/istream.h'
p3235
sbsS'stdint.h'
p3236
g331
(g1604
g333
Ntp3237
Rp3238
(dp3239
g1608
g1616
sg1609
g1638
sg357
S'c:/marmalade/7.5/s3e/h/std/stdint.h'
p3240
sbsS'semaphore.h'
p3241
g331
(g1604
g333
Ntp3242
Rp3243
(dp3244
g1608
g1616
sg1609
g1638
sg357
S'c:/marmalade/7.5/s3e/h/std/semaphore.h'
p3245
sbsS'ctime'
p3246
g331
(g1604
g333
Ntp3247
Rp3248
(dp3249
g1608
g1616
sg1609
g1617
sg357
S'c:/marmalade/7.5/s3e/h/std/c++/ctime'
p3250
sbsS'sstream'
p3251
g331
(g1604
g333
Ntp3252
Rp3253
(dp3254
g1608
g1616
sg1609
g1617
sg357
S'c:/marmalade/7.5/s3e/h/std/c++/sstream'
p3255
sbsS'IwGeomFBBox.h'
p3256
g331
(g1604
g333
Ntp3257
Rp3258
(dp3259
g1608
g1311
sg1609
g1670
sg357
g1337
sbsS'IwDebugPrim.h'
p3260
g331
(g1604
g333
Ntp3261
Rp3262
(dp3263
g1608
g1411
sg1609
g1750
sg357
g1409
sbsS'IwGxFontContainer.h'
p3264
g331
(g1604
g333
Ntp3265
Rp3266
(dp3267
g1608
g1289
sg1609
g1610
sg357
g1296
sbsS'IwGeomSVec3.h'
p3268
g331
(g1604
g333
Ntp3269
Rp3270
(dp3271
g1608
g1311
sg1609
g1670
sg357
g1314
sbsS'iw2dscenegraphcore.mkf'
p3272
g331
(g1604
g333
Ntp3273
Rp3274
(dp3275
g1608
g1465
sg1609
g2720
sg357
g1463
sbsS's3eExt.h'
p3276
g331
(g1604
g333
Ntp3277
Rp3278
(dp3279
g1608
g1616
sg1609
g1632
sg357
S'c:/marmalade/7.5/s3e/h/s3eExt.h'
p3280
sbsS'IwGeomFVec3.h'
p3281
g331
(g1604
g333
Ntp3282
Rp3283
(dp3284
g1608
g1311
sg1609
g1670
sg357
g1373
sbsS'streambuf'
p3285
g331
(g1604
g333
Ntp3286
Rp3287
(dp3288
g1608
g1616
sg1609
g1617
sg357
S'c:/marmalade/7.5/s3e/h/std/c++/streambuf'
p3289
sbsS's3eMetrics.h'
p3290
g331
(g1604
g333
Ntp3291
Rp3292
(dp3293
g1608
g1616
sg1609
g1843
sg357
S'c:/marmalade/7.5/s3e/h/ext/s3eMetrics.h'
p3294
sbsS'IwGxFont.h'
p3295
g331
(g1604
g333
Ntp3296
Rp3297
(dp3298
g1608
g1289
sg1609
g1610
sg357
g1303
sbsS's3eSecureStorage.h'
p3299
g331
(g1604
g333
Ntp3300
Rp3301
(dp3302
g1608
g1616
sg1609
g1632
sg357
S'c:/marmalade/7.5/s3e/h/s3eSecureStorage.h'
p3303
sbsS'string.h'
p3304
g331
(g1604
g333
Ntp3305
Rp3306
(dp3307
g1608
g1616
sg1609
g1638
sg357
S'c:/marmalade/7.5/s3e/h/std/string.h'
p3308
sbsS'IwResource.h'
p3309
g331
(g1604
g333
Ntp3310
Rp3311
(dp3312
g1608
g1475
sg1609
g1645
sg357
g1571
sbsS'IwGeomSVec2.h'
p3313
g331
(g1604
g333
Ntp3314
Rp3315
(dp3316
g1608
g1311
sg1609
g1670
sg357
g1309
sbsS'libjpeg.mkf'
p3317
g331
(g1604
g333
Ntp3318
Rp3319
(dp3320
g1608
g1098
sg1609
(lp3321
g1094
asg357
g1096
sbsS'IwGxDebug.h'
p3322
g331
(g1604
g333
Ntp3323
Rp3324
(dp3325
g1608
g1411
sg1609
g1750
sg357
g1434
sbsS'pthread_types.h'
p3326
g331
(g1604
g333
Ntp3327
Rp3328
(dp3329
g1608
g1616
sg1609
g1638
sg357
S'c:/marmalade/7.5/s3e/h/std/pthread_types.h'
p3330
sbsS'iomanip.h'
p3331
g331
(g1604
g333
Ntp3332
Rp3333
(dp3334
g1608
g1616
sg1609
g1617
sg357
S'c:/marmalade/7.5/s3e/h/std/c++/iomanip.h'
p3335
sbsS'IwKeymap.h'
p3336
g331
(g1604
g333
Ntp3337
Rp3338
(dp3339
g1608
g1475
sg1609
g1645
sg357
g1516
sbsS'IwDebug.h'
p3340
g331
(g1604
g333
Ntp3341
Rp3342
(dp3343
g1608
g1475
sg1609
g1645
sg357
g1504
sbsS's3eIOSBackgroundAudio.h'
p3344
g331
(g1604
g333
Ntp3345
Rp3346
(dp3347
g1608
g1616
sg1609
g1843
sg357
S'c:/marmalade/7.5/s3e/h/ext/s3eIOSBackgroundAudio.h'
p3348
sbsS'IwGeomMenu.h'
p3349
g331
(g1604
g333
Ntp3350
Rp3351
(dp3352
g1608
g1311
sg1609
g1670
sg357
g1367
sbsS'IwDivTable.h'
p3353
g331
(g1604
g333
Ntp3354
Rp3355
(dp3356
g1608
g1475
sg1609
g1645
sg357
g1494
sbsS'ctype.h'
p3357
g331
(g1604
g333
Ntp3358
Rp3359
(dp3360
g1608
g1616
sg1609
g1638
sg357
S'c:/marmalade/7.5/s3e/h/std/ctype.h'
p3361
sbsS'mainMenu.cpp'
p3362
g331
(g1604
g333
Ntp3363
Rp3364
(dp3365
g1608
g1200
sg1609
g1760
sg357
g1209
sbsS'IwResGroup.h'
p3366
g331
(g1604
g333
Ntp3367
Rp3368
(dp3369
g1608
g1387
sg1609
g1888
sg357
g1401
sbsS'signal_1.h'
p3370
g331
(g1604
g333
Ntp3371
Rp3372
(dp3373
g1608
g1616
sg1609
g1769
sg357
S'c:/marmalade/7.5/s3e/h/std/sys/signal.h'
p3374
sbsS'IwSoundData.cpp'
p3375
g331
(g1604
g333
Ntp3376
Rp3377
(dp3378
g1608
g1143
sg1609
g1656
sg357
g1180
sbsS'main.cpp'
p3379
g331
(g1604
g333
Ntp3380
Rp3381
(dp3382
g1608
g1200
sg1609
g1760
sg357
g1213
sbsS'shm.h'
p3383
g331
(g1604
g333
Ntp3384
Rp3385
(dp3386
g1608
g1616
sg1609
g1769
sg357
S'c:/marmalade/7.5/s3e/h/std/sys/shm.h'
p3387
sbsS'IwManagedList.h'
p3388
g331
(g1604
g333
Ntp3389
Rp3390
(dp3391
g1608
g1475
sg1609
g1645
sg357
g1488
sbsS'prctl.h'
p3392
g331
(g1604
g333
Ntp3393
Rp3394
(dp3395
g1608
g1616
sg1609
g1769
sg357
S'c:/marmalade/7.5/s3e/h/std/sys/prctl.h'
p3396
sbsS'IwGxStream.h'
p3397
g331
(g1604
g333
Ntp3398
Rp3399
(dp3400
g1608
g1411
sg1609
g1750
sg357
g1422
sbsS'temp_defines_debug.h'
p3401
g331
(g1604
g333
Ntp3402
Rp3403
(dp3404
g1608
(lp3405
sg1609
(lp3406
g2923
asg357
S'c:/Marmalade/7.5/examples/GameTutorial/CPP/marm1/build_stage4_vc12/temp_defines_debug.h'
p3407
sbsS'utility'
p3408
g331
(g1604
g333
Ntp3409
Rp3410
(dp3411
g1608
g1616
sg1609
g1617
sg357
S'c:/marmalade/7.5/s3e/h/std/c++/utility'
p3412
sbsS'input.h'
p3413
g331
(g1604
g333
Ntp3414
Rp3415
(dp3416
g1608
g1200
sg1609
g1760
sg357
g1201
sbsS'IwGeomLegacy.h'
p3417
g331
(g1604
g333
Ntp3418
Rp3419
(dp3420
g1608
g1311
sg1609
g1670
sg357
g1331
sbsS'IwTPage.h'
p3421
g331
(g1604
g333
Ntp3422
Rp3423
(dp3424
g1608
g1411
sg1609
g1750
sg357
g1459
sbsS'IwResSerialise.h'
p3425
g331
(g1604
g333
Ntp3426
Rp3427
(dp3428
g1608
g1387
sg1609
g1888
sg357
g1388
sbsS's3eCrypto.h'
p3429
g331
(g1604
g333
Ntp3430
Rp3431
(dp3432
g1608
g1616
sg1609
g1632
sg357
S'c:/marmalade/7.5/s3e/h/s3eCrypto.h'
p3433
sbsS's3eKeyboard.h'
p3434
g331
(g1604
g333
Ntp3435
Rp3436
(dp3437
g1608
g1616
sg1609
g1632
sg357
S'c:/marmalade/7.5/s3e/h/s3eKeyboard.h'
p3438
sbsS'fcntl.h'
p3439
g331
(g1604
g333
Ntp3440
Rp3441
(dp3442
g1608
g1616
sg1609
g1638
sg357
S'c:/marmalade/7.5/s3e/h/std/fcntl.h'
p3443
sbsS'Iw2DSceneGraphCore.h'
p3444
g331
(g1604
g333
Ntp3445
Rp3446
(dp3447
g1608
g1468
sg1609
g2720
sg357
g1466
sbsS'memory.h'
p3448
g331
(g1604
g333
Ntp3449
Rp3450
(dp3451
g1608
g1616
sg1609
g1638
sg357
S'c:/marmalade/7.5/s3e/h/std/memory.h'
p3452
sbsS'pthread.h'
p3453
g331
(g1604
g333
Ntp3454
Rp3455
(dp3456
g1608
g1616
sg1609
g1638
sg357
S'c:/marmalade/7.5/s3e/h/std/pthread.h'
p3457
sbsS'IwGeomIntersect.h'
p3458
g331
(g1604
g333
Ntp3459
Rp3460
(dp3461
g1608
g1311
sg1609
g1670
sg357
g1357
sbsS'IwTextParserITX.h'
p3462
g331
(g1604
g333
Ntp3463
Rp3464
(dp3465
g1608
g1475
sg1609
g1645
sg357
g1514
sbsS'IwClip.inl'
p3466
g331
(g1604
g333
Ntp3467
Rp3468
(dp3469
g1608
g1411
sg1609
g1750
sg357
g1444
sbsS'Iw2DSceneGraph.cpp'
p3470
g331
(g1604
g333
Ntp3471
Rp3472
(dp3473
g1608
g1253
sg1609
g1930
sg357
g1251
sbsS'ostream.h'
p3474
g331
(g1604
g333
Ntp3475
Rp3476
(dp3477
g1608
g1616
sg1609
g1617
sg357
S'c:/marmalade/7.5/s3e/h/std/c++/ostream.h'
p3478
sbsS'stl_user_config.h'
p3479
g331
(g1604
g333
Ntp3480
Rp3481
(dp3482
g1608
g1616
sg1609
g1617
sg357
S'c:/marmalade/7.5/s3e/h/std/c++/stl_user_config.h'
p3483
sbsS'IwProfileMenu.h'
p3484
g331
(g1604
g333
Ntp3485
Rp3486
(dp3487
g1608
g1475
sg1609
g1645
sg357
g1490
sbsS'MarmaladeVersion.h'
p3488
g331
(g1604
g333
Ntp3489
Rp3490
(dp3491
g1608
g1616
sg1609
g1632
sg357
S'c:/marmalade/7.5/s3e/h/MarmaladeVersion.h'
p3492
sbsS'IwResHandlerWAV.h'
p3493
g331
(g1604
g333
Ntp3494
Rp3495
(dp3496
g1608
g1143
sg1609
g1656
sg357
g1148
sbsS'gl3platform.h'
p3497
g331
(g1604
g333
Ntp3498
Rp3499
(dp3500
g1608
g1616
sg1609
g1941
sg357
S'c:/marmalade/7.5/s3e/h/GLES3/gl3platform.h'
p3501
sbsS'ios.h'
p3502
g331
(g1604
g333
Ntp3503
Rp3504
(dp3505
g1608
g1616
sg1609
g1617
sg357
S'c:/marmalade/7.5/s3e/h/std/c++/ios.h'
p3506
sbsS'IwImageHelper.h'
p3507
g331
(g1604
g333
Ntp3508
Rp3509
(dp3510
g1608
g1475
sg1609
g1645
sg357
g1486
sbsS'hash_set'
p3511
g331
(g1604
g333
Ntp3512
Rp3513
(dp3514
g1608
g1616
sg1609
g1617
sg357
S'c:/marmalade/7.5/s3e/h/std/c++/hash_set'
p3515
sbsS'IwGeomFQuat.h'
p3516
g331
(g1604
g333
Ntp3517
Rp3518
(dp3519
g1608
g1311
sg1609
g1670
sg357
g1321
sbsS'jmorecfg.h'
p3520
g331
(g1604
g333
Ntp3521
Rp3522
(dp3523
g1608
g1102
sg1609
g1704
sg357
g1111
sbsS'eglplatform.h'
p3524
g331
(g1604
g333
Ntp3525
Rp3526
(dp3527
g1608
g1616
sg1609
g1973
sg357
S'c:/marmalade/7.5/s3e/h/EGL/eglplatform.h'
p3528
sbsS'cmath'
p3529
g331
(g1604
g333
Ntp3530
Rp3531
(dp3532
g1608
g1616
sg1609
g1617
sg357
S'c:/marmalade/7.5/s3e/h/std/c++/cmath'
p3533
sbsS'math_gcc.h'
p3534
g331
(g1604
g333
Ntp3535
Rp3536
(dp3537
g1608
g1616
sg1609
g1638
sg357
S'c:/marmalade/7.5/s3e/h/std/math_gcc.h'
p3538
sbsS's3eMemory.h'
p3539
g331
(g1604
g333
Ntp3540
Rp3541
(dp3542
g1608
g1616
sg1609
g1632
sg357
S'c:/marmalade/7.5/s3e/h/s3eMemory.h'
p3543
sbsS'strings.h'
p3544
g331
(g1604
g333
Ntp3545
Rp3546
(dp3547
g1608
g1616
sg1609
g1638
sg357
S'c:/marmalade/7.5/s3e/h/std/strings.h'
p3548
sbsS's3eFile.h'
p3549
g331
(g1604
g333
Ntp3550
Rp3551
(dp3552
g1608
g1616
sg1609
g1632
sg357
S'c:/marmalade/7.5/s3e/h/s3eFile.h'
p3553
sbsS'IwGxTypes.h'
p3554
g331
(g1604
g333
Ntp3555
Rp3556
(dp3557
g1608
g1411
sg1609
g1750
sg357
g1448
sbsS'cerrno'
p3558
g331
(g1604
g333
Ntp3559
Rp3560
(dp3561
g1608
g1616
sg1609
g1617
sg357
S'c:/marmalade/7.5/s3e/h/std/c++/cerrno'
p3562
sbsS'IwSoundManager.cpp'
p3563
g331
(g1604
g333
Ntp3564
Rp3565
(dp3566
g1608
g1143
sg1609
g1656
sg357
g1156
sbsS'main.h'
p3567
g331
(g1604
g333
Ntp3568
Rp3569
(dp3570
g1608
g1200
sg1609
g1760
sg357
g1215
sbsS'soundengine.mkf'
p3571
g331
(g1604
g333
Ntp3572
Rp3573
(dp3574
g1608
g1188
sg1609
g1656
sg357
g1186
sbsS'resource.h'
p3575
g331
(g1604
g333
Ntp3576
Rp3577
(dp3578
g1608
g1616
sg1609
g1769
sg357
S'c:/marmalade/7.5/s3e/h/std/sys/resource.h'
p3579
sbsS'clocale'
p3580
g331
(g1604
g333
Ntp3581
Rp3582
(dp3583
g1608
g1616
sg1609
g1617
sg357
S'c:/marmalade/7.5/s3e/h/std/c++/clocale'
p3584
sbsS'pvrtextool.mkf'
p3585
g331
(g1604
g333
Ntp3586
Rp3587
(dp3588
g1608
g1246
sg1609
g2247
sg357
g1244
sbsS'csetjmp'
p3589
g331
(g1604
g333
Ntp3590
Rp3591
(dp3592
g1608
g1616
sg1609
g1617
sg357
S'c:/marmalade/7.5/s3e/h/std/c++/csetjmp'
p3593
sbsS'netdb.h'
p3594
g331
(g1604
g333
Ntp3595
Rp3596
(dp3597
g1608
g1616
sg1609
g1638
sg357
S'c:/marmalade/7.5/s3e/h/std/netdb.h'
p3598
sbsS's3eAndroidJNI.h'
p3599
g331
(g1604
g333
Ntp3600
Rp3601
(dp3602
g1608
g1616
sg1609
g1843
sg357
S'c:/marmalade/7.5/s3e/h/ext/s3eAndroidJNI.h'
p3603
sbsS'stdexcept'
p3604
g331
(g1604
g333
Ntp3605
Rp3606
(dp3607
g1608
g1616
sg1609
g1617
sg357
S'c:/marmalade/7.5/s3e/h/std/c++/stdexcept'
p3608
sbsS'math.h'
p3609
g331
(g1604
g333
Ntp3610
Rp3611
(dp3612
g1608
g1616
sg1609
g1638
sg357
S'c:/marmalade/7.5/s3e/h/std/math.h'
p3613
sbsS'stdbool.h'
p3614
g331
(g1604
g333
Ntp3615
Rp3616
(dp3617
g1608
g1616
sg1609
g1638
sg357
S'c:/marmalade/7.5/s3e/h/std/stdbool.h'
p3618
sbsS'uio.h'
p3619
g331
(g1604
g333
Ntp3620
Rp3621
(dp3622
g1608
g1616
sg1609
g1769
sg357
S'c:/marmalade/7.5/s3e/h/std/sys/uio.h'
p3623
sbsS'IwUncopyable.h'
p3624
g331
(g1604
g333
Ntp3625
Rp3626
(dp3627
g1608
g1475
sg1609
g1645
sg357
g1553
sbssS'juice_build_type'
p3628
g4
sS'tests'
p3629
(lp3630
sS'project_name'
p3631
g339
sS'root_file'
p3632
g134
sS'current_root'
p3633
S'c:/Marmalade/7.5/examples/GameTutorial/CPP/marm1'
p3634
sS'dependencies'
p3635
(lp3636
sS'include_paths'
p3637
(lp3638
S'c:/marmalade/7.5/modules/iw2d/h'
p3639
aS'c:/marmalade/7.5/modules/iwgx/h'
p3640
aS'c:/marmalade/7.5/modules/iwgl/h'
p3641
aS'c:/marmalade/7.5/modules/iwutil/h'
p3642
aS'c:/marmalade/7.5/modules/third_party/libjpeg/h'
p3643
aS'c:/marmalade/7.5/modules/third_party/zlib/h'
p3644
aS'c:/marmalade/7.5/modules/third_party/libpng/h'
p3645
aS'c:/marmalade/7.5/modules/iwgeom/h'
p3646
aS'c:/marmalade/7.5/modules/iwresmanager/h'
p3647
aS'c:/marmalade/7.5/extensions/pvrtextool/h'
p3648
aS'c:/marmalade/7.5/modules/iwgxfont/h'
p3649
aS'c:/marmalade/7.5/modules/third_party/tiniconv/source'
p3650
aS'c:/marmalade/7.5/modules/iw2dscenegraph/h'
p3651
aS'c:/marmalade/7.5/modules/iw2dscenegraphcore/h'
p3652
aS'c:/marmalade/7.5/modules/iwtween/h'
p3653
aS'c:/marmalade/7.5/examples/gametutorial/cpp/modules/soundengine/h'
p3654
aS'c:/marmalade/7.5/examples/gametutorial/cpp/modules/soundengine/source'
p3655
aS'c:/marmalade/7.5/s3e/h'
p3656
aS'c:/marmalade/7.5/s3e/h/ext'
p3657
aS'c:/marmalade/7.5/s3e/h/std'
p3658
aS'c:/marmalade/7.5/s3e/h/std/c++'
p3659
aS'c:/marmalade/7.5/s3e/h/ext_legacy'
p3660
aS'c:/marmalade/7.5/s3e/h/legacy'
p3661
asS'weak_frameworks'
p3662
(lp3663
sS'extprojects'
p3664
(dp3665
sg601
(dp3666
g595
(lp3667
(S'c:/Marmalade/7.5/examples/GameTutorial/CPP/marm1/data/audio'
p3668
S'audio'
p3669
I0
tp3670
a(S'c:/Marmalade/7.5/examples/GameTutorial/CPP/marm1/data/textures'
p3671
S'textures'
p3672
I0
tp3673
a(S'c:/Marmalade/7.5/examples/GameTutorial/CPP/marm1/data/fonts'
p3674
S'fonts'
p3675
I0
tp3676
a(S'c:/Marmalade/7.5/examples/GameTutorial/CPP/marm1/data-ram/data-gles1,c:/Marmalade/7.5/examples/GameTutorial/CPP/marm1/data'
p3677
S'.'
p3678
I0
tp3679
assS'macro_types'
p3680
(dp3681
g530
I1
sg531
I0
sg532
I0
sg533
I0
sg535
I0
sg536
I0
sg537
I0
sg538
I0
sg539
I0
sg541
I0
sg542
I0
sg543
I0
sg544
I0
sg545
I0
sg547
I0
sg549
I0
sg550
I0
sg551
I0
sg552
I0
sg553
I0
sg554
I0
sg555
I0
sg556
I0
sg557
I1
sg558
I0
sg559
I0
sg560
I0
sg561
I0
sg562
I01
sg563
I1
sg564
I0
sg565
I0
sg566
I0
sg567
I0
sg568
I0
sg569
I0
sg570
I0
ssS'commands'
p3682
(lp3683
sg603
(g1075
S'VC12'
p3684
S'X86ARMAARCH64'
p3685
tp3686
sS'build_libs'
p3687
(dp3688
sg605
g0
sS'frameworks'
p3689
(lp3690
sS'environ'
p3691
(dp3692
sS'target_name_debug'
p3693
g339
sS'builders'
p3694
(dp3695
g595
(dp3696
S'.S'
p3697
(dp3698
S'gcc_aarch64'
p3699
(lp3700
S'.obj'
p3701
aS'echo AARCH64 Assembling(GCC) ${SOURCE}...'
p3702
aS'c:/marmalade/7.5/s3e\\gcc\\win32\\aarch64\\bin\\aarch64-none-elf-gcc -c -o ${TARGET} ${SOURCE}'
p3703
asS'rvct'
p3704
(lp3705
g3701
aS'echo ARM Assembling(RVCT) ${SOURCE}...'
p3706
aS'c:/marmalade/7.5/s3e\\rvct\\bin\\armasm -o ${TARGET} ${SOURCE}'
p3707
asg453
(lp3708
g3701
aS'echo ARM Assembling(GCC) ${SOURCE}...'
p3709
aS'c:/marmalade/7.5/s3e\\gcc\\win32\\arm\\bin\\arm-none-eabi-gcc -c -o ${TARGET} ${SOURCE}'
p3710
asS'ppu'
p3711
(lp3712
S'.a'
p3713
aS'echo PPU Assembling(SNC) ${SOURCE}...'
p3714
aS'c:/marmalade/7.5/s3e\\rvct\\bin\\armasm -o ${TARGET} ${SOURCE}'
p3715
assS'.s'
p3716
g3698
sS'.vp'
p3717
(lp3718
NaS'"C:/Marmalade/7.5/s3e/python/python.exe" "c:/marmalade/7.5/modules/iwgx/tools/compile_shaders.py" ${SOURCE}'
p3719
asssS'extproject_names'
p3720
(lp3721
sbtp3722
.