((dp0
S'arm_dbg_args'
p1
S'-via:"c:\\Marmalade\\7.5\\examples\\GameTutorial\\CPP\\marm1\\build_stage4_vc12\\Stage4_vc12_arm_debug.via" -qemu'
p2
sS'game-icf'
p3
S''
p4
sS'dist'
p5
NsS'csproj'
p6
g4
sS'module_path_append'
p7
NsS'global_path'
p8
S'c:\\marmalade\\7.5\\examples\\gametutorial\\cpp'
p9
sS'system_path'
p10
S'c:\\marmalade\\7.5\\s3e\\makefile_builder'
p11
sS'android_x86_dbg_args'
p12
S'../../tools/DeployTool/DeployTool.exe --dir "c:\\Marmalade\\7.5\\examples\\GameTutorial\\CPP\\marm1\\build_stage4_vc12"'
p13
sS'aarch64-arch-mod'
p14
g4
sS'no-emit'
p15
NsS'arm-float-abi'
p16
g4
sS'arm_rel_rtsm_args'
p17
S'-via:"c:\\Marmalade\\7.5\\examples\\GameTutorial\\CPP\\marm1\\build_stage4_vc12\\Stage4_vc12_arm_release.via" -qemu'
p18
sS'amd64'
p19
NsS'line-width'
p20
I80
sS'gcc_dbg_args'
p21
S'-via:"c:\\Marmalade\\7.5\\examples\\GameTutorial\\CPP\\marm1\\build_stage4_vc12\\Stage4_vc12_gcc_debug.via" -qemu'
p22
sS'android-x86'
p23
NsS'x86_dbg_exe'
p24
S'c:/marmalade/7.5/s3e\\win32\\s3e_simulator_debug.exe'
p25
sS'disable-runtime-checks'
p26
NsS'release'
p27
NsS'no-make'
p28
NsS'xcode-x86-build-settings'
p29
g4
sS'optimise-size'
p30
NsS'fat'
p31
NsS'output-name-debug'
p32
g4
sS'arm-fpu'
p33
g4
sS'proj_name'
p34
S'Stage4_vc12'
p35
sS'rvct-version'
p36
S'none'
p37
sS'compiler'
p38
g4
sS'execute'
p39
NsS'compile-static'
p40
NsS'msvc-project'
p41
I01
sS'buildenv'
p42
S'VC12'
p43
sS'quick'
p44
NsS'module_path'
p45
(lp46
S'c:/Marmalade/7.5/examples/GameTutorial/CPP/modules'
p47
asS'mkf_default'
p48
S's3e-default.mkf'
p49
sS'use-release-std-libs'
p50
NsS'using_perforce'
p51
I00
sS'tizen-x86'
p52
NsS'mips-s3e'
p53
NsS's3e-api-lib-name'
p54
S's3e_api_iwgl'
p55
sS'ios-no-pic'
p56
NsS'shared-arm-lib'
p57
NsS'arm-cpu'
p58
g4
sS'compile-thumb'
p59
NsS'no-ide'
p60
NsS'msvc-version'
p61
S'6.0'
p62
sS'arm'
p63
NsS'builddir'
p64
g4
sS'compile-debug-as-release'
p65
I0
sS'arm-arch'
p66
g4
sS'brief'
p67
NsS'dll'
p68
NsS'buildenv-toolset'
p69
g4
sS'version'
p70
NsS'aarch64-arch'
p71
g4
sS'ccache'
p72
I0
sS'offline'
p73
NsS'ios-version'
p74
g4
sS'hub_data'
p75
g4
sS'fake_vc_call'
p76
NsS'jobs'
p77
I0
sS'linkflags'
p78
NsS'gcc_aarch64_dbg_args'
p79
g13
sS'debug'
p80
NsS'xcode-build-order'
p81
g4
sS'gcc_aarch64_rel_rtsm_args'
p82
S'-via:"c:\\Marmalade\\7.5\\examples\\GameTutorial\\CPP\\marm1\\build_stage4_vc12\\Stage4_vc12_gcc_aarch64_release.via" -qemu'
p83
sS'gcc_rel_rtsm_args'
p84
S'-via:"c:\\Marmalade\\7.5\\examples\\GameTutorial\\CPP\\marm1\\build_stage4_vc12\\Stage4_vc12_gcc_release.via" -qemu'
p85
sS'done_defaults'
p86
I1
sS'path'
p87
NsS's3e-data-dir'
p88
S'c:/Marmalade/7.5/examples/GameTutorial/CPP/marm1\\data'
p89
sS'enable-exceptions'
p90
NsS'osx-dll'
p91
NsS'extension'
p92
g4
sS'no-vc6'
p93
NsS'aarch64'
p94
NsS'win32-console'
p95
NsS'dist-format'
p96
g4
sS's3e-force-arch'
p97
NsS'dump_defines'
p98
NsS'use-shared-std-libs'
p99
NsS'gcc-version'
p100
g4
sS'x86_dbg_args'
p101
S'-via:"c:\\Marmalade\\7.5\\examples\\GameTutorial\\CPP\\marm1\\build_stage4_vc12\\Stage4_vc12_debug.via"'
p102
sS'tizen_x86_dbg_args'
p103
g13
sS'arm-debugger'
p104
g4
sS'use_temp_extension'
p105
NsS'verbose'
p106
I0
sS'log'
p107
NsS'no-strip'
p108
NsS'rebuild'
p109
NsS'mips_dbg_args'
p110
g13
sS'win32-simulator-dll'
p111
NsS'strict'
p112
NsS'xcode-aarch64-build-settings'
p113
g4
sS'enable-global-path'
p114
NsS'gcc_aarch64_rel_args'
p115
g13
sS'cflags'
p116
(lp117
S'-std=gnu++0x'
p118
asS'dist-dir'
p119
g4
sS'xcode-arm-build-settings'
p120
g4
sS'jflags'
p121
NsS'csprojSDKRefs'
p122
g4
sS'tizen_x86_rel_exe'
p123
S'c:\\marmalade\\7.5\\s3e\\makefile_builder\\tool_launcher.exe'
p124
sS'test-assets'
p125
g4
sS'distcc'
p126
NsS'external-compiler'
p127
NsS'no-distcc'
p128
NsS'preinclude'
p129
NsS'using_sdk'
p130
I01
sS'nologo'
p131
NsS'warn-level'
p132
I2
sS'mips_dbg_exe'
p133
g124
sS'mkb_in'
p134
S'c:/Marmalade/7.5/examples/GameTutorial/CPP/marm1/Stage4.mkb'
p135
sS'tizen_x86_dbg_exe'
p136
g124
sS'arm_dbg_exe'
p137
S'c:/marmalade/7.5/s3e\\bin\\armdebug.exe'
p138
sS'mdev-first'
p139
NsS'csprojDLLRef'
p140
NsS'tizen_x86_rel_args'
p141
g13
sS'android_x86_dbg_exe'
p142
g124
sS'test-config'
p143
g4
sS'list-targets'
p144
NsS'arm_rel_exe'
p145
g124
sS'arm_rel_args'
p146
g13
sS'makedeps'
p147
NsS'android_x86_rel_exe'
p148
g124
sS'default-buildenv'
p149
S'vc12'
p150
sS'x86_rel_exe'
p151
g25
sS'preprocess-java'
p152
NsS'mips_rel_args'
p153
g13
sS'defines'
p154
NsS'lib'
p155
NsS'non-interactive'
p156
NsS'global_argv'
p157
(lp158
S'C:\\Marmalade\\7.5\\s3e\\makefile_builder\\mkb.py'
p159
aS'c:/Marmalade/7.5/examples/GameTutorial/CPP/marm1/Stage4.mkb'
p160
aS'--buildenv=VC12'
p161
aS'--default-buildenv=vc12'
p162
aS'--msvc-project'
p163
asS'make'
p164
NsS'optimise-speed'
p165
NsS'internal'
p166
NsS'enable-stdinc'
p167
NsS'deploy-only'
p168
NsS'x86'
p169
NsS'deploy'
p170
g4
sS'x86_run_exe'
p171
S'c:/marmalade/7.5/s3e\\win32\\s3e_console.exe'
p172
sS'cxxflags'
p173
NsS'x86_rel_args'
p174
S'-via:"c:\\Marmalade\\7.5\\examples\\GameTutorial\\CPP\\marm1\\build_stage4_vc12\\Stage4_vc12_release.via"'
p175
sS'gcc_rel_args'
p176
g13
sS'mips'
p177
NsS'xcode-build-settings'
p178
g4
sS'incredibuild'
p179
NsS'strict-compile'
p180
NsS'use-auto-subdirs'
p181
NsS'mips_rel_exe'
p182
g124
sS'android_x86_rel_args'
p183
g13
sS'app-icf'
p184
g4
sS'deployargs'
p185
NsS'iosnativedebug'
p186
NsS'use_prebuilt'
p187
NsS'mkf_in'
p188
(lp189
S'c:\\marmalade\\7.5\\s3e\\s3e-default.mkf'
p190
aS'c:\\marmalade\\7.5\\modules\\iw2d\\iw2d.mkf'
p191
aS'c:\\marmalade\\7.5\\modules\\iwgx\\iwgx.mkf'
p192
aS'c:\\marmalade\\7.5\\modules\\iwgl\\iwgl.mkf'
p193
aS'c:\\marmalade\\7.5\\modules\\iwutil\\iwutil.mkf'
p194
aS'c:\\marmalade\\7.5\\modules\\third_party\\libjpeg\\libjpeg.mkf'
p195
aS'c:\\marmalade\\7.5\\modules\\third_party\\libpng\\libpng.mkf'
p196
aS'c:\\marmalade\\7.5\\modules\\third_party\\zlib\\zlib.mkf'
p197
aS'c:\\marmalade\\7.5\\modules\\iwgeom\\iwgeom.mkf'
p198
aS'c:\\marmalade\\7.5\\modules\\iwresmanager\\iwresmanager.mkf'
p199
aS'c:\\marmalade\\7.5\\extensions\\pvrtextool\\pvrtextool.mkf'
p200
aS'c:\\marmalade\\7.5\\modules\\iwgxfont\\iwgxfont.mkf'
p201
aS'c:\\marmalade\\7.5\\modules\\third_party\\tiniconv\\tiniconv.mkf'
p202
aS'c:\\marmalade\\7.5\\modules\\iw2dscenegraph\\iw2dscenegraph.mkf'
p203
aS'c:\\marmalade\\7.5\\modules\\iw2dscenegraphcore\\iw2dscenegraphcore.mkf'
p204
aS'c:\\marmalade\\7.5\\modules\\iwtween\\iwtween.mkf'
p205
aS'c:\\marmalade\\7.5\\examples\\gametutorial\\cpp\\modules\\soundengine\\soundengine.mkf'
p206
aS'c:\\marmalade\\7.5\\examples\\marmaladeexampleresources\\marmaladeexampleresources.mkf'
p207
asS'strict-mkb'
p208
NsS'executeargs'
p209
NsS'clean'
p210
NsS'no-asm'
p211
NsS'output-name'
p212
g4
sS'no-modules'
p213
NsS'find_define'
p214
g4
s(dp215
S'c:\\marmalade\\7.5\\s3e\\makefile_builder\\templates\\vc7_suo.pyc'
p216
F1424160376.0
sS'c:\\marmalade\\7.5\\s3e\\makefile_builder\\templates\\ws81_vcxproj.pyc'
p217
F1424160380.0
sS'c:\\marmalade\\7.5\\s3e\\makefile_builder\\plugins\\s3e_ws8.pyc'
p218
F1424160376.0
sS'c:\\marmalade\\7.5\\s3e\\makefile_builder\\templates'
p219
F1424630747.758857
sS'c:\\marmalade\\7.5\\s3e\\makefile_builder\\templates\\qmake.py'
p220
F1424159312.0
sS'c:\\marmalade\\7.5\\s3e\\makefile_builder\\templates\\vc10_user.pyc'
p221
F1424160378.0
sS'c:\\marmalade\\7.5\\s3e\\makefile_builder\\plugins'
p222
F1424631019.086376
sS'c:\\marmalade\\7.5\\s3e\\makefile_builder\\mkb_main.pyc'
p223
F1424160376.0
sS'c:\\marmalade\\7.5\\s3e\\makefile_builder\\templates\\mips_linker_script'
p224
F1424159312.0
sS'c:\\marmalade\\7.5\\s3e\\makefile_builder\\plugins\\XcodeEmitter.py'
p225
F1424159310.0
sS'c:\\marmalade\\7.5\\s3e\\makefile_builder\\mkb.py'
p226
F1424159310.0
sS'c:\\marmalade\\7.5\\s3e\\makefile_builder\\templates\\ws81_ext_sln.pyc'
p227
F1424160380.0
sS'c:\\marmalade\\7.5\\s3e\\makefile_builder\\templates\\win32_dsp.pyc'
p228
F1424160376.0
sS'c:\\marmalade\\7.5\\s3e\\makefile_builder\\templates\\ws8_csproj.pyc'
p229
F1424160380.0
sS'c:\\marmalade\\7.5\\s3e\\makefile_builder\\deployment.pyc'
p230
F1424160376.0
sS'c:\\marmalade\\7.5\\s3e\\makefile_builder\\plugins\\win32_vc6.pyc'
p231
F1424160376.0
sS'c:\\marmalade\\7.5\\s3e\\makefile_builder\\plugins\\osx_xcode.pyc'
p232
F1424160376.0
sS'c:\\marmalade\\7.5\\s3e\\makefile_builder\\plugins\\null.pyc'
p233
F1424160376.0
sS'c:\\marmalade\\7.5\\s3e\\makefile_builder\\templates\\wp81_csproj.pyc'
p234
F1424160380.0
sS'c:\\marmalade\\7.5\\s3e\\makefile_builder\\templates\\qmake_user.py'
p235
F1424159312.0
sS'c:\\marmalade\\7.5\\s3e\\makefile_builder\\templates\\vc6_opt.pyc'
p236
F1424160376.0
sS'c:\\marmalade\\7.5\\s3e\\makefile_builder\\plugins\\vc7_utils.pyc'
p237
F1424160376.0
sS'c:\\marmalade\\7.5\\s3e\\makefile_builder\\templates\\wp81_vcxproj.pyc'
p238
F1424160380.0
sS'c:\\marmalade\\7.5\\s3e\\makefile_builder\\templates\\win32_vcxproj.pyc'
p239
F1424160378.0
sS'c:\\marmalade\\7.5\\s3e\\makefile_builder\\templates\\ws8_ext_sln.pyc'
p240
F1424160380.0
sS'c:\\marmalade\\7.5\\s3e\\makefile_builder\\templates\\ws8_ext_csproj.pyc'
p241
F1424160380.0
sS'c:\\marmalade\\7.5\\s3e\\makefile_builder\\templates\\wp8_ext_csproj.pyc'
p242
F1424160378.0
sS'c:\\marmalade\\7.5\\s3e\\makefile_builder\\plugins\\s3e_wp8.pyc'
p243
F1424160376.0
sS'c:\\marmalade\\7.5\\s3e\\makefile_builder\\templates\\ws81_csproj.pyc'
p244
F1424160380.0
sS'c:\\marmalade\\7.5\\s3e\\makefile_builder\\docs\\deprecated.options.txt'
p245
F1424159310.0
sS'c:\\marmalade\\7.5\\s3e\\makefile_builder\\plugins\\s3e_make.pyc'
p246
F1424160376.0
sS'c:\\marmalade\\7.5\\s3e\\makefile_builder\\templates\\win8_ext_csproj.pyc'
p247
F1424160378.0
sS'c:\\marmalade\\7.5\\s3e\\makefile_builder\\mkb_parser.pyc'
p248
F1424160376.0
sS'c:\\marmalade\\7.5\\s3e\\makefile_builder\\plugins\\s3e_web.pyc'
p249
F1424160376.0
sS'c:\\marmalade\\7.5\\s3e\\makefile_builder\\docs\\mkb.defines.txt'
p250
F1424159310.0
sS'c:\\marmalade\\7.5\\s3e\\makefile_builder\\plugins\\osx_scons.pyc'
p251
F1424160376.0
sS'c:\\marmalade\\7.5\\s3e\\makefile_builder\\plugins\\ws81_ws81.pyc'
p252
F1424160376.0
sS'c:\\marmalade\\7.5\\s3e\\makefile_builder\\plugins\\s3e_qmake.py'
p253
F1424159312.0
sS'c:\\marmalade\\7.5\\s3e\\makefile_builder\\templates\\win8_csproj.pyc'
p254
F1424160378.0
sS'c:\\marmalade\\7.5\\s3e\\makefile_builder\\plugins\\s3e_vc6.pyc'
p255
F1424160376.0
sS'c:\\marmalade\\7.5\\s3e\\makefile_builder\\plugins\\wp81_wp81.pyc'
p256
F1424160376.0
sS'c:\\marmalade\\7.5\\s3e\\makefile_builder\\templates\\wp81_csproj_user.pyc'
p257
F1424160380.0
sS'c:\\marmalade\\7.5\\s3e\\makefile_builder\\templates\\win32_dsw.pyc'
p258
F1424160376.0
sS'c:\\marmalade\\7.5\\s3e\\makefile_builder\\templates\\xcode4.xcscheme'
p259
F1424159312.0
sS'c:\\marmalade\\7.5\\s3e\\makefile_builder\\templates\\template.opt'
p260
F1424159312.0
sS'c:\\marmalade\\7.5\\s3e\\makefile_builder\\templates\\template.suo'
p261
F1424159312.0
sS'c:\\marmalade\\7.5\\s3e\\makefile_builder\\templates\\linker_script'
p262
F1424159312.0
sS'c:\\marmalade\\7.5\\s3e\\makefile_builder\\templates\\gdb_start.txt'
p263
F1424159312.0
sS'c:\\marmalade\\7.5\\s3e\\makefile_builder\\mkb_launcher.exe'
p264
F1424159548.0
sS'c:\\marmalade\\7.5\\s3e\\makefile_builder\\templates\\scons.pyc'
p265
F1424160376.0
sS'c:\\marmalade\\7.5\\s3e\\makefile_builder\\docs\\parse_options.pyc'
p266
F1424160380.0
sS'c:\\marmalade\\7.5\\s3e\\makefile_builder\\templates\\xcode4_arm.xcscheme'
p267
F1424159312.0
sS'c:\\marmalade\\7.5\\s3e\\makefile_builder\\plugins\\VisualStudioEmitter.pyc'
p268
F1424160376.0
sS'c:\\marmalade\\7.5\\s3e\\makefile_builder\\plugins\\s3e_xcode.pyc'
p269
F1424631019.087376
sS'c:\\marmalade\\7.5\\s3e\\makefile_builder\\plugins\\Emitter.pyc'
p270
F1424160376.0
sS'c:\\marmalade\\7.5\\s3e\\makefile_builder\\templates\\ws8_sln.pyc'
p271
F1424160380.0
sS'c:\\marmalade\\7.5\\s3e\\makefile_builder\\tool_launcher.exe'
p272
F1424159548.0
sS'c:\\marmalade\\7.5\\s3e\\makefile_builder\\templates\\wp8_sln.pyc'
p273
F1424160378.0
sS'c:\\marmalade\\7.5\\s3e\\makefile_builder\\mkb_upstream.pyc'
p274
F1424160376.0
sS'c:\\marmalade\\7.5\\s3e\\makefile_builder\\templates\\ws81_csproj_user.pyc'
p275
F1424160380.0
sS'c:\\marmalade\\7.5\\s3e\\makefile_builder\\templates\\win32_sln.pyc'
p276
F1424160376.0
sS'c:\\marmalade\\7.5\\s3e\\makefile_builder\\templates\\xcode4_DeployTool.xcscheme'
p277
F1424159312.0
sS'c:\\marmalade\\7.5\\s3e\\makefile_builder\\plugins\\deploy.pyc'
p278
F1424160376.0
sS'c:\\marmalade\\7.5\\s3e\\makefile_builder\\plugins\\s3e_win8.pyc'
p279
F1424160376.0
sS'c:\\marmalade\\7.5\\s3e\\makefile_builder\\plugins\\iphone.pyc'
p280
F1424160376.0
sS'c:\\marmalade\\7.5\\s3e\\makefile_builder\\plugins\\Win8Emitter.pyc'
p281
F1424160376.0
sS'c:\\marmalade\\7.5\\s3e\\makefile_builder\\plugins\\s3e_qmake.pyc'
p282
F1424631018.9523683
sS'c:\\marmalade\\7.5\\s3e\\makefile_builder\\docs'
p283
F1424630747.7758577
sS'c:\\marmalade\\7.5\\s3e\\makefile_builder\\mkb_globals.pyc'
p284
F1424160376.0
sS'c:\\marmalade\\7.5\\s3e\\makefile_builder\\plugins\\win8_utils.pyc'
p285
F1424160376.0
sS'c:\\marmalade\\7.5\\s3e\\makefile_builder\\plugins\\xcode4_schememanagement.py'
p286
F1424159312.0
sS'c:\\marmalade\\7.5\\s3e\\makefile_builder\\templates\\wp81_ext_sln.pyc'
p287
F1424160380.0
sS'c:\\marmalade\\7.5\\s3e\\makefile_builder\\templates\\make.py'
p288
F1424159312.0
sS'c:\\marmalade\\7.5\\s3e\\makefile_builder\\templates\\ws81_ext_csproj.pyc'
p289
F1424160380.0
sS'c:\\marmalade\\7.5\\s3e\\makefile_builder\\plugins\\s3e_xcode.py'
p290
F1424159312.0
sS'c:\\marmalade\\7.5\\s3e\\makefile_builder\\plugins\\XcodeEmitter.pyc'
p291
F1424631018.8013597
sS'c:\\marmalade\\7.5\\s3e\\makefile_builder\\docs\\deployment_options.txt'
p292
F1424159310.0
sS'c:\\marmalade\\7.5\\s3e\\makefile_builder\\templates\\win8_sln.pyc'
p293
F1424160378.0
sS'c:\\marmalade\\7.5\\s3e\\makefile_builder\\plugins\\java.pyc'
p294
F1424160376.0
sS'c:\\marmalade\\7.5\\s3e\\makefile_builder\\plugins\\xcode4_schememanagement.pyc'
p295
F1424631018.80836
sS'c:\\marmalade\\7.5\\s3e\\makefile_builder\\plugins\\SConsEmitter.pyc'
p296
F1424160376.0
sS'c:\\marmalade\\7.5\\s3e\\makefile_builder\\templates\\win32_vcproj.pyc'
p297
F1424160378.0
sS'c:\\marmalade\\7.5\\s3e\\makefile_builder\\plugins\\wp8_wp8.pyc'
p298
F1424160376.0
sS'c:\\marmalade\\7.5\\s3e\\makefile_builder\\templates\\MainWindow.xib'
p299
F1424159312.0
sS'c:\\marmalade\\7.5\\s3e\\makefile_builder\\mkb_util.pyc'
p300
F1424160376.0
sS'c:\\marmalade\\7.5\\s3e\\makefile_builder\\templates\\vc8_user.pyc'
p301
F1424160378.0
sS'c:\\marmalade\\7.5\\s3e\\makefile_builder\\templates\\Info.plist'
p302
F1424159312.0
sS'c:\\marmalade\\7.5\\s3e\\makefile_builder\\templates\\wp8_csproj_user.pyc'
p303
F1424160378.0
sS'c:\\marmalade\\7.5\\s3e\\makefile_builder\\docs\\deprecated.defines.txt'
p304
F1424159310.0
sS'c:\\marmalade\\7.5\\s3e\\makefile_builder\\templates\\ws8_csproj_user.pyc'
p305
F1424160380.0
sS'c:\\marmalade\\7.5\\s3e\\makefile_builder\\plugins\\S3EEmitter.pyc'
p306
F1424160376.0
sS'c:\\marmalade\\7.5\\s3e\\makefile_builder\\templates\\rvct_linker_script'
p307
F1424159312.0
sS'c:\\marmalade\\7.5\\s3e\\makefile_builder\\templates\\xcode_pbxuser.py'
p308
F1424159312.0
sS'c:\\marmalade\\7.5\\s3e\\makefile_builder\\docs\\options.txt'
p309
F1424159310.0
sS'c:\\marmalade\\7.5\\s3e\\makefile_builder\\templates\\wp81_sln.pyc'
p310
F1424160380.0
sS'c:\\marmalade\\7.5\\s3e\\makefile_builder\\templates\\ws81_sln.pyc'
p311
F1424160380.0
sS'c:\\marmalade\\7.5\\s3e\\makefile_builder\\plugins\\vc6_utils.pyc'
p312
F1424160376.0
sS'c:\\marmalade\\7.5\\s3e\\makefile_builder\\templates\\wp81_ext_csproj.pyc'
p313
F1424160380.0
sS'c:\\marmalade\\7.5\\s3e\\makefile_builder\\plugins\\s3e_wp81.pyc'
p314
F1424160376.0
sS'c:\\marmalade\\7.5\\s3e\\makefile_builder\\templates\\aarch64_linker_script'
p315
F1424159312.0
sS'c:\\marmalade\\7.5\\s3e\\makefile_builder\\templates\\ws8_vcxproj.pyc'
p316
F1424160380.0
sS'c:\\marmalade\\7.5\\s3e\\makefile_builder\\plugins\\MakeEmitter.pyc'
p317
F1424160376.0
sS'c:\\marmalade\\7.5\\s3e\\makefile_builder\\templates\\win32_vcxproj_filters.pyc'
p318
F1424160378.0
sS'c:\\marmalade\\7.5\\s3e\\makefile_builder\\templates\\xcode.py'
p319
F1424159312.0
sS'c:\\marmalade\\7.5\\s3e\\makefile_builder\\plugins\\s3e_ws81.pyc'
p320
F1424160376.0
sS'c:\\marmalade\\7.5\\s3e\\makefile_builder\\plugins\\linux_scons.pyc'
p321
F1424160376.0
sS'c:\\marmalade\\7.5\\s3e\\makefile_builder\\templates\\win8_vcxproj.pyc'
p322
F1424160378.0
sS'c:\\marmalade\\7.5\\s3e\\makefile_builder\\plugins\\s3e_scons.pyc'
p323
F1424160376.0
sS'c:\\marmalade\\7.5\\s3e\\makefile_builder\\templates\\wp8_csproj.pyc'
p324
F1424160378.0
sS'c:\\marmalade\\7.5\\s3e\\makefile_builder\\templates\\win8_csproj_user.pyc'
p325
F1424160378.0
sS'c:\\marmalade\\7.5\\s3e\\makefile_builder\\plugins\\ws8_ws8.pyc'
p326
F1424160376.0
sS'c:\\marmalade\\7.5\\s3e\\makefile_builder\\templates\\wp8_vcxproj.pyc'
p327
F1424160378.0
sS'c:\\marmalade\\7.5\\s3e\\makefile_builder\\mkb_option.pyc'
p328
F1424160376.0
sccopy_reg
_reconstructor
p329
(cmkb_main
MkbFile
p330
c__builtin__
object
p331
Ntp332
Rp333
(dp334
g5
(lp335
sS'target_name'
p336
S'Stage4'
p337
sS'current_file'
p338
g135
sS'package_path'
p339
(lp340
sS'post_build'
p341
(lp342
(lp343
S'c:/marmalade/7.5/s3e/tools'
p344
aS'C:\\Marmalade\\7.5\\s3e\\python\\python.exe .\\process_map.py "$(TargetPath)"'
p345
aa(S'c:\\marmalade\\7.5\\s3e\\bin'
p346
S'"s3e_plink" -l "$(TargetPath)" '
p347
g169
tp348
asS'librarys'
p349
(lp350
g329
(cmkb_main
Library
p351
g331
Ntp352
Rp353
(dp354
S'name'
p355
S'vc6_compat.lib'
p356
sS'expand_name'
p357
I00
sS'include_spec_rvct_objs'
p358
(lp359
sS'include_all_objs'
p360
I00
sS'share_arm'
p361
I00
sS'arch'
p362
S'x86'
p363
sS'nodebug'
p364
I00
sg38
Nsbag329
(g351
g331
Ntp365
Rp366
(dp367
g355
S'iw2d'
p368
sg357
I01
sg358
(lp369
sg360
Nsg361
Nsg362
Nsg364
I00
sg38
Nsbag329
(g351
g331
Ntp370
Rp371
(dp372
g355
S'ATI_Compress_MT_VC7.lib'
p373
sg357
I00
sg358
g369
sg360
Nsg361
Nsg362
S'x86'
p374
sg364
I00
sg38
Nsbag329
(g351
g331
Ntp375
Rp376
(dp377
g355
S'iwgx'
p378
sg357
I01
sg358
g369
sg360
Nsg361
Nsg362
Nsg364
I00
sg38
Nsbag329
(g351
g331
Ntp379
Rp380
(dp381
g355
S'iwgl'
p382
sg357
I01
sg358
g369
sg360
Nsg361
Nsg362
Nsg364
I00
sg38
Nsbag329
(g351
g331
Ntp383
Rp384
(dp385
g355
S'iwutil'
p386
sg357
I01
sg358
g369
sg360
Nsg361
Nsg362
Nsg364
I00
sg38
Nsbag329
(g351
g331
Ntp387
Rp388
(dp389
g355
S'jpeg'
p390
sg357
I01
sg358
g369
sg360
Nsg361
Nsg362
Nsg364
I00
sg38
Nsbag329
(g351
g331
Ntp391
Rp392
(dp393
g355
S'z'
p394
sg357
I01
sg358
g369
sg360
Nsg361
Nsg362
Nsg364
I00
sg38
Nsbag329
(g351
g331
Ntp395
Rp396
(dp397
g355
S'png'
p398
sg357
I01
sg358
g369
sg360
Nsg361
Nsg362
Nsg364
I00
sg38
Nsbag329
(g351
g331
Ntp399
Rp400
(dp401
g355
S'iwgeom'
p402
sg357
I01
sg358
g369
sg360
Nsg361
Nsg362
Nsg364
I00
sg38
Nsbag329
(g351
g331
Ntp403
Rp404
(dp405
g355
S'iwresmanager'
p406
sg357
I01
sg358
g369
sg360
Nsg361
Nsg362
Nsg364
I00
sg38
Nsbag329
(g351
g331
Ntp407
Rp408
(dp409
g355
S'iwgxfont'
p410
sg357
I01
sg358
g369
sg360
Nsg361
Nsg362
Nsg364
I00
sg38
Nsbag329
(g351
g331
Ntp411
Rp412
(dp413
g355
S'tiniconv'
p414
sg357
I01
sg358
g369
sg360
Nsg361
Nsg362
Nsg364
I00
sg38
Nsbag329
(g351
g331
Ntp415
Rp416
(dp417
g355
S's3e_cpp'
p418
sg357
I01
sg358
g359
sg360
I00
sg361
I00
sg362
Nsg364
I00
sg38
Nsbag329
(g351
g331
Ntp419
Rp420
(dp421
g355
S's3e'
p422
sg357
I01
sg358
(lp423
S'iwcrt.o'
p424
asg360
I00
sg361
I00
sg362
Nsg364
I00
sg38
Nsbag329
(g351
g331
Ntp425
Rp426
(dp427
g355
g55
sg357
I01
sg358
g359
sg360
I00
sg361
I00
sg362
S'x86'
p428
sg364
I01
sg38
Nsbag329
(g351
g331
Ntp429
Rp430
(dp431
g355
g55
sg357
I01
sg358
g359
sg360
I00
sg361
I00
sg362
S'!x86'
p432
sg364
I01
sg38
Nsbag329
(g351
g331
Ntp433
Rp434
(dp435
g355
S'stdc++'
p436
sg357
I00
sg358
g359
sg360
I00
sg361
I00
sg362
S'mips'
p437
sg364
I00
sg38
Nsbag329
(g351
g331
Ntp438
Rp439
(dp440
g355
S'c'
p441
sg357
I00
sg358
g359
sg360
I00
sg361
I00
sg362
S'mips'
p442
sg364
I00
sg38
Nsbag329
(g351
g331
Ntp443
Rp444
(dp445
g355
S'm'
p446
sg357
I00
sg358
g359
sg360
I00
sg361
I00
sg362
S'mips'
p447
sg364
I00
sg38
Nsbag329
(g351
g331
Ntp448
Rp449
(dp450
g355
S'gcc'
p451
sg357
I00
sg358
g359
sg360
I00
sg361
I00
sg362
S'mips'
p452
sg364
I00
sg38
Nsbag329
(g351
g331
Ntp453
Rp454
(dp455
g355
S'stdc++'
p456
sg357
I00
sg358
g359
sg360
I00
sg361
I00
sg362
S'gcc_x86_android'
p457
sg364
I00
sg38
Nsbag329
(g351
g331
Ntp458
Rp459
(dp460
g355
g441
sg357
I00
sg358
g359
sg360
I00
sg361
I00
sg362
S'gcc_x86_android'
p461
sg364
I00
sg38
Nsbag329
(g351
g331
Ntp462
Rp463
(dp464
g355
g446
sg357
I00
sg358
g359
sg360
I00
sg361
I00
sg362
S'gcc_x86_android'
p465
sg364
I00
sg38
Nsbag329
(g351
g331
Ntp466
Rp467
(dp468
g355
g451
sg357
I00
sg358
g359
sg360
I00
sg361
I00
sg362
S'gcc_x86_android'
p469
sg364
I00
sg38
NsbasS'library_paths'
p470
(lp471
g329
(cmkb_main
LibraryPath
p472
g331
Ntp473
Rp474
(dp475
S'expand_path'
p476
I01
sg355
S'c:/marmalade/7.5/modules/iw2d'
p477
sbag329
(g472
g331
Ntp478
Rp479
(dp480
g476
I00
sg355
S'c:/marmalade/7.5/modules/iwgx/atitools'
p481
sbag329
(g472
g331
Ntp482
Rp483
(dp484
g476
I01
sg355
S'c:/marmalade/7.5/modules/iwgx'
p485
sbag329
(g472
g331
Ntp486
Rp487
(dp488
g476
I01
sg355
S'c:/marmalade/7.5/modules/iwgl'
p489
sbag329
(g472
g331
Ntp490
Rp491
(dp492
g476
I01
sg355
S'c:/marmalade/7.5/modules/iwutil'
p493
sbag329
(g472
g331
Ntp494
Rp495
(dp496
g476
I01
sg355
S'c:/marmalade/7.5/modules/third_party/libjpeg'
p497
sbag329
(g472
g331
Ntp498
Rp499
(dp500
g476
I01
sg355
S'c:/marmalade/7.5/modules/third_party/zlib'
p501
sbag329
(g472
g331
Ntp502
Rp503
(dp504
g476
I01
sg355
S'c:/marmalade/7.5/modules/third_party/libpng'
p505
sbag329
(g472
g331
Ntp506
Rp507
(dp508
g476
I01
sg355
S'c:/marmalade/7.5/modules/iwgeom'
p509
sbag329
(g472
g331
Ntp510
Rp511
(dp512
g476
I01
sg355
S'c:/marmalade/7.5/modules/iwresmanager'
p513
sbag329
(g472
g331
Ntp514
Rp515
(dp516
g476
I01
sg355
S'c:/marmalade/7.5/modules/iwgxfont'
p517
sbag329
(g472
g331
Ntp518
Rp519
(dp520
g476
I01
sg355
S'c:/marmalade/7.5/modules/third_party/tiniconv'
p521
sbag329
(g472
g331
Ntp522
Rp523
(dp524
g476
I01
sg355
S'c:/marmalade/7.5/s3e'
p525
sbasS'macros'
p526
(dp527
S'IW_USE_CALLSTACK'
p528
NsS'IW_MKF_IWGEOM'
p529
NsS'I3D_PLATFORM_S3E'
p530
NsS'IW_TRACE_CHANNEL_PVRTEXTOOL_VERBOSE'
p531
S'2'
p532
sS'IW_MKF_LIBJPEG'
p533
NsS'I3D_OS_S3E'
p534
NsS'IW_MKF_PVRTEXTOOL'
p535
NsS'IW_MKF_TINICONV'
p536
NsS'IW_APP_VERSION'
p537
S'"1.0"'
p538
sS'__S3E__'
p539
NsS'IW_MKF_IWRESMANAGER'
p540
NsS'IW_MKF_IWUTIL'
p541
NsS'IW_PLATFORM_S3E'
p542
NsS'IW_ASSERTION_CHANNEL_2D'
p543
S'1'
p544
sS'IW_APP_NAME'
p545
S'"Stage4"'
p546
sS'IW_MKF_MARMALADEEXAMPLERESOURCES'
p547
NsS'IW_MKF_IWGXFONT'
p548
NsS'IW_MKF_IWTWEEN'
p549
NsS'IW_MKF_ZLIB'
p550
NsS'IW_MKF_S3E_DEFAULT'
p551
NsS'IW_MKF_IWGX'
p552
NsS'IW_MKF_IW2DSCENEGRAPH'
p553
NsS'IW_MKF_SOUNDENGINE'
p554
NsS'IW_USE_ASSERTIONS'
p555
NsS'_CRT_SECURE_NO_DEPRECATE'
p556
NsS'IW_MKF_IWGL'
p557
NsS'IW_MKF_LIBPNG'
p558
NsS'IW_TRACE_CHANNEL_IW_2DSCENEGRAPH'
p559
g544
sS'IW_DEBUG'
p560
NsS'IW_USE_TRACING'
p561
NsS'IW_ASSERTION_CHANNEL_IW_2DSCENEGRAPH'
p562
g544
sS'IW_TRACE_CHANNEL_PVRTEXTOOL'
p563
g544
sS'IW_SDK'
p564
NsS'S3E_INCLUDE_LEGACY'
p565
NsS'IW_MKF_IW2DSCENEGRAPHCORE'
p566
NsS'IW_MKF_IW2D'
p567
NsS'IW_ASSERTION_CHANNEL_PVRTEXTOOL'
p568
g544
ssS'done_warnings'
p569
(dp570
sS'subprojects'
p571
(dp572
g192
S'iwgx'
p573
sg201
S'iwgxfont'
p574
sg190
S's3e-default.mkf'
p575
sg204
S'../iw2dscenegraphcore'
p576
sg197
S'zlib'
p577
sg199
S'iwresmanager'
p578
sg202
S'tiniconv'
p579
sg195
S'libjpeg'
p580
sg191
S'iw2d'
p581
sg207
S'../../../MarmaladeExampleResources'
p582
sg194
S'iwutil'
p583
sg205
S'iwtween'
p584
sg196
S'libpng'
p585
sg203
S'iw2dscenegraph'
p586
sg206
S'SoundEngine'
p587
sg193
S'iwgl'
p588
sg198
S'iwgeom'
p589
sg200
S'PVRTexTool'
p590
ssS'deployments'
p591
(dp592
S'Default'
p593
g329
(cdeployment
Deployment
p594
g331
Ntp595
Rp596
(dp597
S'got_version'
p598
I0
sS'assets'
p599
g593
sS'mkb'
p600
g333
sS'target'
p601
Nsg362
(lp602
sS'options'
p603
(dp604
S'iphone-link-lib'
p605
(lp606
sS'game-icf'
p607
NsS'android-tm'
p608
NsS'winmobile-icon32'
p609
NsS'ws8-logo-image150x150'
p610
NsS'wp81-logo-image150x150'
p611
NsS'android-keystore'
p612
NsS'osx-ext-dll'
p613
(lp614
S'c:/marmalade/7.5/extensions/pvrtextool/lib/osx/libPVRTexTool.dylib'
p615
asS'iphone-provisioning-profile'
p616
NsS'ws8-splash-screen-image620x300'
p617
NsS'wp81-extra-pri'
p618
(lp619
sS'ws8-ext-capabilities'
p620
(lp621
sS'android-icon-hdpi'
p622
NsS'iphone-ipad-only'
p623
NsS'iphone-splash-full-orient'
p624
NsS'wp8-tile-fliptemplate-supports-large'
p625
NsS'iphone-show-status-bar'
p626
NsS'roku-requires-mkv'
p627
NsS'long-caption'
p628
NsS'android-pkgname'
p629
NsS'wp81-publisher-display-name'
p630
NsS'blackberry-permissions-read-device-identifying-information'
p631
NsS'ws81-certificate-end-date'
p632
NsS'psp-dlgcontentid'
p633
NsS'iphone-minimum-ios-version'
p634
NsS'target-folder'
p635
NsS'tizen-dist1-CA-path'
p636
NsS'symbian-icon2-format'
p637
NsS'tizen-author-key'
p638
NsS'firefoxos-icon-128X128'
p639
NsS'iphone-region'
p640
NsS'uiq3-icon3-mask'
p641
NsS'brew-encoding'
p642
NsS'android-x86'
p643
NsS'nds-initialcode'
p644
NsS'iphone-persistent-wifi'
p645
NsS'psp-snd0'
p646
NsS'roku-icon-focus-hd'
p647
NsS'osx-appid'
p648
NsS'winmobile-install-folder'
p649
NsS'android-external-res'
p650
(lp651
sS'ws8-product-version'
p652
NsS'brew-priviledges'
p653
NsS'iphone-info-plist-override'
p654
NsS'iphone-icon-ipad'
p655
NsS'iphone-skip-icon-generation'
p656
NsS'roku-hidden'
p657
NsS'psp-titlename'
p658
NsS'wp81-product-version'
p659
NsS'symbian-icon1-mask'
p660
NsS'psp-parentallevel'
p661
NsS'iphone-launch-storyboard'
p662
NsS'splashscreen-use-all'
p663
NsS'wp8-author'
p664
NsS'symbian-disable-ecompxl'
p665
NsS'splashscreen-auto-onblack'
p666
NsS'iphone-icon-dir'
p667
NsS'iphone-icon-extra'
p668
NsS'win32-ext-dll'
p669
(lp670
S'c:/marmalade/7.5/extensions/pvrtextool/lib/win32/PVRTexTool.dll'
p671
asS'iphone-development-key'
p672
NsS'winmobile-icon48'
p673
NsS'android-unsigned'
p674
NsS'osx-appstore-category'
p675
NsS'version-revision'
p676
NsS'roku-icon-focus-sd'
p677
NsS'ws81-product-version'
p678
NsS'winmobile-png90'
p679
NsS'iphone-icon-ipad-high-res'
p680
NsS'iphone-disable-ipad'
p681
NsS'ws81-splash-screen-background'
p682
NsS'wp8-ext-capabilities'
p683
(lp684
sS'brew-icon-large'
p685
NsS'symbian-icon1-mask-black'
p686
NsS'ws8-extra-res'
p687
(lp688
sS'iphone-bundle-localisations'
p689
NsS'winmobile-png60'
p690
NsS'blackberry-permissions-access-shared'
p691
NsS'blackberry-author'
p692
NsS'android-icon-xxxhdpi'
p693
NsS'olddeploytoolstyle'
p694
NsS'android_icon_gallery'
p695
NsS'wp81-splash-screen-background'
p696
NsS'winmobile-cab-compress'
p697
NsS'iphone-info-plist'
p698
NsS'ws81-ext-managed-dll'
p699
(lp700
sS'playbook-cskpass'
p701
NsS'win32-icon'
p702
NsS'symbian-key'
p703
NsS'app-icf'
p704
NsS'blackberry-storepass'
p705
NsS'wp8-tile-fliptemplate-back-title'
p706
NsS'brew-compress-loader'
p707
NsS'iphone-testflight'
p708
NsS'win32-pref-windowposy'
p709
NsS'win32-pref-windowposx'
p710
NsS'roku-requires-audiometadata'
p711
NsS'wp8-exclude-low-mem'
p712
NsS'iphone-icon-ipad-search-high-res'
p713
NsS'iphone-link-libdir'
p714
(lp715
sS'wp81-ext-capabilities'
p716
(lp717
sS'blackberry-permissions-read-geolocation'
p718
NsS'ws81-ext-device-capabilities'
p719
(lp720
sS'tizen-signed'
p721
NsS'android-extra-application-manifest'
p722
(lp723
sS'ws8-ext-native-dll'
p724
(lp725
sS'symbian-icon2-mask'
p726
NsS'iphone-launch-extra'
p727
NsS'webos-memory'
p728
NsS'android-keypass'
p729
NsS'name'
p730
NsS'uiq3-icon2-format'
p731
NsS'roku-splash-screen-sd'
p732
NsS'auto-derbh'
p733
NsS'roku-icon-side-sd'
p734
NsS'android-external-assets'
p735
(lp736
sS'nds-publicsavedatasize'
p737
NsS'splashscreen'
p738
S'c:/marmalade/7.5/examples/marmaladeexampleresources/resources/splashscreens'
p739
sS'brew-mif'
p740
NsS'iphone-icon-settings-high-res'
p741
NsS'android-manifest'
p742
NsS'ws81-splash-screen-image620x300'
p743
NsS'wp81-product-name'
p744
NsS's3e-compression'
p745
NsS'tizen-author-password'
p746
NsS'wp8-tile-fliptemplate-back-content'
p747
NsS'blackberry-extra-descriptor'
p748
(lp749
sS'symbian-icon1'
p750
NsS'symbian-icon2'
p751
NsS'nds-makercode'
p752
NsS'android-extra-styles-file'
p753
NsS'wp81-publisher-id'
p754
NsS'nds-bannertitle-jp'
p755
NsS'wp81-logo-image44x44'
p756
NsS'osx-sign-for-store'
p757
NsS'symbian7-uid'
p758
NsS'wp8-tile-fliptemplate-large-back-content'
p759
NsS'wp81-phone-publisher-id'
p760
NsS'nds-bannertitle-cn'
p761
NsS'iphone-distribution-key'
p762
NsS'android-icon-gallery'
p763
NsS'blackberry-keystore'
p764
NsS'iphone-nosign'
p765
NsS'caption'
p766
NsS'android-extra-manifest'
p767
(lp768
sS'wp81-ext-sdk-ref'
p769
(lp770
sS'android-icon-xxhdpi'
p771
NsS'version-minor'
p772
NsS'iphone-skip-launch-generation'
p773
NsS'iphone-link-libdirs'
p774
(lp775
sS'iphone-icon-large'
p776
NsS'symbian-keypwd'
p777
NsS'symbian8-uid'
p778
NsS'symbian-cert-key'
p779
NsS'winmobile-ampd-part-number'
p780
NsS'arch'
p781
NsS'nds-romheadertemplate'
p782
NsS'webos-icon'
p783
NsS'wp81-ext-device-capabilities'
p784
(lp785
sS'psp-dlgprotectdocument'
p786
NsS'ws8-splash-screen-background'
p787
NsS'android-icon-mdpi'
p788
NsS'nds-icon'
p789
NsS'ws8-custom-manifest-fill'
p790
NsS'iphone-development-cert'
p791
NsS'and'
p792
NsS'symbian-icon2-mask-black'
p793
NsS'blackberry-phone-icon'
p794
NsS'iphone-enable-4inch-retina'
p795
NsS'ws8-custom-manifest'
p796
NsS'version-major'
p797
NsS'wp8-genre-isgame'
p798
NsS'uiq3-uid'
p799
NsS'iphone-splash-retina-generate'
p800
NsS'tizen-hw-acceleration'
p801
NsS'iphone_bundle_localisations'
p802
NsS'tizen-dist1-key'
p803
NsS'wp81-custom-manifest-fill'
p804
NsS'wp8-custom-manifest'
p805
NsS'nds-bannertitle-ge'
p806
NsS'iphone-sign-for-distribution'
p807
NsS'wp8-tile-fliptemplate-medium-back-image'
p808
NsS'wp8-publisher-id'
p809
NsS'icon'
p810
S'c:/marmalade/7.5/examples/marmaladeexampleresources/resources/icons'
p811
sS'wp8-exclude-wxga'
p812
NsS'wp81-identity-name'
p813
NsS'uiq3-icon2-mask'
p814
NsS'iphone-splashscreen-portrait'
p815
NsS'iphone-icon-high-res'
p816
NsS'ws81-distribution-pfx-password'
p817
NsS'playbook-author'
p818
NsS'android-icon-xhdpi'
p819
NsS'linux-ext-lib'
p820
(lp821
sS'blackberry-permissions-access-internet'
p822
NsS'wp8-exclude-720p'
p823
NsS'lgtv-use-drm'
p824
NsS'symbian-platsecflags'
p825
NsS'ws8-description'
p826
NsS'blackberry-playbook-icon'
p827
NsS'copyright'
p828
NsS'ws8-distribution-pfx-password'
p829
NsS'win32-gles-directory'
p830
NsS'version'
p831
NsS'iphone-uiviewcontroller-based-status-bar'
p832
NsS'ws81-logo-image150x150'
p833
NsS'osx-signing-identity-app'
p834
NsS'tizen-project-url'
p835
NsS'symbian-icon-svg'
p836
NsS'android-aliasname'
p837
NsS'psp-dlgmanual'
p838
NsS'brew-uid'
p839
NsS'symbian-locationsupport'
p840
NsS'wp81-logo-image50x50'
p841
NsS'ws8-ext-managed-dll'
p842
(lp843
sS'nds-bannertitle-it'
p844
NsS'ws81-custom-manifest-fill'
p845
NsS'ws8-ext-sdk-manifest-part'
p846
(lp847
sS'uiq3-icon1-mask'
p848
NsS'winmobile-icon16'
p849
NsS'ws8-product-name'
p850
NsS'blackberry-cskpass'
p851
NsS'winmobile-start-menu-folder'
p852
NsS'brew-clsid'
p853
NsS'roku-requires-bluetooth'
p854
NsS'iphone-default-development-profile'
p855
NsS'ws8-ext-device-capabilities'
p856
(lp857
sS'blackberry-permissions-use-camera'
p858
NsS'ws81-extra-pri'
p859
(lp860
sS'iphone-prerendered-icon'
p861
NsS'iphone-appid'
p862
NsS'ws8-identity-name'
p863
NsS'tizen-dist2-CA-path'
p864
NsS'android-external-jars'
p865
(lp866
sS'winmobile-icon64'
p867
NsS'blackberry-permissions-post-notification'
p868
NsS'winmobile-setup-dll'
p869
NsS'firefoxos-manifest'
p870
NsS'win8-winrt-extra-res'
p871
(lp872
sS'wp81-ext-sdk-manifest-part'
p873
(lp874
sS'symbian9-uid'
p875
NsS'iphone-icon-ipad-ios7'
p876
NsS'winmobile-trace-file'
p877
NsS'roku-splash-color'
p878
NsS'psp-appversion'
p879
NsS'ws8-publisher-id'
p880
NsS'android-supports-gl-texture'
p881
(lp882
sS'winmobile-png45'
p883
NsS'wp81-extra-res'
p884
(lp885
sS'android-storepass'
p886
NsS'osx-signing-identity-inst'
p887
NsS'android-custom-activity'
p888
NsS'psp-discversion'
p889
NsS'wp81-ext-managed-dll'
p890
(lp891
sS'psp-copyright'
p892
NsS'embed-icf'
p893
NsS'tizen-manifest'
p894
NsS'osx-icon'
p895
NsS'webos-appinfo'
p896
NsS'psp-dlghealthwarning'
p897
NsS'webos-appid'
p898
NsS'roku-icon-side-hd'
p899
NsS'iphone-icon-ipad-search-high-res-ios7'
p900
NsS'iphone-extra-plist'
p901
(lp902
sS'ws81-ext-sdk-manifest-part'
p903
(lp904
sS'loader_name_prefix'
p905
NsS'iphone-launch-dir'
p906
NsS'nds-titlename'
p907
NsS'ws81-logo-image50x50'
p908
NsS'wp81-custom-manifest'
p909
NsS'osx-entitlements-plist'
p910
NsS'psp-dlgicon0'
p911
NsS'winmobile-nouninstall'
p912
NsS'psp-discid'
p913
NsS'tizen-dist2-password'
p914
NsS'ws8-ext-sdk-ref'
p915
(lp916
sS'iphone-extra-string'
p917
(lp918
sS'version-string'
p919
NsS'iphone-icon-high-res-ios7'
p920
NsS'blackberry-permissions-record-audio'
p921
NsS'ws8-certificate-end-date'
p922
NsS'tizen-so'
p923
(lp924
sS'wp8-tile-fliptemplate-small-image'
p925
NsS'playbook-authorid'
p926
NsS'iphone-signing-identity'
p927
NsS'roku-persist-quota'
p928
NsS'nds-bannertitle-fr'
p929
NsS'ws8-distribution-pfx'
p930
NsS'ws8-publisher-display-name'
p931
NsS'brew-icon-small'
p932
NsS'psp-dlgpic2'
p933
NsS'psp-dlgpic0'
p934
NsS'psp-pic0'
p935
NsS'psp-pic1'
p936
NsS'win32-pref-windowtitle'
p937
NsS'psp-icon0'
p938
NsS'psp-icon1'
p939
NsS'ws81-identity-name'
p940
NsS'winmobile-icon'
p941
NsS'iphone-no-splash'
p942
NsS'iphone-splash'
p943
NsS'iphone-app-fonts'
p944
NsS'wp8-ext-native-dll'
p945
(lp946
sS'wp81-splash-screen-image480x800'
p947
NsS'ws81-distribution-cer'
p948
NsS'iphone-backgroundmode-audio'
p949
NsS'uiq3-icon2'
p950
NsS'uiq3-icon3'
p951
NsS'uiq3-icon1'
p952
NsS'uiq3-icon1-format'
p953
NsS'ws8-logo-image50x50'
p954
NsS'iphone-icon-ipad-search'
p955
NsS'symbian-run-on-install'
p956
NsS'wp81-description'
p957
NsS'ws81-publisher-display-name'
p958
NsS'firefoxos-xulrunner'
p959
NsS'symbian-soundrecordsupport'
p960
NsS'nds-bannertitle-sp'
p961
NsS'psp-producer'
p962
NsS'iphone-apple-wwdr-cert'
p963
NsS'android-icon-nonstandard'
p964
NsS'win32-pref-processtitle'
p965
NsS'nds-bannertitle-hn'
p966
NsS'tizen-dist2-key'
p967
NsS'brew-depends'
p968
NsS'ws81-custom-manifest'
p969
NsS'iphone-allow-launch-rotation'
p970
NsS'iphone-icon-ipad-search-ios7'
p971
NsS'brew-icon-medium'
p972
NsS'iphone-bundle-url-name'
p973
NsS'wp8-tile-fliptemplate-large-front-image'
p974
NsS'tizen-dist2-CA-root-path'
p975
NsS'ws81-description'
p976
NsS'uiq3-icon3-format'
p977
NsS'ws81-logo-image30x30'
p978
NsS'win8-phone-extra-res'
p979
(lp980
sS'iphone-signing-host'
p981
NsS'tizen-icon'
p982
NsS'osx-info-plist'
p983
NsS'symbian-icon1-format'
p984
NsS'ws81-distribution-pfx'
p985
NsS'blackberry-authorid'
p986
NsS'ws81-publisher-id'
p987
NsS'win8-store-extra-res'
p988
(lp989
sS'wp8-description'
p990
NsS'iphone-link-opts'
p991
(lp992
sS'ws81-ext-sdk-ref'
p993
(lp994
sS'roku-splash-min-time'
p995
NsS'wp8-tile-fliptemplate-medium-front-image'
p996
NsS'iphone-disable-launch-images'
p997
NsS'provider'
p998
NsS'playbook-keystore'
p999
NsS'tizen-appid'
p1000
NsS'wp8-extra-res'
p1001
(lp1002
sS'symbian-osexecsupport'
p1003
NsS'android-install-location'
p1004
NsS'nds-privatesavedatasize'
p1005
NsS'iphone-disable-testflight'
p1006
NsS'playbook-storepass'
p1007
NsS'android-icon-ldpi'
p1008
NsS'manufacturer'
p1009
NsS'itunes-artwork'
p1010
NsS'iphone-extra-sections'
p1011
NsS'ws81-product-name'
p1012
NsS'ws81-ext-native-dll'
p1013
(lp1014
sS'ws8-extra-pri'
p1015
(lp1016
sS'wp8-product-id'
p1017
NsS'ws8-logo-image30x30'
p1018
NsS'wp8-ext-managed-dll'
p1019
(lp1020
sS'iphone-splashscreen-landscape'
p1021
NsS'symbian-maxheapsize'
p1022
NsS'android-extra-packages'
p1023
(lp1024
sS'priv-sign-key'
p1025
NsS'networking'
p1026
NsS'android-icon'
p1027
NsS'iphone-icon-settings'
p1028
NsS'wp81-phone-product-id'
p1029
NsS'firefoxos-icon-60X60'
p1030
NsS'iphone-distribution-cert'
p1031
NsS'android_extra_strings'
p1032
NsS'nds-bannertitle-en'
p1033
NsS'wp8-tile-fliptemplate-title'
p1034
NsS'android-so'
p1035
(lp1036
sS'wp8-higher-mem'
p1037
NsS'wp8-ext-sdk-ref'
p1038
(lp1039
sS'wp8-fast-resume-mode'
p1040
NsS'roku-splash-screen-hd'
p1041
NsS'iphone-bundle-url-schemes'
p1042
NsS'roku-screensaver-private'
p1043
NsS'osx-extra-res'
p1044
(lp1045
sS'ws81-extra-res'
p1046
(lp1047
sS'playbook-icon'
p1048
NsS'uid'
p1049
NsS'pkguid-as-uid'
p1050
NsS'wp81-ext-native-dll'
p1051
(lp1052
sS'tizen-dist1-password'
p1053
NsS'roku-screensaver-title'
p1054
NsS'osx-minimum-osx-version'
p1055
NsS'symbian-cert'
p1056
NsS'iphone-icon'
p1057
NsS'ws81-ext-capabilities'
p1058
(lp1059
sS'ws8-distribution-cer'
p1060
NsS'playbook-access-shared'
p1061
NsS'iphone-icon-ipad-high-res-ios7'
p1062
NsS'iphone-link-libs'
p1063
(lp1064
sS'wp8-exclude-wvga'
p1065
NsS'assets'
p1066
NsS'wp8-tile-fliptemplate-large-back-image'
p1067
NsS'wp8-custom-manifest-fill'
p1068
NsS'pub-sign-key'
p1069
NsS'android-extra-strings'
p1070
NsS'tizen-author-CA-path'
p1071
Nssg355
g593
sbssS'platform'
p1072
S'S3E'
p1073
sg70
S'1.0'
p1074
sS'arcade_platform'
p1075
g4
sS'extensions'
p1076
(dp1077
sS'source_groups_tree'
p1078
(dp1079
S'(libpng)'
p1080
(dp1081
S'h'
p1082
(dp1083
S'c:/marmalade/7.5/modules/third_party/libpng/h/png.h'
p1084
(lp1085
I1
a(dp1086
asS'c:/marmalade/7.5/modules/third_party/libpng/h/pngconf.h'
p1087
(lp1088
I1
ag1086
assS'c:/marmalade/7.5/modules/third_party/libpng/libpng.mkf'
p1089
(lp1090
I1
a(dp1091
assS'(libjpeg)'
p1092
(dp1093
S'c:/marmalade/7.5/modules/third_party/libjpeg/libjpeg.mkf'
p1094
(lp1095
I1
a(dp1096
asg1082
(dp1097
S'c:/marmalade/7.5/modules/third_party/libjpeg/h/jerror.h'
p1098
(lp1099
I1
a(dp1100
asS'c:/marmalade/7.5/modules/third_party/libjpeg/h/jdhuff.h'
p1101
(lp1102
I1
ag1100
asS'c:/marmalade/7.5/modules/third_party/libjpeg/h/cderror.h'
p1103
(lp1104
I1
ag1100
asS'c:/marmalade/7.5/modules/third_party/libjpeg/h/transupp.h'
p1105
(lp1106
I1
ag1100
asS'c:/marmalade/7.5/modules/third_party/libjpeg/h/jinclude.h'
p1107
(lp1108
I1
ag1100
asS'c:/marmalade/7.5/modules/third_party/libjpeg/h/jmorecfg.h'
p1109
(lp1110
I1
ag1100
asS'c:/marmalade/7.5/modules/third_party/libjpeg/h/jdct.h'
p1111
(lp1112
I1
ag1100
asS'c:/marmalade/7.5/modules/third_party/libjpeg/h/jmemsys.h'
p1113
(lp1114
I1
ag1100
asS'c:/marmalade/7.5/modules/third_party/libjpeg/h/jpegint.h'
p1115
(lp1116
I1
ag1100
asS'c:/marmalade/7.5/modules/third_party/libjpeg/h/jchuff.h'
p1117
(lp1118
I1
ag1100
asS'c:/marmalade/7.5/modules/third_party/libjpeg/h/cdjpeg.h'
p1119
(lp1120
I1
ag1100
asS'c:/marmalade/7.5/modules/third_party/libjpeg/h/jversion.h'
p1121
(lp1122
I1
ag1100
asS'c:/marmalade/7.5/modules/third_party/libjpeg/h/jconfig.h'
p1123
(lp1124
I1
ag1100
asS'c:/marmalade/7.5/modules/third_party/libjpeg/h/jpeglib.h'
p1125
(lp1126
I1
ag1100
asssS'(tiniconv)'
p1127
(dp1128
S'c:/marmalade/7.5/modules/third_party/tiniconv/tiniconv.mkf'
p1129
(lp1130
I1
a(dp1131
asS'c:/marmalade/7.5/modules/third_party/tiniconv/source/tiniconv_int.h'
p1132
(lp1133
I1
a(dp1134
asS'c:/marmalade/7.5/modules/third_party/tiniconv/source/tiniconv.h'
p1135
(lp1136
I1
ag1134
assS'(SoundEngine)'
p1137
(dp1138
S'c:/marmalade/7.5/examples/gametutorial/cpp/modules/soundengine/source/IwSoundGroup.cpp'
p1139
(lp1140
I1
a(dp1141
asS'c:/marmalade/7.5/examples/gametutorial/cpp/modules/soundengine/h/IwSoundADPCM.h'
p1142
(lp1143
I1
ag1141
asS'c:/marmalade/7.5/examples/gametutorial/cpp/modules/soundengine/source/IwResHandlerWAV.cpp'
p1144
(lp1145
I1
ag1141
asS'c:/marmalade/7.5/examples/gametutorial/cpp/modules/soundengine/h/IwResHandlerWAV.h'
p1146
(lp1147
I1
ag1141
asS'Docs'
p1148
(dp1149
S'c:/marmalade/7.5/examples/gametutorial/cpp/modules/soundengine/docs/iwsound.config.txt'
p1150
(lp1151
I1
ag1141
assS'c:/marmalade/7.5/examples/gametutorial/cpp/modules/soundengine/h/IwSoundInst.h'
p1152
(lp1153
I1
ag1141
asS'c:/marmalade/7.5/examples/gametutorial/cpp/modules/soundengine/source/IwSoundManager.cpp'
p1154
(lp1155
I1
ag1141
asS'c:/marmalade/7.5/examples/gametutorial/cpp/modules/soundengine/h/IwSoundSpec.h'
p1156
(lp1157
I1
ag1141
asS'c:/marmalade/7.5/examples/gametutorial/cpp/modules/soundengine/source/IwSoundParams.cpp'
p1158
(lp1159
I1
ag1141
asS'c:/marmalade/7.5/examples/gametutorial/cpp/modules/soundengine/h/IwSoundManager.h'
p1160
(lp1161
I1
ag1141
asS'c:/marmalade/7.5/examples/gametutorial/cpp/modules/soundengine/source/IwSoundPCM.cpp'
p1162
(lp1163
I1
ag1141
asS'c:/marmalade/7.5/examples/gametutorial/cpp/modules/soundengine/source/IwSoundWAV.cpp'
p1164
(lp1165
I1
ag1141
asS'c:/marmalade/7.5/examples/gametutorial/cpp/modules/soundengine/source/IwSoundInst.cpp'
p1166
(lp1167
I1
ag1141
asS'c:/marmalade/7.5/examples/gametutorial/cpp/modules/soundengine/h/IwSoundWAV.h'
p1168
(lp1169
I1
ag1141
asS'c:/marmalade/7.5/examples/gametutorial/cpp/modules/soundengine/source/IwSoundSpec.cpp'
p1170
(lp1171
I1
ag1141
asS'c:/marmalade/7.5/examples/gametutorial/cpp/modules/soundengine/h/IwSoundParams.h'
p1172
(lp1173
I1
ag1141
asS'c:/marmalade/7.5/examples/gametutorial/cpp/modules/soundengine/source/IwSoundADPCM.cpp'
p1174
(lp1175
I1
ag1141
asS'c:/marmalade/7.5/examples/gametutorial/cpp/modules/soundengine/h/IwSound.h'
p1176
(lp1177
I1
ag1141
asS'c:/marmalade/7.5/examples/gametutorial/cpp/modules/soundengine/source/IwSoundData.cpp'
p1178
(lp1179
I1
ag1141
asS'c:/marmalade/7.5/examples/gametutorial/cpp/modules/soundengine/h/IwSoundData.h'
p1180
(lp1181
I1
ag1141
asS'c:/marmalade/7.5/examples/gametutorial/cpp/modules/soundengine/h/IwSoundPCM.h'
p1182
(lp1183
I1
ag1141
asS'c:/marmalade/7.5/examples/gametutorial/cpp/modules/soundengine/soundengine.mkf'
p1184
(lp1185
I1
a(dp1186
asS'c:/marmalade/7.5/examples/gametutorial/cpp/modules/soundengine/h/IwSoundGroup.h'
p1187
(lp1188
I1
ag1141
assS'(MarmaladeExampleResources)'
p1189
(dp1190
S'c:/marmalade/7.5/examples/marmaladeexampleresources/marmaladeexampleresources.mkf'
p1191
(lp1192
I1
a(dp1193
assS'source'
p1194
(dp1195
S'c:/Marmalade/7.5/examples/GameTutorial/CPP/marm1/source/Powerup.cpp'
p1196
(lp1197
I1
a(dp1198
asS'c:/Marmalade/7.5/examples/GameTutorial/CPP/marm1/source/Layer.cpp'
p1199
(lp1200
I1
ag1198
asS'c:/Marmalade/7.5/examples/GameTutorial/CPP/marm1/source/mainMenu.h'
p1201
(lp1202
I1
ag1198
asS'c:/Marmalade/7.5/examples/GameTutorial/CPP/marm1/source/main.h'
p1203
(lp1204
I1
ag1198
asS'c:/Marmalade/7.5/examples/GameTutorial/CPP/marm1/source/Entity.h'
p1205
(lp1206
I1
ag1198
asS'c:/Marmalade/7.5/examples/GameTutorial/CPP/marm1/source/hero.h'
p1207
(lp1208
I1
ag1198
asS'c:/Marmalade/7.5/examples/GameTutorial/CPP/marm1/source/scene.cpp'
p1209
(lp1210
I1
ag1198
asS'c:/Marmalade/7.5/examples/GameTutorial/CPP/marm1/source/Enemymanager.cpp'
p1211
(lp1212
I1
ag1198
asS'c:/Marmalade/7.5/examples/GameTutorial/CPP/marm1/source/Level.h'
p1213
(lp1214
I1
ag1198
asS'c:/Marmalade/7.5/examples/GameTutorial/CPP/marm1/source/input.h'
p1215
(lp1216
I1
ag1198
asS'c:/Marmalade/7.5/examples/GameTutorial/CPP/marm1/source/audio.h'
p1217
(lp1218
I1
ag1198
asS'c:/Marmalade/7.5/examples/GameTutorial/CPP/marm1/source/resources.h'
p1219
(lp1220
I1
ag1198
asS'c:/Marmalade/7.5/examples/GameTutorial/CPP/marm1/source/mainMenu.cpp'
p1221
(lp1222
I1
ag1198
asS'c:/Marmalade/7.5/examples/GameTutorial/CPP/marm1/source/input.cpp'
p1223
(lp1224
I1
ag1198
asS'c:/Marmalade/7.5/examples/GameTutorial/CPP/marm1/source/Shark.h'
p1225
(lp1226
I1
ag1198
asS'c:/Marmalade/7.5/examples/GameTutorial/CPP/marm1/source/main.cpp'
p1227
(lp1228
I1
ag1198
asS'c:/Marmalade/7.5/examples/GameTutorial/CPP/marm1/source/Shark.cpp'
p1229
(lp1230
I1
ag1198
asS'c:/Marmalade/7.5/examples/GameTutorial/CPP/marm1/source/Life.h'
p1231
(lp1232
I1
ag1198
asS'c:/Marmalade/7.5/examples/GameTutorial/CPP/marm1/source/resources.cpp'
p1233
(lp1234
I1
ag1198
asS'c:/Marmalade/7.5/examples/GameTutorial/CPP/marm1/source/Entity.cpp'
p1235
(lp1236
I1
ag1198
asS'c:/Marmalade/7.5/examples/GameTutorial/CPP/marm1/source/Levelmanager.h'
p1237
(lp1238
I1
ag1198
asS'c:/Marmalade/7.5/examples/GameTutorial/CPP/marm1/source/Enemymanager.h'
p1239
(lp1240
I1
ag1198
asS'c:/Marmalade/7.5/examples/GameTutorial/CPP/marm1/source/Levelmanager.cpp'
p1241
(lp1242
I1
ag1198
asS'c:/Marmalade/7.5/examples/GameTutorial/CPP/marm1/source/GameScene.cpp'
p1243
(lp1244
I1
ag1198
asS'c:/Marmalade/7.5/examples/GameTutorial/CPP/marm1/source/BackgroundEntity.h'
p1245
(lp1246
I1
ag1198
asS'c:/Marmalade/7.5/examples/GameTutorial/CPP/marm1/source/pauseMenu.h'
p1247
(lp1248
I1
ag1198
asS'c:/Marmalade/7.5/examples/GameTutorial/CPP/marm1/source/Powerup.h'
p1249
(lp1250
I1
ag1198
asS'c:/Marmalade/7.5/examples/GameTutorial/CPP/marm1/source/BackgroundEntity.cpp'
p1251
(lp1252
I1
ag1198
asS'c:/Marmalade/7.5/examples/GameTutorial/CPP/marm1/source/Life.cpp'
p1253
(lp1254
I1
ag1198
asS'c:/Marmalade/7.5/examples/GameTutorial/CPP/marm1/source/Layer.h'
p1255
(lp1256
I1
ag1198
asS'c:/Marmalade/7.5/examples/GameTutorial/CPP/marm1/source/pauseMenu.cpp'
p1257
(lp1258
I1
ag1198
asS'c:/Marmalade/7.5/examples/GameTutorial/CPP/marm1/source/scene.h'
p1259
(lp1260
I1
ag1198
asS'c:/Marmalade/7.5/examples/GameTutorial/CPP/marm1/source/audio.cpp'
p1261
(lp1262
I1
ag1198
asS'c:/Marmalade/7.5/examples/GameTutorial/CPP/marm1/source/hero.cpp'
p1263
(lp1264
I1
ag1198
asS'c:/Marmalade/7.5/examples/GameTutorial/CPP/marm1/source/GameScene.h'
p1265
(lp1266
I1
ag1198
assS'Extensions'
p1267
(dp1268
S'PVRTexTool'
p1269
(dp1270
S'interface'
p1271
(dp1272
S'c:/marmalade/7.5/extensions/pvrtextool/interface/PVRTexTool.defines.txt'
p1273
(lp1274
I1
a(dp1275
asS'c:/marmalade/7.5/extensions/pvrtextool/interface/PVRTexTool_interface.cpp'
p1276
(lp1277
I1
ag1275
assS'c:/marmalade/7.5/extensions/pvrtextool/h/PVRTexTool.h'
p1278
(lp1279
I1
ag1275
asS'c:/marmalade/7.5/extensions/pvrtextool/pvrtextool.mkf'
p1280
(lp1281
I1
a(dp1282
asssS"'Marmalade Studio'"
p1283
(dp1284
S'iw2dscenegraph'
p1285
(dp1286
S'c:/marmalade/7.5/modules/iw2dscenegraph/source/Iw2DSceneGraph.cpp'
p1287
(lp1288
I1
a(dp1289
asS'c:/marmalade/7.5/modules/iw2dscenegraph/docs/iw2dscenegraph.defines.txt'
p1290
(lp1291
I1
ag1289
asS'c:/marmalade/7.5/modules/iw2dscenegraph/h/Iw2DSceneGraph.h'
p1292
(lp1293
I1
ag1289
asS'c:/marmalade/7.5/modules/iw2dscenegraph/iw2dscenegraph.mkf'
p1294
(lp1295
I1
a(dp1296
assS'iwgl'
p1297
(dp1298
S'c:/marmalade/7.5/modules/iwgl/iwgl.mkf'
p1299
(lp1300
I1
a(dp1301
asS'c:/marmalade/7.5/modules/iwgl/h/IwGL.h'
p1302
(lp1303
I1
a(dp1304
asS'c:/marmalade/7.5/modules/iwgl/docs/iwgl.config.txt'
p1305
(lp1306
I1
ag1304
asS'c:/marmalade/7.5/modules/iwgl/h/IwGLExt.h'
p1307
(lp1308
I1
ag1304
assS'iw2d'
p1309
(dp1310
S'c:/marmalade/7.5/modules/iw2d/docs/iw2d_public.defines.txt'
p1311
(lp1312
I1
a(dp1313
asS'c:/marmalade/7.5/modules/iw2d/docs/iw2d.config.txt'
p1314
(lp1315
I1
ag1313
asS'c:/marmalade/7.5/modules/iw2d/h/Iw2D.h'
p1316
(lp1317
I1
ag1313
asS'c:/marmalade/7.5/modules/iw2d/iw2d.mkf'
p1318
(lp1319
I1
a(dp1320
assS'iwgxfont'
p1321
(dp1322
S'c:/marmalade/7.5/modules/iwgxfont/h/IwGxFontGlyph.h'
p1323
(lp1324
I1
a(dp1325
asS'c:/marmalade/7.5/modules/iwgxfont/h/IwGxFontTypes.h'
p1326
(lp1327
I1
ag1325
asS'c:/marmalade/7.5/modules/iwgxfont/docs/iwgxfont.config.txt'
p1328
(lp1329
I1
ag1325
asS'c:/marmalade/7.5/modules/iwgxfont/h/IwGxFontState.h'
p1330
(lp1331
I1
ag1325
asS'c:/marmalade/7.5/modules/iwgxfont/h/IwGxFontContainer.h'
p1332
(lp1333
I1
ag1325
asS'c:/marmalade/7.5/modules/iwgxfont/iwgxfont.mkf'
p1334
(lp1335
I1
a(dp1336
asS'c:/marmalade/7.5/modules/iwgxfont/h/IwGxFontPreparedData.h'
p1337
(lp1338
I1
ag1325
asS'c:/marmalade/7.5/modules/iwgxfont/h/IwGxFont.h'
p1339
(lp1340
I1
ag1325
asS'c:/marmalade/7.5/modules/iwgxfont/docs/iwgxfont_public.defines.txt'
p1341
(lp1342
I1
ag1325
assS'iwgeom'
p1343
(dp1344
S'c:/marmalade/7.5/modules/iwgeom/h/IwGeomSVec2.h'
p1345
(lp1346
I1
a(dp1347
asS'c:/marmalade/7.5/modules/iwgeom/h/IwGeomSphere.h'
p1348
(lp1349
I1
ag1347
asS'c:/marmalade/7.5/modules/iwgeom/h/IwGeomSVec3.h'
p1350
(lp1351
I1
ag1347
asS'c:/marmalade/7.5/modules/iwgeom/iwgeom.mkf'
p1352
(lp1353
I1
a(dp1354
asS'c:/marmalade/7.5/modules/iwgeom/h/IwGeomSqrt.h'
p1355
(lp1356
I1
ag1347
asS'c:/marmalade/7.5/modules/iwgeom/h/IwGeomFQuat.h'
p1357
(lp1358
I1
ag1347
asS'c:/marmalade/7.5/modules/iwgeom/h/IwGeomQuat.h.tpl'
p1359
(lp1360
I1
ag1347
asS'c:/marmalade/7.5/modules/iwgeom/h/IwGeomVec2.h'
p1361
(lp1362
I1
ag1347
asS'c:/marmalade/7.5/modules/iwgeom/h/IwGeomMat.h'
p1363
(lp1364
I1
ag1347
asS'c:/marmalade/7.5/modules/iwgeom/h/IwGeomVec3.h'
p1365
(lp1366
I1
ag1347
asS'c:/marmalade/7.5/modules/iwgeom/h/IwGeomLegacy.h'
p1367
(lp1368
I1
ag1347
asS'c:/marmalade/7.5/modules/iwgeom/h/IwGeom.h'
p1369
(lp1370
I1
ag1347
asS'c:/marmalade/7.5/modules/iwgeom/h/IwGeomSQuat.h'
p1371
(lp1372
I1
ag1347
asS'c:/marmalade/7.5/modules/iwgeom/h/IwGeomFBBox.h'
p1373
(lp1374
I1
ag1347
asS'c:/marmalade/7.5/modules/iwgeom/h/IwGeomFMat.h'
p1375
(lp1376
I1
ag1347
asS'c:/marmalade/7.5/modules/iwgeom/h/IwGeomPlane.h'
p1377
(lp1378
I1
ag1347
asS'c:/marmalade/7.5/modules/iwgeom/h/IwGeomMat2D.h'
p1379
(lp1380
I1
ag1347
asS'c:/marmalade/7.5/modules/iwgeom/h/IwGeomFVec2.h'
p1381
(lp1382
I1
ag1347
asS'c:/marmalade/7.5/modules/iwgeom/h/IwGeomSVec4.h'
p1383
(lp1384
I1
ag1347
asS'c:/marmalade/7.5/modules/iwgeom/h/IwGeomVec4.h'
p1385
(lp1386
I1
ag1347
asS'c:/marmalade/7.5/modules/iwgeom/h/IwGeomCore.h'
p1387
(lp1388
I1
ag1347
asS'c:/marmalade/7.5/modules/iwgeom/h/IwGeomVec.h.tpl'
p1389
(lp1390
I1
ag1347
asS'c:/marmalade/7.5/modules/iwgeom/h/IwGeomVec.h'
p1391
(lp1392
I1
ag1347
asS'c:/marmalade/7.5/modules/iwgeom/h/IwGeomIntersect.h'
p1393
(lp1394
I1
ag1347
asS'c:/marmalade/7.5/modules/iwgeom/h/IwGeomFVec4.h'
p1395
(lp1396
I1
ag1347
asS'c:/marmalade/7.5/modules/iwgeom/h/IwGeomMat.h.tpl'
p1397
(lp1398
I1
ag1347
asS'c:/marmalade/7.5/modules/iwgeom/h/IwGeomMat2D.h.tpl'
p1399
(lp1400
I1
ag1347
asS'c:/marmalade/7.5/modules/iwgeom/h/IwGeomFMat2D.h'
p1401
(lp1402
I1
ag1347
asS'c:/marmalade/7.5/modules/iwgeom/h/IwGeomMenu.h'
p1403
(lp1404
I1
ag1347
asS'c:/marmalade/7.5/modules/iwgeom/h/IwGeomBBox.h'
p1405
(lp1406
I1
ag1347
asS'c:/marmalade/7.5/modules/iwgeom/h/IwGeomFSphere.h'
p1407
(lp1408
I1
ag1347
asS'c:/marmalade/7.5/modules/iwgeom/h/IwGeomFVec3.h'
p1409
(lp1410
I1
ag1347
asS'c:/marmalade/7.5/modules/iwgeom/h/IwGeomFPlane.h'
p1411
(lp1412
I1
ag1347
asS'c:/marmalade/7.5/modules/iwgeom/docs/iwgeom.config.txt'
p1413
(lp1414
I1
ag1347
asS'c:/marmalade/7.5/modules/iwgeom/h/IwGeomQuat.h'
p1415
(lp1416
I1
ag1347
asS'c:/marmalade/7.5/modules/iwgeom/h/IwGeomFIntersect.h'
p1417
(lp1418
I1
ag1347
assS'iwresmanager'
p1419
(dp1420
S'c:/marmalade/7.5/modules/iwresmanager/h/IwResHandlerITX.h'
p1421
(lp1422
I1
a(dp1423
asS'c:/marmalade/7.5/modules/iwresmanager/h/IwResSerialise.h'
p1424
(lp1425
I1
ag1423
asS'c:/marmalade/7.5/modules/iwresmanager/h/IwResManagerClass.h'
p1426
(lp1427
I1
ag1423
asS'c:/marmalade/7.5/modules/iwresmanager/h/IwResHandlerGROUP.h'
p1428
(lp1429
I1
ag1423
asS'c:/marmalade/7.5/modules/iwresmanager/h/IwResManager.h'
p1430
(lp1431
I1
ag1423
asS'c:/marmalade/7.5/modules/iwresmanager/iwresmanager.mkf'
p1432
(lp1433
I1
a(dp1434
asS'c:/marmalade/7.5/modules/iwresmanager/docs/iwresmanager.config.txt'
p1435
(lp1436
I1
ag1423
asS'c:/marmalade/7.5/modules/iwresmanager/h/IwResGroup.h'
p1437
(lp1438
I1
ag1423
asS'c:/marmalade/7.5/modules/iwresmanager/h/IwResHandler.h'
p1439
(lp1440
I1
ag1423
asS'c:/marmalade/7.5/modules/iwresmanager/h/IwResHandlerImage.h'
p1441
(lp1442
I1
ag1423
assS'iwgx'
p1443
(dp1444
S'c:/marmalade/7.5/modules/iwgx/h/IwDebugPrim.h'
p1445
(lp1446
I1
a(dp1447
asS'c:/marmalade/7.5/modules/iwgx/h/IwMatAnim.h'
p1448
(lp1449
I1
ag1447
asS'c:/marmalade/7.5/modules/iwgx/h/IwTexture.h'
p1450
(lp1451
I1
ag1447
asS'c:/marmalade/7.5/modules/iwgx/h/IwGxFuncTable.h'
p1452
(lp1453
I1
ag1447
asS'c:/marmalade/7.5/modules/iwgx/h/IwResHandlerMTL.h'
p1454
(lp1455
I1
ag1447
asS'c:/marmalade/7.5/modules/iwgx/h/IwGxPrint.h'
p1456
(lp1457
I1
ag1447
asS'c:/marmalade/7.5/modules/iwgx/h/IwGxStream.h'
p1458
(lp1459
I1
ag1447
asS'c:/marmalade/7.5/modules/iwgx/h/IwClip.h'
p1460
(lp1461
I1
ag1447
asS'c:/marmalade/7.5/modules/iwgx/h/IwGxSurface.h'
p1462
(lp1463
I1
ag1447
asS'c:/marmalade/7.5/modules/iwgx/h/IwGxError.h'
p1464
(lp1465
I1
ag1447
asS'c:/marmalade/7.5/modules/iwgx/h/IwGx.h'
p1466
(lp1467
I1
ag1447
asS'c:/marmalade/7.5/modules/iwgx/docs/iwgx_public.defines.txt'
p1468
(lp1469
I1
ag1447
asS'c:/marmalade/7.5/modules/iwgx/h/IwGxDebug.h'
p1470
(lp1471
I1
ag1447
asS'c:/marmalade/7.5/modules/iwgx/h/IwGxShaderTechnique.h'
p1472
(lp1473
I1
ag1447
asS'c:/marmalade/7.5/modules/iwgx/h/IwGxTransformSW.h'
p1474
(lp1475
I1
ag1447
asS'c:/marmalade/7.5/modules/iwgx/h/IwMaterial.h'
p1476
(lp1477
I1
ag1447
asS'c:/marmalade/7.5/modules/iwgx/h/IwGxMetrics.h'
p1478
(lp1479
I1
ag1447
asS'c:/marmalade/7.5/modules/iwgx/h/IwClip.inl'
p1480
(lp1481
I1
ag1447
asS'c:/marmalade/7.5/modules/iwgx/h/IwFColour.h'
p1482
(lp1483
I1
ag1447
asS'c:/marmalade/7.5/modules/iwgx/h/IwGxTypes.h'
p1484
(lp1485
I1
ag1447
asS'c:/marmalade/7.5/modules/iwgx/iwgx.mkf'
p1486
(lp1487
I1
a(dp1488
asS'c:/marmalade/7.5/modules/iwgx/docs/iwgx.config.txt'
p1489
(lp1490
I1
ag1447
asS'c:/marmalade/7.5/modules/iwgx/h/IwColour.h'
p1491
(lp1492
I1
ag1447
asS'c:/marmalade/7.5/modules/iwgx/h/IwGxState.h'
p1493
(lp1494
I1
ag1447
asS'c:/marmalade/7.5/modules/iwgx/h/IwTPage.h'
p1495
(lp1496
I1
ag1447
assS'iw2dscenegraphcore'
p1497
(dp1498
S'c:/marmalade/7.5/modules/iw2dscenegraphcore/iw2dscenegraphcore.mkf'
p1499
(lp1500
I1
a(dp1501
asS'c:/marmalade/7.5/modules/iw2dscenegraphcore/h/Iw2DSceneGraphCore.h'
p1502
(lp1503
I1
a(dp1504
asS'c:/marmalade/7.5/modules/iw2dscenegraphcore/source/Iw2DSceneGraphCore.cpp'
p1505
(lp1506
I1
ag1504
assS'iwutil'
p1507
(dp1508
S'c:/marmalade/7.5/modules/iwutil/h/IwSingleton.h'
p1509
(lp1510
I1
a(dp1511
asS'c:/marmalade/7.5/modules/iwutil/h/IwMath.h'
p1512
(lp1513
I1
ag1511
asS'c:/marmalade/7.5/modules/iwutil/h/IwBuffer.h'
p1514
(lp1515
I1
ag1511
asS'c:/marmalade/7.5/modules/iwutil/h/IwCore.h'
p1516
(lp1517
I1
ag1511
asS'c:/marmalade/7.5/modules/iwutil/h/IwDivide.h'
p1518
(lp1519
I1
ag1511
asS'c:/marmalade/7.5/modules/iwutil/h/IwMemory.h'
p1520
(lp1521
I1
ag1511
asS'c:/marmalade/7.5/modules/iwutil/h/IwImageHelper.h'
p1522
(lp1523
I1
ag1511
asS'c:/marmalade/7.5/modules/iwutil/h/IwManagedList.h'
p1524
(lp1525
I1
ag1511
asS'c:/marmalade/7.5/modules/iwutil/h/IwProfileMenu.h'
p1526
(lp1527
I1
ag1511
asS'c:/marmalade/7.5/modules/iwutil/h/IwClassFactory.h'
p1528
(lp1529
I1
ag1511
asS'c:/marmalade/7.5/modules/iwutil/h/IwDivTable.h'
p1530
(lp1531
I1
ag1511
asS'c:/marmalade/7.5/modules/iwutil/h/IwManaged.h'
p1532
(lp1533
I1
ag1511
asS'c:/marmalade/7.5/modules/iwutil/h/IwTextParseable.h'
p1534
(lp1535
I1
ag1511
asS'c:/marmalade/7.5/modules/iwutil/h/IwChar.h'
p1536
(lp1537
I1
ag1511
asS'c:/marmalade/7.5/modules/iwutil/h/IwRandom.h'
p1538
(lp1539
I1
ag1511
asS'c:/marmalade/7.5/modules/iwutil/h/IwDebug.h'
p1540
(lp1541
I1
ag1511
asS'c:/marmalade/7.5/modules/iwutil/h/IwUTF8.h'
p1542
(lp1543
I1
ag1511
asS'c:/marmalade/7.5/modules/iwutil/docs/iwutil.config.txt'
p1544
(lp1545
I1
ag1511
asS'c:/marmalade/7.5/modules/iwutil/h/IwAllocator.h'
p1546
(lp1547
I1
ag1511
asS'c:/marmalade/7.5/modules/iwutil/h/IwMemBucketHelpers.h'
p1548
(lp1549
I1
ag1511
asS'c:/marmalade/7.5/modules/iwutil/h/IwTextParserITX.h'
p1550
(lp1551
I1
ag1511
asS'c:/marmalade/7.5/modules/iwutil/h/IwKeymap.h'
p1552
(lp1553
I1
ag1511
asS'c:/marmalade/7.5/modules/iwutil/h/IwImage.h'
p1554
(lp1555
I1
ag1511
asS'c:/marmalade/7.5/modules/iwutil/h/IwOptimiseARM.h'
p1556
(lp1557
I1
ag1511
asS'c:/marmalade/7.5/modules/iwutil/h/IwMemBucket.h'
p1558
(lp1559
I1
ag1511
asS'c:/marmalade/7.5/modules/iwutil/h/IwOptimiseSize.h'
p1560
(lp1561
I1
ag1511
asS'c:/marmalade/7.5/modules/iwutil/h/IwRuntime.h'
p1562
(lp1563
I1
ag1511
asS'c:/marmalade/7.5/modules/iwutil/h/IwMemManagerDL.h'
p1564
(lp1565
I1
ag1511
asS'c:/marmalade/7.5/modules/iwutil/h/IwPath.h'
p1566
(lp1567
I1
ag1511
asS'c:/marmalade/7.5/modules/iwutil/h/IwOptimiseSpeed.h'
p1568
(lp1569
I1
ag1511
asS'c:/marmalade/7.5/modules/iwutil/h/IwList.h'
p1570
(lp1571
I1
ag1511
asS'c:/marmalade/7.5/modules/iwutil/h/IwAutoFile.h'
p1572
(lp1573
I1
ag1511
asS'c:/marmalade/7.5/modules/iwutil/h/IwVariableBitField.h'
p1574
(lp1575
I1
ag1511
asS'c:/marmalade/7.5/modules/iwutil/h/IwHashString.h'
p1576
(lp1577
I1
ag1511
asS'c:/marmalade/7.5/modules/iwutil/h/IwOptimiseThumb.h'
p1578
(lp1579
I1
ag1511
asS'c:/marmalade/7.5/modules/iwutil/iwutil.mkf'
p1580
(lp1581
I1
a(dp1582
asS'c:/marmalade/7.5/modules/iwutil/h/IwUtil.h'
p1583
(lp1584
I1
ag1511
asS'c:/marmalade/7.5/modules/iwutil/h/IwString.h'
p1585
(lp1586
I1
ag1511
asS'c:/marmalade/7.5/modules/iwutil/h/IwFile.h'
p1587
(lp1588
I1
ag1511
asS'c:/marmalade/7.5/modules/iwutil/h/IwUncopyable.h'
p1589
(lp1590
I1
ag1511
asS'c:/marmalade/7.5/modules/iwutil/h/IwTextParser.h'
p1591
(lp1592
I1
ag1511
asS'c:/marmalade/7.5/modules/iwutil/h/IwCopyingPtr.h'
p1593
(lp1594
I1
ag1511
asS'c:/marmalade/7.5/modules/iwutil/h/IwEvent.h'
p1595
(lp1596
I1
ag1511
asS'c:/marmalade/7.5/modules/iwutil/h/IwFibre.h'
p1597
(lp1598
I1
ag1511
asS'c:/marmalade/7.5/modules/iwutil/h/IwArray.h'
p1599
(lp1600
I1
ag1511
asS'c:/marmalade/7.5/modules/iwutil/h/IwMenu.h'
p1601
(lp1602
I1
ag1511
asS'c:/marmalade/7.5/modules/iwutil/h/IwTypes.h'
p1603
(lp1604
I1
ag1511
asS'c:/marmalade/7.5/modules/iwutil/h/IwUtilInitTerm.h'
p1605
(lp1606
I1
ag1511
asS'c:/marmalade/7.5/modules/iwutil/h/IwResource.h'
p1607
(lp1608
I1
ag1511
asS'c:/marmalade/7.5/modules/iwutil/h/IwSerialise.h'
p1609
(lp1610
I1
ag1511
asssS'(zlib)'
p1611
(dp1612
g1082
(dp1613
S'c:/marmalade/7.5/modules/third_party/zlib/h/zconf.h'
p1614
(lp1615
I1
a(dp1616
asS'c:/marmalade/7.5/modules/third_party/zlib/h/zlib.h'
p1617
(lp1618
I1
ag1616
assS'c:/marmalade/7.5/modules/third_party/zlib/zlib.mkf'
p1619
(lp1620
I1
a(dp1621
assS'(iwtween)'
p1622
(dp1623
S'c:/marmalade/7.5/modules/iwtween/h/IwTween.h'
p1624
(lp1625
I1
a(dp1626
asS'c:/marmalade/7.5/modules/iwtween/source/IwTween.cpp'
p1627
(lp1628
I1
ag1626
asS'c:/marmalade/7.5/modules/iwtween/iwtween.mkf'
p1629
(lp1630
I1
a(dp1631
assS'(s3e-default)'
p1632
(dp1633
S'c:/marmalade/7.5/s3e/s3e-default.mkf'
p1634
(lp1635
I1
a(dp1636
asssS'files'
p1637
(dp1638
S'IwGxFontPreparedData.h'
p1639
g329
(cmkb_main
File
p1640
g331
Ntp1641
Rp1642
(dp1643
S'flags'
p1644
g1325
sS'group'
p1645
(lp1646
S"'Marmalade Studio'"
p1647
ag1321
asg355
g1337
sbsS'iterator'
p1648
g329
(g1640
g331
Ntp1649
Rp1650
(dp1651
g1644
(dp1652
sg1645
(lp1653
S"'Marmalade System (S3E)'"
p1654
aS'stdc headers'
p1655
aS'c++'
p1656
asg355
S'c:/marmalade/7.5/s3e/h/std/c++/iterator'
p1657
sbsS'IwGL.h'
p1658
g329
(g1640
g331
Ntp1659
Rp1660
(dp1661
g1644
g1304
sg1645
(lp1662
S"'Marmalade Studio'"
p1663
ag1297
asg355
g1302
sbsS's3e.h'
p1664
g329
(g1640
g331
Ntp1665
Rp1666
(dp1667
g1644
g1652
sg1645
(lp1668
g1654
asg355
S'c:/marmalade/7.5/s3e/h/s3e.h'
p1669
sbsS'errno.h'
p1670
g329
(g1640
g331
Ntp1671
Rp1672
(dp1673
g1644
g1652
sg1645
(lp1674
g1654
aS'stdc headers'
p1675
asg355
S'c:/marmalade/7.5/s3e/h/std/errno.h'
p1676
sbsS'IwSingleton.h'
p1677
g329
(g1640
g331
Ntp1678
Rp1679
(dp1680
g1644
g1511
sg1645
(lp1681
S"'Marmalade Studio'"
p1682
ag1507
asg355
g1509
sbsS'dlfcn.h'
p1683
g329
(g1640
g331
Ntp1684
Rp1685
(dp1686
g1644
g1652
sg1645
g1674
sg355
S'c:/marmalade/7.5/s3e/h/std/dlfcn.h'
p1687
sbsS'IwSoundWAV.cpp'
p1688
g329
(g1640
g331
Ntp1689
Rp1690
(dp1691
g1644
g1141
sg1645
(lp1692
g1137
asg355
g1164
sbsS'sched.h'
p1693
g329
(g1640
g331
Ntp1694
Rp1695
(dp1696
g1644
g1652
sg1645
g1674
sg355
S'c:/marmalade/7.5/s3e/h/std/sched.h'
p1697
sbsS'IwSoundPCM.h'
p1698
g329
(g1640
g331
Ntp1699
Rp1700
(dp1701
g1644
g1141
sg1645
g1692
sg355
g1182
sbsS'IwGeomFMat2D.h'
p1702
g329
(g1640
g331
Ntp1703
Rp1704
(dp1705
g1644
g1347
sg1645
(lp1706
S"'Marmalade Studio'"
p1707
ag1343
asg355
g1401
sbsS'cassert'
p1708
g329
(g1640
g331
Ntp1709
Rp1710
(dp1711
g1644
g1652
sg1645
g1653
sg355
S'c:/marmalade/7.5/s3e/h/std/c++/cassert'
p1712
sbsS'grp.h'
p1713
g329
(g1640
g331
Ntp1714
Rp1715
(dp1716
g1644
g1652
sg1645
g1674
sg355
S'c:/marmalade/7.5/s3e/h/std/grp.h'
p1717
sbsS'list'
p1718
g329
(g1640
g331
Ntp1719
Rp1720
(dp1721
g1644
g1652
sg1645
g1653
sg355
S'c:/marmalade/7.5/s3e/h/std/c++/list'
p1722
sbsS'IwSoundSpec.cpp'
p1723
g329
(g1640
g331
Ntp1724
Rp1725
(dp1726
g1644
g1141
sg1645
g1692
sg355
g1170
sbsS'IwGeomMat.h.tpl'
p1727
g329
(g1640
g331
Ntp1728
Rp1729
(dp1730
g1644
g1347
sg1645
g1706
sg355
g1397
sbsS'istream'
p1731
g329
(g1640
g331
Ntp1732
Rp1733
(dp1734
g1644
g1652
sg1645
g1653
sg355
S'c:/marmalade/7.5/s3e/h/std/c++/istream'
p1735
sbsS'jpeglib.h'
p1736
g329
(g1640
g331
Ntp1737
Rp1738
(dp1739
g1644
g1100
sg1645
(lp1740
g1092
ag1082
asg355
g1125
sbsS'iw2d_public.defines.txt'
p1741
g329
(g1640
g331
Ntp1742
Rp1743
(dp1744
g1644
g1313
sg1645
(lp1745
S"'Marmalade Studio'"
p1746
ag1309
asg355
g1311
sbsS'iostream.h'
p1747
g329
(g1640
g331
Ntp1748
Rp1749
(dp1750
g1644
g1652
sg1645
g1653
sg355
S'c:/marmalade/7.5/s3e/h/std/c++/iostream.h'
p1751
sbsS'IwSoundADPCM.h'
p1752
g329
(g1640
g331
Ntp1753
Rp1754
(dp1755
g1644
g1141
sg1645
g1692
sg355
g1142
sbsS'string'
p1756
g329
(g1640
g331
Ntp1757
Rp1758
(dp1759
g1644
g1652
sg1645
g1653
sg355
S'c:/marmalade/7.5/s3e/h/std/c++/string'
p1760
sbsS'IwMemory.h'
p1761
g329
(g1640
g331
Ntp1762
Rp1763
(dp1764
g1644
g1511
sg1645
g1681
sg355
g1520
sbsS'IwGeomPlane.h'
p1765
g329
(g1640
g331
Ntp1766
Rp1767
(dp1768
g1644
g1347
sg1645
g1706
sg355
g1377
sbsS'iw2d.config.txt'
p1769
g329
(g1640
g331
Ntp1770
Rp1771
(dp1772
g1644
g1313
sg1645
g1745
sg355
g1314
sbsS'iomanip'
p1773
g329
(g1640
g331
Ntp1774
Rp1775
(dp1776
g1644
g1652
sg1645
g1653
sg355
S'c:/marmalade/7.5/s3e/h/std/c++/iomanip'
p1777
sbsS'iwgeom.mkf'
p1778
g329
(g1640
g331
Ntp1779
Rp1780
(dp1781
g1644
g1354
sg1645
g1706
sg355
g1352
sbsS'IwGxError.h'
p1782
g329
(g1640
g331
Ntp1783
Rp1784
(dp1785
g1644
g1447
sg1645
(lp1786
S"'Marmalade Studio'"
p1787
ag1443
asg355
g1464
sbsS'IwGeom.h'
p1788
g329
(g1640
g331
Ntp1789
Rp1790
(dp1791
g1644
g1347
sg1645
g1706
sg355
g1369
sbsS'scene.cpp'
p1792
g329
(g1640
g331
Ntp1793
Rp1794
(dp1795
g1644
g1198
sg1645
(lp1796
g1194
asg355
g1209
sbsS'IwGeomVec4.h'
p1797
g329
(g1640
g331
Ntp1798
Rp1799
(dp1800
g1644
g1347
sg1645
g1706
sg355
g1385
sbsS'dir.h'
p1801
g329
(g1640
g331
Ntp1802
Rp1803
(dp1804
g1644
g1652
sg1645
(lp1805
g1654
aS'stdc headers'
p1806
aS'sys'
p1807
asg355
S'c:/marmalade/7.5/s3e/h/std/sys/dir.h'
p1808
sbsS'locale.h'
p1809
g329
(g1640
g331
Ntp1810
Rp1811
(dp1812
g1644
g1652
sg1645
g1674
sg355
S'c:/marmalade/7.5/s3e/h/std/locale.h'
p1813
sbsS'vector'
p1814
g329
(g1640
g331
Ntp1815
Rp1816
(dp1817
g1644
g1652
sg1645
g1653
sg355
S'c:/marmalade/7.5/s3e/h/std/c++/vector'
p1818
sbsS'IwManaged.h'
p1819
g329
(g1640
g331
Ntp1820
Rp1821
(dp1822
g1644
g1511
sg1645
g1681
sg355
g1532
sbsS's3eCompass.h'
p1823
g329
(g1640
g331
Ntp1824
Rp1825
(dp1826
g1644
g1652
sg1645
g1668
sg355
S'c:/marmalade/7.5/s3e/h/s3eCompass.h'
p1827
sbsS'cderror.h'
p1828
g329
(g1640
g331
Ntp1829
Rp1830
(dp1831
g1644
g1100
sg1645
g1740
sg355
g1103
sbsS'climits'
p1832
g329
(g1640
g331
Ntp1833
Rp1834
(dp1835
g1644
g1652
sg1645
g1653
sg355
S'c:/marmalade/7.5/s3e/h/std/c++/climits'
p1836
sbsS's3eVibra.h'
p1837
g329
(g1640
g331
Ntp1838
Rp1839
(dp1840
g1644
g1652
sg1645
g1668
sg355
S'c:/marmalade/7.5/s3e/h/s3eVibra.h'
p1841
sbsS'jversion.h'
p1842
g329
(g1640
g331
Ntp1843
Rp1844
(dp1845
g1644
g1100
sg1645
g1740
sg355
g1121
sbsS'fnmatch.h'
p1846
g329
(g1640
g331
Ntp1847
Rp1848
(dp1849
g1644
g1652
sg1645
g1674
sg355
S'c:/marmalade/7.5/s3e/h/std/fnmatch.h'
p1850
sbsS'IwGxState.h'
p1851
g329
(g1640
g331
Ntp1852
Rp1853
(dp1854
g1644
g1447
sg1645
g1786
sg355
g1493
sbsS'rope'
p1855
g329
(g1640
g331
Ntp1856
Rp1857
(dp1858
g1644
g1652
sg1645
g1653
sg355
S'c:/marmalade/7.5/s3e/h/std/c++/rope'
p1859
sbsS's3eAudio.h'
p1860
g329
(g1640
g331
Ntp1861
Rp1862
(dp1863
g1644
g1652
sg1645
g1668
sg355
S'c:/marmalade/7.5/s3e/h/s3eAudio.h'
p1864
sbsS's3eSurface.h'
p1865
g329
(g1640
g331
Ntp1866
Rp1867
(dp1868
g1644
g1652
sg1645
g1668
sg355
S'c:/marmalade/7.5/s3e/h/s3eSurface.h'
p1869
sbsS'new'
p1870
g329
(g1640
g331
Ntp1871
Rp1872
(dp1873
g1644
g1652
sg1645
g1653
sg355
S'c:/marmalade/7.5/s3e/h/std/c++/new'
p1874
sbsS's3eWindow.h'
p1875
g329
(g1640
g331
Ntp1876
Rp1877
(dp1878
g1644
g1652
sg1645
(lp1879
g1654
aS'Extensions'
p1880
asg355
S'c:/marmalade/7.5/s3e/h/ext/s3eWindow.h'
p1881
sbsS'IwBuffer.h'
p1882
g329
(g1640
g331
Ntp1883
Rp1884
(dp1885
g1644
g1511
sg1645
g1681
sg355
g1514
sbsS'stdio_streambuf'
p1886
g329
(g1640
g331
Ntp1887
Rp1888
(dp1889
g1644
g1652
sg1645
g1653
sg355
S'c:/marmalade/7.5/s3e/h/std/c++/stdio_streambuf'
p1890
sbsS'IwGeomQuat.h.tpl'
p1891
g329
(g1640
g331
Ntp1892
Rp1893
(dp1894
g1644
g1347
sg1645
g1706
sg355
g1359
sbsS's3eOSExec.h'
p1895
g329
(g1640
g331
Ntp1896
Rp1897
(dp1898
g1644
g1652
sg1645
g1879
sg355
S'c:/marmalade/7.5/s3e/h/ext/s3eOSExec.h'
p1899
sbsS'IwGxTransformSW.h'
p1900
g329
(g1640
g331
Ntp1901
Rp1902
(dp1903
g1644
g1447
sg1645
g1786
sg355
g1474
sbsS'unistd.h'
p1904
g329
(g1640
g331
Ntp1905
Rp1906
(dp1907
g1644
g1652
sg1645
g1674
sg355
S'c:/marmalade/7.5/s3e/h/std/unistd.h'
p1908
sbsS'iwgxfont.config.txt'
p1909
g329
(g1640
g331
Ntp1910
Rp1911
(dp1912
g1644
g1325
sg1645
g1646
sg355
g1328
sbsS'gl2platform.h'
p1913
g329
(g1640
g331
Ntp1914
Rp1915
(dp1916
g1644
g1652
sg1645
(lp1917
g1654
aS'GL'
p1918
aS'GLES 2.0'
p1919
asg355
S'c:/marmalade/7.5/s3e/h/GLES2/gl2platform.h'
p1920
sbsS'IwResManagerClass.h'
p1921
g329
(g1640
g331
Ntp1922
Rp1923
(dp1924
g1644
g1423
sg1645
(lp1925
g1283
ag1419
asg355
g1426
sbsS'queue'
p1926
g329
(g1640
g331
Ntp1927
Rp1928
(dp1929
g1644
g1652
sg1645
g1653
sg355
S'c:/marmalade/7.5/s3e/h/std/c++/queue'
p1930
sbsS'time_1.h'
p1931
g329
(g1640
g331
Ntp1932
Rp1933
(dp1934
g1644
g1652
sg1645
g1805
sg355
S'c:/marmalade/7.5/s3e/h/std/sys/time.h'
p1935
sbsS'Iw2D.h'
p1936
g329
(g1640
g331
Ntp1937
Rp1938
(dp1939
g1644
g1313
sg1645
g1745
sg355
g1316
sbsS'IwGeomVec2.h'
p1940
g329
(g1640
g331
Ntp1941
Rp1942
(dp1943
g1644
g1347
sg1645
g1706
sg355
g1361
sbsS'sendfile.h'
p1944
g329
(g1640
g331
Ntp1945
Rp1946
(dp1947
g1644
g1652
sg1645
g1805
sg355
S'c:/marmalade/7.5/s3e/h/std/sys/sendfile.h'
p1948
sbsS'malloc.h'
p1949
g329
(g1640
g331
Ntp1950
Rp1951
(dp1952
g1644
g1652
sg1645
g1674
sg355
S'c:/marmalade/7.5/s3e/h/std/malloc.h'
p1953
sbsS'stdarg.h'
p1954
g329
(g1640
g331
Ntp1955
Rp1956
(dp1957
g1644
g1652
sg1645
g1674
sg355
S'c:/marmalade/7.5/s3e/h/std/stdarg.h'
p1958
sbsS'IwGeomCore.h'
p1959
g329
(g1640
g331
Ntp1960
Rp1961
(dp1962
g1644
g1347
sg1645
g1706
sg355
g1387
sbsS'Iw2DSceneGraph.h'
p1963
g329
(g1640
g331
Ntp1964
Rp1965
(dp1966
g1644
g1289
sg1645
(lp1967
S"'Marmalade Studio'"
p1968
ag1285
asg355
g1292
sbsS'endian.h'
p1969
g329
(g1640
g331
Ntp1970
Rp1971
(dp1972
g1644
g1652
sg1645
g1674
sg355
S'c:/marmalade/7.5/s3e/h/std/endian.h'
p1973
sbsS'gl3ext.h'
p1974
g329
(g1640
g331
Ntp1975
Rp1976
(dp1977
g1644
g1652
sg1645
(lp1978
g1654
aS'GL'
p1979
aS'GLES 3.0'
p1980
asg355
S'c:/marmalade/7.5/s3e/h/GLES3/gl3ext.h'
p1981
sbsS'glob.h'
p1982
g329
(g1640
g331
Ntp1983
Rp1984
(dp1985
g1644
g1652
sg1645
g1674
sg355
S'c:/marmalade/7.5/s3e/h/std/glob.h'
p1986
sbsS'fstream'
p1987
g329
(g1640
g331
Ntp1988
Rp1989
(dp1990
g1644
g1652
sg1645
g1653
sg355
S'c:/marmalade/7.5/s3e/h/std/c++/fstream'
p1991
sbsS's3eCamera.h'
p1992
g329
(g1640
g331
Ntp1993
Rp1994
(dp1995
g1644
g1652
sg1645
g1668
sg355
S'c:/marmalade/7.5/s3e/h/s3eCamera.h'
p1996
sbsS'jconfig.h'
p1997
g329
(g1640
g331
Ntp1998
Rp1999
(dp2000
g1644
g1100
sg1645
g1740
sg355
g1123
sbsS'memory'
p2001
g329
(g1640
g331
Ntp2002
Rp2003
(dp2004
g1644
g1652
sg1645
g1653
sg355
S'c:/marmalade/7.5/s3e/h/std/c++/memory'
p2005
sbsS'egl.h'
p2006
g329
(g1640
g331
Ntp2007
Rp2008
(dp2009
g1644
g1652
sg1645
(lp2010
g1654
aS'GL'
p2011
aS'EGL'
p2012
asg355
S'c:/marmalade/7.5/s3e/h/EGL/egl.h'
p2013
sbsS'egl_1.h'
p2014
g329
(g1640
g331
Ntp2015
Rp2016
(dp2017
g1644
g1652
sg1645
(lp2018
g1654
aS'GL'
p2019
aS'GLES 1.x'
p2020
asg355
S'c:/marmalade/7.5/s3e/h/GLES/egl.h'
p2021
sbsS'IwMemManagerDL.h'
p2022
g329
(g1640
g331
Ntp2023
Rp2024
(dp2025
g1644
g1511
sg1645
g1681
sg355
g1564
sbsS'deque'
p2026
g329
(g1640
g331
Ntp2027
Rp2028
(dp2029
g1644
g1652
sg1645
g1653
sg355
S'c:/marmalade/7.5/s3e/h/std/c++/deque'
p2030
sbsS'IwString.h'
p2031
g329
(g1640
g331
Ntp2032
Rp2033
(dp2034
g1644
g1511
sg1645
g1681
sg355
g1585
sbsS'GameScene.h'
p2035
g329
(g1640
g331
Ntp2036
Rp2037
(dp2038
g1644
g1198
sg1645
g1796
sg355
g1265
sbsS'cwchar'
p2039
g329
(g1640
g331
Ntp2040
Rp2041
(dp2042
g1644
g1652
sg1645
g1653
sg355
S'c:/marmalade/7.5/s3e/h/std/c++/cwchar'
p2043
sbsS'iwutil.mkf'
p2044
g329
(g1640
g331
Ntp2045
Rp2046
(dp2047
g1644
g1582
sg1645
g1681
sg355
g1580
sbsS'csignal'
p2048
g329
(g1640
g331
Ntp2049
Rp2050
(dp2051
g1644
g1652
sg1645
g1653
sg355
S'c:/marmalade/7.5/s3e/h/std/c++/csignal'
p2052
sbsS'pthread_types.h'
p2053
g329
(g1640
g331
Ntp2054
Rp2055
(dp2056
g1644
g1652
sg1645
g1674
sg355
S'c:/marmalade/7.5/s3e/h/std/pthread_types.h'
p2057
sbsS'Entity.cpp'
p2058
g329
(g1640
g331
Ntp2059
Rp2060
(dp2061
g1644
g1198
sg1645
g1796
sg355
g1235
sbsS'pthread_alloc'
p2062
g329
(g1640
g331
Ntp2063
Rp2064
(dp2065
g1644
g1652
sg1645
g1653
sg355
S'c:/marmalade/7.5/s3e/h/std/c++/pthread_alloc'
p2066
sbsS'getopt.h'
p2067
g329
(g1640
g331
Ntp2068
Rp2069
(dp2070
g1644
g1652
sg1645
g1674
sg355
S'c:/marmalade/7.5/s3e/h/std/getopt.h'
p2071
sbsS'IwOptimiseARM.h'
p2072
g329
(g1640
g331
Ntp2073
Rp2074
(dp2075
g1644
g1511
sg1645
g1681
sg355
g1556
sbsS'times.h'
p2076
g329
(g1640
g331
Ntp2077
Rp2078
(dp2079
g1644
g1652
sg1645
g1805
sg355
S'c:/marmalade/7.5/s3e/h/std/sys/times.h'
p2080
sbsS'IwGeomFSphere.h'
p2081
g329
(g1640
g331
Ntp2082
Rp2083
(dp2084
g1644
g1347
sg1645
g1706
sg355
g1407
sbsS'functional'
p2085
g329
(g1640
g331
Ntp2086
Rp2087
(dp2088
g1644
g1652
sg1645
g1653
sg355
S'c:/marmalade/7.5/s3e/h/std/c++/functional'
p2089
sbsS'IwTypes.h'
p2090
g329
(g1640
g331
Ntp2091
Rp2092
(dp2093
g1644
g1511
sg1645
g1681
sg355
g1603
sbsS'IwGxMetrics.h'
p2094
g329
(g1640
g331
Ntp2095
Rp2096
(dp2097
g1644
g1447
sg1645
g1786
sg355
g1478
sbsS'audio.cpp'
p2098
g329
(g1640
g331
Ntp2099
Rp2100
(dp2101
g1644
g1198
sg1645
g1796
sg355
g1261
sbsS's3eCompression.h'
p2102
g329
(g1640
g331
Ntp2103
Rp2104
(dp2105
g1644
g1652
sg1645
g1668
sg355
S'c:/marmalade/7.5/s3e/h/s3eCompression.h'
p2106
sbsS'langinfo.h'
p2107
g329
(g1640
g331
Ntp2108
Rp2109
(dp2110
g1644
g1652
sg1645
g1674
sg355
S'c:/marmalade/7.5/s3e/h/std/langinfo.h'
p2111
sbsS's3edebugHeap.h'
p2112
g329
(g1640
g331
Ntp2113
Rp2114
(dp2115
g1644
g1652
sg1645
g1879
sg355
S'c:/marmalade/7.5/s3e/h/ext/s3edebugHeap.h'
p2116
sbsS'AirplayVersion.h'
p2117
g329
(g1640
g331
Ntp2118
Rp2119
(dp2120
g1644
g1652
sg1645
g1668
sg355
S'c:/marmalade/7.5/s3e/h/AirplayVersion.h'
p2121
sbsS'gl2extimg.h'
p2122
g329
(g1640
g331
Ntp2123
Rp2124
(dp2125
g1644
g1652
sg1645
g1917
sg355
S'c:/marmalade/7.5/s3e/h/GLES2/gl2extimg.h'
p2126
sbsS'IwGeomSqrt.h'
p2127
g329
(g1640
g331
Ntp2128
Rp2129
(dp2130
g1644
g1347
sg1645
g1706
sg355
g1355
sbsS'tiniconv_int.h'
p2131
g329
(g1640
g331
Ntp2132
Rp2133
(dp2134
g1644
g1134
sg1645
(lp2135
g1127
asg355
g1132
sbsS'syslog.h'
p2136
g329
(g1640
g331
Ntp2137
Rp2138
(dp2139
g1644
g1652
sg1645
g1674
sg355
S'c:/marmalade/7.5/s3e/h/std/syslog.h'
p2140
sbsS'IwGxFontTypes.h'
p2141
g329
(g1640
g331
Ntp2142
Rp2143
(dp2144
g1644
g1325
sg1645
g1646
sg355
g1326
sbsS'IwGeomFIntersect.h'
p2145
g329
(g1640
g331
Ntp2146
Rp2147
(dp2148
g1644
g1347
sg1645
g1706
sg355
g1417
sbsS'hash_map'
p2149
g329
(g1640
g331
Ntp2150
Rp2151
(dp2152
g1644
g1652
sg1645
g1653
sg355
S'c:/marmalade/7.5/s3e/h/std/c++/hash_map'
p2153
sbsS's3e.mkf'
p2154
g329
(g1640
g331
Ntp2155
Rp2156
(dp2157
g1644
(dp2158
sg1645
g1668
sg355
S'c:/marmalade/7.5/s3e/s3e.mkf'
p2159
sbsS'IwGeomMat2D.h.tpl'
p2160
g329
(g1640
g331
Ntp2161
Rp2162
(dp2163
g1644
g1347
sg1645
g1706
sg355
g1399
sbsS's3eOSReadString.h'
p2164
g329
(g1640
g331
Ntp2165
Rp2166
(dp2167
g1644
g1652
sg1645
g1879
sg355
S'c:/marmalade/7.5/s3e/h/ext/s3eOSReadString.h'
p2168
sbsS'IwSound.h'
p2169
g329
(g1640
g331
Ntp2170
Rp2171
(dp2172
g1644
g1141
sg1645
g1692
sg355
g1176
sbsS'map'
p2173
g329
(g1640
g331
Ntp2174
Rp2175
(dp2176
g1644
g1652
sg1645
g1653
sg355
S'c:/marmalade/7.5/s3e/h/std/c++/map'
p2177
sbsS'iwtween.mkf'
p2178
g329
(g1640
g331
Ntp2179
Rp2180
(dp2181
g1644
g1631
sg1645
(lp2182
g1622
asg355
g1629
sbsS'IwOptimiseSpeed.h'
p2183
g329
(g1640
g331
Ntp2184
Rp2185
(dp2186
g1644
g1511
sg1645
g1681
sg355
g1568
sbsS'ostream'
p2187
g329
(g1640
g331
Ntp2188
Rp2189
(dp2190
g1644
g1652
sg1645
g1653
sg355
S'c:/marmalade/7.5/s3e/h/std/c++/ostream'
p2191
sbsS'msl_string.h'
p2192
g329
(g1640
g331
Ntp2193
Rp2194
(dp2195
g1644
g1652
sg1645
g1653
sg355
S'c:/marmalade/7.5/s3e/h/std/c++/msl_string.h'
p2196
sbsS'select.h'
p2197
g329
(g1640
g331
Ntp2198
Rp2199
(dp2200
g1644
g1652
sg1645
g1805
sg355
S'c:/marmalade/7.5/s3e/h/std/sys/select.h'
p2201
sbsS'hero.cpp'
p2202
g329
(g1640
g331
Ntp2203
Rp2204
(dp2205
g1644
g1198
sg1645
g1796
sg355
g1263
sbsS'zlib.mkf'
p2206
g329
(g1640
g331
Ntp2207
Rp2208
(dp2209
g1644
g1621
sg1645
(lp2210
g1611
asg355
g1619
sbsS'signal.h'
p2211
g329
(g1640
g331
Ntp2212
Rp2213
(dp2214
g1644
g1652
sg1645
g1674
sg355
S'c:/marmalade/7.5/s3e/h/std/signal.h'
p2215
sbsS'sigcontext.h'
p2216
g329
(g1640
g331
Ntp2217
Rp2218
(dp2219
g1644
g1652
sg1645
g1674
sg355
S'c:/marmalade/7.5/s3e/h/std/sigcontext.h'
p2220
sbsS'libpng.mkf'
p2221
g329
(g1640
g331
Ntp2222
Rp2223
(dp2224
g1644
g1091
sg1645
(lp2225
g1080
asg355
g1089
sbsS's3eClipboard.h'
p2226
g329
(g1640
g331
Ntp2227
Rp2228
(dp2229
g1644
g1652
sg1645
g1668
sg355
S'c:/marmalade/7.5/s3e/h/s3eClipboard.h'
p2230
sbsS'IwGxFuncTable.h'
p2231
g329
(g1640
g331
Ntp2232
Rp2233
(dp2234
g1644
g1447
sg1645
g1786
sg355
g1452
sbsS'IwResHandlerGROUP.h'
p2235
g329
(g1640
g331
Ntp2236
Rp2237
(dp2238
g1644
g1423
sg1645
g1925
sg355
g1428
sbsS's3eDebug.h'
p2239
g329
(g1640
g331
Ntp2240
Rp2241
(dp2242
g1644
g1652
sg1645
g1668
sg355
S'c:/marmalade/7.5/s3e/h/s3eDebug.h'
p2243
sbsS'socket.h'
p2244
g329
(g1640
g331
Ntp2245
Rp2246
(dp2247
g1644
g1652
sg1645
g1805
sg355
S'c:/marmalade/7.5/s3e/h/std/sys/socket.h'
p2248
sbsS'glext.h'
p2249
g329
(g1640
g331
Ntp2250
Rp2251
(dp2252
g1644
g1652
sg1645
g2018
sg355
S'c:/marmalade/7.5/s3e/h/GLES/glext.h'
p2253
sbsS'typeinfo.h'
p2254
g329
(g1640
g331
Ntp2255
Rp2256
(dp2257
g1644
g1652
sg1645
g1653
sg355
S'c:/marmalade/7.5/s3e/h/std/c++/typeinfo.h'
p2258
sbsS'typeinfo'
p2259
g329
(g1640
g331
Ntp2260
Rp2261
(dp2262
g1644
g1652
sg1645
g1653
sg355
S'c:/marmalade/7.5/s3e/h/std/c++/typeinfo'
p2263
sbsS'iwsound.config.txt'
p2264
g329
(g1640
g331
Ntp2265
Rp2266
(dp2267
g1644
g1141
sg1645
(lp2268
g1137
ag1148
asg355
g1150
sbsS'fstream.h'
p2269
g329
(g1640
g331
Ntp2270
Rp2271
(dp2272
g1644
g1652
sg1645
g1653
sg355
S'c:/marmalade/7.5/s3e/h/std/c++/fstream.h'
p2273
sbsS'IwGeomMat.h'
p2274
g329
(g1640
g331
Ntp2275
Rp2276
(dp2277
g1644
g1347
sg1645
g1706
sg355
g1363
sbsS's3ePointer.h'
p2278
g329
(g1640
g331
Ntp2279
Rp2280
(dp2281
g1644
g1652
sg1645
g1668
sg355
S'c:/marmalade/7.5/s3e/h/s3ePointer.h'
p2282
sbsS'IwMemBucket.h'
p2283
g329
(g1640
g331
Ntp2284
Rp2285
(dp2286
g1644
g1511
sg1645
g1681
sg355
g1558
sbsS'PVRTexTool.h'
p2287
g329
(g1640
g331
Ntp2288
Rp2289
(dp2290
g1644
g1275
sg1645
(lp2291
g1267
ag1269
asg355
g1278
sbsS's3eGL.h'
p2292
g329
(g1640
g331
Ntp2293
Rp2294
(dp2295
g1644
g1652
sg1645
g1668
sg355
S'c:/marmalade/7.5/s3e/h/s3eGL.h'
p2296
sbsS'IwGeomFVec2.h'
p2297
g329
(g1640
g331
Ntp2298
Rp2299
(dp2300
g1644
g1347
sg1645
g1706
sg355
g1381
sbsS'IwGeomSVec4.h'
p2301
g329
(g1640
g331
Ntp2302
Rp2303
(dp2304
g1644
g1347
sg1645
g1706
sg355
g1383
sbsS'BackgroundEntity.cpp'
p2305
g329
(g1640
g331
Ntp2306
Rp2307
(dp2308
g1644
g1198
sg1645
g1796
sg355
g1251
sbsS'poll.h'
p2309
g329
(g1640
g331
Ntp2310
Rp2311
(dp2312
g1644
g1652
sg1645
g1674
sg355
S'c:/marmalade/7.5/s3e/h/std/poll.h'
p2313
sbsS'IwMatAnim.h'
p2314
g329
(g1640
g331
Ntp2315
Rp2316
(dp2317
g1644
g1447
sg1645
g1786
sg355
g1448
sbsS'Life.cpp'
p2318
g329
(g1640
g331
Ntp2319
Rp2320
(dp2321
g1644
g1198
sg1645
g1796
sg355
g1253
sbsS'IwGeomFVec4.h'
p2322
g329
(g1640
g331
Ntp2323
Rp2324
(dp2325
g1644
g1347
sg1645
g1706
sg355
g1395
sbsS'IwGx.h'
p2326
g329
(g1640
g331
Ntp2327
Rp2328
(dp2329
g1644
g1447
sg1645
g1786
sg355
g1466
sbsS'valarray'
p2330
g329
(g1640
g331
Ntp2331
Rp2332
(dp2333
g1644
g1652
sg1645
g1653
sg355
S'c:/marmalade/7.5/s3e/h/std/c++/valarray'
p2334
sbsS'iosfwd'
p2335
g329
(g1640
g331
Ntp2336
Rp2337
(dp2338
g1644
g1652
sg1645
g1653
sg355
S'c:/marmalade/7.5/s3e/h/std/c++/iosfwd'
p2339
sbsS'gl2.h'
p2340
g329
(g1640
g331
Ntp2341
Rp2342
(dp2343
g1644
g1652
sg1645
g1917
sg355
S'c:/marmalade/7.5/s3e/h/GLES2/gl2.h'
p2344
sbsS'jpegint.h'
p2345
g329
(g1640
g331
Ntp2346
Rp2347
(dp2348
g1644
g1100
sg1645
g1740
sg355
g1115
sbsS'stdiostream.h'
p2349
g329
(g1640
g331
Ntp2350
Rp2351
(dp2352
g1644
g1652
sg1645
g1653
sg355
S'c:/marmalade/7.5/s3e/h/std/c++/stdiostream.h'
p2353
sbsS'mem.h'
p2354
g329
(g1640
g331
Ntp2355
Rp2356
(dp2357
g1644
g1652
sg1645
g1653
sg355
S'c:/marmalade/7.5/s3e/h/std/c++/mem.h'
p2358
sbsS'jerror.h'
p2359
g329
(g1640
g331
Ntp2360
Rp2361
(dp2362
g1644
g1100
sg1645
g1740
sg355
g1098
sbsS'zconf.h'
p2363
g329
(g1640
g331
Ntp2364
Rp2365
(dp2366
g1644
g1616
sg1645
(lp2367
g1611
ag1082
asg355
g1614
sbsS's3e.config.txt'
p2368
g329
(g1640
g331
Ntp2369
Rp2370
(dp2371
g1644
g1652
sg1645
g1668
sg355
S'c:/marmalade/7.5/s3e/s3e.config.txt'
p2372
sbsS'numeric'
p2373
g329
(g1640
g331
Ntp2374
Rp2375
(dp2376
g1644
g1652
sg1645
g1653
sg355
S'c:/marmalade/7.5/s3e/h/std/c++/numeric'
p2377
sbsS'utime.h'
p2378
g329
(g1640
g331
Ntp2379
Rp2380
(dp2381
g1644
g1652
sg1645
g1674
sg355
S'c:/marmalade/7.5/s3e/h/std/utime.h'
p2382
sbsS'jdhuff.h'
p2383
g329
(g1640
g331
Ntp2384
Rp2385
(dp2386
g1644
g1100
sg1645
g1740
sg355
g1101
sbsS'IwResHandlerWAV.cpp'
p2387
g329
(g1640
g331
Ntp2388
Rp2389
(dp2390
g1644
g1141
sg1645
g1692
sg355
g1144
sbsS'un.h'
p2391
g329
(g1640
g331
Ntp2392
Rp2393
(dp2394
g1644
g1652
sg1645
g1805
sg355
S'c:/marmalade/7.5/s3e/h/std/sys/un.h'
p2395
sbsS'IwImage.h'
p2396
g329
(g1640
g331
Ntp2397
Rp2398
(dp2399
g1644
g1511
sg1645
g1681
sg355
g1554
sbsS's3eImagePicker.h'
p2400
g329
(g1640
g331
Ntp2401
Rp2402
(dp2403
g1644
g1652
sg1645
g1879
sg355
S'c:/marmalade/7.5/s3e/h/ext/s3eImagePicker.h'
p2404
sbsS'stdlib.h'
p2405
g329
(g1640
g331
Ntp2406
Rp2407
(dp2408
g1644
g1652
sg1645
g1674
sg355
S'c:/marmalade/7.5/s3e/h/std/stdlib.h'
p2409
sbsS'IwCopyingPtr.h'
p2410
g329
(g1640
g331
Ntp2411
Rp2412
(dp2413
g1644
g1511
sg1645
g1681
sg355
g1593
sbsS'iostream'
p2414
g329
(g1640
g331
Ntp2415
Rp2416
(dp2417
g1644
g1652
sg1645
g1653
sg355
S'c:/marmalade/7.5/s3e/h/std/c++/iostream'
p2418
sbsS'png.h'
p2419
g329
(g1640
g331
Ntp2420
Rp2421
(dp2422
g1644
g1086
sg1645
(lp2423
g1080
ag1082
asg355
g1084
sbsS'stddef.h'
p2424
g329
(g1640
g331
Ntp2425
Rp2426
(dp2427
g1644
g1652
sg1645
g1674
sg355
S'c:/marmalade/7.5/s3e/h/std/stddef.h'
p2428
sbsS'Layer.cpp'
p2429
g329
(g1640
g331
Ntp2430
Rp2431
(dp2432
g1644
g1198
sg1645
g1796
sg355
g1199
sbsS'setjmp_win32.h'
p2433
g329
(g1640
g331
Ntp2434
Rp2435
(dp2436
g1644
g1652
sg1645
g1674
sg355
S'c:/marmalade/7.5/s3e/h/std/setjmp_win32.h'
p2437
sbsS'pauseMenu.h'
p2438
g329
(g1640
g331
Ntp2439
Rp2440
(dp2441
g1644
g1198
sg1645
g1796
sg355
g1247
sbsS'Layer.h'
p2442
g329
(g1640
g331
Ntp2443
Rp2444
(dp2445
g1644
g1198
sg1645
g1796
sg355
g1255
sbsS'IwGxPrint.h'
p2446
g329
(g1640
g331
Ntp2447
Rp2448
(dp2449
g1644
g1447
sg1645
g1786
sg355
g1456
sbsS'iwgx_public.defines.txt'
p2450
g329
(g1640
g331
Ntp2451
Rp2452
(dp2453
g1644
g1447
sg1645
g1786
sg355
g1468
sbsS'streambuf.h'
p2454
g329
(g1640
g331
Ntp2455
Rp2456
(dp2457
g1644
g1652
sg1645
g1653
sg355
S'c:/marmalade/7.5/s3e/h/std/c++/streambuf.h'
p2458
sbsS'resources.cpp'
p2459
g329
(g1640
g331
Ntp2460
Rp2461
(dp2462
g1644
g1198
sg1645
g1796
sg355
g1233
sbsS'IwGeomFPlane.h'
p2463
g329
(g1640
g331
Ntp2464
Rp2465
(dp2466
g1644
g1347
sg1645
g1706
sg355
g1411
sbsS'wchar.h'
p2467
g329
(g1640
g331
Ntp2468
Rp2469
(dp2470
g1644
g1652
sg1645
g1674
sg355
S'c:/marmalade/7.5/s3e/h/std/wchar.h'
p2471
sbsS's3eCameraCapture.h'
p2472
g329
(g1640
g331
Ntp2473
Rp2474
(dp2475
g1644
g1652
sg1645
g1879
sg355
S'c:/marmalade/7.5/s3e/h/ext/s3eCameraCapture.h'
p2476
sbsS'eglext.h'
p2477
g329
(g1640
g331
Ntp2478
Rp2479
(dp2480
g1644
g1652
sg1645
g2010
sg355
S'c:/marmalade/7.5/s3e/h/EGL/eglext.h'
p2481
sbsS'IwResHandlerImage.h'
p2482
g329
(g1640
g331
Ntp2483
Rp2484
(dp2485
g1644
g1423
sg1645
g1925
sg355
g1441
sbsS'strstream.h'
p2486
g329
(g1640
g331
Ntp2487
Rp2488
(dp2489
g1644
g1652
sg1645
g1653
sg355
S'c:/marmalade/7.5/s3e/h/std/c++/strstream.h'
p2490
sbsS'tiniconv.h'
p2491
g329
(g1640
g331
Ntp2492
Rp2493
(dp2494
g1644
g1134
sg1645
g2135
sg355
g1135
sbsS'IwGLExt.h'
p2495
g329
(g1640
g331
Ntp2496
Rp2497
(dp2498
g1644
g1304
sg1645
g1662
sg355
g1307
sbsS'app.icf'
p2499
g329
(g1640
g331
Ntp2500
Rp2501
(dp2502
g1644
(dp2503
sg1645
g4
sg355
S'c:/Marmalade/7.5/examples/GameTutorial/CPP/marm1/data/app.icf'
p2504
sbsS'IwClassFactory.h'
p2505
g329
(g1640
g331
Ntp2506
Rp2507
(dp2508
g1644
g1511
sg1645
g1681
sg355
g1528
sbsS'file.h'
p2509
g329
(g1640
g331
Ntp2510
Rp2511
(dp2512
g1644
g1652
sg1645
g1805
sg355
S'c:/marmalade/7.5/s3e/h/std/sys/file.h'
p2513
sbsS'cstring'
p2514
g329
(g1640
g331
Ntp2515
Rp2516
(dp2517
g1644
g1652
sg1645
g1653
sg355
S'c:/marmalade/7.5/s3e/h/std/c++/cstring'
p2518
sbsS'IwSoundInst.cpp'
p2519
g329
(g1640
g331
Ntp2520
Rp2521
(dp2522
g1644
g1141
sg1645
g1692
sg355
g1166
sbsS'iwutil.config.txt'
p2523
g329
(g1640
g331
Ntp2524
Rp2525
(dp2526
g1644
g1511
sg1645
g1681
sg355
g1544
sbsS's3eSMS.h'
p2527
g329
(g1640
g331
Ntp2528
Rp2529
(dp2530
g1644
g1652
sg1645
g1879
sg355
S'c:/marmalade/7.5/s3e/h/ext/s3eSMS.h'
p2531
sbsS'limits.h'
p2532
g329
(g1640
g331
Ntp2533
Rp2534
(dp2535
g1644
g1652
sg1645
g1674
sg355
S'c:/marmalade/7.5/s3e/h/std/limits.h'
p2536
sbsS'scene.h'
p2537
g329
(g1640
g331
Ntp2538
Rp2539
(dp2540
g1644
g1198
sg1645
g1796
sg355
g1259
sbsS'IwMaterial.h'
p2541
g329
(g1640
g331
Ntp2542
Rp2543
(dp2544
g1644
g1447
sg1645
g1786
sg355
g1476
sbsS'Powerup.h'
p2545
g329
(g1640
g331
Ntp2546
Rp2547
(dp2548
g1644
g1198
sg1645
g1796
sg355
g1249
sbsS'PVRTexTool_interface.cpp'
p2549
g329
(g1640
g331
Ntp2550
Rp2551
(dp2552
g1644
g1275
sg1645
(lp2553
g1267
ag1269
ag1271
asg355
g1276
sbsS'IwGxSurface.h'
p2554
g329
(g1640
g331
Ntp2555
Rp2556
(dp2557
g1644
g1447
sg1645
g1786
sg355
g1462
sbsS's3eSocket.h'
p2558
g329
(g1640
g331
Ntp2559
Rp2560
(dp2561
g1644
g1652
sg1645
g1668
sg355
S'c:/marmalade/7.5/s3e/h/s3eSocket.h'
p2562
sbsS'Life.h'
p2563
g329
(g1640
g331
Ntp2564
Rp2565
(dp2566
g1644
g1198
sg1645
g1796
sg355
g1231
sbsS'IwAutoFile.h'
p2567
g329
(g1640
g331
Ntp2568
Rp2569
(dp2570
g1644
g1511
sg1645
g1681
sg355
g1572
sbsS'ipc.h'
p2571
g329
(g1640
g331
Ntp2572
Rp2573
(dp2574
g1644
g1652
sg1645
g1805
sg355
S'c:/marmalade/7.5/s3e/h/std/sys/ipc.h'
p2575
sbsS'poll_1.h'
p2576
g329
(g1640
g331
Ntp2577
Rp2578
(dp2579
g1644
g1652
sg1645
g1805
sg355
S'c:/marmalade/7.5/s3e/h/std/sys/poll.h'
p2580
sbsS's3eThread.h'
p2581
g329
(g1640
g331
Ntp2582
Rp2583
(dp2584
g1644
g1652
sg1645
g1668
sg355
S'c:/marmalade/7.5/s3e/h/s3eThread.h'
p2585
sbsS'ucontext.h'
p2586
g329
(g1640
g331
Ntp2587
Rp2588
(dp2589
g1644
g1652
sg1645
g1674
sg355
S'c:/marmalade/7.5/s3e/h/std/ucontext.h'
p2590
sbsS'time.h'
p2591
g329
(g1640
g331
Ntp2592
Rp2593
(dp2594
g1644
g1652
sg1645
g1674
sg355
S'c:/marmalade/7.5/s3e/h/std/time.h'
p2595
sbsS'jchuff.h'
p2596
g329
(g1640
g331
Ntp2597
Rp2598
(dp2599
g1644
g1100
sg1645
g1740
sg355
g1117
sbsS'IwSoundPCM.cpp'
p2600
g329
(g1640
g331
Ntp2601
Rp2602
(dp2603
g1644
g1141
sg1645
g1692
sg355
g1162
sbsS's3eSoundRecord.h'
p2604
g329
(g1640
g331
Ntp2605
Rp2606
(dp2607
g1644
g1652
sg1645
g1668
sg355
S'c:/marmalade/7.5/s3e/h/s3eSoundRecord.h'
p2608
sbsS'IwFibre.h'
p2609
g329
(g1640
g331
Ntp2610
Rp2611
(dp2612
g1644
g1511
sg1645
g1681
sg355
g1597
sbsS's3eVersion.h'
p2613
g329
(g1640
g331
Ntp2614
Rp2615
(dp2616
g1644
g1652
sg1645
g1668
sg355
S'c:/marmalade/7.5/s3e/h/s3eVersion.h'
p2617
sbsS'input.cpp'
p2618
g329
(g1640
g331
Ntp2619
Rp2620
(dp2621
g1644
g1198
sg1645
g1796
sg355
g1223
sbsS'IwSoundGroup.h'
p2622
g329
(g1640
g331
Ntp2623
Rp2624
(dp2625
g1644
g1141
sg1645
g1692
sg355
g1187
sbsS'IwSoundWAV.h'
p2626
g329
(g1640
g331
Ntp2627
Rp2628
(dp2629
g1644
g1141
sg1645
g1692
sg355
g1168
sbsS'IwGxFontGlyph.h'
p2630
g329
(g1640
g331
Ntp2631
Rp2632
(dp2633
g1644
g1325
sg1645
g1646
sg355
g1323
sbsS's3eTypes.h'
p2634
g329
(g1640
g331
Ntp2635
Rp2636
(dp2637
g1644
g1652
sg1645
g1668
sg355
S'c:/marmalade/7.5/s3e/h/s3eTypes.h'
p2638
sbsS'IwSoundSpec.h'
p2639
g329
(g1640
g331
Ntp2640
Rp2641
(dp2642
g1644
g1141
sg1645
g1692
sg355
g1156
sbsS'signal_2.h'
p2643
g329
(g1640
g331
Ntp2644
Rp2645
(dp2646
g1644
g1652
sg1645
g1653
sg355
S'c:/marmalade/7.5/s3e/h/std/c++/signal.h'
p2647
sbsS'termios.h'
p2648
g329
(g1640
g331
Ntp2649
Rp2650
(dp2651
g1644
g1652
sg1645
g1674
sg355
S'c:/marmalade/7.5/s3e/h/std/termios.h'
p2652
sbsS'iw2dscenegraph.mkf'
p2653
g329
(g1640
g331
Ntp2654
Rp2655
(dp2656
g1644
g1296
sg1645
g1967
sg355
g1294
sbsS'slist'
p2657
g329
(g1640
g331
Ntp2658
Rp2659
(dp2660
g1644
g1652
sg1645
g1653
sg355
S'c:/marmalade/7.5/s3e/h/std/c++/slist'
p2661
sbsS'cstdlib'
p2662
g329
(g1640
g331
Ntp2663
Rp2664
(dp2665
g1644
g1652
sg1645
g1653
sg355
S'c:/marmalade/7.5/s3e/h/std/c++/cstdlib'
p2666
sbsS's3eLocation.h'
p2667
g329
(g1640
g331
Ntp2668
Rp2669
(dp2670
g1644
g1652
sg1645
g1668
sg355
S'c:/marmalade/7.5/s3e/h/s3eLocation.h'
p2671
sbsS'IwMemBucketHelpers.h'
p2672
g329
(g1640
g331
Ntp2673
Rp2674
(dp2675
g1644
g1511
sg1645
g1681
sg355
g1548
sbsS's3eHash.h'
p2676
g329
(g1640
g331
Ntp2677
Rp2678
(dp2679
g1644
g1652
sg1645
g1668
sg355
S'c:/marmalade/7.5/s3e/h/s3eHash.h'
p2680
sbsS'IwSoundGroup.cpp'
p2681
g329
(g1640
g331
Ntp2682
Rp2683
(dp2684
g1644
g1141
sg1645
g1692
sg355
g1139
sbsS'Enemymanager.h'
p2685
g329
(g1640
g331
Ntp2686
Rp2687
(dp2688
g1644
g1198
sg1645
g1796
sg355
g1239
sbsS'IwGeomFMat.h'
p2689
g329
(g1640
g331
Ntp2690
Rp2691
(dp2692
g1644
g1347
sg1645
g1706
sg355
g1375
sbsS'type_traits.h'
p2693
g329
(g1640
g331
Ntp2694
Rp2695
(dp2696
g1644
g1652
sg1645
g1653
sg355
S'c:/marmalade/7.5/s3e/h/std/c++/type_traits.h'
p2697
sbsS's3eAtomic.h'
p2698
g329
(g1640
g331
Ntp2699
Rp2700
(dp2701
g1644
g1652
sg1645
g1668
sg355
S'c:/marmalade/7.5/s3e/h/s3eAtomic.h'
p2702
sbsS'IwMenu.h'
p2703
g329
(g1640
g331
Ntp2704
Rp2705
(dp2706
g1644
g1511
sg1645
g1681
sg355
g1601
sbsS'IwResHandlerITX.h'
p2707
g329
(g1640
g331
Ntp2708
Rp2709
(dp2710
g1644
g1423
sg1645
g1925
sg355
g1421
sbsS'IwSoundData.h'
p2711
g329
(g1640
g331
Ntp2712
Rp2713
(dp2714
g1644
g1141
sg1645
g1692
sg355
g1180
sbsS'IwArray.h'
p2715
g329
(g1640
g331
Ntp2716
Rp2717
(dp2718
g1644
g1511
sg1645
g1681
sg355
g1599
sbsS'IwUTF8.h'
p2719
g329
(g1640
g331
Ntp2720
Rp2721
(dp2722
g1644
g1511
sg1645
g1681
sg355
g1542
sbsS'math_rvct.h'
p2723
g329
(g1640
g331
Ntp2724
Rp2725
(dp2726
g1644
g1652
sg1645
g1674
sg355
S'c:/marmalade/7.5/s3e/h/std/math_rvct.h'
p2727
sbsS'IwUtil.h'
p2728
g329
(g1640
g331
Ntp2729
Rp2730
(dp2731
g1644
g1511
sg1645
g1681
sg355
g1583
sbsS'IwFColour.h'
p2732
g329
(g1640
g331
Ntp2733
Rp2734
(dp2735
g1644
g1447
sg1645
g1786
sg355
g1482
sbsS'wctype.h'
p2736
g329
(g1640
g331
Ntp2737
Rp2738
(dp2739
g1644
g1652
sg1645
g1674
sg355
S'c:/marmalade/7.5/s3e/h/std/wctype.h'
p2740
sbsS'mainMenu.h'
p2741
g329
(g1640
g331
Ntp2742
Rp2743
(dp2744
g1644
g1198
sg1645
g1796
sg355
g1201
sbsS'cstddef'
p2745
g329
(g1640
g331
Ntp2746
Rp2747
(dp2748
g1644
g1652
sg1645
g1653
sg355
S'c:/marmalade/7.5/s3e/h/std/c++/cstddef'
p2749
sbsS'assert.h'
p2750
g329
(g1640
g331
Ntp2751
Rp2752
(dp2753
g1644
g1652
sg1645
g1674
sg355
S'c:/marmalade/7.5/s3e/h/std/assert.h'
p2754
sbsS'mman.h'
p2755
g329
(g1640
g331
Ntp2756
Rp2757
(dp2758
g1644
g1652
sg1645
g1805
sg355
S'c:/marmalade/7.5/s3e/h/std/sys/mman.h'
p2759
sbsS'IwRandom.h'
p2760
g329
(g1640
g331
Ntp2761
Rp2762
(dp2763
g1644
g1511
sg1645
g1681
sg355
g1538
sbsS'libgen.h'
p2764
g329
(g1640
g331
Ntp2765
Rp2766
(dp2767
g1644
g1652
sg1645
g1674
sg355
S'c:/marmalade/7.5/s3e/h/std/libgen.h'
p2768
sbsS'utsname.h'
p2769
g329
(g1640
g331
Ntp2770
Rp2771
(dp2772
g1644
g1652
sg1645
g1805
sg355
S'c:/marmalade/7.5/s3e/h/std/sys/utsname.h'
p2773
sbsS'wait.h'
p2774
g329
(g1640
g331
Ntp2775
Rp2776
(dp2777
g1644
g1652
sg1645
g1805
sg355
S'c:/marmalade/7.5/s3e/h/std/sys/wait.h'
p2778
sbsS'param.h'
p2779
g329
(g1640
g331
Ntp2780
Rp2781
(dp2782
g1644
g1652
sg1645
g1805
sg355
S'c:/marmalade/7.5/s3e/h/std/sys/param.h'
p2783
sbsS'IwDivide.h'
p2784
g329
(g1640
g331
Ntp2785
Rp2786
(dp2787
g1644
g1511
sg1645
g1681
sg355
g1518
sbsS'Iw2DSceneGraphCore.cpp'
p2788
g329
(g1640
g331
Ntp2789
Rp2790
(dp2791
g1644
g1504
sg1645
(lp2792
S"'Marmalade Studio'"
p2793
ag1497
asg355
g1505
sbsS'IwResManager.h'
p2794
g329
(g1640
g331
Ntp2795
Rp2796
(dp2797
g1644
g1423
sg1645
g1925
sg355
g1430
sbsS'IwSoundManager.h'
p2798
g329
(g1640
g331
Ntp2799
Rp2800
(dp2801
g1644
g1141
sg1645
g1692
sg355
g1160
sbsS'cwctype'
p2802
g329
(g1640
g331
Ntp2803
Rp2804
(dp2805
g1644
g1652
sg1645
g1653
sg355
S'c:/marmalade/7.5/s3e/h/std/c++/cwctype'
p2806
sbsS'set'
p2807
g329
(g1640
g331
Ntp2808
Rp2809
(dp2810
g1644
g1652
sg1645
g1653
sg355
S'c:/marmalade/7.5/s3e/h/std/c++/set'
p2811
sbsS'IwGeomSQuat.h'
p2812
g329
(g1640
g331
Ntp2813
Rp2814
(dp2815
g1644
g1347
sg1645
g1706
sg355
g1371
sbsS'locale'
p2816
g329
(g1640
g331
Ntp2817
Rp2818
(dp2819
g1644
g1652
sg1645
g1653
sg355
S'c:/marmalade/7.5/s3e/h/std/c++/locale'
p2820
sbsS'cstdio'
p2821
g329
(g1640
g331
Ntp2822
Rp2823
(dp2824
g1644
g1652
sg1645
g1653
sg355
S'c:/marmalade/7.5/s3e/h/std/c++/cstdio'
p2825
sbsS'cdjpeg.h'
p2826
g329
(g1640
g331
Ntp2827
Rp2828
(dp2829
g1644
g1100
sg1645
g1740
sg355
g1119
sbsS'audio.h'
p2830
g329
(g1640
g331
Ntp2831
Rp2832
(dp2833
g1644
g1198
sg1645
g1796
sg355
g1217
sbsS'IwList.h'
p2834
g329
(g1640
g331
Ntp2835
Rp2836
(dp2837
g1644
g1511
sg1645
g1681
sg355
g1570
sbsS'pauseMenu.cpp'
p2838
g329
(g1640
g331
Ntp2839
Rp2840
(dp2841
g1644
g1198
sg1645
g1796
sg355
g1257
sbsS'inttypes.h'
p2842
g329
(g1640
g331
Ntp2843
Rp2844
(dp2845
g1644
g1652
sg1645
g1674
sg355
S'c:/marmalade/7.5/s3e/h/std/inttypes.h'
p2846
sbsS'dirent.h'
p2847
g329
(g1640
g331
Ntp2848
Rp2849
(dp2850
g1644
g1652
sg1645
g1674
sg355
S'c:/marmalade/7.5/s3e/h/std/dirent.h'
p2851
sbsS'IwGeomVec3.h'
p2852
g329
(g1640
g331
Ntp2853
Rp2854
(dp2855
g1644
g1347
sg1645
g1706
sg355
g1365
sbsS'transupp.h'
p2856
g329
(g1640
g331
Ntp2857
Rp2858
(dp2859
g1644
g1100
sg1645
g1740
sg355
g1105
sbsS'IwMath.h'
p2860
g329
(g1640
g331
Ntp2861
Rp2862
(dp2863
g1644
g1511
sg1645
g1681
sg355
g1512
sbsS'IwGeomQuat.h'
p2864
g329
(g1640
g331
Ntp2865
Rp2866
(dp2867
g1644
g1347
sg1645
g1706
sg355
g1415
sbsS'glplatform.h'
p2868
g329
(g1640
g331
Ntp2869
Rp2870
(dp2871
g1644
g1652
sg1645
g2018
sg355
S'c:/marmalade/7.5/s3e/h/GLES/glplatform.h'
p2872
sbsS's3e-default.mkf'
p2873
g329
(g1640
g331
Ntp2874
Rp2875
(dp2876
g1644
g1636
sg1645
(lp2877
g1632
asg355
g1634
sbsS'iwgl.config.txt'
p2878
g329
(g1640
g331
Ntp2879
Rp2880
(dp2881
g1644
g1304
sg1645
g1662
sg355
g1305
sbsS'bitset'
p2882
g329
(g1640
g331
Ntp2883
Rp2884
(dp2885
g1644
g1652
sg1645
g1653
sg355
S'c:/marmalade/7.5/s3e/h/std/c++/bitset'
p2886
sbsS'alloca.h'
p2887
g329
(g1640
g331
Ntp2888
Rp2889
(dp2890
g1644
g1652
sg1645
g1674
sg355
S'c:/marmalade/7.5/s3e/h/std/alloca.h'
p2891
sbsS'IwResHandler.h'
p2892
g329
(g1640
g331
Ntp2893
Rp2894
(dp2895
g1644
g1423
sg1645
g1925
sg355
g1439
sbsS'IwResHandlerMTL.h'
p2896
g329
(g1640
g331
Ntp2897
Rp2898
(dp2899
g1644
g1447
sg1645
g1786
sg355
g1454
sbsS'IwRuntime.h'
p2900
g329
(g1640
g331
Ntp2901
Rp2902
(dp2903
g1644
g1511
sg1645
g1681
sg355
g1562
sbsS'limits'
p2904
g329
(g1640
g331
Ntp2905
Rp2906
(dp2907
g1644
g1652
sg1645
g1653
sg355
S'c:/marmalade/7.5/s3e/h/std/c++/limits'
p2908
sbsS'IwGeomBBox.h'
p2909
g329
(g1640
g331
Ntp2910
Rp2911
(dp2912
g1644
g1347
sg1645
g1706
sg355
g1405
sbsS's3eContacts.h'
p2913
g329
(g1640
g331
Ntp2914
Rp2915
(dp2916
g1644
g1652
sg1645
g1668
sg355
S'c:/marmalade/7.5/s3e/h/s3eContacts.h'
p2917
sbsS's3eLicense.h'
p2918
g329
(g1640
g331
Ntp2919
Rp2920
(dp2921
g1644
g1652
sg1645
g1668
sg355
S'c:/marmalade/7.5/s3e/h/s3eLicense.h'
p2922
sbsS'iwgx.config.txt'
p2923
g329
(g1640
g331
Ntp2924
Rp2925
(dp2926
g1644
g1447
sg1645
g1786
sg355
g1489
sbsS'IwTextParser.h'
p2927
g329
(g1640
g331
Ntp2928
Rp2929
(dp2930
g1644
g1511
sg1645
g1681
sg355
g1591
sbsS's3eTimer.h'
p2931
g329
(g1640
g331
Ntp2932
Rp2933
(dp2934
g1644
g1652
sg1645
g1668
sg355
S'c:/marmalade/7.5/s3e/h/s3eTimer.h'
p2935
sbsS'IwGeomVec.h'
p2936
g329
(g1640
g331
Ntp2937
Rp2938
(dp2939
g1644
g1347
sg1645
g1706
sg355
g1391
sbsS'IwSerialise.h'
p2940
g329
(g1640
g331
Ntp2941
Rp2942
(dp2943
g1644
g1511
sg1645
g1681
sg355
g1609
sbsS'cstdarg'
p2944
g329
(g1640
g331
Ntp2945
Rp2946
(dp2947
g1644
g1652
sg1645
g1653
sg355
S'c:/marmalade/7.5/s3e/h/std/c++/cstdarg'
p2948
sbsS'gl2ext.h'
p2949
g329
(g1640
g331
Ntp2950
Rp2951
(dp2952
g1644
g1652
sg1645
g1917
sg355
S'c:/marmalade/7.5/s3e/h/GLES2/gl2ext.h'
p2953
sbsS'BackgroundEntity.h'
p2954
g329
(g1640
g331
Ntp2955
Rp2956
(dp2957
g1644
g1198
sg1645
g1796
sg355
g1245
sbsS'IwChar.h'
p2958
g329
(g1640
g331
Ntp2959
Rp2960
(dp2961
g1644
g1511
sg1645
g1681
sg355
g1536
sbsS's3eSound.h'
p2962
g329
(g1640
g331
Ntp2963
Rp2964
(dp2965
g1644
g1652
sg1645
g1668
sg355
S'c:/marmalade/7.5/s3e/h/s3eSound.h'
p2966
sbsS's3eIOSBackgroundAudio.h'
p2967
g329
(g1640
g331
Ntp2968
Rp2969
(dp2970
g1644
g1652
sg1645
g1879
sg355
S'c:/marmalade/7.5/s3e/h/ext/s3eIOSBackgroundAudio.h'
p2971
sbsS'exception.h'
p2972
g329
(g1640
g331
Ntp2973
Rp2974
(dp2975
g1644
g1652
sg1645
g1653
sg355
S'c:/marmalade/7.5/s3e/h/std/c++/exception.h'
p2976
sbsS'iwgeom.config.txt'
p2977
g329
(g1640
g331
Ntp2978
Rp2979
(dp2980
g1644
g1347
sg1645
g1706
sg355
g1413
sbsS'Shark.h'
p2981
g329
(g1640
g331
Ntp2982
Rp2983
(dp2984
g1644
g1198
sg1645
g1796
sg355
g1225
sbsS'iwgx.mkf'
p2985
g329
(g1640
g331
Ntp2986
Rp2987
(dp2988
g1644
g1488
sg1645
g1786
sg355
g1486
sbsS'gl.h'
p2989
g329
(g1640
g331
Ntp2990
Rp2991
(dp2992
g1644
g1652
sg1645
g2018
sg355
S'c:/marmalade/7.5/s3e/h/GLES/gl.h'
p2993
sbsS'zlib.h'
p2994
g329
(g1640
g331
Ntp2995
Rp2996
(dp2997
g1644
g1616
sg1645
g2367
sg355
g1617
sbsS'temp_defines_release.h'
p2998
g329
(g1640
g331
Ntp2999
Rp3000
(dp3001
g1644
(lp3002
sg1645
(lp3003
S"'generated files'"
p3004
asg355
S'c:/Marmalade/7.5/examples/GameTutorial/CPP/marm1/build_stage4_vc12/temp_defines_release.h'
p3005
sbsS'iwgl.mkf'
p3006
g329
(g1640
g331
Ntp3007
Rp3008
(dp3009
g1644
g1301
sg1645
g1662
sg355
g1299
sbsS'IwColour.h'
p3010
g329
(g1640
g331
Ntp3011
Rp3012
(dp3013
g1644
g1447
sg1645
g1786
sg355
g1491
sbsS's3eLibrary.h'
p3014
g329
(g1640
g331
Ntp3015
Rp3016
(dp3017
g1644
g1652
sg1645
g1879
sg355
S'c:/marmalade/7.5/s3e/h/ext/s3eLibrary.h'
p3018
sbsS'types.h'
p3019
g329
(g1640
g331
Ntp3020
Rp3021
(dp3022
g1644
g1652
sg1645
g1805
sg355
S'c:/marmalade/7.5/s3e/h/std/sys/types.h'
p3023
sbsS'ifaddrs.h'
p3024
g329
(g1640
g331
Ntp3025
Rp3026
(dp3027
g1644
g1652
sg1645
g1674
sg355
S'c:/marmalade/7.5/s3e/h/std/ifaddrs.h'
p3028
sbsS'strstream'
p3029
g329
(g1640
g331
Ntp3030
Rp3031
(dp3032
g1644
g1652
sg1645
g1653
sg355
S'c:/marmalade/7.5/s3e/h/std/c++/strstream'
p3033
sbsS'IwTween.cpp'
p3034
g329
(g1640
g331
Ntp3035
Rp3036
(dp3037
g1644
g1626
sg1645
g2182
sg355
g1627
sbsS'exception'
p3038
g329
(g1640
g331
Ntp3039
Rp3040
(dp3041
g1644
g1652
sg1645
g1653
sg355
S'c:/marmalade/7.5/s3e/h/std/c++/exception'
p3042
sbsS'Enemymanager.cpp'
p3043
g329
(g1640
g331
Ntp3044
Rp3045
(dp3046
g1644
g1198
sg1645
g1796
sg355
g1211
sbsS'Powerup.cpp'
p3047
g329
(g1640
g331
Ntp3048
Rp3049
(dp3050
g1644
g1198
sg1645
g1796
sg355
g1196
sbsS'rlocks.h'
p3051
g329
(g1640
g331
Ntp3052
Rp3053
(dp3054
g1644
g1652
sg1645
g1653
sg355
S'c:/marmalade/7.5/s3e/h/std/c++/rlocks.h'
p3055
sbsS'ioctl.h'
p3056
g329
(g1640
g331
Ntp3057
Rp3058
(dp3059
g1644
g1652
sg1645
g1805
sg355
S'c:/marmalade/7.5/s3e/h/std/sys/ioctl.h'
p3060
sbsS'sem.h'
p3061
g329
(g1640
g331
Ntp3062
Rp3063
(dp3064
g1644
g1652
sg1645
g1805
sg355
S'c:/marmalade/7.5/s3e/h/std/sys/sem.h'
p3065
sbsS'jinclude.h'
p3066
g329
(g1640
g331
Ntp3067
Rp3068
(dp3069
g1644
g1100
sg1645
g1740
sg355
g1107
sbsS'IwEvent.h'
p3070
g329
(g1640
g331
Ntp3071
Rp3072
(dp3073
g1644
g1511
sg1645
g1681
sg355
g1595
sbsS'IwOptimiseSize.h'
p3074
g329
(g1640
g331
Ntp3075
Rp3076
(dp3077
g1644
g1511
sg1645
g1681
sg355
g1560
sbsS'iwgxfont_public.defines.txt'
p3078
g329
(g1640
g331
Ntp3079
Rp3080
(dp3081
g1644
g1325
sg1645
g1646
sg355
g1341
sbsS'iconv.h'
p3082
g329
(g1640
g331
Ntp3083
Rp3084
(dp3085
g1644
g1652
sg1645
g1674
sg355
S'c:/marmalade/7.5/s3e/h/std/iconv.h'
p3086
sbsS's3eDevice.h'
p3087
g329
(g1640
g331
Ntp3088
Rp3089
(dp3090
g1644
g1652
sg1645
g1668
sg355
S'c:/marmalade/7.5/s3e/h/s3eDevice.h'
p3091
sbsS'IwGeomSphere.h'
p3092
g329
(g1640
g331
Ntp3093
Rp3094
(dp3095
g1644
g1347
sg1645
g1706
sg355
g1348
sbsS'tiniconv.mkf'
p3096
g329
(g1640
g331
Ntp3097
Rp3098
(dp3099
g1644
g1131
sg1645
g2135
sg355
g1129
sbsS'iw2dscenegraph.defines.txt'
p3100
g329
(g1640
g331
Ntp3101
Rp3102
(dp3103
g1644
g1289
sg1645
g1967
sg355
g1290
sbsS'jdct.h'
p3104
g329
(g1640
g331
Ntp3105
Rp3106
(dp3107
g1644
g1100
sg1645
g1740
sg355
g1111
sbsS'cctype'
p3108
g329
(g1640
g331
Ntp3109
Rp3110
(dp3111
g1644
g1652
sg1645
g1653
sg355
S'c:/marmalade/7.5/s3e/h/std/c++/cctype'
p3112
sbsS'IwSoundADPCM.cpp'
p3113
g329
(g1640
g331
Ntp3114
Rp3115
(dp3116
g1644
g1141
sg1645
g1692
sg355
g1174
sbsS's3eConfig.h'
p3117
g329
(g1640
g331
Ntp3118
Rp3119
(dp3120
g1644
g1652
sg1645
g1668
sg355
S'c:/marmalade/7.5/s3e/h/s3eConfig.h'
p3121
sbsS'IwHashString.h'
p3122
g329
(g1640
g331
Ntp3123
Rp3124
(dp3125
g1644
g1511
sg1645
g1681
sg355
g1576
sbsS'stat.h'
p3126
g329
(g1640
g331
Ntp3127
Rp3128
(dp3129
g1644
g1652
sg1645
g1805
sg355
S'c:/marmalade/7.5/s3e/h/std/sys/stat.h'
p3130
sbsS'byteswap.h'
p3131
g329
(g1640
g331
Ntp3132
Rp3133
(dp3134
g1644
g1652
sg1645
g1674
sg355
S'c:/marmalade/7.5/s3e/h/std/byteswap.h'
p3135
sbsS'iwresmanager.mkf'
p3136
g329
(g1640
g331
Ntp3137
Rp3138
(dp3139
g1644
g1434
sg1645
g1925
sg355
g1432
sbsS'IwUtilInitTerm.h'
p3140
g329
(g1640
g331
Ntp3141
Rp3142
(dp3143
g1644
g1511
sg1645
g1681
sg355
g1605
sbsS'pthread_1.h'
p3144
g329
(g1640
g331
Ntp3145
Rp3146
(dp3147
g1644
g1652
sg1645
g1653
sg355
S'c:/marmalade/7.5/s3e/h/std/c++/pthread.h'
p3148
sbsS'iw2d.mkf'
p3149
g329
(g1640
g331
Ntp3150
Rp3151
(dp3152
g1644
g1320
sg1645
g1745
sg355
g1318
sbsS'complex'
p3153
g329
(g1640
g331
Ntp3154
Rp3155
(dp3156
g1644
g1652
sg1645
g1653
sg355
S'c:/marmalade/7.5/s3e/h/std/c++/complex'
p3157
sbsS'algorithm'
p3158
g329
(g1640
g331
Ntp3159
Rp3160
(dp3161
g1644
g1652
sg1645
g1653
sg355
S'c:/marmalade/7.5/s3e/h/std/c++/algorithm'
p3162
sbsS's3e.icf'
p3163
g329
(g1640
g331
Ntp3164
Rp3165
(dp3166
g1644
g1652
sg1645
g1668
sg355
S'c:/marmalade/7.5/s3e/s3e.icf'
p3167
sbsS'resources.h'
p3168
g329
(g1640
g331
Ntp3169
Rp3170
(dp3171
g1644
g1198
sg1645
g1796
sg355
g1219
sbsS'IwGxFontState.h'
p3172
g329
(g1640
g331
Ntp3173
Rp3174
(dp3175
g1644
g1325
sg1645
g1646
sg355
g1330
sbsS'marmaladeexampleresources.mkf'
p3176
g329
(g1640
g331
Ntp3177
Rp3178
(dp3179
g1644
g1193
sg1645
(lp3180
g1189
asg355
g1191
sbsS'stdio.h'
p3181
g329
(g1640
g331
Ntp3182
Rp3183
(dp3184
g1644
g1652
sg1645
g1674
sg355
S'c:/marmalade/7.5/s3e/h/std/stdio.h'
p3185
sbsS'jmemsys.h'
p3186
g329
(g1640
g331
Ntp3187
Rp3188
(dp3189
g1644
g1100
sg1645
g1740
sg355
g1113
sbsS'ios'
p3190
g329
(g1640
g331
Ntp3191
Rp3192
(dp3193
g1644
g1652
sg1645
g1653
sg355
S'c:/marmalade/7.5/s3e/h/std/c++/ios'
p3194
sbsS'IwTween.h'
p3195
g329
(g1640
g331
Ntp3196
Rp3197
(dp3198
g1644
g1626
sg1645
g2182
sg355
g1624
sbsS'PVRTexTool.defines.txt'
p3199
g329
(g1640
g331
Ntp3200
Rp3201
(dp3202
g1644
g1275
sg1645
g2553
sg355
g1273
sbsS'stack'
p3203
g329
(g1640
g331
Ntp3204
Rp3205
(dp3206
g1644
g1652
sg1645
g1653
sg355
S'c:/marmalade/7.5/s3e/h/std/c++/stack'
p3207
sbsS'IwSoundParams.h'
p3208
g329
(g1640
g331
Ntp3209
Rp3210
(dp3211
g1644
g1141
sg1645
g1692
sg355
g1172
sbsS'new.h'
p3212
g329
(g1640
g331
Ntp3213
Rp3214
(dp3215
g1644
g1652
sg1645
g1653
sg355
S'c:/marmalade/7.5/s3e/h/std/c++/new.h'
p3216
sbsS's3eEMail.h'
p3217
g329
(g1640
g331
Ntp3218
Rp3219
(dp3220
g1644
g1652
sg1645
g1879
sg355
S'c:/marmalade/7.5/s3e/h/ext/s3eEMail.h'
p3221
sbsS's3eVideo.h'
p3222
g329
(g1640
g331
Ntp3223
Rp3224
(dp3225
g1644
g1652
sg1645
g1668
sg355
S'c:/marmalade/7.5/s3e/h/s3eVideo.h'
p3226
sbsS'pngconf.h'
p3227
g329
(g1640
g331
Ntp3228
Rp3229
(dp3230
g1644
g1086
sg1645
g2423
sg355
g1087
sbsS'pwd.h'
p3231
g329
(g1640
g331
Ntp3232
Rp3233
(dp3234
g1644
g1652
sg1645
g1674
sg355
S'c:/marmalade/7.5/s3e/h/std/pwd.h'
p3235
sbsS'IwOptimiseThumb.h'
p3236
g329
(g1640
g331
Ntp3237
Rp3238
(dp3239
g1644
g1511
sg1645
g1681
sg355
g1578
sbsS'gl3.h'
p3240
g329
(g1640
g331
Ntp3241
Rp3242
(dp3243
g1644
g1652
sg1645
g1978
sg355
S'c:/marmalade/7.5/s3e/h/GLES3/gl3.h'
p3244
sbsS'IwClip.h'
p3245
g329
(g1640
g331
Ntp3246
Rp3247
(dp3248
g1644
g1447
sg1645
g1786
sg355
g1460
sbsS'IwSoundInst.h'
p3249
g329
(g1640
g331
Ntp3250
Rp3251
(dp3252
g1644
g1141
sg1645
g1692
sg355
g1152
sbsS'iwresmanager.config.txt'
p3253
g329
(g1640
g331
Ntp3254
Rp3255
(dp3256
g1644
g1423
sg1645
g1925
sg355
g1435
sbsS'IwGxShaderTechnique.h'
p3257
g329
(g1640
g331
Ntp3258
Rp3259
(dp3260
g1644
g1447
sg1645
g1786
sg355
g1472
sbsS'IwCore.h'
p3261
g329
(g1640
g331
Ntp3262
Rp3263
(dp3264
g1644
g1511
sg1645
g1681
sg355
g1516
sbsS'cfloat'
p3265
g329
(g1640
g331
Ntp3266
Rp3267
(dp3268
g1644
g1652
sg1645
g1653
sg355
S'c:/marmalade/7.5/s3e/h/std/c++/cfloat'
p3269
sbsS'IwGeomMat2D.h'
p3270
g329
(g1640
g331
Ntp3271
Rp3272
(dp3273
g1644
g1347
sg1645
g1706
sg355
g1379
sbsS'IwAllocator.h'
p3274
g329
(g1640
g331
Ntp3275
Rp3276
(dp3277
g1644
g1511
sg1645
g1681
sg355
g1546
sbsS'Levelmanager.cpp'
p3278
g329
(g1640
g331
Ntp3279
Rp3280
(dp3281
g1644
g1198
sg1645
g1796
sg355
g1241
sbsS'IwPath.h'
p3282
g329
(g1640
g331
Ntp3283
Rp3284
(dp3285
g1644
g1511
sg1645
g1681
sg355
g1566
sbsS'iwgxfont.mkf'
p3286
g329
(g1640
g331
Ntp3287
Rp3288
(dp3289
g1644
g1336
sg1645
g1646
sg355
g1334
sbsS'IwTexture.h'
p3290
g329
(g1640
g331
Ntp3291
Rp3292
(dp3293
g1644
g1447
sg1645
g1786
sg355
g1450
sbsS'IwGeomVec.h.tpl'
p3294
g329
(g1640
g331
Ntp3295
Rp3296
(dp3297
g1644
g1347
sg1645
g1706
sg355
g1389
sbsS's3eAccelerometer.h'
p3298
g329
(g1640
g331
Ntp3299
Rp3300
(dp3301
g1644
g1652
sg1645
g1668
sg355
S'c:/marmalade/7.5/s3e/h/s3eAccelerometer.h'
p3302
sbsS'setjmp.h'
p3303
g329
(g1640
g331
Ntp3304
Rp3305
(dp3306
g1644
g1652
sg1645
g1674
sg355
S'c:/marmalade/7.5/s3e/h/std/setjmp.h'
p3307
sbsS'IwSoundParams.cpp'
p3308
g329
(g1640
g331
Ntp3309
Rp3310
(dp3311
g1644
g1141
sg1645
g1692
sg355
g1158
sbsS'IwFile.h'
p3312
g329
(g1640
g331
Ntp3313
Rp3314
(dp3315
g1644
g1511
sg1645
g1681
sg355
g1587
sbsS'IwTextParseable.h'
p3316
g329
(g1640
g331
Ntp3317
Rp3318
(dp3319
g1644
g1511
sg1645
g1681
sg355
g1534
sbsS'istream.h'
p3320
g329
(g1640
g331
Ntp3321
Rp3322
(dp3323
g1644
g1652
sg1645
g1653
sg355
S'c:/marmalade/7.5/s3e/h/std/c++/istream.h'
p3324
sbsS'Level.h'
p3325
g329
(g1640
g331
Ntp3326
Rp3327
(dp3328
g1644
g1198
sg1645
g1796
sg355
g1213
sbsS'stdint.h'
p3329
g329
(g1640
g331
Ntp3330
Rp3331
(dp3332
g1644
g1652
sg1645
g1674
sg355
S'c:/marmalade/7.5/s3e/h/std/stdint.h'
p3333
sbsS'semaphore.h'
p3334
g329
(g1640
g331
Ntp3335
Rp3336
(dp3337
g1644
g1652
sg1645
g1674
sg355
S'c:/marmalade/7.5/s3e/h/std/semaphore.h'
p3338
sbsS'ctime'
p3339
g329
(g1640
g331
Ntp3340
Rp3341
(dp3342
g1644
g1652
sg1645
g1653
sg355
S'c:/marmalade/7.5/s3e/h/std/c++/ctime'
p3343
sbsS'sstream'
p3344
g329
(g1640
g331
Ntp3345
Rp3346
(dp3347
g1644
g1652
sg1645
g1653
sg355
S'c:/marmalade/7.5/s3e/h/std/c++/sstream'
p3348
sbsS'IwGeomFBBox.h'
p3349
g329
(g1640
g331
Ntp3350
Rp3351
(dp3352
g1644
g1347
sg1645
g1706
sg355
g1373
sbsS'IwDebugPrim.h'
p3353
g329
(g1640
g331
Ntp3354
Rp3355
(dp3356
g1644
g1447
sg1645
g1786
sg355
g1445
sbsS'GameScene.cpp'
p3357
g329
(g1640
g331
Ntp3358
Rp3359
(dp3360
g1644
g1198
sg1645
g1796
sg355
g1243
sbsS'IwGxFontContainer.h'
p3361
g329
(g1640
g331
Ntp3362
Rp3363
(dp3364
g1644
g1325
sg1645
g1646
sg355
g1332
sbsS'IwGeomSVec3.h'
p3365
g329
(g1640
g331
Ntp3366
Rp3367
(dp3368
g1644
g1347
sg1645
g1706
sg355
g1350
sbsS'hero.h'
p3369
g329
(g1640
g331
Ntp3370
Rp3371
(dp3372
g1644
g1198
sg1645
g1796
sg355
g1207
sbsS'iw2dscenegraphcore.mkf'
p3373
g329
(g1640
g331
Ntp3374
Rp3375
(dp3376
g1644
g1501
sg1645
g2792
sg355
g1499
sbsS's3eExt.h'
p3377
g329
(g1640
g331
Ntp3378
Rp3379
(dp3380
g1644
g1652
sg1645
g1668
sg355
S'c:/marmalade/7.5/s3e/h/s3eExt.h'
p3381
sbsS'IwGeomFVec3.h'
p3382
g329
(g1640
g331
Ntp3383
Rp3384
(dp3385
g1644
g1347
sg1645
g1706
sg355
g1409
sbsS'streambuf'
p3386
g329
(g1640
g331
Ntp3387
Rp3388
(dp3389
g1644
g1652
sg1645
g1653
sg355
S'c:/marmalade/7.5/s3e/h/std/c++/streambuf'
p3390
sbsS's3eMetrics.h'
p3391
g329
(g1640
g331
Ntp3392
Rp3393
(dp3394
g1644
g1652
sg1645
g1879
sg355
S'c:/marmalade/7.5/s3e/h/ext/s3eMetrics.h'
p3395
sbsS'Shark.cpp'
p3396
g329
(g1640
g331
Ntp3397
Rp3398
(dp3399
g1644
g1198
sg1645
g1796
sg355
g1229
sbsS'IwGxFont.h'
p3400
g329
(g1640
g331
Ntp3401
Rp3402
(dp3403
g1644
g1325
sg1645
g1646
sg355
g1339
sbsS's3eSecureStorage.h'
p3404
g329
(g1640
g331
Ntp3405
Rp3406
(dp3407
g1644
g1652
sg1645
g1668
sg355
S'c:/marmalade/7.5/s3e/h/s3eSecureStorage.h'
p3408
sbsS'string.h'
p3409
g329
(g1640
g331
Ntp3410
Rp3411
(dp3412
g1644
g1652
sg1645
g1674
sg355
S'c:/marmalade/7.5/s3e/h/std/string.h'
p3413
sbsS'IwResource.h'
p3414
g329
(g1640
g331
Ntp3415
Rp3416
(dp3417
g1644
g1511
sg1645
g1681
sg355
g1607
sbsS'IwGeomSVec2.h'
p3418
g329
(g1640
g331
Ntp3419
Rp3420
(dp3421
g1644
g1347
sg1645
g1706
sg355
g1345
sbsS'libjpeg.mkf'
p3422
g329
(g1640
g331
Ntp3423
Rp3424
(dp3425
g1644
g1096
sg1645
(lp3426
g1092
asg355
g1094
sbsS'IwGxDebug.h'
p3427
g329
(g1640
g331
Ntp3428
Rp3429
(dp3430
g1644
g1447
sg1645
g1786
sg355
g1470
sbsS'float.h'
p3431
g329
(g1640
g331
Ntp3432
Rp3433
(dp3434
g1644
g1652
sg1645
g1674
sg355
S'c:/marmalade/7.5/s3e/h/std/float.h'
p3435
sbsS'iomanip.h'
p3436
g329
(g1640
g331
Ntp3437
Rp3438
(dp3439
g1644
g1652
sg1645
g1653
sg355
S'c:/marmalade/7.5/s3e/h/std/c++/iomanip.h'
p3440
sbsS'IwKeymap.h'
p3441
g329
(g1640
g331
Ntp3442
Rp3443
(dp3444
g1644
g1511
sg1645
g1681
sg355
g1552
sbsS'IwDebug.h'
p3445
g329
(g1640
g331
Ntp3446
Rp3447
(dp3448
g1644
g1511
sg1645
g1681
sg355
g1540
sbsS'IwVariableBitField.h'
p3449
g329
(g1640
g331
Ntp3450
Rp3451
(dp3452
g1644
g1511
sg1645
g1681
sg355
g1574
sbsS'IwGeomMenu.h'
p3453
g329
(g1640
g331
Ntp3454
Rp3455
(dp3456
g1644
g1347
sg1645
g1706
sg355
g1403
sbsS'IwDivTable.h'
p3457
g329
(g1640
g331
Ntp3458
Rp3459
(dp3460
g1644
g1511
sg1645
g1681
sg355
g1530
sbsS'ctype.h'
p3461
g329
(g1640
g331
Ntp3462
Rp3463
(dp3464
g1644
g1652
sg1645
g1674
sg355
S'c:/marmalade/7.5/s3e/h/std/ctype.h'
p3465
sbsS'mainMenu.cpp'
p3466
g329
(g1640
g331
Ntp3467
Rp3468
(dp3469
g1644
g1198
sg1645
g1796
sg355
g1221
sbsS'IwResGroup.h'
p3470
g329
(g1640
g331
Ntp3471
Rp3472
(dp3473
g1644
g1423
sg1645
g1925
sg355
g1437
sbsS'signal_1.h'
p3474
g329
(g1640
g331
Ntp3475
Rp3476
(dp3477
g1644
g1652
sg1645
g1805
sg355
S'c:/marmalade/7.5/s3e/h/std/sys/signal.h'
p3478
sbsS'IwSoundData.cpp'
p3479
g329
(g1640
g331
Ntp3480
Rp3481
(dp3482
g1644
g1141
sg1645
g1692
sg355
g1178
sbsS'main.cpp'
p3483
g329
(g1640
g331
Ntp3484
Rp3485
(dp3486
g1644
g1198
sg1645
g1796
sg355
g1227
sbsS'shm.h'
p3487
g329
(g1640
g331
Ntp3488
Rp3489
(dp3490
g1644
g1652
sg1645
g1805
sg355
S'c:/marmalade/7.5/s3e/h/std/sys/shm.h'
p3491
sbsS'IwManagedList.h'
p3492
g329
(g1640
g331
Ntp3493
Rp3494
(dp3495
g1644
g1511
sg1645
g1681
sg355
g1524
sbsS'prctl.h'
p3496
g329
(g1640
g331
Ntp3497
Rp3498
(dp3499
g1644
g1652
sg1645
g1805
sg355
S'c:/marmalade/7.5/s3e/h/std/sys/prctl.h'
p3500
sbsS'IwGxStream.h'
p3501
g329
(g1640
g331
Ntp3502
Rp3503
(dp3504
g1644
g1447
sg1645
g1786
sg355
g1458
sbsS'temp_defines_debug.h'
p3505
g329
(g1640
g331
Ntp3506
Rp3507
(dp3508
g1644
(lp3509
sg1645
(lp3510
g3004
asg355
S'c:/Marmalade/7.5/examples/GameTutorial/CPP/marm1/build_stage4_vc12/temp_defines_debug.h'
p3511
sbsS'utility'
p3512
g329
(g1640
g331
Ntp3513
Rp3514
(dp3515
g1644
g1652
sg1645
g1653
sg355
S'c:/marmalade/7.5/s3e/h/std/c++/utility'
p3516
sbsS'input.h'
p3517
g329
(g1640
g331
Ntp3518
Rp3519
(dp3520
g1644
g1198
sg1645
g1796
sg355
g1215
sbsS'Levelmanager.h'
p3521
g329
(g1640
g331
Ntp3522
Rp3523
(dp3524
g1644
g1198
sg1645
g1796
sg355
g1237
sbsS'IwGeomLegacy.h'
p3525
g329
(g1640
g331
Ntp3526
Rp3527
(dp3528
g1644
g1347
sg1645
g1706
sg355
g1367
sbsS'IwTPage.h'
p3529
g329
(g1640
g331
Ntp3530
Rp3531
(dp3532
g1644
g1447
sg1645
g1786
sg355
g1495
sbsS'IwResSerialise.h'
p3533
g329
(g1640
g331
Ntp3534
Rp3535
(dp3536
g1644
g1423
sg1645
g1925
sg355
g1424
sbsS's3eCrypto.h'
p3537
g329
(g1640
g331
Ntp3538
Rp3539
(dp3540
g1644
g1652
sg1645
g1668
sg355
S'c:/marmalade/7.5/s3e/h/s3eCrypto.h'
p3541
sbsS's3eKeyboard.h'
p3542
g329
(g1640
g331
Ntp3543
Rp3544
(dp3545
g1644
g1652
sg1645
g1668
sg355
S'c:/marmalade/7.5/s3e/h/s3eKeyboard.h'
p3546
sbsS'fcntl.h'
p3547
g329
(g1640
g331
Ntp3548
Rp3549
(dp3550
g1644
g1652
sg1645
g1674
sg355
S'c:/marmalade/7.5/s3e/h/std/fcntl.h'
p3551
sbsS'Iw2DSceneGraphCore.h'
p3552
g329
(g1640
g331
Ntp3553
Rp3554
(dp3555
g1644
g1504
sg1645
g2792
sg355
g1502
sbsS'memory.h'
p3556
g329
(g1640
g331
Ntp3557
Rp3558
(dp3559
g1644
g1652
sg1645
g1674
sg355
S'c:/marmalade/7.5/s3e/h/std/memory.h'
p3560
sbsS'Entity.h'
p3561
g329
(g1640
g331
Ntp3562
Rp3563
(dp3564
g1644
g1198
sg1645
g1796
sg355
g1205
sbsS'pthread.h'
p3565
g329
(g1640
g331
Ntp3566
Rp3567
(dp3568
g1644
g1652
sg1645
g1674
sg355
S'c:/marmalade/7.5/s3e/h/std/pthread.h'
p3569
sbsS'IwGeomIntersect.h'
p3570
g329
(g1640
g331
Ntp3571
Rp3572
(dp3573
g1644
g1347
sg1645
g1706
sg355
g1393
sbsS'IwTextParserITX.h'
p3574
g329
(g1640
g331
Ntp3575
Rp3576
(dp3577
g1644
g1511
sg1645
g1681
sg355
g1550
sbsS'IwClip.inl'
p3578
g329
(g1640
g331
Ntp3579
Rp3580
(dp3581
g1644
g1447
sg1645
g1786
sg355
g1480
sbsS'Iw2DSceneGraph.cpp'
p3582
g329
(g1640
g331
Ntp3583
Rp3584
(dp3585
g1644
g1289
sg1645
g1967
sg355
g1287
sbsS'ostream.h'
p3586
g329
(g1640
g331
Ntp3587
Rp3588
(dp3589
g1644
g1652
sg1645
g1653
sg355
S'c:/marmalade/7.5/s3e/h/std/c++/ostream.h'
p3590
sbsS'stl_user_config.h'
p3591
g329
(g1640
g331
Ntp3592
Rp3593
(dp3594
g1644
g1652
sg1645
g1653
sg355
S'c:/marmalade/7.5/s3e/h/std/c++/stl_user_config.h'
p3595
sbsS'IwProfileMenu.h'
p3596
g329
(g1640
g331
Ntp3597
Rp3598
(dp3599
g1644
g1511
sg1645
g1681
sg355
g1526
sbsS'MarmaladeVersion.h'
p3600
g329
(g1640
g331
Ntp3601
Rp3602
(dp3603
g1644
g1652
sg1645
g1668
sg355
S'c:/marmalade/7.5/s3e/h/MarmaladeVersion.h'
p3604
sbsS'IwResHandlerWAV.h'
p3605
g329
(g1640
g331
Ntp3606
Rp3607
(dp3608
g1644
g1141
sg1645
g1692
sg355
g1146
sbsS'gl3platform.h'
p3609
g329
(g1640
g331
Ntp3610
Rp3611
(dp3612
g1644
g1652
sg1645
g1978
sg355
S'c:/marmalade/7.5/s3e/h/GLES3/gl3platform.h'
p3613
sbsS'ios.h'
p3614
g329
(g1640
g331
Ntp3615
Rp3616
(dp3617
g1644
g1652
sg1645
g1653
sg355
S'c:/marmalade/7.5/s3e/h/std/c++/ios.h'
p3618
sbsS'IwImageHelper.h'
p3619
g329
(g1640
g331
Ntp3620
Rp3621
(dp3622
g1644
g1511
sg1645
g1681
sg355
g1522
sbsS'hash_set'
p3623
g329
(g1640
g331
Ntp3624
Rp3625
(dp3626
g1644
g1652
sg1645
g1653
sg355
S'c:/marmalade/7.5/s3e/h/std/c++/hash_set'
p3627
sbsS'IwGeomFQuat.h'
p3628
g329
(g1640
g331
Ntp3629
Rp3630
(dp3631
g1644
g1347
sg1645
g1706
sg355
g1357
sbsS'jmorecfg.h'
p3632
g329
(g1640
g331
Ntp3633
Rp3634
(dp3635
g1644
g1100
sg1645
g1740
sg355
g1109
sbsS'eglplatform.h'
p3636
g329
(g1640
g331
Ntp3637
Rp3638
(dp3639
g1644
g1652
sg1645
g2010
sg355
S'c:/marmalade/7.5/s3e/h/EGL/eglplatform.h'
p3640
sbsS'cmath'
p3641
g329
(g1640
g331
Ntp3642
Rp3643
(dp3644
g1644
g1652
sg1645
g1653
sg355
S'c:/marmalade/7.5/s3e/h/std/c++/cmath'
p3645
sbsS'math_gcc.h'
p3646
g329
(g1640
g331
Ntp3647
Rp3648
(dp3649
g1644
g1652
sg1645
g1674
sg355
S'c:/marmalade/7.5/s3e/h/std/math_gcc.h'
p3650
sbsS's3eMemory.h'
p3651
g329
(g1640
g331
Ntp3652
Rp3653
(dp3654
g1644
g1652
sg1645
g1668
sg355
S'c:/marmalade/7.5/s3e/h/s3eMemory.h'
p3655
sbsS'strings.h'
p3656
g329
(g1640
g331
Ntp3657
Rp3658
(dp3659
g1644
g1652
sg1645
g1674
sg355
S'c:/marmalade/7.5/s3e/h/std/strings.h'
p3660
sbsS's3eFile.h'
p3661
g329
(g1640
g331
Ntp3662
Rp3663
(dp3664
g1644
g1652
sg1645
g1668
sg355
S'c:/marmalade/7.5/s3e/h/s3eFile.h'
p3665
sbsS'IwGxTypes.h'
p3666
g329
(g1640
g331
Ntp3667
Rp3668
(dp3669
g1644
g1447
sg1645
g1786
sg355
g1484
sbsS'cerrno'
p3670
g329
(g1640
g331
Ntp3671
Rp3672
(dp3673
g1644
g1652
sg1645
g1653
sg355
S'c:/marmalade/7.5/s3e/h/std/c++/cerrno'
p3674
sbsS'IwSoundManager.cpp'
p3675
g329
(g1640
g331
Ntp3676
Rp3677
(dp3678
g1644
g1141
sg1645
g1692
sg355
g1154
sbsS'main.h'
p3679
g329
(g1640
g331
Ntp3680
Rp3681
(dp3682
g1644
g1198
sg1645
g1796
sg355
g1203
sbsS'soundengine.mkf'
p3683
g329
(g1640
g331
Ntp3684
Rp3685
(dp3686
g1644
g1186
sg1645
g1692
sg355
g1184
sbsS'resource.h'
p3687
g329
(g1640
g331
Ntp3688
Rp3689
(dp3690
g1644
g1652
sg1645
g1805
sg355
S'c:/marmalade/7.5/s3e/h/std/sys/resource.h'
p3691
sbsS'clocale'
p3692
g329
(g1640
g331
Ntp3693
Rp3694
(dp3695
g1644
g1652
sg1645
g1653
sg355
S'c:/marmalade/7.5/s3e/h/std/c++/clocale'
p3696
sbsS'pvrtextool.mkf'
p3697
g329
(g1640
g331
Ntp3698
Rp3699
(dp3700
g1644
g1282
sg1645
g2291
sg355
g1280
sbsS'csetjmp'
p3701
g329
(g1640
g331
Ntp3702
Rp3703
(dp3704
g1644
g1652
sg1645
g1653
sg355
S'c:/marmalade/7.5/s3e/h/std/c++/csetjmp'
p3705
sbsS'netdb.h'
p3706
g329
(g1640
g331
Ntp3707
Rp3708
(dp3709
g1644
g1652
sg1645
g1674
sg355
S'c:/marmalade/7.5/s3e/h/std/netdb.h'
p3710
sbsS's3eAndroidJNI.h'
p3711
g329
(g1640
g331
Ntp3712
Rp3713
(dp3714
g1644
g1652
sg1645
g1879
sg355
S'c:/marmalade/7.5/s3e/h/ext/s3eAndroidJNI.h'
p3715
sbsS'stdexcept'
p3716
g329
(g1640
g331
Ntp3717
Rp3718
(dp3719
g1644
g1652
sg1645
g1653
sg355
S'c:/marmalade/7.5/s3e/h/std/c++/stdexcept'
p3720
sbsS'math.h'
p3721
g329
(g1640
g331
Ntp3722
Rp3723
(dp3724
g1644
g1652
sg1645
g1674
sg355
S'c:/marmalade/7.5/s3e/h/std/math.h'
p3725
sbsS'stdbool.h'
p3726
g329
(g1640
g331
Ntp3727
Rp3728
(dp3729
g1644
g1652
sg1645
g1674
sg355
S'c:/marmalade/7.5/s3e/h/std/stdbool.h'
p3730
sbsS'uio.h'
p3731
g329
(g1640
g331
Ntp3732
Rp3733
(dp3734
g1644
g1652
sg1645
g1805
sg355
S'c:/marmalade/7.5/s3e/h/std/sys/uio.h'
p3735
sbsS'IwUncopyable.h'
p3736
g329
(g1640
g331
Ntp3737
Rp3738
(dp3739
g1644
g1511
sg1645
g1681
sg355
g1589
sbssS'juice_build_type'
p3740
g4
sS'tests'
p3741
(lp3742
sS'project_name'
p3743
g337
sS'root_file'
p3744
g135
sS'current_root'
p3745
S'c:/Marmalade/7.5/examples/GameTutorial/CPP/marm1'
p3746
sS'dependencies'
p3747
(lp3748
sS'include_paths'
p3749
(lp3750
S'c:/marmalade/7.5/modules/iw2d/h'
p3751
aS'c:/marmalade/7.5/modules/iwgx/h'
p3752
aS'c:/marmalade/7.5/modules/iwgl/h'
p3753
aS'c:/marmalade/7.5/modules/iwutil/h'
p3754
aS'c:/marmalade/7.5/modules/third_party/libjpeg/h'
p3755
aS'c:/marmalade/7.5/modules/third_party/zlib/h'
p3756
aS'c:/marmalade/7.5/modules/third_party/libpng/h'
p3757
aS'c:/marmalade/7.5/modules/iwgeom/h'
p3758
aS'c:/marmalade/7.5/modules/iwresmanager/h'
p3759
aS'c:/marmalade/7.5/extensions/pvrtextool/h'
p3760
aS'c:/marmalade/7.5/modules/iwgxfont/h'
p3761
aS'c:/marmalade/7.5/modules/third_party/tiniconv/source'
p3762
aS'c:/marmalade/7.5/modules/iw2dscenegraph/h'
p3763
aS'c:/marmalade/7.5/modules/iw2dscenegraphcore/h'
p3764
aS'c:/marmalade/7.5/modules/iwtween/h'
p3765
aS'c:/marmalade/7.5/examples/gametutorial/cpp/modules/soundengine/h'
p3766
aS'c:/marmalade/7.5/examples/gametutorial/cpp/modules/soundengine/source'
p3767
aS'c:/marmalade/7.5/s3e/h'
p3768
aS'c:/marmalade/7.5/s3e/h/ext'
p3769
aS'c:/marmalade/7.5/s3e/h/std'
p3770
aS'c:/marmalade/7.5/s3e/h/std/c++'
p3771
aS'c:/marmalade/7.5/s3e/h/ext_legacy'
p3772
aS'c:/marmalade/7.5/s3e/h/legacy'
p3773
asS'weak_frameworks'
p3774
(lp3775
sS'extprojects'
p3776
(dp3777
sg599
(dp3778
g593
(lp3779
(S'c:/Marmalade/7.5/examples/GameTutorial/CPP/marm1/data/audio'
p3780
S'audio'
p3781
I0
tp3782
a(S'c:/Marmalade/7.5/examples/GameTutorial/CPP/marm1/data/textures'
p3783
S'textures'
p3784
I0
tp3785
a(S'c:/Marmalade/7.5/examples/GameTutorial/CPP/marm1/data/fonts'
p3786
S'fonts'
p3787
I0
tp3788
a(S'c:/Marmalade/7.5/examples/GameTutorial/CPP/marm1/data-ram/data-gles1,c:/Marmalade/7.5/examples/GameTutorial/CPP/marm1/data'
p3789
S'.'
p3790
I0
tp3791
assS'macro_types'
p3792
(dp3793
g528
I1
sg529
I0
sg530
I0
sg531
I0
sg533
I0
sg534
I0
sg535
I0
sg536
I0
sg537
I0
sg539
I0
sg540
I0
sg541
I0
sg542
I0
sg543
I0
sg545
I0
sg547
I0
sg548
I0
sg549
I0
sg550
I0
sg551
I0
sg552
I0
sg553
I0
sg554
I0
sg555
I1
sg556
I0
sg557
I0
sg558
I0
sg559
I0
sg560
I01
sg561
I1
sg562
I0
sg563
I0
sg564
I0
sg565
I0
sg566
I0
sg567
I0
sg568
I0
ssS'commands'
p3794
(lp3795
sg601
(g1073
S'VC12'
p3796
S'X86ARMAARCH64'
p3797
tp3798
sS'build_libs'
p3799
(dp3800
sg603
g0
sS'frameworks'
p3801
(lp3802
sS'environ'
p3803
(dp3804
sS'target_name_debug'
p3805
g337
sS'builders'
p3806
(dp3807
g593
(dp3808
S'.S'
p3809
(dp3810
S'gcc_aarch64'
p3811
(lp3812
S'.obj'
p3813
aS'echo AARCH64 Assembling(GCC) ${SOURCE}...'
p3814
aS'c:/marmalade/7.5/s3e\\gcc\\win32\\aarch64\\bin\\aarch64-none-elf-gcc -c -o ${TARGET} ${SOURCE}'
p3815
asS'rvct'
p3816
(lp3817
g3813
aS'echo ARM Assembling(RVCT) ${SOURCE}...'
p3818
aS'c:/marmalade/7.5/s3e\\rvct\\bin\\armasm -o ${TARGET} ${SOURCE}'
p3819
asg451
(lp3820
g3813
aS'echo ARM Assembling(GCC) ${SOURCE}...'
p3821
aS'c:/marmalade/7.5/s3e\\gcc\\win32\\arm\\bin\\arm-none-eabi-gcc -c -o ${TARGET} ${SOURCE}'
p3822
asS'ppu'
p3823
(lp3824
S'.a'
p3825
aS'echo PPU Assembling(SNC) ${SOURCE}...'
p3826
aS'c:/marmalade/7.5/s3e\\rvct\\bin\\armasm -o ${TARGET} ${SOURCE}'
p3827
assS'.s'
p3828
g3810
sS'.vp'
p3829
(lp3830
NaS'"C:/Marmalade/7.5/s3e/python/python.exe" "c:/marmalade/7.5/modules/iwgx/tools/compile_shaders.py" ${SOURCE}'
p3831
asssS'extproject_names'
p3832
(lp3833
sbtp3834
.