((dp0
S'arm_dbg_args'
p1
S'-via:"c:\\Marmalade\\7.5\\examples\\GameTutorial\\CPP\\marm1\\build_stage4_vc12\\Stage4_vc12_arm_debug.via" -qemu'
p2
sS'game-icf'
p3
S''
p4
sS'dist'
p5
NsS'csproj'
p6
g4
sS'module_path_append'
p7
NsS'global_path'
p8
S'c:\\marmalade\\7.5\\examples\\gametutorial\\cpp'
p9
sS'system_path'
p10
S'c:\\marmalade\\7.5\\s3e\\makefile_builder'
p11
sS'android_x86_dbg_args'
p12
S'../../tools/DeployTool/DeployTool.exe --dir "c:\\Marmalade\\7.5\\examples\\GameTutorial\\CPP\\marm1\\build_stage4_vc12"'
p13
sS'aarch64-arch-mod'
p14
g4
sS'no-emit'
p15
NsS'arm-float-abi'
p16
g4
sS'arm_rel_rtsm_args'
p17
S'-via:"c:\\Marmalade\\7.5\\examples\\GameTutorial\\CPP\\marm1\\build_stage4_vc12\\Stage4_vc12_arm_release.via" -qemu'
p18
sS'amd64'
p19
NsS'line-width'
p20
I80
sS'gcc_dbg_args'
p21
S'-via:"c:\\Marmalade\\7.5\\examples\\GameTutorial\\CPP\\marm1\\build_stage4_vc12\\Stage4_vc12_gcc_debug.via" -qemu'
p22
sS'android-x86'
p23
NsS'x86_dbg_exe'
p24
S'c:/marmalade/7.5/s3e\\win32\\s3e_simulator_debug.exe'
p25
sS'disable-runtime-checks'
p26
NsS'release'
p27
NsS'no-make'
p28
NsS'xcode-x86-build-settings'
p29
g4
sS'optimise-size'
p30
NsS'fat'
p31
NsS'output-name-debug'
p32
g4
sS'arm-fpu'
p33
g4
sS'proj_name'
p34
S'Stage4_vc12'
p35
sS'rvct-version'
p36
S'none'
p37
sS'compiler'
p38
g4
sS'execute'
p39
NsS'compile-static'
p40
NsS'msvc-project'
p41
I01
sS'buildenv'
p42
S'VC12'
p43
sS'quick'
p44
NsS'module_path'
p45
(lp46
S'c:/Marmalade/7.5/examples/GameTutorial/CPP/modules'
p47
asS'mkf_default'
p48
S's3e-default.mkf'
p49
sS'use-release-std-libs'
p50
NsS'using_perforce'
p51
I00
sS'tizen-x86'
p52
NsS'mips-s3e'
p53
NsS's3e-api-lib-name'
p54
S's3e_api_iwgl'
p55
sS'ios-no-pic'
p56
NsS'shared-arm-lib'
p57
NsS'arm-cpu'
p58
g4
sS'compile-thumb'
p59
NsS'no-ide'
p60
NsS'msvc-version'
p61
S'6.0'
p62
sS'arm'
p63
NsS'builddir'
p64
g4
sS'compile-debug-as-release'
p65
I0
sS'arm-arch'
p66
g4
sS'brief'
p67
NsS'dll'
p68
NsS'buildenv-toolset'
p69
g4
sS'version'
p70
NsS'aarch64-arch'
p71
g4
sS'ccache'
p72
I0
sS'offline'
p73
NsS'ios-version'
p74
g4
sS'hub_data'
p75
g4
sS'fake_vc_call'
p76
I01
sS'jobs'
p77
I0
sS'linkflags'
p78
NsS'gcc_aarch64_dbg_args'
p79
g13
sS'debug'
p80
NsS'xcode-build-order'
p81
g4
sS'gcc_aarch64_rel_rtsm_args'
p82
S'-via:"c:\\Marmalade\\7.5\\examples\\GameTutorial\\CPP\\marm1\\build_stage4_vc12\\Stage4_vc12_gcc_aarch64_release.via" -qemu'
p83
sS'gcc_rel_rtsm_args'
p84
S'-via:"c:\\Marmalade\\7.5\\examples\\GameTutorial\\CPP\\marm1\\build_stage4_vc12\\Stage4_vc12_gcc_release.via" -qemu'
p85
sS'done_defaults'
p86
I1
sS'path'
p87
NsS's3e-data-dir'
p88
S'c:/Marmalade/7.5/examples/GameTutorial/CPP/marm1\\data'
p89
sS'enable-exceptions'
p90
NsS'osx-dll'
p91
NsS'extension'
p92
g4
sS'no-vc6'
p93
NsS'aarch64'
p94
NsS'win32-console'
p95
NsS'dist-format'
p96
g4
sS's3e-force-arch'
p97
NsS'dump_defines'
p98
NsS'use-shared-std-libs'
p99
NsS'gcc-version'
p100
g4
sS'x86_dbg_args'
p101
S'-via:"c:\\Marmalade\\7.5\\examples\\GameTutorial\\CPP\\marm1\\build_stage4_vc12\\Stage4_vc12_debug.via"'
p102
sS'tizen_x86_dbg_args'
p103
g13
sS'arm-debugger'
p104
g4
sS'use_temp_extension'
p105
NsS'verbose'
p106
I0
sS'log'
p107
NsS'no-strip'
p108
NsS'rebuild'
p109
NsS'mips_dbg_args'
p110
g13
sS'win32-simulator-dll'
p111
NsS'strict'
p112
NsS'xcode-aarch64-build-settings'
p113
g4
sS'enable-global-path'
p114
NsS'gcc_aarch64_rel_args'
p115
g13
sS'cflags'
p116
NsS'dist-dir'
p117
g4
sS'xcode-arm-build-settings'
p118
g4
sS'jflags'
p119
NsS'csprojSDKRefs'
p120
g4
sS'tizen_x86_rel_exe'
p121
S'c:\\marmalade\\7.5\\s3e\\makefile_builder\\tool_launcher.exe'
p122
sS'test-assets'
p123
g4
sS'distcc'
p124
NsS'external-compiler'
p125
NsS'no-distcc'
p126
NsS'preinclude'
p127
NsS'using_sdk'
p128
I01
sS'nologo'
p129
NsS'warn-level'
p130
I2
sS'mips_dbg_exe'
p131
g122
sS'mkb_in'
p132
S'c:/Marmalade/7.5/examples/GameTutorial/CPP/marm1/Stage4.mkb'
p133
sS'tizen_x86_dbg_exe'
p134
g122
sS'arm_dbg_exe'
p135
S'c:/marmalade/7.5/s3e\\bin\\armdebug.exe'
p136
sS'mdev-first'
p137
NsS'csprojDLLRef'
p138
NsS'tizen_x86_rel_args'
p139
g13
sS'android_x86_dbg_exe'
p140
g122
sS'test-config'
p141
g4
sS'list-targets'
p142
NsS'arm_rel_exe'
p143
g122
sS'arm_rel_args'
p144
g13
sS'makedeps'
p145
NsS'android_x86_rel_exe'
p146
g122
sS'default-buildenv'
p147
S'vc12'
p148
sS'x86_rel_exe'
p149
g25
sS'preprocess-java'
p150
NsS'mips_rel_args'
p151
g13
sS'defines'
p152
NsS'lib'
p153
NsS'non-interactive'
p154
NsS'global_argv'
p155
(lp156
S'C:\\Marmalade\\7.5\\s3e\\makefile_builder\\mkb.py'
p157
aS'c:/Marmalade/7.5/examples/GameTutorial/CPP/marm1/Stage4.mkb'
p158
aS'--buildenv=VC12'
p159
aS'--fake-vc-call'
p160
aS'--default-buildenv=vc12'
p161
aS'--msvc-project'
p162
asS'make'
p163
NsS'optimise-speed'
p164
NsS'internal'
p165
NsS'enable-stdinc'
p166
NsS'deploy-only'
p167
NsS'x86'
p168
NsS'deploy'
p169
g4
sS'x86_run_exe'
p170
S'c:/marmalade/7.5/s3e\\win32\\s3e_console.exe'
p171
sS'cxxflags'
p172
NsS'x86_rel_args'
p173
S'-via:"c:\\Marmalade\\7.5\\examples\\GameTutorial\\CPP\\marm1\\build_stage4_vc12\\Stage4_vc12_release.via"'
p174
sS'gcc_rel_args'
p175
g13
sS'mips'
p176
NsS'xcode-build-settings'
p177
g4
sS'incredibuild'
p178
NsS'strict-compile'
p179
NsS'use-auto-subdirs'
p180
NsS'mips_rel_exe'
p181
g122
sS'android_x86_rel_args'
p182
g13
sS'app-icf'
p183
g4
sS'deployargs'
p184
NsS'iosnativedebug'
p185
NsS'use_prebuilt'
p186
NsS'mkf_in'
p187
(lp188
S'c:\\marmalade\\7.5\\s3e\\s3e-default.mkf'
p189
aS'c:\\marmalade\\7.5\\modules\\iw2d\\iw2d.mkf'
p190
aS'c:\\marmalade\\7.5\\modules\\iwgx\\iwgx.mkf'
p191
aS'c:\\marmalade\\7.5\\modules\\iwgl\\iwgl.mkf'
p192
aS'c:\\marmalade\\7.5\\modules\\iwutil\\iwutil.mkf'
p193
aS'c:\\marmalade\\7.5\\modules\\third_party\\libjpeg\\libjpeg.mkf'
p194
aS'c:\\marmalade\\7.5\\modules\\third_party\\libpng\\libpng.mkf'
p195
aS'c:\\marmalade\\7.5\\modules\\third_party\\zlib\\zlib.mkf'
p196
aS'c:\\marmalade\\7.5\\modules\\iwgeom\\iwgeom.mkf'
p197
aS'c:\\marmalade\\7.5\\modules\\iwresmanager\\iwresmanager.mkf'
p198
aS'c:\\marmalade\\7.5\\extensions\\pvrtextool\\pvrtextool.mkf'
p199
aS'c:\\marmalade\\7.5\\modules\\iwgxfont\\iwgxfont.mkf'
p200
aS'c:\\marmalade\\7.5\\modules\\third_party\\tiniconv\\tiniconv.mkf'
p201
aS'c:\\marmalade\\7.5\\modules\\iw2dscenegraph\\iw2dscenegraph.mkf'
p202
aS'c:\\marmalade\\7.5\\modules\\iw2dscenegraphcore\\iw2dscenegraphcore.mkf'
p203
aS'c:\\marmalade\\7.5\\modules\\iwtween\\iwtween.mkf'
p204
aS'c:\\marmalade\\7.5\\examples\\gametutorial\\cpp\\modules\\soundengine\\soundengine.mkf'
p205
aS'c:\\marmalade\\7.5\\examples\\marmaladeexampleresources\\marmaladeexampleresources.mkf'
p206
asS'strict-mkb'
p207
NsS'executeargs'
p208
NsS'clean'
p209
NsS'no-asm'
p210
NsS'output-name'
p211
g4
sS'no-modules'
p212
NsS'find_define'
p213
g4
s(dp214
S'c:\\marmalade\\7.5\\s3e\\makefile_builder\\templates\\vc7_suo.pyc'
p215
F1424160376.0
sS'c:\\marmalade\\7.5\\s3e\\makefile_builder\\templates\\ws81_vcxproj.pyc'
p216
F1424160380.0
sS'c:\\marmalade\\7.5\\s3e\\makefile_builder\\plugins\\s3e_ws8.pyc'
p217
F1424160376.0
sS'c:\\marmalade\\7.5\\s3e\\makefile_builder\\templates'
p218
F1424630747.758857
sS'c:\\marmalade\\7.5\\s3e\\makefile_builder\\templates\\qmake.py'
p219
F1424159312.0
sS'c:\\marmalade\\7.5\\s3e\\makefile_builder\\templates\\vc10_user.pyc'
p220
F1424160378.0
sS'c:\\marmalade\\7.5\\s3e\\makefile_builder\\plugins'
p221
F1424631019.086376
sS'c:\\marmalade\\7.5\\s3e\\makefile_builder\\mkb_main.pyc'
p222
F1424160376.0
sS'c:\\marmalade\\7.5\\s3e\\makefile_builder\\templates\\mips_linker_script'
p223
F1424159312.0
sS'c:\\marmalade\\7.5\\s3e\\makefile_builder\\plugins\\XcodeEmitter.py'
p224
F1424159310.0
sS'c:\\marmalade\\7.5\\s3e\\makefile_builder\\mkb.py'
p225
F1424159310.0
sS'c:\\marmalade\\7.5\\s3e\\makefile_builder\\templates\\ws81_ext_sln.pyc'
p226
F1424160380.0
sS'c:\\marmalade\\7.5\\s3e\\makefile_builder\\templates\\win32_dsp.pyc'
p227
F1424160376.0
sS'c:\\marmalade\\7.5\\s3e\\makefile_builder\\templates\\ws8_csproj.pyc'
p228
F1424160380.0
sS'c:\\marmalade\\7.5\\s3e\\makefile_builder\\deployment.pyc'
p229
F1424160376.0
sS'c:\\marmalade\\7.5\\s3e\\makefile_builder\\plugins\\win32_vc6.pyc'
p230
F1424160376.0
sS'c:\\marmalade\\7.5\\s3e\\makefile_builder\\plugins\\osx_xcode.pyc'
p231
F1424160376.0
sS'c:\\marmalade\\7.5\\s3e\\makefile_builder\\plugins\\null.pyc'
p232
F1424160376.0
sS'c:\\marmalade\\7.5\\s3e\\makefile_builder\\templates\\wp81_csproj.pyc'
p233
F1424160380.0
sS'c:\\marmalade\\7.5\\s3e\\makefile_builder\\templates\\qmake_user.py'
p234
F1424159312.0
sS'c:\\marmalade\\7.5\\s3e\\makefile_builder\\templates\\vc6_opt.pyc'
p235
F1424160376.0
sS'c:\\marmalade\\7.5\\s3e\\makefile_builder\\plugins\\vc7_utils.pyc'
p236
F1424160376.0
sS'c:\\marmalade\\7.5\\s3e\\makefile_builder\\templates\\wp81_vcxproj.pyc'
p237
F1424160380.0
sS'c:\\marmalade\\7.5\\s3e\\makefile_builder\\templates\\win32_vcxproj.pyc'
p238
F1424160378.0
sS'c:\\marmalade\\7.5\\s3e\\makefile_builder\\templates\\ws8_ext_sln.pyc'
p239
F1424160380.0
sS'c:\\marmalade\\7.5\\s3e\\makefile_builder\\templates\\ws8_ext_csproj.pyc'
p240
F1424160380.0
sS'c:\\marmalade\\7.5\\s3e\\makefile_builder\\templates\\wp8_ext_csproj.pyc'
p241
F1424160378.0
sS'c:\\marmalade\\7.5\\s3e\\makefile_builder\\plugins\\s3e_wp8.pyc'
p242
F1424160376.0
sS'c:\\marmalade\\7.5\\s3e\\makefile_builder\\templates\\ws81_csproj.pyc'
p243
F1424160380.0
sS'c:\\marmalade\\7.5\\s3e\\makefile_builder\\docs\\deprecated.options.txt'
p244
F1424159310.0
sS'c:\\marmalade\\7.5\\s3e\\makefile_builder\\plugins\\s3e_make.pyc'
p245
F1424160376.0
sS'c:\\marmalade\\7.5\\s3e\\makefile_builder\\templates\\win8_ext_csproj.pyc'
p246
F1424160378.0
sS'c:\\marmalade\\7.5\\s3e\\makefile_builder\\mkb_parser.pyc'
p247
F1424160376.0
sS'c:\\marmalade\\7.5\\s3e\\makefile_builder\\plugins\\s3e_web.pyc'
p248
F1424160376.0
sS'c:\\marmalade\\7.5\\s3e\\makefile_builder\\docs\\mkb.defines.txt'
p249
F1424159310.0
sS'c:\\marmalade\\7.5\\s3e\\makefile_builder\\plugins\\osx_scons.pyc'
p250
F1424160376.0
sS'c:\\marmalade\\7.5\\s3e\\makefile_builder\\plugins\\ws81_ws81.pyc'
p251
F1424160376.0
sS'c:\\marmalade\\7.5\\s3e\\makefile_builder\\plugins\\s3e_qmake.py'
p252
F1424159312.0
sS'c:\\marmalade\\7.5\\s3e\\makefile_builder\\templates\\win8_csproj.pyc'
p253
F1424160378.0
sS'c:\\marmalade\\7.5\\s3e\\makefile_builder\\plugins\\s3e_vc6.pyc'
p254
F1424160376.0
sS'c:\\marmalade\\7.5\\s3e\\makefile_builder\\plugins\\wp81_wp81.pyc'
p255
F1424160376.0
sS'c:\\marmalade\\7.5\\s3e\\makefile_builder\\templates\\wp81_csproj_user.pyc'
p256
F1424160380.0
sS'c:\\marmalade\\7.5\\s3e\\makefile_builder\\templates\\win32_dsw.pyc'
p257
F1424160376.0
sS'c:\\marmalade\\7.5\\s3e\\makefile_builder\\templates\\xcode4.xcscheme'
p258
F1424159312.0
sS'c:\\marmalade\\7.5\\s3e\\makefile_builder\\templates\\template.opt'
p259
F1424159312.0
sS'c:\\marmalade\\7.5\\s3e\\makefile_builder\\templates\\template.suo'
p260
F1424159312.0
sS'c:\\marmalade\\7.5\\s3e\\makefile_builder\\templates\\linker_script'
p261
F1424159312.0
sS'c:\\marmalade\\7.5\\s3e\\makefile_builder\\templates\\gdb_start.txt'
p262
F1424159312.0
sS'c:\\marmalade\\7.5\\s3e\\makefile_builder\\mkb_launcher.exe'
p263
F1424159548.0
sS'c:\\marmalade\\7.5\\s3e\\makefile_builder\\templates\\scons.pyc'
p264
F1424160376.0
sS'c:\\marmalade\\7.5\\s3e\\makefile_builder\\docs\\parse_options.pyc'
p265
F1424160380.0
sS'c:\\marmalade\\7.5\\s3e\\makefile_builder\\templates\\xcode4_arm.xcscheme'
p266
F1424159312.0
sS'c:\\marmalade\\7.5\\s3e\\makefile_builder\\plugins\\VisualStudioEmitter.pyc'
p267
F1424160376.0
sS'c:\\marmalade\\7.5\\s3e\\makefile_builder\\plugins\\s3e_xcode.pyc'
p268
F1424631019.087376
sS'c:\\marmalade\\7.5\\s3e\\makefile_builder\\plugins\\Emitter.pyc'
p269
F1424160376.0
sS'c:\\marmalade\\7.5\\s3e\\makefile_builder\\templates\\ws8_sln.pyc'
p270
F1424160380.0
sS'c:\\marmalade\\7.5\\s3e\\makefile_builder\\tool_launcher.exe'
p271
F1424159548.0
sS'c:\\marmalade\\7.5\\s3e\\makefile_builder\\templates\\wp8_sln.pyc'
p272
F1424160378.0
sS'c:\\marmalade\\7.5\\s3e\\makefile_builder\\mkb_upstream.pyc'
p273
F1424160376.0
sS'c:\\marmalade\\7.5\\s3e\\makefile_builder\\templates\\ws81_csproj_user.pyc'
p274
F1424160380.0
sS'c:\\marmalade\\7.5\\s3e\\makefile_builder\\templates\\win32_sln.pyc'
p275
F1424160376.0
sS'c:\\marmalade\\7.5\\s3e\\makefile_builder\\templates\\xcode4_DeployTool.xcscheme'
p276
F1424159312.0
sS'c:\\marmalade\\7.5\\s3e\\makefile_builder\\plugins\\deploy.pyc'
p277
F1424160376.0
sS'c:\\marmalade\\7.5\\s3e\\makefile_builder\\plugins\\s3e_win8.pyc'
p278
F1424160376.0
sS'c:\\marmalade\\7.5\\s3e\\makefile_builder\\plugins\\iphone.pyc'
p279
F1424160376.0
sS'c:\\marmalade\\7.5\\s3e\\makefile_builder\\plugins\\Win8Emitter.pyc'
p280
F1424160376.0
sS'c:\\marmalade\\7.5\\s3e\\makefile_builder\\plugins\\s3e_qmake.pyc'
p281
F1424631018.9523683
sS'c:\\marmalade\\7.5\\s3e\\makefile_builder\\docs'
p282
F1424630747.7758577
sS'c:\\marmalade\\7.5\\s3e\\makefile_builder\\mkb_globals.pyc'
p283
F1424160376.0
sS'c:\\marmalade\\7.5\\s3e\\makefile_builder\\plugins\\win8_utils.pyc'
p284
F1424160376.0
sS'c:\\marmalade\\7.5\\s3e\\makefile_builder\\plugins\\xcode4_schememanagement.py'
p285
F1424159312.0
sS'c:\\marmalade\\7.5\\s3e\\makefile_builder\\templates\\wp81_ext_sln.pyc'
p286
F1424160380.0
sS'c:\\marmalade\\7.5\\s3e\\makefile_builder\\templates\\make.py'
p287
F1424159312.0
sS'c:\\marmalade\\7.5\\s3e\\makefile_builder\\templates\\ws81_ext_csproj.pyc'
p288
F1424160380.0
sS'c:\\marmalade\\7.5\\s3e\\makefile_builder\\plugins\\s3e_xcode.py'
p289
F1424159312.0
sS'c:\\marmalade\\7.5\\s3e\\makefile_builder\\plugins\\XcodeEmitter.pyc'
p290
F1424631018.8013597
sS'c:\\marmalade\\7.5\\s3e\\makefile_builder\\docs\\deployment_options.txt'
p291
F1424159310.0
sS'c:\\marmalade\\7.5\\s3e\\makefile_builder\\templates\\win8_sln.pyc'
p292
F1424160378.0
sS'c:\\marmalade\\7.5\\s3e\\makefile_builder\\plugins\\java.pyc'
p293
F1424160376.0
sS'c:\\marmalade\\7.5\\s3e\\makefile_builder\\plugins\\xcode4_schememanagement.pyc'
p294
F1424631018.80836
sS'c:\\marmalade\\7.5\\s3e\\makefile_builder\\plugins\\SConsEmitter.pyc'
p295
F1424160376.0
sS'c:\\marmalade\\7.5\\s3e\\makefile_builder\\templates\\win32_vcproj.pyc'
p296
F1424160378.0
sS'c:\\marmalade\\7.5\\s3e\\makefile_builder\\plugins\\wp8_wp8.pyc'
p297
F1424160376.0
sS'c:\\marmalade\\7.5\\s3e\\makefile_builder\\templates\\MainWindow.xib'
p298
F1424159312.0
sS'c:\\marmalade\\7.5\\s3e\\makefile_builder\\mkb_util.pyc'
p299
F1424160376.0
sS'c:\\marmalade\\7.5\\s3e\\makefile_builder\\templates\\vc8_user.pyc'
p300
F1424160378.0
sS'c:\\marmalade\\7.5\\s3e\\makefile_builder\\templates\\Info.plist'
p301
F1424159312.0
sS'c:\\marmalade\\7.5\\s3e\\makefile_builder\\templates\\wp8_csproj_user.pyc'
p302
F1424160378.0
sS'c:\\marmalade\\7.5\\s3e\\makefile_builder\\docs\\deprecated.defines.txt'
p303
F1424159310.0
sS'c:\\marmalade\\7.5\\s3e\\makefile_builder\\templates\\ws8_csproj_user.pyc'
p304
F1424160380.0
sS'c:\\marmalade\\7.5\\s3e\\makefile_builder\\plugins\\S3EEmitter.pyc'
p305
F1424160376.0
sS'c:\\marmalade\\7.5\\s3e\\makefile_builder\\templates\\rvct_linker_script'
p306
F1424159312.0
sS'c:\\marmalade\\7.5\\s3e\\makefile_builder\\templates\\xcode_pbxuser.py'
p307
F1424159312.0
sS'c:\\marmalade\\7.5\\s3e\\makefile_builder\\docs\\options.txt'
p308
F1424159310.0
sS'c:\\marmalade\\7.5\\s3e\\makefile_builder\\templates\\wp81_sln.pyc'
p309
F1424160380.0
sS'c:\\marmalade\\7.5\\s3e\\makefile_builder\\templates\\ws81_sln.pyc'
p310
F1424160380.0
sS'c:\\marmalade\\7.5\\s3e\\makefile_builder\\plugins\\vc6_utils.pyc'
p311
F1424160376.0
sS'c:\\marmalade\\7.5\\s3e\\makefile_builder\\templates\\wp81_ext_csproj.pyc'
p312
F1424160380.0
sS'c:\\marmalade\\7.5\\s3e\\makefile_builder\\plugins\\s3e_wp81.pyc'
p313
F1424160376.0
sS'c:\\marmalade\\7.5\\s3e\\makefile_builder\\templates\\aarch64_linker_script'
p314
F1424159312.0
sS'c:\\marmalade\\7.5\\s3e\\makefile_builder\\templates\\ws8_vcxproj.pyc'
p315
F1424160380.0
sS'c:\\marmalade\\7.5\\s3e\\makefile_builder\\plugins\\MakeEmitter.pyc'
p316
F1424160376.0
sS'c:\\marmalade\\7.5\\s3e\\makefile_builder\\templates\\win32_vcxproj_filters.pyc'
p317
F1424160378.0
sS'c:\\marmalade\\7.5\\s3e\\makefile_builder\\templates\\xcode.py'
p318
F1424159312.0
sS'c:\\marmalade\\7.5\\s3e\\makefile_builder\\plugins\\s3e_ws81.pyc'
p319
F1424160376.0
sS'c:\\marmalade\\7.5\\s3e\\makefile_builder\\plugins\\linux_scons.pyc'
p320
F1424160376.0
sS'c:\\marmalade\\7.5\\s3e\\makefile_builder\\templates\\win8_vcxproj.pyc'
p321
F1424160378.0
sS'c:\\marmalade\\7.5\\s3e\\makefile_builder\\plugins\\s3e_scons.pyc'
p322
F1424160376.0
sS'c:\\marmalade\\7.5\\s3e\\makefile_builder\\templates\\wp8_csproj.pyc'
p323
F1424160378.0
sS'c:\\marmalade\\7.5\\s3e\\makefile_builder\\templates\\win8_csproj_user.pyc'
p324
F1424160378.0
sS'c:\\marmalade\\7.5\\s3e\\makefile_builder\\plugins\\ws8_ws8.pyc'
p325
F1424160376.0
sS'c:\\marmalade\\7.5\\s3e\\makefile_builder\\templates\\wp8_vcxproj.pyc'
p326
F1424160378.0
sS'c:\\marmalade\\7.5\\s3e\\makefile_builder\\mkb_option.pyc'
p327
F1424160376.0
sccopy_reg
_reconstructor
p328
(cmkb_main
MkbFile
p329
c__builtin__
object
p330
Ntp331
Rp332
(dp333
g5
(lp334
sS'target_name'
p335
S'Stage4'
p336
sS'current_file'
p337
g133
sS'package_path'
p338
(lp339
sS'post_build'
p340
(lp341
(lp342
S'c:/marmalade/7.5/s3e/tools'
p343
aS'C:\\Marmalade\\7.5\\s3e\\python\\python.exe .\\process_map.py "$(TargetPath)"'
p344
aa(S'c:\\marmalade\\7.5\\s3e\\bin'
p345
S'"s3e_plink" -l "$(TargetPath)" '
p346
g168
tp347
asS'librarys'
p348
(lp349
g328
(cmkb_main
Library
p350
g330
Ntp351
Rp352
(dp353
S'name'
p354
S'vc6_compat.lib'
p355
sS'expand_name'
p356
I00
sS'include_spec_rvct_objs'
p357
(lp358
sS'include_all_objs'
p359
I00
sS'share_arm'
p360
I00
sS'arch'
p361
S'x86'
p362
sS'nodebug'
p363
I00
sg38
Nsbag328
(g350
g330
Ntp364
Rp365
(dp366
g354
S'iw2d'
p367
sg356
I01
sg357
(lp368
sg359
Nsg360
Nsg361
Nsg363
I00
sg38
Nsbag328
(g350
g330
Ntp369
Rp370
(dp371
g354
S'ATI_Compress_MT_VC7.lib'
p372
sg356
I00
sg357
g368
sg359
Nsg360
Nsg361
S'x86'
p373
sg363
I00
sg38
Nsbag328
(g350
g330
Ntp374
Rp375
(dp376
g354
S'iwgx'
p377
sg356
I01
sg357
g368
sg359
Nsg360
Nsg361
Nsg363
I00
sg38
Nsbag328
(g350
g330
Ntp378
Rp379
(dp380
g354
S'iwgl'
p381
sg356
I01
sg357
g368
sg359
Nsg360
Nsg361
Nsg363
I00
sg38
Nsbag328
(g350
g330
Ntp382
Rp383
(dp384
g354
S'iwutil'
p385
sg356
I01
sg357
g368
sg359
Nsg360
Nsg361
Nsg363
I00
sg38
Nsbag328
(g350
g330
Ntp386
Rp387
(dp388
g354
S'jpeg'
p389
sg356
I01
sg357
g368
sg359
Nsg360
Nsg361
Nsg363
I00
sg38
Nsbag328
(g350
g330
Ntp390
Rp391
(dp392
g354
S'z'
p393
sg356
I01
sg357
g368
sg359
Nsg360
Nsg361
Nsg363
I00
sg38
Nsbag328
(g350
g330
Ntp394
Rp395
(dp396
g354
S'png'
p397
sg356
I01
sg357
g368
sg359
Nsg360
Nsg361
Nsg363
I00
sg38
Nsbag328
(g350
g330
Ntp398
Rp399
(dp400
g354
S'iwgeom'
p401
sg356
I01
sg357
g368
sg359
Nsg360
Nsg361
Nsg363
I00
sg38
Nsbag328
(g350
g330
Ntp402
Rp403
(dp404
g354
S'iwresmanager'
p405
sg356
I01
sg357
g368
sg359
Nsg360
Nsg361
Nsg363
I00
sg38
Nsbag328
(g350
g330
Ntp406
Rp407
(dp408
g354
S'iwgxfont'
p409
sg356
I01
sg357
g368
sg359
Nsg360
Nsg361
Nsg363
I00
sg38
Nsbag328
(g350
g330
Ntp410
Rp411
(dp412
g354
S'tiniconv'
p413
sg356
I01
sg357
g368
sg359
Nsg360
Nsg361
Nsg363
I00
sg38
Nsbag328
(g350
g330
Ntp414
Rp415
(dp416
g354
S's3e_cpp'
p417
sg356
I01
sg357
g358
sg359
I00
sg360
I00
sg361
Nsg363
I00
sg38
Nsbag328
(g350
g330
Ntp418
Rp419
(dp420
g354
S's3e'
p421
sg356
I01
sg357
(lp422
S'iwcrt.o'
p423
asg359
I00
sg360
I00
sg361
Nsg363
I00
sg38
Nsbag328
(g350
g330
Ntp424
Rp425
(dp426
g354
g55
sg356
I01
sg357
g358
sg359
I00
sg360
I00
sg361
S'x86'
p427
sg363
I01
sg38
Nsbag328
(g350
g330
Ntp428
Rp429
(dp430
g354
g55
sg356
I01
sg357
g358
sg359
I00
sg360
I00
sg361
S'!x86'
p431
sg363
I01
sg38
Nsbag328
(g350
g330
Ntp432
Rp433
(dp434
g354
S'stdc++'
p435
sg356
I00
sg357
g358
sg359
I00
sg360
I00
sg361
S'mips'
p436
sg363
I00
sg38
Nsbag328
(g350
g330
Ntp437
Rp438
(dp439
g354
S'c'
p440
sg356
I00
sg357
g358
sg359
I00
sg360
I00
sg361
S'mips'
p441
sg363
I00
sg38
Nsbag328
(g350
g330
Ntp442
Rp443
(dp444
g354
S'm'
p445
sg356
I00
sg357
g358
sg359
I00
sg360
I00
sg361
S'mips'
p446
sg363
I00
sg38
Nsbag328
(g350
g330
Ntp447
Rp448
(dp449
g354
S'gcc'
p450
sg356
I00
sg357
g358
sg359
I00
sg360
I00
sg361
S'mips'
p451
sg363
I00
sg38
Nsbag328
(g350
g330
Ntp452
Rp453
(dp454
g354
S'stdc++'
p455
sg356
I00
sg357
g358
sg359
I00
sg360
I00
sg361
S'gcc_x86_android'
p456
sg363
I00
sg38
Nsbag328
(g350
g330
Ntp457
Rp458
(dp459
g354
g440
sg356
I00
sg357
g358
sg359
I00
sg360
I00
sg361
S'gcc_x86_android'
p460
sg363
I00
sg38
Nsbag328
(g350
g330
Ntp461
Rp462
(dp463
g354
g445
sg356
I00
sg357
g358
sg359
I00
sg360
I00
sg361
S'gcc_x86_android'
p464
sg363
I00
sg38
Nsbag328
(g350
g330
Ntp465
Rp466
(dp467
g354
g450
sg356
I00
sg357
g358
sg359
I00
sg360
I00
sg361
S'gcc_x86_android'
p468
sg363
I00
sg38
NsbasS'library_paths'
p469
(lp470
g328
(cmkb_main
LibraryPath
p471
g330
Ntp472
Rp473
(dp474
S'expand_path'
p475
I01
sg354
S'c:/marmalade/7.5/modules/iw2d'
p476
sbag328
(g471
g330
Ntp477
Rp478
(dp479
g475
I00
sg354
S'c:/marmalade/7.5/modules/iwgx/atitools'
p480
sbag328
(g471
g330
Ntp481
Rp482
(dp483
g475
I01
sg354
S'c:/marmalade/7.5/modules/iwgx'
p484
sbag328
(g471
g330
Ntp485
Rp486
(dp487
g475
I01
sg354
S'c:/marmalade/7.5/modules/iwgl'
p488
sbag328
(g471
g330
Ntp489
Rp490
(dp491
g475
I01
sg354
S'c:/marmalade/7.5/modules/iwutil'
p492
sbag328
(g471
g330
Ntp493
Rp494
(dp495
g475
I01
sg354
S'c:/marmalade/7.5/modules/third_party/libjpeg'
p496
sbag328
(g471
g330
Ntp497
Rp498
(dp499
g475
I01
sg354
S'c:/marmalade/7.5/modules/third_party/zlib'
p500
sbag328
(g471
g330
Ntp501
Rp502
(dp503
g475
I01
sg354
S'c:/marmalade/7.5/modules/third_party/libpng'
p504
sbag328
(g471
g330
Ntp505
Rp506
(dp507
g475
I01
sg354
S'c:/marmalade/7.5/modules/iwgeom'
p508
sbag328
(g471
g330
Ntp509
Rp510
(dp511
g475
I01
sg354
S'c:/marmalade/7.5/modules/iwresmanager'
p512
sbag328
(g471
g330
Ntp513
Rp514
(dp515
g475
I01
sg354
S'c:/marmalade/7.5/modules/iwgxfont'
p516
sbag328
(g471
g330
Ntp517
Rp518
(dp519
g475
I01
sg354
S'c:/marmalade/7.5/modules/third_party/tiniconv'
p520
sbag328
(g471
g330
Ntp521
Rp522
(dp523
g475
I01
sg354
S'c:/marmalade/7.5/s3e'
p524
sbasS'macros'
p525
(dp526
S'IW_USE_CALLSTACK'
p527
NsS'IW_MKF_IWGEOM'
p528
NsS'I3D_PLATFORM_S3E'
p529
NsS'IW_TRACE_CHANNEL_PVRTEXTOOL_VERBOSE'
p530
S'2'
p531
sS'IW_MKF_LIBJPEG'
p532
NsS'I3D_OS_S3E'
p533
NsS'IW_MKF_PVRTEXTOOL'
p534
NsS'IW_MKF_TINICONV'
p535
NsS'IW_APP_VERSION'
p536
S'"1.0"'
p537
sS'__S3E__'
p538
NsS'IW_MKF_IWRESMANAGER'
p539
NsS'IW_MKF_IWUTIL'
p540
NsS'IW_PLATFORM_S3E'
p541
NsS'IW_ASSERTION_CHANNEL_2D'
p542
S'1'
p543
sS'IW_APP_NAME'
p544
S'"Stage4"'
p545
sS'IW_MKF_MARMALADEEXAMPLERESOURCES'
p546
NsS'IW_MKF_IWGXFONT'
p547
NsS'IW_MKF_IWTWEEN'
p548
NsS'IW_MKF_ZLIB'
p549
NsS'IW_MKF_S3E_DEFAULT'
p550
NsS'IW_MKF_IWGX'
p551
NsS'IW_MKF_IW2DSCENEGRAPH'
p552
NsS'IW_MKF_SOUNDENGINE'
p553
NsS'IW_USE_ASSERTIONS'
p554
NsS'_CRT_SECURE_NO_DEPRECATE'
p555
NsS'IW_MKF_IWGL'
p556
NsS'IW_MKF_LIBPNG'
p557
NsS'IW_TRACE_CHANNEL_IW_2DSCENEGRAPH'
p558
g543
sS'IW_DEBUG'
p559
NsS'IW_USE_TRACING'
p560
NsS'IW_ASSERTION_CHANNEL_IW_2DSCENEGRAPH'
p561
g543
sS'IW_TRACE_CHANNEL_PVRTEXTOOL'
p562
g543
sS'IW_SDK'
p563
NsS'S3E_INCLUDE_LEGACY'
p564
NsS'IW_MKF_IW2DSCENEGRAPHCORE'
p565
NsS'IW_MKF_IW2D'
p566
NsS'IW_ASSERTION_CHANNEL_PVRTEXTOOL'
p567
g543
ssS'done_warnings'
p568
(dp569
sS'subprojects'
p570
(dp571
g191
S'iwgx'
p572
sg200
S'iwgxfont'
p573
sg189
S's3e-default.mkf'
p574
sg203
S'../iw2dscenegraphcore'
p575
sg196
S'zlib'
p576
sg198
S'iwresmanager'
p577
sg201
S'tiniconv'
p578
sg194
S'libjpeg'
p579
sg190
S'iw2d'
p580
sg206
S'../../../MarmaladeExampleResources'
p581
sg193
S'iwutil'
p582
sg204
S'iwtween'
p583
sg195
S'libpng'
p584
sg202
S'iw2dscenegraph'
p585
sg205
S'SoundEngine'
p586
sg192
S'iwgl'
p587
sg197
S'iwgeom'
p588
sg199
S'PVRTexTool'
p589
ssS'deployments'
p590
(dp591
S'Default'
p592
g328
(cdeployment
Deployment
p593
g330
Ntp594
Rp595
(dp596
S'got_version'
p597
I0
sS'assets'
p598
g592
sS'mkb'
p599
g332
sS'target'
p600
Nsg361
(lp601
sS'options'
p602
(dp603
S'iphone-link-lib'
p604
(lp605
sS'game-icf'
p606
NsS'android-tm'
p607
NsS'winmobile-icon32'
p608
NsS'ws8-logo-image150x150'
p609
NsS'wp81-logo-image150x150'
p610
NsS'android-keystore'
p611
NsS'osx-ext-dll'
p612
(lp613
S'c:/marmalade/7.5/extensions/pvrtextool/lib/osx/libPVRTexTool.dylib'
p614
asS'iphone-provisioning-profile'
p615
NsS'ws8-splash-screen-image620x300'
p616
NsS'wp81-extra-pri'
p617
(lp618
sS'ws8-ext-capabilities'
p619
(lp620
sS'android-icon-hdpi'
p621
NsS'iphone-ipad-only'
p622
NsS'iphone-splash-full-orient'
p623
NsS'wp8-tile-fliptemplate-supports-large'
p624
NsS'iphone-show-status-bar'
p625
NsS'roku-requires-mkv'
p626
NsS'long-caption'
p627
NsS'android-pkgname'
p628
NsS'wp81-publisher-display-name'
p629
NsS'blackberry-permissions-read-device-identifying-information'
p630
NsS'ws81-certificate-end-date'
p631
NsS'psp-dlgcontentid'
p632
NsS'iphone-minimum-ios-version'
p633
NsS'target-folder'
p634
NsS'tizen-dist1-CA-path'
p635
NsS'symbian-icon2-format'
p636
NsS'tizen-author-key'
p637
NsS'firefoxos-icon-128X128'
p638
NsS'iphone-region'
p639
NsS'uiq3-icon3-mask'
p640
NsS'brew-encoding'
p641
NsS'android-x86'
p642
NsS'nds-initialcode'
p643
NsS'iphone-persistent-wifi'
p644
NsS'psp-snd0'
p645
NsS'roku-icon-focus-hd'
p646
NsS'osx-appid'
p647
NsS'winmobile-install-folder'
p648
NsS'android-external-res'
p649
(lp650
sS'ws8-product-version'
p651
NsS'brew-priviledges'
p652
NsS'iphone-info-plist-override'
p653
NsS'iphone-icon-ipad'
p654
NsS'iphone-skip-icon-generation'
p655
NsS'roku-hidden'
p656
NsS'psp-titlename'
p657
NsS'wp81-product-version'
p658
NsS'symbian-icon1-mask'
p659
NsS'psp-parentallevel'
p660
NsS'iphone-launch-storyboard'
p661
NsS'splashscreen-use-all'
p662
NsS'wp8-author'
p663
NsS'symbian-disable-ecompxl'
p664
NsS'splashscreen-auto-onblack'
p665
NsS'iphone-icon-dir'
p666
NsS'iphone-icon-extra'
p667
NsS'win32-ext-dll'
p668
(lp669
S'c:/marmalade/7.5/extensions/pvrtextool/lib/win32/PVRTexTool.dll'
p670
asS'iphone-development-key'
p671
NsS'winmobile-icon48'
p672
NsS'android-unsigned'
p673
NsS'osx-appstore-category'
p674
NsS'version-revision'
p675
NsS'roku-icon-focus-sd'
p676
NsS'ws81-product-version'
p677
NsS'winmobile-png90'
p678
NsS'iphone-icon-ipad-high-res'
p679
NsS'iphone-disable-ipad'
p680
NsS'ws81-splash-screen-background'
p681
NsS'wp8-ext-capabilities'
p682
(lp683
sS'brew-icon-large'
p684
NsS'symbian-icon1-mask-black'
p685
NsS'ws8-extra-res'
p686
(lp687
sS'iphone-bundle-localisations'
p688
NsS'winmobile-png60'
p689
NsS'blackberry-permissions-access-shared'
p690
NsS'blackberry-author'
p691
NsS'android-icon-xxxhdpi'
p692
NsS'olddeploytoolstyle'
p693
NsS'android_icon_gallery'
p694
NsS'wp81-splash-screen-background'
p695
NsS'winmobile-cab-compress'
p696
NsS'iphone-info-plist'
p697
NsS'ws81-ext-managed-dll'
p698
(lp699
sS'playbook-cskpass'
p700
NsS'win32-icon'
p701
NsS'symbian-key'
p702
NsS'app-icf'
p703
NsS'blackberry-storepass'
p704
NsS'wp8-tile-fliptemplate-back-title'
p705
NsS'brew-compress-loader'
p706
NsS'iphone-testflight'
p707
NsS'win32-pref-windowposy'
p708
NsS'win32-pref-windowposx'
p709
NsS'roku-requires-audiometadata'
p710
NsS'wp8-exclude-low-mem'
p711
NsS'iphone-icon-ipad-search-high-res'
p712
NsS'iphone-link-libdir'
p713
(lp714
sS'wp81-ext-capabilities'
p715
(lp716
sS'blackberry-permissions-read-geolocation'
p717
NsS'ws81-ext-device-capabilities'
p718
(lp719
sS'tizen-signed'
p720
NsS'android-extra-application-manifest'
p721
(lp722
sS'ws8-ext-native-dll'
p723
(lp724
sS'symbian-icon2-mask'
p725
NsS'iphone-launch-extra'
p726
NsS'webos-memory'
p727
NsS'android-keypass'
p728
NsS'name'
p729
NsS'uiq3-icon2-format'
p730
NsS'roku-splash-screen-sd'
p731
NsS'auto-derbh'
p732
NsS'roku-icon-side-sd'
p733
NsS'android-external-assets'
p734
(lp735
sS'nds-publicsavedatasize'
p736
NsS'splashscreen'
p737
S'c:/marmalade/7.5/examples/marmaladeexampleresources/resources/splashscreens'
p738
sS'brew-mif'
p739
NsS'iphone-icon-settings-high-res'
p740
NsS'android-manifest'
p741
NsS'ws81-splash-screen-image620x300'
p742
NsS'wp81-product-name'
p743
NsS's3e-compression'
p744
NsS'tizen-author-password'
p745
NsS'wp8-tile-fliptemplate-back-content'
p746
NsS'blackberry-extra-descriptor'
p747
(lp748
sS'symbian-icon1'
p749
NsS'symbian-icon2'
p750
NsS'nds-makercode'
p751
NsS'android-extra-styles-file'
p752
NsS'wp81-publisher-id'
p753
NsS'nds-bannertitle-jp'
p754
NsS'wp81-logo-image44x44'
p755
NsS'osx-sign-for-store'
p756
NsS'symbian7-uid'
p757
NsS'wp8-tile-fliptemplate-large-back-content'
p758
NsS'wp81-phone-publisher-id'
p759
NsS'nds-bannertitle-cn'
p760
NsS'iphone-distribution-key'
p761
NsS'android-icon-gallery'
p762
NsS'blackberry-keystore'
p763
NsS'iphone-nosign'
p764
NsS'caption'
p765
NsS'android-extra-manifest'
p766
(lp767
sS'wp81-ext-sdk-ref'
p768
(lp769
sS'android-icon-xxhdpi'
p770
NsS'version-minor'
p771
NsS'iphone-skip-launch-generation'
p772
NsS'iphone-link-libdirs'
p773
(lp774
sS'iphone-icon-large'
p775
NsS'symbian-keypwd'
p776
NsS'symbian8-uid'
p777
NsS'symbian-cert-key'
p778
NsS'winmobile-ampd-part-number'
p779
NsS'arch'
p780
NsS'nds-romheadertemplate'
p781
NsS'webos-icon'
p782
NsS'wp81-ext-device-capabilities'
p783
(lp784
sS'psp-dlgprotectdocument'
p785
NsS'ws8-splash-screen-background'
p786
NsS'android-icon-mdpi'
p787
NsS'nds-icon'
p788
NsS'ws8-custom-manifest-fill'
p789
NsS'iphone-development-cert'
p790
NsS'and'
p791
NsS'symbian-icon2-mask-black'
p792
NsS'blackberry-phone-icon'
p793
NsS'iphone-enable-4inch-retina'
p794
NsS'ws8-custom-manifest'
p795
NsS'version-major'
p796
NsS'wp8-genre-isgame'
p797
NsS'uiq3-uid'
p798
NsS'iphone-splash-retina-generate'
p799
NsS'tizen-hw-acceleration'
p800
NsS'iphone_bundle_localisations'
p801
NsS'tizen-dist1-key'
p802
NsS'wp81-custom-manifest-fill'
p803
NsS'wp8-custom-manifest'
p804
NsS'nds-bannertitle-ge'
p805
NsS'iphone-sign-for-distribution'
p806
NsS'wp8-tile-fliptemplate-medium-back-image'
p807
NsS'wp8-publisher-id'
p808
NsS'icon'
p809
S'c:/marmalade/7.5/examples/marmaladeexampleresources/resources/icons'
p810
sS'wp8-exclude-wxga'
p811
NsS'wp81-identity-name'
p812
NsS'uiq3-icon2-mask'
p813
NsS'iphone-splashscreen-portrait'
p814
NsS'iphone-icon-high-res'
p815
NsS'ws81-distribution-pfx-password'
p816
NsS'playbook-author'
p817
NsS'android-icon-xhdpi'
p818
NsS'linux-ext-lib'
p819
(lp820
sS'blackberry-permissions-access-internet'
p821
NsS'wp8-exclude-720p'
p822
NsS'lgtv-use-drm'
p823
NsS'symbian-platsecflags'
p824
NsS'ws8-description'
p825
NsS'blackberry-playbook-icon'
p826
NsS'copyright'
p827
NsS'ws8-distribution-pfx-password'
p828
NsS'win32-gles-directory'
p829
NsS'version'
p830
NsS'iphone-uiviewcontroller-based-status-bar'
p831
NsS'ws81-logo-image150x150'
p832
NsS'osx-signing-identity-app'
p833
NsS'tizen-project-url'
p834
NsS'symbian-icon-svg'
p835
NsS'android-aliasname'
p836
NsS'psp-dlgmanual'
p837
NsS'brew-uid'
p838
NsS'symbian-locationsupport'
p839
NsS'wp81-logo-image50x50'
p840
NsS'ws8-ext-managed-dll'
p841
(lp842
sS'nds-bannertitle-it'
p843
NsS'ws81-custom-manifest-fill'
p844
NsS'ws8-ext-sdk-manifest-part'
p845
(lp846
sS'uiq3-icon1-mask'
p847
NsS'winmobile-icon16'
p848
NsS'ws8-product-name'
p849
NsS'blackberry-cskpass'
p850
NsS'winmobile-start-menu-folder'
p851
NsS'brew-clsid'
p852
NsS'roku-requires-bluetooth'
p853
NsS'iphone-default-development-profile'
p854
NsS'ws8-ext-device-capabilities'
p855
(lp856
sS'blackberry-permissions-use-camera'
p857
NsS'ws81-extra-pri'
p858
(lp859
sS'iphone-prerendered-icon'
p860
NsS'iphone-appid'
p861
NsS'ws8-identity-name'
p862
NsS'tizen-dist2-CA-path'
p863
NsS'android-external-jars'
p864
(lp865
sS'winmobile-icon64'
p866
NsS'blackberry-permissions-post-notification'
p867
NsS'winmobile-setup-dll'
p868
NsS'firefoxos-manifest'
p869
NsS'win8-winrt-extra-res'
p870
(lp871
sS'wp81-ext-sdk-manifest-part'
p872
(lp873
sS'symbian9-uid'
p874
NsS'iphone-icon-ipad-ios7'
p875
NsS'winmobile-trace-file'
p876
NsS'roku-splash-color'
p877
NsS'psp-appversion'
p878
NsS'ws8-publisher-id'
p879
NsS'android-supports-gl-texture'
p880
(lp881
sS'winmobile-png45'
p882
NsS'wp81-extra-res'
p883
(lp884
sS'android-storepass'
p885
NsS'osx-signing-identity-inst'
p886
NsS'android-custom-activity'
p887
NsS'psp-discversion'
p888
NsS'wp81-ext-managed-dll'
p889
(lp890
sS'psp-copyright'
p891
NsS'embed-icf'
p892
NsS'tizen-manifest'
p893
NsS'osx-icon'
p894
NsS'webos-appinfo'
p895
NsS'psp-dlghealthwarning'
p896
NsS'webos-appid'
p897
NsS'roku-icon-side-hd'
p898
NsS'iphone-icon-ipad-search-high-res-ios7'
p899
NsS'iphone-extra-plist'
p900
(lp901
sS'ws81-ext-sdk-manifest-part'
p902
(lp903
sS'loader_name_prefix'
p904
NsS'iphone-launch-dir'
p905
NsS'nds-titlename'
p906
NsS'ws81-logo-image50x50'
p907
NsS'wp81-custom-manifest'
p908
NsS'osx-entitlements-plist'
p909
NsS'psp-dlgicon0'
p910
NsS'winmobile-nouninstall'
p911
NsS'psp-discid'
p912
NsS'tizen-dist2-password'
p913
NsS'ws8-ext-sdk-ref'
p914
(lp915
sS'iphone-extra-string'
p916
(lp917
sS'version-string'
p918
NsS'iphone-icon-high-res-ios7'
p919
NsS'blackberry-permissions-record-audio'
p920
NsS'ws8-certificate-end-date'
p921
NsS'tizen-so'
p922
(lp923
sS'wp8-tile-fliptemplate-small-image'
p924
NsS'playbook-authorid'
p925
NsS'iphone-signing-identity'
p926
NsS'roku-persist-quota'
p927
NsS'nds-bannertitle-fr'
p928
NsS'ws8-distribution-pfx'
p929
NsS'ws8-publisher-display-name'
p930
NsS'brew-icon-small'
p931
NsS'psp-dlgpic2'
p932
NsS'psp-dlgpic0'
p933
NsS'psp-pic0'
p934
NsS'psp-pic1'
p935
NsS'win32-pref-windowtitle'
p936
NsS'psp-icon0'
p937
NsS'psp-icon1'
p938
NsS'ws81-identity-name'
p939
NsS'winmobile-icon'
p940
NsS'iphone-no-splash'
p941
NsS'iphone-splash'
p942
NsS'iphone-app-fonts'
p943
NsS'wp8-ext-native-dll'
p944
(lp945
sS'wp81-splash-screen-image480x800'
p946
NsS'ws81-distribution-cer'
p947
NsS'iphone-backgroundmode-audio'
p948
NsS'uiq3-icon2'
p949
NsS'uiq3-icon3'
p950
NsS'uiq3-icon1'
p951
NsS'uiq3-icon1-format'
p952
NsS'ws8-logo-image50x50'
p953
NsS'iphone-icon-ipad-search'
p954
NsS'symbian-run-on-install'
p955
NsS'wp81-description'
p956
NsS'ws81-publisher-display-name'
p957
NsS'firefoxos-xulrunner'
p958
NsS'symbian-soundrecordsupport'
p959
NsS'nds-bannertitle-sp'
p960
NsS'psp-producer'
p961
NsS'iphone-apple-wwdr-cert'
p962
NsS'android-icon-nonstandard'
p963
NsS'win32-pref-processtitle'
p964
NsS'nds-bannertitle-hn'
p965
NsS'tizen-dist2-key'
p966
NsS'brew-depends'
p967
NsS'ws81-custom-manifest'
p968
NsS'iphone-allow-launch-rotation'
p969
NsS'iphone-icon-ipad-search-ios7'
p970
NsS'brew-icon-medium'
p971
NsS'iphone-bundle-url-name'
p972
NsS'wp8-tile-fliptemplate-large-front-image'
p973
NsS'tizen-dist2-CA-root-path'
p974
NsS'ws81-description'
p975
NsS'uiq3-icon3-format'
p976
NsS'ws81-logo-image30x30'
p977
NsS'win8-phone-extra-res'
p978
(lp979
sS'iphone-signing-host'
p980
NsS'tizen-icon'
p981
NsS'osx-info-plist'
p982
NsS'symbian-icon1-format'
p983
NsS'ws81-distribution-pfx'
p984
NsS'blackberry-authorid'
p985
NsS'ws81-publisher-id'
p986
NsS'win8-store-extra-res'
p987
(lp988
sS'wp8-description'
p989
NsS'iphone-link-opts'
p990
(lp991
sS'ws81-ext-sdk-ref'
p992
(lp993
sS'roku-splash-min-time'
p994
NsS'wp8-tile-fliptemplate-medium-front-image'
p995
NsS'iphone-disable-launch-images'
p996
NsS'provider'
p997
NsS'playbook-keystore'
p998
NsS'tizen-appid'
p999
NsS'wp8-extra-res'
p1000
(lp1001
sS'symbian-osexecsupport'
p1002
NsS'android-install-location'
p1003
NsS'nds-privatesavedatasize'
p1004
NsS'iphone-disable-testflight'
p1005
NsS'playbook-storepass'
p1006
NsS'android-icon-ldpi'
p1007
NsS'manufacturer'
p1008
NsS'itunes-artwork'
p1009
NsS'iphone-extra-sections'
p1010
NsS'ws81-product-name'
p1011
NsS'ws81-ext-native-dll'
p1012
(lp1013
sS'ws8-extra-pri'
p1014
(lp1015
sS'wp8-product-id'
p1016
NsS'ws8-logo-image30x30'
p1017
NsS'wp8-ext-managed-dll'
p1018
(lp1019
sS'iphone-splashscreen-landscape'
p1020
NsS'symbian-maxheapsize'
p1021
NsS'android-extra-packages'
p1022
(lp1023
sS'priv-sign-key'
p1024
NsS'networking'
p1025
NsS'android-icon'
p1026
NsS'iphone-icon-settings'
p1027
NsS'wp81-phone-product-id'
p1028
NsS'firefoxos-icon-60X60'
p1029
NsS'iphone-distribution-cert'
p1030
NsS'android_extra_strings'
p1031
NsS'nds-bannertitle-en'
p1032
NsS'wp8-tile-fliptemplate-title'
p1033
NsS'android-so'
p1034
(lp1035
sS'wp8-higher-mem'
p1036
NsS'wp8-ext-sdk-ref'
p1037
(lp1038
sS'wp8-fast-resume-mode'
p1039
NsS'roku-splash-screen-hd'
p1040
NsS'iphone-bundle-url-schemes'
p1041
NsS'roku-screensaver-private'
p1042
NsS'osx-extra-res'
p1043
(lp1044
sS'ws81-extra-res'
p1045
(lp1046
sS'playbook-icon'
p1047
NsS'uid'
p1048
NsS'pkguid-as-uid'
p1049
NsS'wp81-ext-native-dll'
p1050
(lp1051
sS'tizen-dist1-password'
p1052
NsS'roku-screensaver-title'
p1053
NsS'osx-minimum-osx-version'
p1054
NsS'symbian-cert'
p1055
NsS'iphone-icon'
p1056
NsS'ws81-ext-capabilities'
p1057
(lp1058
sS'ws8-distribution-cer'
p1059
NsS'playbook-access-shared'
p1060
NsS'iphone-icon-ipad-high-res-ios7'
p1061
NsS'iphone-link-libs'
p1062
(lp1063
sS'wp8-exclude-wvga'
p1064
NsS'assets'
p1065
NsS'wp8-tile-fliptemplate-large-back-image'
p1066
NsS'wp8-custom-manifest-fill'
p1067
NsS'pub-sign-key'
p1068
NsS'android-extra-strings'
p1069
NsS'tizen-author-CA-path'
p1070
Nssg354
g592
sbssS'platform'
p1071
S'S3E'
p1072
sg70
S'1.0'
p1073
sS'arcade_platform'
p1074
g4
sS'extensions'
p1075
(dp1076
sS'source_groups_tree'
p1077
(dp1078
S'(libpng)'
p1079
(dp1080
S'h'
p1081
(dp1082
S'c:/marmalade/7.5/modules/third_party/libpng/h/png.h'
p1083
(lp1084
I1
a(dp1085
asS'c:/marmalade/7.5/modules/third_party/libpng/h/pngconf.h'
p1086
(lp1087
I1
ag1085
assS'c:/marmalade/7.5/modules/third_party/libpng/libpng.mkf'
p1088
(lp1089
I1
a(dp1090
assS'(libjpeg)'
p1091
(dp1092
S'c:/marmalade/7.5/modules/third_party/libjpeg/libjpeg.mkf'
p1093
(lp1094
I1
a(dp1095
asg1081
(dp1096
S'c:/marmalade/7.5/modules/third_party/libjpeg/h/jerror.h'
p1097
(lp1098
I1
a(dp1099
asS'c:/marmalade/7.5/modules/third_party/libjpeg/h/jdhuff.h'
p1100
(lp1101
I1
ag1099
asS'c:/marmalade/7.5/modules/third_party/libjpeg/h/cderror.h'
p1102
(lp1103
I1
ag1099
asS'c:/marmalade/7.5/modules/third_party/libjpeg/h/transupp.h'
p1104
(lp1105
I1
ag1099
asS'c:/marmalade/7.5/modules/third_party/libjpeg/h/jinclude.h'
p1106
(lp1107
I1
ag1099
asS'c:/marmalade/7.5/modules/third_party/libjpeg/h/jmorecfg.h'
p1108
(lp1109
I1
ag1099
asS'c:/marmalade/7.5/modules/third_party/libjpeg/h/jdct.h'
p1110
(lp1111
I1
ag1099
asS'c:/marmalade/7.5/modules/third_party/libjpeg/h/jmemsys.h'
p1112
(lp1113
I1
ag1099
asS'c:/marmalade/7.5/modules/third_party/libjpeg/h/jpegint.h'
p1114
(lp1115
I1
ag1099
asS'c:/marmalade/7.5/modules/third_party/libjpeg/h/jchuff.h'
p1116
(lp1117
I1
ag1099
asS'c:/marmalade/7.5/modules/third_party/libjpeg/h/cdjpeg.h'
p1118
(lp1119
I1
ag1099
asS'c:/marmalade/7.5/modules/third_party/libjpeg/h/jversion.h'
p1120
(lp1121
I1
ag1099
asS'c:/marmalade/7.5/modules/third_party/libjpeg/h/jconfig.h'
p1122
(lp1123
I1
ag1099
asS'c:/marmalade/7.5/modules/third_party/libjpeg/h/jpeglib.h'
p1124
(lp1125
I1
ag1099
asssS'(tiniconv)'
p1126
(dp1127
S'c:/marmalade/7.5/modules/third_party/tiniconv/tiniconv.mkf'
p1128
(lp1129
I1
a(dp1130
asS'c:/marmalade/7.5/modules/third_party/tiniconv/source/tiniconv_int.h'
p1131
(lp1132
I1
a(dp1133
asS'c:/marmalade/7.5/modules/third_party/tiniconv/source/tiniconv.h'
p1134
(lp1135
I1
ag1133
assS'(SoundEngine)'
p1136
(dp1137
S'c:/marmalade/7.5/examples/gametutorial/cpp/modules/soundengine/source/IwSoundGroup.cpp'
p1138
(lp1139
I1
a(dp1140
asS'c:/marmalade/7.5/examples/gametutorial/cpp/modules/soundengine/h/IwSoundADPCM.h'
p1141
(lp1142
I1
ag1140
asS'c:/marmalade/7.5/examples/gametutorial/cpp/modules/soundengine/source/IwResHandlerWAV.cpp'
p1143
(lp1144
I1
ag1140
asS'c:/marmalade/7.5/examples/gametutorial/cpp/modules/soundengine/h/IwResHandlerWAV.h'
p1145
(lp1146
I1
ag1140
asS'Docs'
p1147
(dp1148
S'c:/marmalade/7.5/examples/gametutorial/cpp/modules/soundengine/docs/iwsound.config.txt'
p1149
(lp1150
I1
ag1140
assS'c:/marmalade/7.5/examples/gametutorial/cpp/modules/soundengine/h/IwSoundInst.h'
p1151
(lp1152
I1
ag1140
asS'c:/marmalade/7.5/examples/gametutorial/cpp/modules/soundengine/source/IwSoundManager.cpp'
p1153
(lp1154
I1
ag1140
asS'c:/marmalade/7.5/examples/gametutorial/cpp/modules/soundengine/h/IwSoundSpec.h'
p1155
(lp1156
I1
ag1140
asS'c:/marmalade/7.5/examples/gametutorial/cpp/modules/soundengine/source/IwSoundParams.cpp'
p1157
(lp1158
I1
ag1140
asS'c:/marmalade/7.5/examples/gametutorial/cpp/modules/soundengine/h/IwSoundManager.h'
p1159
(lp1160
I1
ag1140
asS'c:/marmalade/7.5/examples/gametutorial/cpp/modules/soundengine/source/IwSoundPCM.cpp'
p1161
(lp1162
I1
ag1140
asS'c:/marmalade/7.5/examples/gametutorial/cpp/modules/soundengine/source/IwSoundWAV.cpp'
p1163
(lp1164
I1
ag1140
asS'c:/marmalade/7.5/examples/gametutorial/cpp/modules/soundengine/source/IwSoundInst.cpp'
p1165
(lp1166
I1
ag1140
asS'c:/marmalade/7.5/examples/gametutorial/cpp/modules/soundengine/h/IwSoundWAV.h'
p1167
(lp1168
I1
ag1140
asS'c:/marmalade/7.5/examples/gametutorial/cpp/modules/soundengine/source/IwSoundSpec.cpp'
p1169
(lp1170
I1
ag1140
asS'c:/marmalade/7.5/examples/gametutorial/cpp/modules/soundengine/h/IwSoundParams.h'
p1171
(lp1172
I1
ag1140
asS'c:/marmalade/7.5/examples/gametutorial/cpp/modules/soundengine/source/IwSoundADPCM.cpp'
p1173
(lp1174
I1
ag1140
asS'c:/marmalade/7.5/examples/gametutorial/cpp/modules/soundengine/h/IwSound.h'
p1175
(lp1176
I1
ag1140
asS'c:/marmalade/7.5/examples/gametutorial/cpp/modules/soundengine/source/IwSoundData.cpp'
p1177
(lp1178
I1
ag1140
asS'c:/marmalade/7.5/examples/gametutorial/cpp/modules/soundengine/h/IwSoundData.h'
p1179
(lp1180
I1
ag1140
asS'c:/marmalade/7.5/examples/gametutorial/cpp/modules/soundengine/h/IwSoundPCM.h'
p1181
(lp1182
I1
ag1140
asS'c:/marmalade/7.5/examples/gametutorial/cpp/modules/soundengine/soundengine.mkf'
p1183
(lp1184
I1
a(dp1185
asS'c:/marmalade/7.5/examples/gametutorial/cpp/modules/soundengine/h/IwSoundGroup.h'
p1186
(lp1187
I1
ag1140
assS'(MarmaladeExampleResources)'
p1188
(dp1189
S'c:/marmalade/7.5/examples/marmaladeexampleresources/marmaladeexampleresources.mkf'
p1190
(lp1191
I1
a(dp1192
assS'source'
p1193
(dp1194
S'c:/Marmalade/7.5/examples/GameTutorial/CPP/marm1/source/pauseMenu.h'
p1195
(lp1196
I1
a(dp1197
asS'c:/Marmalade/7.5/examples/GameTutorial/CPP/marm1/source/input.h'
p1198
(lp1199
I1
ag1197
asS'c:/Marmalade/7.5/examples/GameTutorial/CPP/marm1/source/resources.cpp'
p1200
(lp1201
I1
ag1197
asS'c:/Marmalade/7.5/examples/GameTutorial/CPP/marm1/source/game.cpp'
p1202
(lp1203
I1
ag1197
asS'c:/Marmalade/7.5/examples/GameTutorial/CPP/marm1/source/mainMenu.h'
p1204
(lp1205
I1
ag1197
asS'c:/Marmalade/7.5/examples/GameTutorial/CPP/marm1/source/audio.h'
p1206
(lp1207
I1
ag1197
asS'c:/Marmalade/7.5/examples/GameTutorial/CPP/marm1/source/mainMenu.cpp'
p1208
(lp1209
I1
ag1197
asS'c:/Marmalade/7.5/examples/GameTutorial/CPP/marm1/source/input.cpp'
p1210
(lp1211
I1
ag1197
asS'c:/Marmalade/7.5/examples/GameTutorial/CPP/marm1/source/main.cpp'
p1212
(lp1213
I1
ag1197
asS'c:/Marmalade/7.5/examples/GameTutorial/CPP/marm1/source/main.h'
p1214
(lp1215
I1
ag1197
asS'c:/Marmalade/7.5/examples/GameTutorial/CPP/marm1/source/audio.cpp'
p1216
(lp1217
I1
ag1197
asS'c:/Marmalade/7.5/examples/GameTutorial/CPP/marm1/source/enemy.h'
p1218
(lp1219
I1
ag1197
asS'c:/Marmalade/7.5/examples/GameTutorial/CPP/marm1/source/resources.h'
p1220
(lp1221
I1
ag1197
asS'c:/Marmalade/7.5/examples/GameTutorial/CPP/marm1/source/hero.h'
p1222
(lp1223
I1
ag1197
asS'c:/Marmalade/7.5/examples/GameTutorial/CPP/marm1/source/scene.h'
p1224
(lp1225
I1
ag1197
asS'c:/Marmalade/7.5/examples/GameTutorial/CPP/marm1/source/game.h'
p1226
(lp1227
I1
ag1197
asS'c:/Marmalade/7.5/examples/GameTutorial/CPP/marm1/source/scene.cpp'
p1228
(lp1229
I1
ag1197
asS'c:/Marmalade/7.5/examples/GameTutorial/CPP/marm1/source/hero.cpp'
p1230
(lp1231
I1
ag1197
asS'c:/Marmalade/7.5/examples/GameTutorial/CPP/marm1/source/enemy.cpp'
p1232
(lp1233
I1
ag1197
asS'c:/Marmalade/7.5/examples/GameTutorial/CPP/marm1/source/pauseMenu.cpp'
p1234
(lp1235
I1
ag1197
assS'Extensions'
p1236
(dp1237
S'PVRTexTool'
p1238
(dp1239
S'interface'
p1240
(dp1241
S'c:/marmalade/7.5/extensions/pvrtextool/interface/PVRTexTool.defines.txt'
p1242
(lp1243
I1
a(dp1244
asS'c:/marmalade/7.5/extensions/pvrtextool/interface/PVRTexTool_interface.cpp'
p1245
(lp1246
I1
ag1244
assS'c:/marmalade/7.5/extensions/pvrtextool/h/PVRTexTool.h'
p1247
(lp1248
I1
ag1244
asS'c:/marmalade/7.5/extensions/pvrtextool/pvrtextool.mkf'
p1249
(lp1250
I1
a(dp1251
asssS"'Marmalade Studio'"
p1252
(dp1253
S'iw2dscenegraph'
p1254
(dp1255
S'c:/marmalade/7.5/modules/iw2dscenegraph/source/Iw2DSceneGraph.cpp'
p1256
(lp1257
I1
a(dp1258
asS'c:/marmalade/7.5/modules/iw2dscenegraph/docs/iw2dscenegraph.defines.txt'
p1259
(lp1260
I1
ag1258
asS'c:/marmalade/7.5/modules/iw2dscenegraph/h/Iw2DSceneGraph.h'
p1261
(lp1262
I1
ag1258
asS'c:/marmalade/7.5/modules/iw2dscenegraph/iw2dscenegraph.mkf'
p1263
(lp1264
I1
a(dp1265
assS'iwgl'
p1266
(dp1267
S'c:/marmalade/7.5/modules/iwgl/iwgl.mkf'
p1268
(lp1269
I1
a(dp1270
asS'c:/marmalade/7.5/modules/iwgl/h/IwGL.h'
p1271
(lp1272
I1
a(dp1273
asS'c:/marmalade/7.5/modules/iwgl/docs/iwgl.config.txt'
p1274
(lp1275
I1
ag1273
asS'c:/marmalade/7.5/modules/iwgl/h/IwGLExt.h'
p1276
(lp1277
I1
ag1273
assS'iw2d'
p1278
(dp1279
S'c:/marmalade/7.5/modules/iw2d/docs/iw2d_public.defines.txt'
p1280
(lp1281
I1
a(dp1282
asS'c:/marmalade/7.5/modules/iw2d/docs/iw2d.config.txt'
p1283
(lp1284
I1
ag1282
asS'c:/marmalade/7.5/modules/iw2d/h/Iw2D.h'
p1285
(lp1286
I1
ag1282
asS'c:/marmalade/7.5/modules/iw2d/iw2d.mkf'
p1287
(lp1288
I1
a(dp1289
assS'iwgxfont'
p1290
(dp1291
S'c:/marmalade/7.5/modules/iwgxfont/h/IwGxFontGlyph.h'
p1292
(lp1293
I1
a(dp1294
asS'c:/marmalade/7.5/modules/iwgxfont/h/IwGxFontTypes.h'
p1295
(lp1296
I1
ag1294
asS'c:/marmalade/7.5/modules/iwgxfont/docs/iwgxfont.config.txt'
p1297
(lp1298
I1
ag1294
asS'c:/marmalade/7.5/modules/iwgxfont/h/IwGxFontState.h'
p1299
(lp1300
I1
ag1294
asS'c:/marmalade/7.5/modules/iwgxfont/h/IwGxFontContainer.h'
p1301
(lp1302
I1
ag1294
asS'c:/marmalade/7.5/modules/iwgxfont/iwgxfont.mkf'
p1303
(lp1304
I1
a(dp1305
asS'c:/marmalade/7.5/modules/iwgxfont/h/IwGxFontPreparedData.h'
p1306
(lp1307
I1
ag1294
asS'c:/marmalade/7.5/modules/iwgxfont/h/IwGxFont.h'
p1308
(lp1309
I1
ag1294
asS'c:/marmalade/7.5/modules/iwgxfont/docs/iwgxfont_public.defines.txt'
p1310
(lp1311
I1
ag1294
assS'iwgeom'
p1312
(dp1313
S'c:/marmalade/7.5/modules/iwgeom/h/IwGeomSVec2.h'
p1314
(lp1315
I1
a(dp1316
asS'c:/marmalade/7.5/modules/iwgeom/h/IwGeomSphere.h'
p1317
(lp1318
I1
ag1316
asS'c:/marmalade/7.5/modules/iwgeom/h/IwGeomSVec3.h'
p1319
(lp1320
I1
ag1316
asS'c:/marmalade/7.5/modules/iwgeom/iwgeom.mkf'
p1321
(lp1322
I1
a(dp1323
asS'c:/marmalade/7.5/modules/iwgeom/h/IwGeomSqrt.h'
p1324
(lp1325
I1
ag1316
asS'c:/marmalade/7.5/modules/iwgeom/h/IwGeomFQuat.h'
p1326
(lp1327
I1
ag1316
asS'c:/marmalade/7.5/modules/iwgeom/h/IwGeomQuat.h.tpl'
p1328
(lp1329
I1
ag1316
asS'c:/marmalade/7.5/modules/iwgeom/h/IwGeomVec2.h'
p1330
(lp1331
I1
ag1316
asS'c:/marmalade/7.5/modules/iwgeom/h/IwGeomMat.h'
p1332
(lp1333
I1
ag1316
asS'c:/marmalade/7.5/modules/iwgeom/h/IwGeomVec3.h'
p1334
(lp1335
I1
ag1316
asS'c:/marmalade/7.5/modules/iwgeom/h/IwGeomLegacy.h'
p1336
(lp1337
I1
ag1316
asS'c:/marmalade/7.5/modules/iwgeom/h/IwGeom.h'
p1338
(lp1339
I1
ag1316
asS'c:/marmalade/7.5/modules/iwgeom/h/IwGeomSQuat.h'
p1340
(lp1341
I1
ag1316
asS'c:/marmalade/7.5/modules/iwgeom/h/IwGeomFBBox.h'
p1342
(lp1343
I1
ag1316
asS'c:/marmalade/7.5/modules/iwgeom/h/IwGeomFMat.h'
p1344
(lp1345
I1
ag1316
asS'c:/marmalade/7.5/modules/iwgeom/h/IwGeomPlane.h'
p1346
(lp1347
I1
ag1316
asS'c:/marmalade/7.5/modules/iwgeom/h/IwGeomMat2D.h'
p1348
(lp1349
I1
ag1316
asS'c:/marmalade/7.5/modules/iwgeom/h/IwGeomFVec2.h'
p1350
(lp1351
I1
ag1316
asS'c:/marmalade/7.5/modules/iwgeom/h/IwGeomSVec4.h'
p1352
(lp1353
I1
ag1316
asS'c:/marmalade/7.5/modules/iwgeom/h/IwGeomVec4.h'
p1354
(lp1355
I1
ag1316
asS'c:/marmalade/7.5/modules/iwgeom/h/IwGeomCore.h'
p1356
(lp1357
I1
ag1316
asS'c:/marmalade/7.5/modules/iwgeom/h/IwGeomVec.h.tpl'
p1358
(lp1359
I1
ag1316
asS'c:/marmalade/7.5/modules/iwgeom/h/IwGeomVec.h'
p1360
(lp1361
I1
ag1316
asS'c:/marmalade/7.5/modules/iwgeom/h/IwGeomIntersect.h'
p1362
(lp1363
I1
ag1316
asS'c:/marmalade/7.5/modules/iwgeom/h/IwGeomFVec4.h'
p1364
(lp1365
I1
ag1316
asS'c:/marmalade/7.5/modules/iwgeom/h/IwGeomMat.h.tpl'
p1366
(lp1367
I1
ag1316
asS'c:/marmalade/7.5/modules/iwgeom/h/IwGeomMat2D.h.tpl'
p1368
(lp1369
I1
ag1316
asS'c:/marmalade/7.5/modules/iwgeom/h/IwGeomFMat2D.h'
p1370
(lp1371
I1
ag1316
asS'c:/marmalade/7.5/modules/iwgeom/h/IwGeomMenu.h'
p1372
(lp1373
I1
ag1316
asS'c:/marmalade/7.5/modules/iwgeom/h/IwGeomBBox.h'
p1374
(lp1375
I1
ag1316
asS'c:/marmalade/7.5/modules/iwgeom/h/IwGeomFSphere.h'
p1376
(lp1377
I1
ag1316
asS'c:/marmalade/7.5/modules/iwgeom/h/IwGeomFVec3.h'
p1378
(lp1379
I1
ag1316
asS'c:/marmalade/7.5/modules/iwgeom/h/IwGeomFPlane.h'
p1380
(lp1381
I1
ag1316
asS'c:/marmalade/7.5/modules/iwgeom/docs/iwgeom.config.txt'
p1382
(lp1383
I1
ag1316
asS'c:/marmalade/7.5/modules/iwgeom/h/IwGeomQuat.h'
p1384
(lp1385
I1
ag1316
asS'c:/marmalade/7.5/modules/iwgeom/h/IwGeomFIntersect.h'
p1386
(lp1387
I1
ag1316
assS'iwresmanager'
p1388
(dp1389
S'c:/marmalade/7.5/modules/iwresmanager/h/IwResHandlerITX.h'
p1390
(lp1391
I1
a(dp1392
asS'c:/marmalade/7.5/modules/iwresmanager/h/IwResSerialise.h'
p1393
(lp1394
I1
ag1392
asS'c:/marmalade/7.5/modules/iwresmanager/h/IwResManagerClass.h'
p1395
(lp1396
I1
ag1392
asS'c:/marmalade/7.5/modules/iwresmanager/h/IwResHandlerGROUP.h'
p1397
(lp1398
I1
ag1392
asS'c:/marmalade/7.5/modules/iwresmanager/h/IwResManager.h'
p1399
(lp1400
I1
ag1392
asS'c:/marmalade/7.5/modules/iwresmanager/iwresmanager.mkf'
p1401
(lp1402
I1
a(dp1403
asS'c:/marmalade/7.5/modules/iwresmanager/docs/iwresmanager.config.txt'
p1404
(lp1405
I1
ag1392
asS'c:/marmalade/7.5/modules/iwresmanager/h/IwResGroup.h'
p1406
(lp1407
I1
ag1392
asS'c:/marmalade/7.5/modules/iwresmanager/h/IwResHandler.h'
p1408
(lp1409
I1
ag1392
asS'c:/marmalade/7.5/modules/iwresmanager/h/IwResHandlerImage.h'
p1410
(lp1411
I1
ag1392
assS'iwgx'
p1412
(dp1413
S'c:/marmalade/7.5/modules/iwgx/h/IwDebugPrim.h'
p1414
(lp1415
I1
a(dp1416
asS'c:/marmalade/7.5/modules/iwgx/h/IwMatAnim.h'
p1417
(lp1418
I1
ag1416
asS'c:/marmalade/7.5/modules/iwgx/h/IwTexture.h'
p1419
(lp1420
I1
ag1416
asS'c:/marmalade/7.5/modules/iwgx/h/IwGxFuncTable.h'
p1421
(lp1422
I1
ag1416
asS'c:/marmalade/7.5/modules/iwgx/h/IwResHandlerMTL.h'
p1423
(lp1424
I1
ag1416
asS'c:/marmalade/7.5/modules/iwgx/h/IwGxPrint.h'
p1425
(lp1426
I1
ag1416
asS'c:/marmalade/7.5/modules/iwgx/h/IwGxStream.h'
p1427
(lp1428
I1
ag1416
asS'c:/marmalade/7.5/modules/iwgx/h/IwClip.h'
p1429
(lp1430
I1
ag1416
asS'c:/marmalade/7.5/modules/iwgx/h/IwGxSurface.h'
p1431
(lp1432
I1
ag1416
asS'c:/marmalade/7.5/modules/iwgx/h/IwGxError.h'
p1433
(lp1434
I1
ag1416
asS'c:/marmalade/7.5/modules/iwgx/h/IwGx.h'
p1435
(lp1436
I1
ag1416
asS'c:/marmalade/7.5/modules/iwgx/docs/iwgx_public.defines.txt'
p1437
(lp1438
I1
ag1416
asS'c:/marmalade/7.5/modules/iwgx/h/IwGxDebug.h'
p1439
(lp1440
I1
ag1416
asS'c:/marmalade/7.5/modules/iwgx/h/IwGxShaderTechnique.h'
p1441
(lp1442
I1
ag1416
asS'c:/marmalade/7.5/modules/iwgx/h/IwGxTransformSW.h'
p1443
(lp1444
I1
ag1416
asS'c:/marmalade/7.5/modules/iwgx/h/IwMaterial.h'
p1445
(lp1446
I1
ag1416
asS'c:/marmalade/7.5/modules/iwgx/h/IwGxMetrics.h'
p1447
(lp1448
I1
ag1416
asS'c:/marmalade/7.5/modules/iwgx/h/IwClip.inl'
p1449
(lp1450
I1
ag1416
asS'c:/marmalade/7.5/modules/iwgx/h/IwFColour.h'
p1451
(lp1452
I1
ag1416
asS'c:/marmalade/7.5/modules/iwgx/h/IwGxTypes.h'
p1453
(lp1454
I1
ag1416
asS'c:/marmalade/7.5/modules/iwgx/iwgx.mkf'
p1455
(lp1456
I1
a(dp1457
asS'c:/marmalade/7.5/modules/iwgx/docs/iwgx.config.txt'
p1458
(lp1459
I1
ag1416
asS'c:/marmalade/7.5/modules/iwgx/h/IwColour.h'
p1460
(lp1461
I1
ag1416
asS'c:/marmalade/7.5/modules/iwgx/h/IwGxState.h'
p1462
(lp1463
I1
ag1416
asS'c:/marmalade/7.5/modules/iwgx/h/IwTPage.h'
p1464
(lp1465
I1
ag1416
assS'iw2dscenegraphcore'
p1466
(dp1467
S'c:/marmalade/7.5/modules/iw2dscenegraphcore/iw2dscenegraphcore.mkf'
p1468
(lp1469
I1
a(dp1470
asS'c:/marmalade/7.5/modules/iw2dscenegraphcore/h/Iw2DSceneGraphCore.h'
p1471
(lp1472
I1
a(dp1473
asS'c:/marmalade/7.5/modules/iw2dscenegraphcore/source/Iw2DSceneGraphCore.cpp'
p1474
(lp1475
I1
ag1473
assS'iwutil'
p1476
(dp1477
S'c:/marmalade/7.5/modules/iwutil/h/IwSingleton.h'
p1478
(lp1479
I1
a(dp1480
asS'c:/marmalade/7.5/modules/iwutil/h/IwMath.h'
p1481
(lp1482
I1
ag1480
asS'c:/marmalade/7.5/modules/iwutil/h/IwBuffer.h'
p1483
(lp1484
I1
ag1480
asS'c:/marmalade/7.5/modules/iwutil/h/IwCore.h'
p1485
(lp1486
I1
ag1480
asS'c:/marmalade/7.5/modules/iwutil/h/IwDivide.h'
p1487
(lp1488
I1
ag1480
asS'c:/marmalade/7.5/modules/iwutil/h/IwMemory.h'
p1489
(lp1490
I1
ag1480
asS'c:/marmalade/7.5/modules/iwutil/h/IwImageHelper.h'
p1491
(lp1492
I1
ag1480
asS'c:/marmalade/7.5/modules/iwutil/h/IwManagedList.h'
p1493
(lp1494
I1
ag1480
asS'c:/marmalade/7.5/modules/iwutil/h/IwProfileMenu.h'
p1495
(lp1496
I1
ag1480
asS'c:/marmalade/7.5/modules/iwutil/h/IwClassFactory.h'
p1497
(lp1498
I1
ag1480
asS'c:/marmalade/7.5/modules/iwutil/h/IwDivTable.h'
p1499
(lp1500
I1
ag1480
asS'c:/marmalade/7.5/modules/iwutil/h/IwManaged.h'
p1501
(lp1502
I1
ag1480
asS'c:/marmalade/7.5/modules/iwutil/h/IwTextParseable.h'
p1503
(lp1504
I1
ag1480
asS'c:/marmalade/7.5/modules/iwutil/h/IwChar.h'
p1505
(lp1506
I1
ag1480
asS'c:/marmalade/7.5/modules/iwutil/h/IwRandom.h'
p1507
(lp1508
I1
ag1480
asS'c:/marmalade/7.5/modules/iwutil/h/IwDebug.h'
p1509
(lp1510
I1
ag1480
asS'c:/marmalade/7.5/modules/iwutil/h/IwUTF8.h'
p1511
(lp1512
I1
ag1480
asS'c:/marmalade/7.5/modules/iwutil/docs/iwutil.config.txt'
p1513
(lp1514
I1
ag1480
asS'c:/marmalade/7.5/modules/iwutil/h/IwAllocator.h'
p1515
(lp1516
I1
ag1480
asS'c:/marmalade/7.5/modules/iwutil/h/IwMemBucketHelpers.h'
p1517
(lp1518
I1
ag1480
asS'c:/marmalade/7.5/modules/iwutil/h/IwTextParserITX.h'
p1519
(lp1520
I1
ag1480
asS'c:/marmalade/7.5/modules/iwutil/h/IwKeymap.h'
p1521
(lp1522
I1
ag1480
asS'c:/marmalade/7.5/modules/iwutil/h/IwImage.h'
p1523
(lp1524
I1
ag1480
asS'c:/marmalade/7.5/modules/iwutil/h/IwOptimiseARM.h'
p1525
(lp1526
I1
ag1480
asS'c:/marmalade/7.5/modules/iwutil/h/IwMemBucket.h'
p1527
(lp1528
I1
ag1480
asS'c:/marmalade/7.5/modules/iwutil/h/IwOptimiseSize.h'
p1529
(lp1530
I1
ag1480
asS'c:/marmalade/7.5/modules/iwutil/h/IwRuntime.h'
p1531
(lp1532
I1
ag1480
asS'c:/marmalade/7.5/modules/iwutil/h/IwMemManagerDL.h'
p1533
(lp1534
I1
ag1480
asS'c:/marmalade/7.5/modules/iwutil/h/IwPath.h'
p1535
(lp1536
I1
ag1480
asS'c:/marmalade/7.5/modules/iwutil/h/IwOptimiseSpeed.h'
p1537
(lp1538
I1
ag1480
asS'c:/marmalade/7.5/modules/iwutil/h/IwList.h'
p1539
(lp1540
I1
ag1480
asS'c:/marmalade/7.5/modules/iwutil/h/IwAutoFile.h'
p1541
(lp1542
I1
ag1480
asS'c:/marmalade/7.5/modules/iwutil/h/IwVariableBitField.h'
p1543
(lp1544
I1
ag1480
asS'c:/marmalade/7.5/modules/iwutil/h/IwHashString.h'
p1545
(lp1546
I1
ag1480
asS'c:/marmalade/7.5/modules/iwutil/h/IwOptimiseThumb.h'
p1547
(lp1548
I1
ag1480
asS'c:/marmalade/7.5/modules/iwutil/iwutil.mkf'
p1549
(lp1550
I1
a(dp1551
asS'c:/marmalade/7.5/modules/iwutil/h/IwUtil.h'
p1552
(lp1553
I1
ag1480
asS'c:/marmalade/7.5/modules/iwutil/h/IwString.h'
p1554
(lp1555
I1
ag1480
asS'c:/marmalade/7.5/modules/iwutil/h/IwFile.h'
p1556
(lp1557
I1
ag1480
asS'c:/marmalade/7.5/modules/iwutil/h/IwUncopyable.h'
p1558
(lp1559
I1
ag1480
asS'c:/marmalade/7.5/modules/iwutil/h/IwTextParser.h'
p1560
(lp1561
I1
ag1480
asS'c:/marmalade/7.5/modules/iwutil/h/IwCopyingPtr.h'
p1562
(lp1563
I1
ag1480
asS'c:/marmalade/7.5/modules/iwutil/h/IwEvent.h'
p1564
(lp1565
I1
ag1480
asS'c:/marmalade/7.5/modules/iwutil/h/IwFibre.h'
p1566
(lp1567
I1
ag1480
asS'c:/marmalade/7.5/modules/iwutil/h/IwArray.h'
p1568
(lp1569
I1
ag1480
asS'c:/marmalade/7.5/modules/iwutil/h/IwMenu.h'
p1570
(lp1571
I1
ag1480
asS'c:/marmalade/7.5/modules/iwutil/h/IwTypes.h'
p1572
(lp1573
I1
ag1480
asS'c:/marmalade/7.5/modules/iwutil/h/IwUtilInitTerm.h'
p1574
(lp1575
I1
ag1480
asS'c:/marmalade/7.5/modules/iwutil/h/IwResource.h'
p1576
(lp1577
I1
ag1480
asS'c:/marmalade/7.5/modules/iwutil/h/IwSerialise.h'
p1578
(lp1579
I1
ag1480
asssS'(zlib)'
p1580
(dp1581
g1081
(dp1582
S'c:/marmalade/7.5/modules/third_party/zlib/h/zconf.h'
p1583
(lp1584
I1
a(dp1585
asS'c:/marmalade/7.5/modules/third_party/zlib/h/zlib.h'
p1586
(lp1587
I1
ag1585
assS'c:/marmalade/7.5/modules/third_party/zlib/zlib.mkf'
p1588
(lp1589
I1
a(dp1590
assS'(iwtween)'
p1591
(dp1592
S'c:/marmalade/7.5/modules/iwtween/h/IwTween.h'
p1593
(lp1594
I1
a(dp1595
asS'c:/marmalade/7.5/modules/iwtween/source/IwTween.cpp'
p1596
(lp1597
I1
ag1595
asS'c:/marmalade/7.5/modules/iwtween/iwtween.mkf'
p1598
(lp1599
I1
a(dp1600
assS'(s3e-default)'
p1601
(dp1602
S'c:/marmalade/7.5/s3e/s3e-default.mkf'
p1603
(lp1604
I1
a(dp1605
asssS'files'
p1606
(dp1607
S'IwGxFontPreparedData.h'
p1608
g328
(cmkb_main
File
p1609
g330
Ntp1610
Rp1611
(dp1612
S'flags'
p1613
g1294
sS'group'
p1614
(lp1615
S"'Marmalade Studio'"
p1616
ag1290
asg354
g1306
sbsS'iterator'
p1617
g328
(g1609
g330
Ntp1618
Rp1619
(dp1620
g1613
(dp1621
sg1614
(lp1622
S"'Marmalade System (S3E)'"
p1623
aS'stdc headers'
p1624
aS'c++'
p1625
asg354
S'c:/marmalade/7.5/s3e/h/std/c++/iterator'
p1626
sbsS'IwGL.h'
p1627
g328
(g1609
g330
Ntp1628
Rp1629
(dp1630
g1613
g1273
sg1614
(lp1631
S"'Marmalade Studio'"
p1632
ag1266
asg354
g1271
sbsS's3e.h'
p1633
g328
(g1609
g330
Ntp1634
Rp1635
(dp1636
g1613
g1621
sg1614
(lp1637
g1623
asg354
S'c:/marmalade/7.5/s3e/h/s3e.h'
p1638
sbsS'errno.h'
p1639
g328
(g1609
g330
Ntp1640
Rp1641
(dp1642
g1613
g1621
sg1614
(lp1643
g1623
aS'stdc headers'
p1644
asg354
S'c:/marmalade/7.5/s3e/h/std/errno.h'
p1645
sbsS'IwSingleton.h'
p1646
g328
(g1609
g330
Ntp1647
Rp1648
(dp1649
g1613
g1480
sg1614
(lp1650
S"'Marmalade Studio'"
p1651
ag1476
asg354
g1478
sbsS'dlfcn.h'
p1652
g328
(g1609
g330
Ntp1653
Rp1654
(dp1655
g1613
g1621
sg1614
g1643
sg354
S'c:/marmalade/7.5/s3e/h/std/dlfcn.h'
p1656
sbsS'IwSoundWAV.cpp'
p1657
g328
(g1609
g330
Ntp1658
Rp1659
(dp1660
g1613
g1140
sg1614
(lp1661
g1136
asg354
g1163
sbsS'sched.h'
p1662
g328
(g1609
g330
Ntp1663
Rp1664
(dp1665
g1613
g1621
sg1614
g1643
sg354
S'c:/marmalade/7.5/s3e/h/std/sched.h'
p1666
sbsS'IwSoundPCM.h'
p1667
g328
(g1609
g330
Ntp1668
Rp1669
(dp1670
g1613
g1140
sg1614
g1661
sg354
g1181
sbsS'IwGeomFMat2D.h'
p1671
g328
(g1609
g330
Ntp1672
Rp1673
(dp1674
g1613
g1316
sg1614
(lp1675
S"'Marmalade Studio'"
p1676
ag1312
asg354
g1370
sbsS'cassert'
p1677
g328
(g1609
g330
Ntp1678
Rp1679
(dp1680
g1613
g1621
sg1614
g1622
sg354
S'c:/marmalade/7.5/s3e/h/std/c++/cassert'
p1681
sbsS'grp.h'
p1682
g328
(g1609
g330
Ntp1683
Rp1684
(dp1685
g1613
g1621
sg1614
g1643
sg354
S'c:/marmalade/7.5/s3e/h/std/grp.h'
p1686
sbsS'list'
p1687
g328
(g1609
g330
Ntp1688
Rp1689
(dp1690
g1613
g1621
sg1614
g1622
sg354
S'c:/marmalade/7.5/s3e/h/std/c++/list'
p1691
sbsS'IwSoundSpec.cpp'
p1692
g328
(g1609
g330
Ntp1693
Rp1694
(dp1695
g1613
g1140
sg1614
g1661
sg354
g1169
sbsS'IwGeomMat.h.tpl'
p1696
g328
(g1609
g330
Ntp1697
Rp1698
(dp1699
g1613
g1316
sg1614
g1675
sg354
g1366
sbsS'istream'
p1700
g328
(g1609
g330
Ntp1701
Rp1702
(dp1703
g1613
g1621
sg1614
g1622
sg354
S'c:/marmalade/7.5/s3e/h/std/c++/istream'
p1704
sbsS'jpeglib.h'
p1705
g328
(g1609
g330
Ntp1706
Rp1707
(dp1708
g1613
g1099
sg1614
(lp1709
g1091
ag1081
asg354
g1124
sbsS'iw2d_public.defines.txt'
p1710
g328
(g1609
g330
Ntp1711
Rp1712
(dp1713
g1613
g1282
sg1614
(lp1714
S"'Marmalade Studio'"
p1715
ag1278
asg354
g1280
sbsS'iostream.h'
p1716
g328
(g1609
g330
Ntp1717
Rp1718
(dp1719
g1613
g1621
sg1614
g1622
sg354
S'c:/marmalade/7.5/s3e/h/std/c++/iostream.h'
p1720
sbsS'IwSoundADPCM.h'
p1721
g328
(g1609
g330
Ntp1722
Rp1723
(dp1724
g1613
g1140
sg1614
g1661
sg354
g1141
sbsS'string'
p1725
g328
(g1609
g330
Ntp1726
Rp1727
(dp1728
g1613
g1621
sg1614
g1622
sg354
S'c:/marmalade/7.5/s3e/h/std/c++/string'
p1729
sbsS'IwMemory.h'
p1730
g328
(g1609
g330
Ntp1731
Rp1732
(dp1733
g1613
g1480
sg1614
g1650
sg354
g1489
sbsS'IwGeomPlane.h'
p1734
g328
(g1609
g330
Ntp1735
Rp1736
(dp1737
g1613
g1316
sg1614
g1675
sg354
g1346
sbsS'iw2d.config.txt'
p1738
g328
(g1609
g330
Ntp1739
Rp1740
(dp1741
g1613
g1282
sg1614
g1714
sg354
g1283
sbsS'iomanip'
p1742
g328
(g1609
g330
Ntp1743
Rp1744
(dp1745
g1613
g1621
sg1614
g1622
sg354
S'c:/marmalade/7.5/s3e/h/std/c++/iomanip'
p1746
sbsS'iwgeom.mkf'
p1747
g328
(g1609
g330
Ntp1748
Rp1749
(dp1750
g1613
g1323
sg1614
g1675
sg354
g1321
sbsS'IwGxError.h'
p1751
g328
(g1609
g330
Ntp1752
Rp1753
(dp1754
g1613
g1416
sg1614
(lp1755
S"'Marmalade Studio'"
p1756
ag1412
asg354
g1433
sbsS'IwGeom.h'
p1757
g328
(g1609
g330
Ntp1758
Rp1759
(dp1760
g1613
g1316
sg1614
g1675
sg354
g1338
sbsS'scene.cpp'
p1761
g328
(g1609
g330
Ntp1762
Rp1763
(dp1764
g1613
g1197
sg1614
(lp1765
g1193
asg354
g1228
sbsS'IwGeomVec4.h'
p1766
g328
(g1609
g330
Ntp1767
Rp1768
(dp1769
g1613
g1316
sg1614
g1675
sg354
g1354
sbsS'dir.h'
p1770
g328
(g1609
g330
Ntp1771
Rp1772
(dp1773
g1613
g1621
sg1614
(lp1774
g1623
aS'stdc headers'
p1775
aS'sys'
p1776
asg354
S'c:/marmalade/7.5/s3e/h/std/sys/dir.h'
p1777
sbsS'locale.h'
p1778
g328
(g1609
g330
Ntp1779
Rp1780
(dp1781
g1613
g1621
sg1614
g1643
sg354
S'c:/marmalade/7.5/s3e/h/std/locale.h'
p1782
sbsS'vector'
p1783
g328
(g1609
g330
Ntp1784
Rp1785
(dp1786
g1613
g1621
sg1614
g1622
sg354
S'c:/marmalade/7.5/s3e/h/std/c++/vector'
p1787
sbsS'IwManaged.h'
p1788
g328
(g1609
g330
Ntp1789
Rp1790
(dp1791
g1613
g1480
sg1614
g1650
sg354
g1501
sbsS's3eCompass.h'
p1792
g328
(g1609
g330
Ntp1793
Rp1794
(dp1795
g1613
g1621
sg1614
g1637
sg354
S'c:/marmalade/7.5/s3e/h/s3eCompass.h'
p1796
sbsS'cderror.h'
p1797
g328
(g1609
g330
Ntp1798
Rp1799
(dp1800
g1613
g1099
sg1614
g1709
sg354
g1102
sbsS'climits'
p1801
g328
(g1609
g330
Ntp1802
Rp1803
(dp1804
g1613
g1621
sg1614
g1622
sg354
S'c:/marmalade/7.5/s3e/h/std/c++/climits'
p1805
sbsS'ipc.h'
p1806
g328
(g1609
g330
Ntp1807
Rp1808
(dp1809
g1613
g1621
sg1614
g1774
sg354
S'c:/marmalade/7.5/s3e/h/std/sys/ipc.h'
p1810
sbsS'jversion.h'
p1811
g328
(g1609
g330
Ntp1812
Rp1813
(dp1814
g1613
g1099
sg1614
g1709
sg354
g1120
sbsS'fnmatch.h'
p1815
g328
(g1609
g330
Ntp1816
Rp1817
(dp1818
g1613
g1621
sg1614
g1643
sg354
S'c:/marmalade/7.5/s3e/h/std/fnmatch.h'
p1819
sbsS'IwGxState.h'
p1820
g328
(g1609
g330
Ntp1821
Rp1822
(dp1823
g1613
g1416
sg1614
g1755
sg354
g1462
sbsS'rope'
p1824
g328
(g1609
g330
Ntp1825
Rp1826
(dp1827
g1613
g1621
sg1614
g1622
sg354
S'c:/marmalade/7.5/s3e/h/std/c++/rope'
p1828
sbsS's3eAudio.h'
p1829
g328
(g1609
g330
Ntp1830
Rp1831
(dp1832
g1613
g1621
sg1614
g1637
sg354
S'c:/marmalade/7.5/s3e/h/s3eAudio.h'
p1833
sbsS's3eSurface.h'
p1834
g328
(g1609
g330
Ntp1835
Rp1836
(dp1837
g1613
g1621
sg1614
g1637
sg354
S'c:/marmalade/7.5/s3e/h/s3eSurface.h'
p1838
sbsS'new'
p1839
g328
(g1609
g330
Ntp1840
Rp1841
(dp1842
g1613
g1621
sg1614
g1622
sg354
S'c:/marmalade/7.5/s3e/h/std/c++/new'
p1843
sbsS's3eWindow.h'
p1844
g328
(g1609
g330
Ntp1845
Rp1846
(dp1847
g1613
g1621
sg1614
(lp1848
g1623
aS'Extensions'
p1849
asg354
S'c:/marmalade/7.5/s3e/h/ext/s3eWindow.h'
p1850
sbsS'IwBuffer.h'
p1851
g328
(g1609
g330
Ntp1852
Rp1853
(dp1854
g1613
g1480
sg1614
g1650
sg354
g1483
sbsS'stdio_streambuf'
p1855
g328
(g1609
g330
Ntp1856
Rp1857
(dp1858
g1613
g1621
sg1614
g1622
sg354
S'c:/marmalade/7.5/s3e/h/std/c++/stdio_streambuf'
p1859
sbsS'IwGeomQuat.h.tpl'
p1860
g328
(g1609
g330
Ntp1861
Rp1862
(dp1863
g1613
g1316
sg1614
g1675
sg354
g1328
sbsS's3eOSExec.h'
p1864
g328
(g1609
g330
Ntp1865
Rp1866
(dp1867
g1613
g1621
sg1614
g1848
sg354
S'c:/marmalade/7.5/s3e/h/ext/s3eOSExec.h'
p1868
sbsS'IwGxTransformSW.h'
p1869
g328
(g1609
g330
Ntp1870
Rp1871
(dp1872
g1613
g1416
sg1614
g1755
sg354
g1443
sbsS'IwGxMetrics.h'
p1873
g328
(g1609
g330
Ntp1874
Rp1875
(dp1876
g1613
g1416
sg1614
g1755
sg354
g1447
sbsS'iwgxfont.config.txt'
p1877
g328
(g1609
g330
Ntp1878
Rp1879
(dp1880
g1613
g1294
sg1614
g1615
sg354
g1297
sbsS'gl2platform.h'
p1881
g328
(g1609
g330
Ntp1882
Rp1883
(dp1884
g1613
g1621
sg1614
(lp1885
g1623
aS'GL'
p1886
aS'GLES 2.0'
p1887
asg354
S'c:/marmalade/7.5/s3e/h/GLES2/gl2platform.h'
p1888
sbsS'IwResManagerClass.h'
p1889
g328
(g1609
g330
Ntp1890
Rp1891
(dp1892
g1613
g1392
sg1614
(lp1893
g1252
ag1388
asg354
g1395
sbsS'queue'
p1894
g328
(g1609
g330
Ntp1895
Rp1896
(dp1897
g1613
g1621
sg1614
g1622
sg354
S'c:/marmalade/7.5/s3e/h/std/c++/queue'
p1898
sbsS'time_1.h'
p1899
g328
(g1609
g330
Ntp1900
Rp1901
(dp1902
g1613
g1621
sg1614
g1774
sg354
S'c:/marmalade/7.5/s3e/h/std/sys/time.h'
p1903
sbsS'Iw2D.h'
p1904
g328
(g1609
g330
Ntp1905
Rp1906
(dp1907
g1613
g1282
sg1614
g1714
sg354
g1285
sbsS'IwGeomVec2.h'
p1908
g328
(g1609
g330
Ntp1909
Rp1910
(dp1911
g1613
g1316
sg1614
g1675
sg354
g1330
sbsS'sendfile.h'
p1912
g328
(g1609
g330
Ntp1913
Rp1914
(dp1915
g1613
g1621
sg1614
g1774
sg354
S'c:/marmalade/7.5/s3e/h/std/sys/sendfile.h'
p1916
sbsS'malloc.h'
p1917
g328
(g1609
g330
Ntp1918
Rp1919
(dp1920
g1613
g1621
sg1614
g1643
sg354
S'c:/marmalade/7.5/s3e/h/std/malloc.h'
p1921
sbsS'stdarg.h'
p1922
g328
(g1609
g330
Ntp1923
Rp1924
(dp1925
g1613
g1621
sg1614
g1643
sg354
S'c:/marmalade/7.5/s3e/h/std/stdarg.h'
p1926
sbsS'IwGeomCore.h'
p1927
g328
(g1609
g330
Ntp1928
Rp1929
(dp1930
g1613
g1316
sg1614
g1675
sg354
g1356
sbsS'Iw2DSceneGraph.h'
p1931
g328
(g1609
g330
Ntp1932
Rp1933
(dp1934
g1613
g1258
sg1614
(lp1935
S"'Marmalade Studio'"
p1936
ag1254
asg354
g1261
sbsS'endian.h'
p1937
g328
(g1609
g330
Ntp1938
Rp1939
(dp1940
g1613
g1621
sg1614
g1643
sg354
S'c:/marmalade/7.5/s3e/h/std/endian.h'
p1941
sbsS'gl3ext.h'
p1942
g328
(g1609
g330
Ntp1943
Rp1944
(dp1945
g1613
g1621
sg1614
(lp1946
g1623
aS'GL'
p1947
aS'GLES 3.0'
p1948
asg354
S'c:/marmalade/7.5/s3e/h/GLES3/gl3ext.h'
p1949
sbsS'glob.h'
p1950
g328
(g1609
g330
Ntp1951
Rp1952
(dp1953
g1613
g1621
sg1614
g1643
sg354
S'c:/marmalade/7.5/s3e/h/std/glob.h'
p1954
sbsS'fstream'
p1955
g328
(g1609
g330
Ntp1956
Rp1957
(dp1958
g1613
g1621
sg1614
g1622
sg354
S'c:/marmalade/7.5/s3e/h/std/c++/fstream'
p1959
sbsS's3eCamera.h'
p1960
g328
(g1609
g330
Ntp1961
Rp1962
(dp1963
g1613
g1621
sg1614
g1637
sg354
S'c:/marmalade/7.5/s3e/h/s3eCamera.h'
p1964
sbsS'jconfig.h'
p1965
g328
(g1609
g330
Ntp1966
Rp1967
(dp1968
g1613
g1099
sg1614
g1709
sg354
g1122
sbsS'memory'
p1969
g328
(g1609
g330
Ntp1970
Rp1971
(dp1972
g1613
g1621
sg1614
g1622
sg354
S'c:/marmalade/7.5/s3e/h/std/c++/memory'
p1973
sbsS'egl.h'
p1974
g328
(g1609
g330
Ntp1975
Rp1976
(dp1977
g1613
g1621
sg1614
(lp1978
g1623
aS'GL'
p1979
aS'EGL'
p1980
asg354
S'c:/marmalade/7.5/s3e/h/EGL/egl.h'
p1981
sbsS'egl_1.h'
p1982
g328
(g1609
g330
Ntp1983
Rp1984
(dp1985
g1613
g1621
sg1614
(lp1986
g1623
aS'GL'
p1987
aS'GLES 1.x'
p1988
asg354
S'c:/marmalade/7.5/s3e/h/GLES/egl.h'
p1989
sbsS'IwMemManagerDL.h'
p1990
g328
(g1609
g330
Ntp1991
Rp1992
(dp1993
g1613
g1480
sg1614
g1650
sg354
g1533
sbsS'deque'
p1994
g328
(g1609
g330
Ntp1995
Rp1996
(dp1997
g1613
g1621
sg1614
g1622
sg354
S'c:/marmalade/7.5/s3e/h/std/c++/deque'
p1998
sbsS'IwString.h'
p1999
g328
(g1609
g330
Ntp2000
Rp2001
(dp2002
g1613
g1480
sg1614
g1650
sg354
g1554
sbsS'cwchar'
p2003
g328
(g1609
g330
Ntp2004
Rp2005
(dp2006
g1613
g1621
sg1614
g1622
sg354
S'c:/marmalade/7.5/s3e/h/std/c++/cwchar'
p2007
sbsS'iwutil.mkf'
p2008
g328
(g1609
g330
Ntp2009
Rp2010
(dp2011
g1613
g1551
sg1614
g1650
sg354
g1549
sbsS'csignal'
p2012
g328
(g1609
g330
Ntp2013
Rp2014
(dp2015
g1613
g1621
sg1614
g1622
sg354
S'c:/marmalade/7.5/s3e/h/std/c++/csignal'
p2016
sbsS'pthread_types.h'
p2017
g328
(g1609
g330
Ntp2018
Rp2019
(dp2020
g1613
g1621
sg1614
g1643
sg354
S'c:/marmalade/7.5/s3e/h/std/pthread_types.h'
p2021
sbsS'pthread_alloc'
p2022
g328
(g1609
g330
Ntp2023
Rp2024
(dp2025
g1613
g1621
sg1614
g1622
sg354
S'c:/marmalade/7.5/s3e/h/std/c++/pthread_alloc'
p2026
sbsS'getopt.h'
p2027
g328
(g1609
g330
Ntp2028
Rp2029
(dp2030
g1613
g1621
sg1614
g1643
sg354
S'c:/marmalade/7.5/s3e/h/std/getopt.h'
p2031
sbsS'IwOptimiseARM.h'
p2032
g328
(g1609
g330
Ntp2033
Rp2034
(dp2035
g1613
g1480
sg1614
g1650
sg354
g1525
sbsS'times.h'
p2036
g328
(g1609
g330
Ntp2037
Rp2038
(dp2039
g1613
g1621
sg1614
g1774
sg354
S'c:/marmalade/7.5/s3e/h/std/sys/times.h'
p2040
sbsS'IwGeomFSphere.h'
p2041
g328
(g1609
g330
Ntp2042
Rp2043
(dp2044
g1613
g1316
sg1614
g1675
sg354
g1376
sbsS'game.h'
p2045
g328
(g1609
g330
Ntp2046
Rp2047
(dp2048
g1613
g1197
sg1614
g1765
sg354
g1226
sbsS'functional'
p2049
g328
(g1609
g330
Ntp2050
Rp2051
(dp2052
g1613
g1621
sg1614
g1622
sg354
S'c:/marmalade/7.5/s3e/h/std/c++/functional'
p2053
sbsS'IwTypes.h'
p2054
g328
(g1609
g330
Ntp2055
Rp2056
(dp2057
g1613
g1480
sg1614
g1650
sg354
g1572
sbsS'unistd.h'
p2058
g328
(g1609
g330
Ntp2059
Rp2060
(dp2061
g1613
g1621
sg1614
g1643
sg354
S'c:/marmalade/7.5/s3e/h/std/unistd.h'
p2062
sbsS'audio.cpp'
p2063
g328
(g1609
g330
Ntp2064
Rp2065
(dp2066
g1613
g1197
sg1614
g1765
sg354
g1216
sbsS's3eCompression.h'
p2067
g328
(g1609
g330
Ntp2068
Rp2069
(dp2070
g1613
g1621
sg1614
g1637
sg354
S'c:/marmalade/7.5/s3e/h/s3eCompression.h'
p2071
sbsS'langinfo.h'
p2072
g328
(g1609
g330
Ntp2073
Rp2074
(dp2075
g1613
g1621
sg1614
g1643
sg354
S'c:/marmalade/7.5/s3e/h/std/langinfo.h'
p2076
sbsS's3edebugHeap.h'
p2077
g328
(g1609
g330
Ntp2078
Rp2079
(dp2080
g1613
g1621
sg1614
g1848
sg354
S'c:/marmalade/7.5/s3e/h/ext/s3edebugHeap.h'
p2081
sbsS'AirplayVersion.h'
p2082
g328
(g1609
g330
Ntp2083
Rp2084
(dp2085
g1613
g1621
sg1614
g1637
sg354
S'c:/marmalade/7.5/s3e/h/AirplayVersion.h'
p2086
sbsS'gl2extimg.h'
p2087
g328
(g1609
g330
Ntp2088
Rp2089
(dp2090
g1613
g1621
sg1614
g1885
sg354
S'c:/marmalade/7.5/s3e/h/GLES2/gl2extimg.h'
p2091
sbsS'IwGeomSqrt.h'
p2092
g328
(g1609
g330
Ntp2093
Rp2094
(dp2095
g1613
g1316
sg1614
g1675
sg354
g1324
sbsS'tiniconv_int.h'
p2096
g328
(g1609
g330
Ntp2097
Rp2098
(dp2099
g1613
g1133
sg1614
(lp2100
g1126
asg354
g1131
sbsS'syslog.h'
p2101
g328
(g1609
g330
Ntp2102
Rp2103
(dp2104
g1613
g1621
sg1614
g1643
sg354
S'c:/marmalade/7.5/s3e/h/std/syslog.h'
p2105
sbsS'IwGxFontTypes.h'
p2106
g328
(g1609
g330
Ntp2107
Rp2108
(dp2109
g1613
g1294
sg1614
g1615
sg354
g1295
sbsS'IwGeomFIntersect.h'
p2110
g328
(g1609
g330
Ntp2111
Rp2112
(dp2113
g1613
g1316
sg1614
g1675
sg354
g1386
sbsS'hash_map'
p2114
g328
(g1609
g330
Ntp2115
Rp2116
(dp2117
g1613
g1621
sg1614
g1622
sg354
S'c:/marmalade/7.5/s3e/h/std/c++/hash_map'
p2118
sbsS's3e.mkf'
p2119
g328
(g1609
g330
Ntp2120
Rp2121
(dp2122
g1613
(dp2123
sg1614
g1637
sg354
S'c:/marmalade/7.5/s3e/s3e.mkf'
p2124
sbsS'IwGeomMat2D.h.tpl'
p2125
g328
(g1609
g330
Ntp2126
Rp2127
(dp2128
g1613
g1316
sg1614
g1675
sg354
g1368
sbsS's3eOSReadString.h'
p2129
g328
(g1609
g330
Ntp2130
Rp2131
(dp2132
g1613
g1621
sg1614
g1848
sg354
S'c:/marmalade/7.5/s3e/h/ext/s3eOSReadString.h'
p2133
sbsS'IwSound.h'
p2134
g328
(g1609
g330
Ntp2135
Rp2136
(dp2137
g1613
g1140
sg1614
g1661
sg354
g1175
sbsS'map'
p2138
g328
(g1609
g330
Ntp2139
Rp2140
(dp2141
g1613
g1621
sg1614
g1622
sg354
S'c:/marmalade/7.5/s3e/h/std/c++/map'
p2142
sbsS'iwtween.mkf'
p2143
g328
(g1609
g330
Ntp2144
Rp2145
(dp2146
g1613
g1600
sg1614
(lp2147
g1591
asg354
g1598
sbsS'IwOptimiseSpeed.h'
p2148
g328
(g1609
g330
Ntp2149
Rp2150
(dp2151
g1613
g1480
sg1614
g1650
sg354
g1537
sbsS'ostream'
p2152
g328
(g1609
g330
Ntp2153
Rp2154
(dp2155
g1613
g1621
sg1614
g1622
sg354
S'c:/marmalade/7.5/s3e/h/std/c++/ostream'
p2156
sbsS'msl_string.h'
p2157
g328
(g1609
g330
Ntp2158
Rp2159
(dp2160
g1613
g1621
sg1614
g1622
sg354
S'c:/marmalade/7.5/s3e/h/std/c++/msl_string.h'
p2161
sbsS'select.h'
p2162
g328
(g1609
g330
Ntp2163
Rp2164
(dp2165
g1613
g1621
sg1614
g1774
sg354
S'c:/marmalade/7.5/s3e/h/std/sys/select.h'
p2166
sbsS'hero.cpp'
p2167
g328
(g1609
g330
Ntp2168
Rp2169
(dp2170
g1613
g1197
sg1614
g1765
sg354
g1230
sbsS'zlib.mkf'
p2171
g328
(g1609
g330
Ntp2172
Rp2173
(dp2174
g1613
g1590
sg1614
(lp2175
g1580
asg354
g1588
sbsS'signal.h'
p2176
g328
(g1609
g330
Ntp2177
Rp2178
(dp2179
g1613
g1621
sg1614
g1643
sg354
S'c:/marmalade/7.5/s3e/h/std/signal.h'
p2180
sbsS'sigcontext.h'
p2181
g328
(g1609
g330
Ntp2182
Rp2183
(dp2184
g1613
g1621
sg1614
g1643
sg354
S'c:/marmalade/7.5/s3e/h/std/sigcontext.h'
p2185
sbsS'libpng.mkf'
p2186
g328
(g1609
g330
Ntp2187
Rp2188
(dp2189
g1613
g1090
sg1614
(lp2190
g1079
asg354
g1088
sbsS's3eClipboard.h'
p2191
g328
(g1609
g330
Ntp2192
Rp2193
(dp2194
g1613
g1621
sg1614
g1637
sg354
S'c:/marmalade/7.5/s3e/h/s3eClipboard.h'
p2195
sbsS'IwGxFuncTable.h'
p2196
g328
(g1609
g330
Ntp2197
Rp2198
(dp2199
g1613
g1416
sg1614
g1755
sg354
g1421
sbsS'IwResHandlerGROUP.h'
p2200
g328
(g1609
g330
Ntp2201
Rp2202
(dp2203
g1613
g1392
sg1614
g1893
sg354
g1397
sbsS's3eDebug.h'
p2204
g328
(g1609
g330
Ntp2205
Rp2206
(dp2207
g1613
g1621
sg1614
g1637
sg354
S'c:/marmalade/7.5/s3e/h/s3eDebug.h'
p2208
sbsS'socket.h'
p2209
g328
(g1609
g330
Ntp2210
Rp2211
(dp2212
g1613
g1621
sg1614
g1774
sg354
S'c:/marmalade/7.5/s3e/h/std/sys/socket.h'
p2213
sbsS'glext.h'
p2214
g328
(g1609
g330
Ntp2215
Rp2216
(dp2217
g1613
g1621
sg1614
g1986
sg354
S'c:/marmalade/7.5/s3e/h/GLES/glext.h'
p2218
sbsS'typeinfo.h'
p2219
g328
(g1609
g330
Ntp2220
Rp2221
(dp2222
g1613
g1621
sg1614
g1622
sg354
S'c:/marmalade/7.5/s3e/h/std/c++/typeinfo.h'
p2223
sbsS'typeinfo'
p2224
g328
(g1609
g330
Ntp2225
Rp2226
(dp2227
g1613
g1621
sg1614
g1622
sg354
S'c:/marmalade/7.5/s3e/h/std/c++/typeinfo'
p2228
sbsS'iwsound.config.txt'
p2229
g328
(g1609
g330
Ntp2230
Rp2231
(dp2232
g1613
g1140
sg1614
(lp2233
g1136
ag1147
asg354
g1149
sbsS'fstream.h'
p2234
g328
(g1609
g330
Ntp2235
Rp2236
(dp2237
g1613
g1621
sg1614
g1622
sg354
S'c:/marmalade/7.5/s3e/h/std/c++/fstream.h'
p2238
sbsS'IwGeomMat.h'
p2239
g328
(g1609
g330
Ntp2240
Rp2241
(dp2242
g1613
g1316
sg1614
g1675
sg354
g1332
sbsS's3ePointer.h'
p2243
g328
(g1609
g330
Ntp2244
Rp2245
(dp2246
g1613
g1621
sg1614
g1637
sg354
S'c:/marmalade/7.5/s3e/h/s3ePointer.h'
p2247
sbsS'IwMemBucket.h'
p2248
g328
(g1609
g330
Ntp2249
Rp2250
(dp2251
g1613
g1480
sg1614
g1650
sg354
g1527
sbsS'PVRTexTool.h'
p2252
g328
(g1609
g330
Ntp2253
Rp2254
(dp2255
g1613
g1244
sg1614
(lp2256
g1236
ag1238
asg354
g1247
sbsS's3eGL.h'
p2257
g328
(g1609
g330
Ntp2258
Rp2259
(dp2260
g1613
g1621
sg1614
g1637
sg354
S'c:/marmalade/7.5/s3e/h/s3eGL.h'
p2261
sbsS'IwGeomFVec2.h'
p2262
g328
(g1609
g330
Ntp2263
Rp2264
(dp2265
g1613
g1316
sg1614
g1675
sg354
g1350
sbsS'IwGeomSVec4.h'
p2266
g328
(g1609
g330
Ntp2267
Rp2268
(dp2269
g1613
g1316
sg1614
g1675
sg354
g1352
sbsS'poll.h'
p2270
g328
(g1609
g330
Ntp2271
Rp2272
(dp2273
g1613
g1621
sg1614
g1643
sg354
S'c:/marmalade/7.5/s3e/h/std/poll.h'
p2274
sbsS'IwMatAnim.h'
p2275
g328
(g1609
g330
Ntp2276
Rp2277
(dp2278
g1613
g1416
sg1614
g1755
sg354
g1417
sbsS'IwGeomFVec4.h'
p2279
g328
(g1609
g330
Ntp2280
Rp2281
(dp2282
g1613
g1316
sg1614
g1675
sg354
g1364
sbsS'IwGx.h'
p2283
g328
(g1609
g330
Ntp2284
Rp2285
(dp2286
g1613
g1416
sg1614
g1755
sg354
g1435
sbsS'valarray'
p2287
g328
(g1609
g330
Ntp2288
Rp2289
(dp2290
g1613
g1621
sg1614
g1622
sg354
S'c:/marmalade/7.5/s3e/h/std/c++/valarray'
p2291
sbsS'iosfwd'
p2292
g328
(g1609
g330
Ntp2293
Rp2294
(dp2295
g1613
g1621
sg1614
g1622
sg354
S'c:/marmalade/7.5/s3e/h/std/c++/iosfwd'
p2296
sbsS'gl2.h'
p2297
g328
(g1609
g330
Ntp2298
Rp2299
(dp2300
g1613
g1621
sg1614
g1885
sg354
S'c:/marmalade/7.5/s3e/h/GLES2/gl2.h'
p2301
sbsS'jpegint.h'
p2302
g328
(g1609
g330
Ntp2303
Rp2304
(dp2305
g1613
g1099
sg1614
g1709
sg354
g1114
sbsS'stdiostream.h'
p2306
g328
(g1609
g330
Ntp2307
Rp2308
(dp2309
g1613
g1621
sg1614
g1622
sg354
S'c:/marmalade/7.5/s3e/h/std/c++/stdiostream.h'
p2310
sbsS'mem.h'
p2311
g328
(g1609
g330
Ntp2312
Rp2313
(dp2314
g1613
g1621
sg1614
g1622
sg354
S'c:/marmalade/7.5/s3e/h/std/c++/mem.h'
p2315
sbsS'jerror.h'
p2316
g328
(g1609
g330
Ntp2317
Rp2318
(dp2319
g1613
g1099
sg1614
g1709
sg354
g1097
sbsS'zconf.h'
p2320
g328
(g1609
g330
Ntp2321
Rp2322
(dp2323
g1613
g1585
sg1614
(lp2324
g1580
ag1081
asg354
g1583
sbsS's3e.config.txt'
p2325
g328
(g1609
g330
Ntp2326
Rp2327
(dp2328
g1613
g1621
sg1614
g1637
sg354
S'c:/marmalade/7.5/s3e/s3e.config.txt'
p2329
sbsS'numeric'
p2330
g328
(g1609
g330
Ntp2331
Rp2332
(dp2333
g1613
g1621
sg1614
g1622
sg354
S'c:/marmalade/7.5/s3e/h/std/c++/numeric'
p2334
sbsS'utime.h'
p2335
g328
(g1609
g330
Ntp2336
Rp2337
(dp2338
g1613
g1621
sg1614
g1643
sg354
S'c:/marmalade/7.5/s3e/h/std/utime.h'
p2339
sbsS'jdhuff.h'
p2340
g328
(g1609
g330
Ntp2341
Rp2342
(dp2343
g1613
g1099
sg1614
g1709
sg354
g1100
sbsS'IwResHandlerWAV.cpp'
p2344
g328
(g1609
g330
Ntp2345
Rp2346
(dp2347
g1613
g1140
sg1614
g1661
sg354
g1143
sbsS'un.h'
p2348
g328
(g1609
g330
Ntp2349
Rp2350
(dp2351
g1613
g1621
sg1614
g1774
sg354
S'c:/marmalade/7.5/s3e/h/std/sys/un.h'
p2352
sbsS'IwImage.h'
p2353
g328
(g1609
g330
Ntp2354
Rp2355
(dp2356
g1613
g1480
sg1614
g1650
sg354
g1523
sbsS's3eImagePicker.h'
p2357
g328
(g1609
g330
Ntp2358
Rp2359
(dp2360
g1613
g1621
sg1614
g1848
sg354
S'c:/marmalade/7.5/s3e/h/ext/s3eImagePicker.h'
p2361
sbsS'stdlib.h'
p2362
g328
(g1609
g330
Ntp2363
Rp2364
(dp2365
g1613
g1621
sg1614
g1643
sg354
S'c:/marmalade/7.5/s3e/h/std/stdlib.h'
p2366
sbsS'IwCopyingPtr.h'
p2367
g328
(g1609
g330
Ntp2368
Rp2369
(dp2370
g1613
g1480
sg1614
g1650
sg354
g1562
sbsS'iostream'
p2371
g328
(g1609
g330
Ntp2372
Rp2373
(dp2374
g1613
g1621
sg1614
g1622
sg354
S'c:/marmalade/7.5/s3e/h/std/c++/iostream'
p2375
sbsS'png.h'
p2376
g328
(g1609
g330
Ntp2377
Rp2378
(dp2379
g1613
g1085
sg1614
(lp2380
g1079
ag1081
asg354
g1083
sbsS'stddef.h'
p2381
g328
(g1609
g330
Ntp2382
Rp2383
(dp2384
g1613
g1621
sg1614
g1643
sg354
S'c:/marmalade/7.5/s3e/h/std/stddef.h'
p2385
sbsS'setjmp_win32.h'
p2386
g328
(g1609
g330
Ntp2387
Rp2388
(dp2389
g1613
g1621
sg1614
g1643
sg354
S'c:/marmalade/7.5/s3e/h/std/setjmp_win32.h'
p2390
sbsS'pauseMenu.h'
p2391
g328
(g1609
g330
Ntp2392
Rp2393
(dp2394
g1613
g1197
sg1614
g1765
sg354
g1195
sbsS'IwGxPrint.h'
p2395
g328
(g1609
g330
Ntp2396
Rp2397
(dp2398
g1613
g1416
sg1614
g1755
sg354
g1425
sbsS'iwgx_public.defines.txt'
p2399
g328
(g1609
g330
Ntp2400
Rp2401
(dp2402
g1613
g1416
sg1614
g1755
sg354
g1437
sbsS'streambuf.h'
p2403
g328
(g1609
g330
Ntp2404
Rp2405
(dp2406
g1613
g1621
sg1614
g1622
sg354
S'c:/marmalade/7.5/s3e/h/std/c++/streambuf.h'
p2407
sbsS'resources.cpp'
p2408
g328
(g1609
g330
Ntp2409
Rp2410
(dp2411
g1613
g1197
sg1614
g1765
sg354
g1200
sbsS'IwGeomFPlane.h'
p2412
g328
(g1609
g330
Ntp2413
Rp2414
(dp2415
g1613
g1316
sg1614
g1675
sg354
g1380
sbsS'wchar.h'
p2416
g328
(g1609
g330
Ntp2417
Rp2418
(dp2419
g1613
g1621
sg1614
g1643
sg354
S'c:/marmalade/7.5/s3e/h/std/wchar.h'
p2420
sbsS's3eCameraCapture.h'
p2421
g328
(g1609
g330
Ntp2422
Rp2423
(dp2424
g1613
g1621
sg1614
g1848
sg354
S'c:/marmalade/7.5/s3e/h/ext/s3eCameraCapture.h'
p2425
sbsS'eglext.h'
p2426
g328
(g1609
g330
Ntp2427
Rp2428
(dp2429
g1613
g1621
sg1614
g1978
sg354
S'c:/marmalade/7.5/s3e/h/EGL/eglext.h'
p2430
sbsS'IwResHandlerImage.h'
p2431
g328
(g1609
g330
Ntp2432
Rp2433
(dp2434
g1613
g1392
sg1614
g1893
sg354
g1410
sbsS'strstream.h'
p2435
g328
(g1609
g330
Ntp2436
Rp2437
(dp2438
g1613
g1621
sg1614
g1622
sg354
S'c:/marmalade/7.5/s3e/h/std/c++/strstream.h'
p2439
sbsS'tiniconv.h'
p2440
g328
(g1609
g330
Ntp2441
Rp2442
(dp2443
g1613
g1133
sg1614
g2100
sg354
g1134
sbsS'IwGLExt.h'
p2444
g328
(g1609
g330
Ntp2445
Rp2446
(dp2447
g1613
g1273
sg1614
g1631
sg354
g1276
sbsS'app.icf'
p2448
g328
(g1609
g330
Ntp2449
Rp2450
(dp2451
g1613
(dp2452
sg1614
g4
sg354
S'c:/Marmalade/7.5/examples/GameTutorial/CPP/marm1/data/app.icf'
p2453
sbsS'IwClassFactory.h'
p2454
g328
(g1609
g330
Ntp2455
Rp2456
(dp2457
g1613
g1480
sg1614
g1650
sg354
g1497
sbsS'file.h'
p2458
g328
(g1609
g330
Ntp2459
Rp2460
(dp2461
g1613
g1621
sg1614
g1774
sg354
S'c:/marmalade/7.5/s3e/h/std/sys/file.h'
p2462
sbsS'cstring'
p2463
g328
(g1609
g330
Ntp2464
Rp2465
(dp2466
g1613
g1621
sg1614
g1622
sg354
S'c:/marmalade/7.5/s3e/h/std/c++/cstring'
p2467
sbsS'IwSoundInst.cpp'
p2468
g328
(g1609
g330
Ntp2469
Rp2470
(dp2471
g1613
g1140
sg1614
g1661
sg354
g1165
sbsS'iwutil.config.txt'
p2472
g328
(g1609
g330
Ntp2473
Rp2474
(dp2475
g1613
g1480
sg1614
g1650
sg354
g1513
sbsS's3eSMS.h'
p2476
g328
(g1609
g330
Ntp2477
Rp2478
(dp2479
g1613
g1621
sg1614
g1848
sg354
S'c:/marmalade/7.5/s3e/h/ext/s3eSMS.h'
p2480
sbsS'limits.h'
p2481
g328
(g1609
g330
Ntp2482
Rp2483
(dp2484
g1613
g1621
sg1614
g1643
sg354
S'c:/marmalade/7.5/s3e/h/std/limits.h'
p2485
sbsS'scene.h'
p2486
g328
(g1609
g330
Ntp2487
Rp2488
(dp2489
g1613
g1197
sg1614
g1765
sg354
g1224
sbsS'IwMaterial.h'
p2490
g328
(g1609
g330
Ntp2491
Rp2492
(dp2493
g1613
g1416
sg1614
g1755
sg354
g1445
sbsS'PVRTexTool_interface.cpp'
p2494
g328
(g1609
g330
Ntp2495
Rp2496
(dp2497
g1613
g1244
sg1614
(lp2498
g1236
ag1238
ag1240
asg354
g1245
sbsS'IwGxSurface.h'
p2499
g328
(g1609
g330
Ntp2500
Rp2501
(dp2502
g1613
g1416
sg1614
g1755
sg354
g1431
sbsS's3eSocket.h'
p2503
g328
(g1609
g330
Ntp2504
Rp2505
(dp2506
g1613
g1621
sg1614
g1637
sg354
S'c:/marmalade/7.5/s3e/h/s3eSocket.h'
p2507
sbsS'IwAutoFile.h'
p2508
g328
(g1609
g330
Ntp2509
Rp2510
(dp2511
g1613
g1480
sg1614
g1650
sg354
g1541
sbsS's3eVibra.h'
p2512
g328
(g1609
g330
Ntp2513
Rp2514
(dp2515
g1613
g1621
sg1614
g1637
sg354
S'c:/marmalade/7.5/s3e/h/s3eVibra.h'
p2516
sbsS'poll_1.h'
p2517
g328
(g1609
g330
Ntp2518
Rp2519
(dp2520
g1613
g1621
sg1614
g1774
sg354
S'c:/marmalade/7.5/s3e/h/std/sys/poll.h'
p2521
sbsS's3eThread.h'
p2522
g328
(g1609
g330
Ntp2523
Rp2524
(dp2525
g1613
g1621
sg1614
g1637
sg354
S'c:/marmalade/7.5/s3e/h/s3eThread.h'
p2526
sbsS'ucontext.h'
p2527
g328
(g1609
g330
Ntp2528
Rp2529
(dp2530
g1613
g1621
sg1614
g1643
sg354
S'c:/marmalade/7.5/s3e/h/std/ucontext.h'
p2531
sbsS'time.h'
p2532
g328
(g1609
g330
Ntp2533
Rp2534
(dp2535
g1613
g1621
sg1614
g1643
sg354
S'c:/marmalade/7.5/s3e/h/std/time.h'
p2536
sbsS'jchuff.h'
p2537
g328
(g1609
g330
Ntp2538
Rp2539
(dp2540
g1613
g1099
sg1614
g1709
sg354
g1116
sbsS'IwSoundPCM.cpp'
p2541
g328
(g1609
g330
Ntp2542
Rp2543
(dp2544
g1613
g1140
sg1614
g1661
sg354
g1161
sbsS's3eSoundRecord.h'
p2545
g328
(g1609
g330
Ntp2546
Rp2547
(dp2548
g1613
g1621
sg1614
g1637
sg354
S'c:/marmalade/7.5/s3e/h/s3eSoundRecord.h'
p2549
sbsS'IwFibre.h'
p2550
g328
(g1609
g330
Ntp2551
Rp2552
(dp2553
g1613
g1480
sg1614
g1650
sg354
g1566
sbsS's3eVersion.h'
p2554
g328
(g1609
g330
Ntp2555
Rp2556
(dp2557
g1613
g1621
sg1614
g1637
sg354
S'c:/marmalade/7.5/s3e/h/s3eVersion.h'
p2558
sbsS'input.cpp'
p2559
g328
(g1609
g330
Ntp2560
Rp2561
(dp2562
g1613
g1197
sg1614
g1765
sg354
g1210
sbsS'IwSoundGroup.h'
p2563
g328
(g1609
g330
Ntp2564
Rp2565
(dp2566
g1613
g1140
sg1614
g1661
sg354
g1186
sbsS'IwSoundWAV.h'
p2567
g328
(g1609
g330
Ntp2568
Rp2569
(dp2570
g1613
g1140
sg1614
g1661
sg354
g1167
sbsS'IwGxFontGlyph.h'
p2571
g328
(g1609
g330
Ntp2572
Rp2573
(dp2574
g1613
g1294
sg1614
g1615
sg354
g1292
sbsS's3eTypes.h'
p2575
g328
(g1609
g330
Ntp2576
Rp2577
(dp2578
g1613
g1621
sg1614
g1637
sg354
S'c:/marmalade/7.5/s3e/h/s3eTypes.h'
p2579
sbsS'IwSoundSpec.h'
p2580
g328
(g1609
g330
Ntp2581
Rp2582
(dp2583
g1613
g1140
sg1614
g1661
sg354
g1155
sbsS'signal_2.h'
p2584
g328
(g1609
g330
Ntp2585
Rp2586
(dp2587
g1613
g1621
sg1614
g1622
sg354
S'c:/marmalade/7.5/s3e/h/std/c++/signal.h'
p2588
sbsS'termios.h'
p2589
g328
(g1609
g330
Ntp2590
Rp2591
(dp2592
g1613
g1621
sg1614
g1643
sg354
S'c:/marmalade/7.5/s3e/h/std/termios.h'
p2593
sbsS'iw2dscenegraph.mkf'
p2594
g328
(g1609
g330
Ntp2595
Rp2596
(dp2597
g1613
g1265
sg1614
g1935
sg354
g1263
sbsS'slist'
p2598
g328
(g1609
g330
Ntp2599
Rp2600
(dp2601
g1613
g1621
sg1614
g1622
sg354
S'c:/marmalade/7.5/s3e/h/std/c++/slist'
p2602
sbsS'cstdlib'
p2603
g328
(g1609
g330
Ntp2604
Rp2605
(dp2606
g1613
g1621
sg1614
g1622
sg354
S'c:/marmalade/7.5/s3e/h/std/c++/cstdlib'
p2607
sbsS's3eLocation.h'
p2608
g328
(g1609
g330
Ntp2609
Rp2610
(dp2611
g1613
g1621
sg1614
g1637
sg354
S'c:/marmalade/7.5/s3e/h/s3eLocation.h'
p2612
sbsS'IwMemBucketHelpers.h'
p2613
g328
(g1609
g330
Ntp2614
Rp2615
(dp2616
g1613
g1480
sg1614
g1650
sg354
g1517
sbsS's3eHash.h'
p2617
g328
(g1609
g330
Ntp2618
Rp2619
(dp2620
g1613
g1621
sg1614
g1637
sg354
S'c:/marmalade/7.5/s3e/h/s3eHash.h'
p2621
sbsS'IwSoundGroup.cpp'
p2622
g328
(g1609
g330
Ntp2623
Rp2624
(dp2625
g1613
g1140
sg1614
g1661
sg354
g1138
sbsS'IwGeomFMat.h'
p2626
g328
(g1609
g330
Ntp2627
Rp2628
(dp2629
g1613
g1316
sg1614
g1675
sg354
g1344
sbsS'type_traits.h'
p2630
g328
(g1609
g330
Ntp2631
Rp2632
(dp2633
g1613
g1621
sg1614
g1622
sg354
S'c:/marmalade/7.5/s3e/h/std/c++/type_traits.h'
p2634
sbsS's3eAtomic.h'
p2635
g328
(g1609
g330
Ntp2636
Rp2637
(dp2638
g1613
g1621
sg1614
g1637
sg354
S'c:/marmalade/7.5/s3e/h/s3eAtomic.h'
p2639
sbsS'IwMenu.h'
p2640
g328
(g1609
g330
Ntp2641
Rp2642
(dp2643
g1613
g1480
sg1614
g1650
sg354
g1570
sbsS'IwResHandlerITX.h'
p2644
g328
(g1609
g330
Ntp2645
Rp2646
(dp2647
g1613
g1392
sg1614
g1893
sg354
g1390
sbsS'IwSoundData.h'
p2648
g328
(g1609
g330
Ntp2649
Rp2650
(dp2651
g1613
g1140
sg1614
g1661
sg354
g1179
sbsS'IwArray.h'
p2652
g328
(g1609
g330
Ntp2653
Rp2654
(dp2655
g1613
g1480
sg1614
g1650
sg354
g1568
sbsS'IwUTF8.h'
p2656
g328
(g1609
g330
Ntp2657
Rp2658
(dp2659
g1613
g1480
sg1614
g1650
sg354
g1511
sbsS'math_rvct.h'
p2660
g328
(g1609
g330
Ntp2661
Rp2662
(dp2663
g1613
g1621
sg1614
g1643
sg354
S'c:/marmalade/7.5/s3e/h/std/math_rvct.h'
p2664
sbsS'IwUtil.h'
p2665
g328
(g1609
g330
Ntp2666
Rp2667
(dp2668
g1613
g1480
sg1614
g1650
sg354
g1552
sbsS'IwFColour.h'
p2669
g328
(g1609
g330
Ntp2670
Rp2671
(dp2672
g1613
g1416
sg1614
g1755
sg354
g1451
sbsS'wctype.h'
p2673
g328
(g1609
g330
Ntp2674
Rp2675
(dp2676
g1613
g1621
sg1614
g1643
sg354
S'c:/marmalade/7.5/s3e/h/std/wctype.h'
p2677
sbsS'mainMenu.h'
p2678
g328
(g1609
g330
Ntp2679
Rp2680
(dp2681
g1613
g1197
sg1614
g1765
sg354
g1204
sbsS'cstddef'
p2682
g328
(g1609
g330
Ntp2683
Rp2684
(dp2685
g1613
g1621
sg1614
g1622
sg354
S'c:/marmalade/7.5/s3e/h/std/c++/cstddef'
p2686
sbsS'assert.h'
p2687
g328
(g1609
g330
Ntp2688
Rp2689
(dp2690
g1613
g1621
sg1614
g1643
sg354
S'c:/marmalade/7.5/s3e/h/std/assert.h'
p2691
sbsS'mman.h'
p2692
g328
(g1609
g330
Ntp2693
Rp2694
(dp2695
g1613
g1621
sg1614
g1774
sg354
S'c:/marmalade/7.5/s3e/h/std/sys/mman.h'
p2696
sbsS'IwRandom.h'
p2697
g328
(g1609
g330
Ntp2698
Rp2699
(dp2700
g1613
g1480
sg1614
g1650
sg354
g1507
sbsS'libgen.h'
p2701
g328
(g1609
g330
Ntp2702
Rp2703
(dp2704
g1613
g1621
sg1614
g1643
sg354
S'c:/marmalade/7.5/s3e/h/std/libgen.h'
p2705
sbsS'utsname.h'
p2706
g328
(g1609
g330
Ntp2707
Rp2708
(dp2709
g1613
g1621
sg1614
g1774
sg354
S'c:/marmalade/7.5/s3e/h/std/sys/utsname.h'
p2710
sbsS'wait.h'
p2711
g328
(g1609
g330
Ntp2712
Rp2713
(dp2714
g1613
g1621
sg1614
g1774
sg354
S'c:/marmalade/7.5/s3e/h/std/sys/wait.h'
p2715
sbsS'param.h'
p2716
g328
(g1609
g330
Ntp2717
Rp2718
(dp2719
g1613
g1621
sg1614
g1774
sg354
S'c:/marmalade/7.5/s3e/h/std/sys/param.h'
p2720
sbsS'IwDivide.h'
p2721
g328
(g1609
g330
Ntp2722
Rp2723
(dp2724
g1613
g1480
sg1614
g1650
sg354
g1487
sbsS'Iw2DSceneGraphCore.cpp'
p2725
g328
(g1609
g330
Ntp2726
Rp2727
(dp2728
g1613
g1473
sg1614
(lp2729
S"'Marmalade Studio'"
p2730
ag1466
asg354
g1474
sbsS'IwResManager.h'
p2731
g328
(g1609
g330
Ntp2732
Rp2733
(dp2734
g1613
g1392
sg1614
g1893
sg354
g1399
sbsS'IwSoundManager.h'
p2735
g328
(g1609
g330
Ntp2736
Rp2737
(dp2738
g1613
g1140
sg1614
g1661
sg354
g1159
sbsS'cwctype'
p2739
g328
(g1609
g330
Ntp2740
Rp2741
(dp2742
g1613
g1621
sg1614
g1622
sg354
S'c:/marmalade/7.5/s3e/h/std/c++/cwctype'
p2743
sbsS'set'
p2744
g328
(g1609
g330
Ntp2745
Rp2746
(dp2747
g1613
g1621
sg1614
g1622
sg354
S'c:/marmalade/7.5/s3e/h/std/c++/set'
p2748
sbsS'IwGeomSQuat.h'
p2749
g328
(g1609
g330
Ntp2750
Rp2751
(dp2752
g1613
g1316
sg1614
g1675
sg354
g1340
sbsS'locale'
p2753
g328
(g1609
g330
Ntp2754
Rp2755
(dp2756
g1613
g1621
sg1614
g1622
sg354
S'c:/marmalade/7.5/s3e/h/std/c++/locale'
p2757
sbsS'cstdio'
p2758
g328
(g1609
g330
Ntp2759
Rp2760
(dp2761
g1613
g1621
sg1614
g1622
sg354
S'c:/marmalade/7.5/s3e/h/std/c++/cstdio'
p2762
sbsS'cdjpeg.h'
p2763
g328
(g1609
g330
Ntp2764
Rp2765
(dp2766
g1613
g1099
sg1614
g1709
sg354
g1118
sbsS'audio.h'
p2767
g328
(g1609
g330
Ntp2768
Rp2769
(dp2770
g1613
g1197
sg1614
g1765
sg354
g1206
sbsS'IwList.h'
p2771
g328
(g1609
g330
Ntp2772
Rp2773
(dp2774
g1613
g1480
sg1614
g1650
sg354
g1539
sbsS'pauseMenu.cpp'
p2775
g328
(g1609
g330
Ntp2776
Rp2777
(dp2778
g1613
g1197
sg1614
g1765
sg354
g1234
sbsS'inttypes.h'
p2779
g328
(g1609
g330
Ntp2780
Rp2781
(dp2782
g1613
g1621
sg1614
g1643
sg354
S'c:/marmalade/7.5/s3e/h/std/inttypes.h'
p2783
sbsS'dirent.h'
p2784
g328
(g1609
g330
Ntp2785
Rp2786
(dp2787
g1613
g1621
sg1614
g1643
sg354
S'c:/marmalade/7.5/s3e/h/std/dirent.h'
p2788
sbsS'IwGeomVec3.h'
p2789
g328
(g1609
g330
Ntp2790
Rp2791
(dp2792
g1613
g1316
sg1614
g1675
sg354
g1334
sbsS'transupp.h'
p2793
g328
(g1609
g330
Ntp2794
Rp2795
(dp2796
g1613
g1099
sg1614
g1709
sg354
g1104
sbsS'IwMath.h'
p2797
g328
(g1609
g330
Ntp2798
Rp2799
(dp2800
g1613
g1480
sg1614
g1650
sg354
g1481
sbsS'IwGeomQuat.h'
p2801
g328
(g1609
g330
Ntp2802
Rp2803
(dp2804
g1613
g1316
sg1614
g1675
sg354
g1384
sbsS'glplatform.h'
p2805
g328
(g1609
g330
Ntp2806
Rp2807
(dp2808
g1613
g1621
sg1614
g1986
sg354
S'c:/marmalade/7.5/s3e/h/GLES/glplatform.h'
p2809
sbsS's3e-default.mkf'
p2810
g328
(g1609
g330
Ntp2811
Rp2812
(dp2813
g1613
g1605
sg1614
(lp2814
g1601
asg354
g1603
sbsS'iwgl.config.txt'
p2815
g328
(g1609
g330
Ntp2816
Rp2817
(dp2818
g1613
g1273
sg1614
g1631
sg354
g1274
sbsS'bitset'
p2819
g328
(g1609
g330
Ntp2820
Rp2821
(dp2822
g1613
g1621
sg1614
g1622
sg354
S'c:/marmalade/7.5/s3e/h/std/c++/bitset'
p2823
sbsS'alloca.h'
p2824
g328
(g1609
g330
Ntp2825
Rp2826
(dp2827
g1613
g1621
sg1614
g1643
sg354
S'c:/marmalade/7.5/s3e/h/std/alloca.h'
p2828
sbsS'IwResHandler.h'
p2829
g328
(g1609
g330
Ntp2830
Rp2831
(dp2832
g1613
g1392
sg1614
g1893
sg354
g1408
sbsS'IwResHandlerMTL.h'
p2833
g328
(g1609
g330
Ntp2834
Rp2835
(dp2836
g1613
g1416
sg1614
g1755
sg354
g1423
sbsS'IwRuntime.h'
p2837
g328
(g1609
g330
Ntp2838
Rp2839
(dp2840
g1613
g1480
sg1614
g1650
sg354
g1531
sbsS'enemy.cpp'
p2841
g328
(g1609
g330
Ntp2842
Rp2843
(dp2844
g1613
g1197
sg1614
g1765
sg354
g1232
sbsS'limits'
p2845
g328
(g1609
g330
Ntp2846
Rp2847
(dp2848
g1613
g1621
sg1614
g1622
sg354
S'c:/marmalade/7.5/s3e/h/std/c++/limits'
p2849
sbsS'IwGeomBBox.h'
p2850
g328
(g1609
g330
Ntp2851
Rp2852
(dp2853
g1613
g1316
sg1614
g1675
sg354
g1374
sbsS's3eContacts.h'
p2854
g328
(g1609
g330
Ntp2855
Rp2856
(dp2857
g1613
g1621
sg1614
g1637
sg354
S'c:/marmalade/7.5/s3e/h/s3eContacts.h'
p2858
sbsS's3eLicense.h'
p2859
g328
(g1609
g330
Ntp2860
Rp2861
(dp2862
g1613
g1621
sg1614
g1637
sg354
S'c:/marmalade/7.5/s3e/h/s3eLicense.h'
p2863
sbsS'iwgx.config.txt'
p2864
g328
(g1609
g330
Ntp2865
Rp2866
(dp2867
g1613
g1416
sg1614
g1755
sg354
g1458
sbsS'IwTextParser.h'
p2868
g328
(g1609
g330
Ntp2869
Rp2870
(dp2871
g1613
g1480
sg1614
g1650
sg354
g1560
sbsS's3eTimer.h'
p2872
g328
(g1609
g330
Ntp2873
Rp2874
(dp2875
g1613
g1621
sg1614
g1637
sg354
S'c:/marmalade/7.5/s3e/h/s3eTimer.h'
p2876
sbsS'IwGeomVec.h'
p2877
g328
(g1609
g330
Ntp2878
Rp2879
(dp2880
g1613
g1316
sg1614
g1675
sg354
g1360
sbsS'IwSerialise.h'
p2881
g328
(g1609
g330
Ntp2882
Rp2883
(dp2884
g1613
g1480
sg1614
g1650
sg354
g1578
sbsS'cstdarg'
p2885
g328
(g1609
g330
Ntp2886
Rp2887
(dp2888
g1613
g1621
sg1614
g1622
sg354
S'c:/marmalade/7.5/s3e/h/std/c++/cstdarg'
p2889
sbsS'gl2ext.h'
p2890
g328
(g1609
g330
Ntp2891
Rp2892
(dp2893
g1613
g1621
sg1614
g1885
sg354
S'c:/marmalade/7.5/s3e/h/GLES2/gl2ext.h'
p2894
sbsS'IwChar.h'
p2895
g328
(g1609
g330
Ntp2896
Rp2897
(dp2898
g1613
g1480
sg1614
g1650
sg354
g1505
sbsS's3eSound.h'
p2899
g328
(g1609
g330
Ntp2900
Rp2901
(dp2902
g1613
g1621
sg1614
g1637
sg354
S'c:/marmalade/7.5/s3e/h/s3eSound.h'
p2903
sbsS'IwVariableBitField.h'
p2904
g328
(g1609
g330
Ntp2905
Rp2906
(dp2907
g1613
g1480
sg1614
g1650
sg354
g1543
sbsS'exception.h'
p2908
g328
(g1609
g330
Ntp2909
Rp2910
(dp2911
g1613
g1621
sg1614
g1622
sg354
S'c:/marmalade/7.5/s3e/h/std/c++/exception.h'
p2912
sbsS'iwgeom.config.txt'
p2913
g328
(g1609
g330
Ntp2914
Rp2915
(dp2916
g1613
g1316
sg1614
g1675
sg354
g1382
sbsS'iwgx.mkf'
p2917
g328
(g1609
g330
Ntp2918
Rp2919
(dp2920
g1613
g1457
sg1614
g1755
sg354
g1455
sbsS'gl.h'
p2921
g328
(g1609
g330
Ntp2922
Rp2923
(dp2924
g1613
g1621
sg1614
g1986
sg354
S'c:/marmalade/7.5/s3e/h/GLES/gl.h'
p2925
sbsS'zlib.h'
p2926
g328
(g1609
g330
Ntp2927
Rp2928
(dp2929
g1613
g1585
sg1614
g2324
sg354
g1586
sbsS'temp_defines_release.h'
p2930
g328
(g1609
g330
Ntp2931
Rp2932
(dp2933
g1613
(lp2934
sg1614
(lp2935
S"'generated files'"
p2936
asg354
S'c:/Marmalade/7.5/examples/GameTutorial/CPP/marm1/build_stage4_vc12/temp_defines_release.h'
p2937
sbsS'iwgl.mkf'
p2938
g328
(g1609
g330
Ntp2939
Rp2940
(dp2941
g1613
g1270
sg1614
g1631
sg354
g1268
sbsS'IwColour.h'
p2942
g328
(g1609
g330
Ntp2943
Rp2944
(dp2945
g1613
g1416
sg1614
g1755
sg354
g1460
sbsS's3eLibrary.h'
p2946
g328
(g1609
g330
Ntp2947
Rp2948
(dp2949
g1613
g1621
sg1614
g1848
sg354
S'c:/marmalade/7.5/s3e/h/ext/s3eLibrary.h'
p2950
sbsS'types.h'
p2951
g328
(g1609
g330
Ntp2952
Rp2953
(dp2954
g1613
g1621
sg1614
g1774
sg354
S'c:/marmalade/7.5/s3e/h/std/sys/types.h'
p2955
sbsS'ifaddrs.h'
p2956
g328
(g1609
g330
Ntp2957
Rp2958
(dp2959
g1613
g1621
sg1614
g1643
sg354
S'c:/marmalade/7.5/s3e/h/std/ifaddrs.h'
p2960
sbsS'strstream'
p2961
g328
(g1609
g330
Ntp2962
Rp2963
(dp2964
g1613
g1621
sg1614
g1622
sg354
S'c:/marmalade/7.5/s3e/h/std/c++/strstream'
p2965
sbsS'IwTween.cpp'
p2966
g328
(g1609
g330
Ntp2967
Rp2968
(dp2969
g1613
g1595
sg1614
g2147
sg354
g1596
sbsS'exception'
p2970
g328
(g1609
g330
Ntp2971
Rp2972
(dp2973
g1613
g1621
sg1614
g1622
sg354
S'c:/marmalade/7.5/s3e/h/std/c++/exception'
p2974
sbsS'rlocks.h'
p2975
g328
(g1609
g330
Ntp2976
Rp2977
(dp2978
g1613
g1621
sg1614
g1622
sg354
S'c:/marmalade/7.5/s3e/h/std/c++/rlocks.h'
p2979
sbsS'ioctl.h'
p2980
g328
(g1609
g330
Ntp2981
Rp2982
(dp2983
g1613
g1621
sg1614
g1774
sg354
S'c:/marmalade/7.5/s3e/h/std/sys/ioctl.h'
p2984
sbsS'sem.h'
p2985
g328
(g1609
g330
Ntp2986
Rp2987
(dp2988
g1613
g1621
sg1614
g1774
sg354
S'c:/marmalade/7.5/s3e/h/std/sys/sem.h'
p2989
sbsS'jinclude.h'
p2990
g328
(g1609
g330
Ntp2991
Rp2992
(dp2993
g1613
g1099
sg1614
g1709
sg354
g1106
sbsS'IwEvent.h'
p2994
g328
(g1609
g330
Ntp2995
Rp2996
(dp2997
g1613
g1480
sg1614
g1650
sg354
g1564
sbsS'IwOptimiseSize.h'
p2998
g328
(g1609
g330
Ntp2999
Rp3000
(dp3001
g1613
g1480
sg1614
g1650
sg354
g1529
sbsS'iwgxfont_public.defines.txt'
p3002
g328
(g1609
g330
Ntp3003
Rp3004
(dp3005
g1613
g1294
sg1614
g1615
sg354
g1310
sbsS'iconv.h'
p3006
g328
(g1609
g330
Ntp3007
Rp3008
(dp3009
g1613
g1621
sg1614
g1643
sg354
S'c:/marmalade/7.5/s3e/h/std/iconv.h'
p3010
sbsS's3eDevice.h'
p3011
g328
(g1609
g330
Ntp3012
Rp3013
(dp3014
g1613
g1621
sg1614
g1637
sg354
S'c:/marmalade/7.5/s3e/h/s3eDevice.h'
p3015
sbsS'IwGeomSphere.h'
p3016
g328
(g1609
g330
Ntp3017
Rp3018
(dp3019
g1613
g1316
sg1614
g1675
sg354
g1317
sbsS'tiniconv.mkf'
p3020
g328
(g1609
g330
Ntp3021
Rp3022
(dp3023
g1613
g1130
sg1614
g2100
sg354
g1128
sbsS'iw2dscenegraph.defines.txt'
p3024
g328
(g1609
g330
Ntp3025
Rp3026
(dp3027
g1613
g1258
sg1614
g1935
sg354
g1259
sbsS'jdct.h'
p3028
g328
(g1609
g330
Ntp3029
Rp3030
(dp3031
g1613
g1099
sg1614
g1709
sg354
g1110
sbsS'cctype'
p3032
g328
(g1609
g330
Ntp3033
Rp3034
(dp3035
g1613
g1621
sg1614
g1622
sg354
S'c:/marmalade/7.5/s3e/h/std/c++/cctype'
p3036
sbsS'IwSoundADPCM.cpp'
p3037
g328
(g1609
g330
Ntp3038
Rp3039
(dp3040
g1613
g1140
sg1614
g1661
sg354
g1173
sbsS's3eConfig.h'
p3041
g328
(g1609
g330
Ntp3042
Rp3043
(dp3044
g1613
g1621
sg1614
g1637
sg354
S'c:/marmalade/7.5/s3e/h/s3eConfig.h'
p3045
sbsS'IwHashString.h'
p3046
g328
(g1609
g330
Ntp3047
Rp3048
(dp3049
g1613
g1480
sg1614
g1650
sg354
g1545
sbsS'stat.h'
p3050
g328
(g1609
g330
Ntp3051
Rp3052
(dp3053
g1613
g1621
sg1614
g1774
sg354
S'c:/marmalade/7.5/s3e/h/std/sys/stat.h'
p3054
sbsS'byteswap.h'
p3055
g328
(g1609
g330
Ntp3056
Rp3057
(dp3058
g1613
g1621
sg1614
g1643
sg354
S'c:/marmalade/7.5/s3e/h/std/byteswap.h'
p3059
sbsS'iwresmanager.mkf'
p3060
g328
(g1609
g330
Ntp3061
Rp3062
(dp3063
g1613
g1403
sg1614
g1893
sg354
g1401
sbsS'IwUtilInitTerm.h'
p3064
g328
(g1609
g330
Ntp3065
Rp3066
(dp3067
g1613
g1480
sg1614
g1650
sg354
g1574
sbsS'pthread_1.h'
p3068
g328
(g1609
g330
Ntp3069
Rp3070
(dp3071
g1613
g1621
sg1614
g1622
sg354
S'c:/marmalade/7.5/s3e/h/std/c++/pthread.h'
p3072
sbsS'iw2d.mkf'
p3073
g328
(g1609
g330
Ntp3074
Rp3075
(dp3076
g1613
g1289
sg1614
g1714
sg354
g1287
sbsS'complex'
p3077
g328
(g1609
g330
Ntp3078
Rp3079
(dp3080
g1613
g1621
sg1614
g1622
sg354
S'c:/marmalade/7.5/s3e/h/std/c++/complex'
p3081
sbsS'game.cpp'
p3082
g328
(g1609
g330
Ntp3083
Rp3084
(dp3085
g1613
g1197
sg1614
g1765
sg354
g1202
sbsS'algorithm'
p3086
g328
(g1609
g330
Ntp3087
Rp3088
(dp3089
g1613
g1621
sg1614
g1622
sg354
S'c:/marmalade/7.5/s3e/h/std/c++/algorithm'
p3090
sbsS's3e.icf'
p3091
g328
(g1609
g330
Ntp3092
Rp3093
(dp3094
g1613
g1621
sg1614
g1637
sg354
S'c:/marmalade/7.5/s3e/s3e.icf'
p3095
sbsS'resources.h'
p3096
g328
(g1609
g330
Ntp3097
Rp3098
(dp3099
g1613
g1197
sg1614
g1765
sg354
g1220
sbsS'IwGxFontState.h'
p3100
g328
(g1609
g330
Ntp3101
Rp3102
(dp3103
g1613
g1294
sg1614
g1615
sg354
g1299
sbsS'marmaladeexampleresources.mkf'
p3104
g328
(g1609
g330
Ntp3105
Rp3106
(dp3107
g1613
g1192
sg1614
(lp3108
g1188
asg354
g1190
sbsS'stdio.h'
p3109
g328
(g1609
g330
Ntp3110
Rp3111
(dp3112
g1613
g1621
sg1614
g1643
sg354
S'c:/marmalade/7.5/s3e/h/std/stdio.h'
p3113
sbsS'jmemsys.h'
p3114
g328
(g1609
g330
Ntp3115
Rp3116
(dp3117
g1613
g1099
sg1614
g1709
sg354
g1112
sbsS'ios'
p3118
g328
(g1609
g330
Ntp3119
Rp3120
(dp3121
g1613
g1621
sg1614
g1622
sg354
S'c:/marmalade/7.5/s3e/h/std/c++/ios'
p3122
sbsS'IwTween.h'
p3123
g328
(g1609
g330
Ntp3124
Rp3125
(dp3126
g1613
g1595
sg1614
g2147
sg354
g1593
sbsS'PVRTexTool.defines.txt'
p3127
g328
(g1609
g330
Ntp3128
Rp3129
(dp3130
g1613
g1244
sg1614
g2498
sg354
g1242
sbsS'stack'
p3131
g328
(g1609
g330
Ntp3132
Rp3133
(dp3134
g1613
g1621
sg1614
g1622
sg354
S'c:/marmalade/7.5/s3e/h/std/c++/stack'
p3135
sbsS'IwSoundParams.h'
p3136
g328
(g1609
g330
Ntp3137
Rp3138
(dp3139
g1613
g1140
sg1614
g1661
sg354
g1171
sbsS'new.h'
p3140
g328
(g1609
g330
Ntp3141
Rp3142
(dp3143
g1613
g1621
sg1614
g1622
sg354
S'c:/marmalade/7.5/s3e/h/std/c++/new.h'
p3144
sbsS's3eEMail.h'
p3145
g328
(g1609
g330
Ntp3146
Rp3147
(dp3148
g1613
g1621
sg1614
g1848
sg354
S'c:/marmalade/7.5/s3e/h/ext/s3eEMail.h'
p3149
sbsS's3eVideo.h'
p3150
g328
(g1609
g330
Ntp3151
Rp3152
(dp3153
g1613
g1621
sg1614
g1637
sg354
S'c:/marmalade/7.5/s3e/h/s3eVideo.h'
p3154
sbsS'pngconf.h'
p3155
g328
(g1609
g330
Ntp3156
Rp3157
(dp3158
g1613
g1085
sg1614
g2380
sg354
g1086
sbsS'pwd.h'
p3159
g328
(g1609
g330
Ntp3160
Rp3161
(dp3162
g1613
g1621
sg1614
g1643
sg354
S'c:/marmalade/7.5/s3e/h/std/pwd.h'
p3163
sbsS'IwOptimiseThumb.h'
p3164
g328
(g1609
g330
Ntp3165
Rp3166
(dp3167
g1613
g1480
sg1614
g1650
sg354
g1547
sbsS'gl3.h'
p3168
g328
(g1609
g330
Ntp3169
Rp3170
(dp3171
g1613
g1621
sg1614
g1946
sg354
S'c:/marmalade/7.5/s3e/h/GLES3/gl3.h'
p3172
sbsS'IwClip.h'
p3173
g328
(g1609
g330
Ntp3174
Rp3175
(dp3176
g1613
g1416
sg1614
g1755
sg354
g1429
sbsS'IwSoundInst.h'
p3177
g328
(g1609
g330
Ntp3178
Rp3179
(dp3180
g1613
g1140
sg1614
g1661
sg354
g1151
sbsS'iwresmanager.config.txt'
p3181
g328
(g1609
g330
Ntp3182
Rp3183
(dp3184
g1613
g1392
sg1614
g1893
sg354
g1404
sbsS'IwGxShaderTechnique.h'
p3185
g328
(g1609
g330
Ntp3186
Rp3187
(dp3188
g1613
g1416
sg1614
g1755
sg354
g1441
sbsS'IwCore.h'
p3189
g328
(g1609
g330
Ntp3190
Rp3191
(dp3192
g1613
g1480
sg1614
g1650
sg354
g1485
sbsS'cfloat'
p3193
g328
(g1609
g330
Ntp3194
Rp3195
(dp3196
g1613
g1621
sg1614
g1622
sg354
S'c:/marmalade/7.5/s3e/h/std/c++/cfloat'
p3197
sbsS'IwGeomMat2D.h'
p3198
g328
(g1609
g330
Ntp3199
Rp3200
(dp3201
g1613
g1316
sg1614
g1675
sg354
g1348
sbsS'IwAllocator.h'
p3202
g328
(g1609
g330
Ntp3203
Rp3204
(dp3205
g1613
g1480
sg1614
g1650
sg354
g1515
sbsS'IwPath.h'
p3206
g328
(g1609
g330
Ntp3207
Rp3208
(dp3209
g1613
g1480
sg1614
g1650
sg354
g1535
sbsS'iwgxfont.mkf'
p3210
g328
(g1609
g330
Ntp3211
Rp3212
(dp3213
g1613
g1305
sg1614
g1615
sg354
g1303
sbsS'IwTexture.h'
p3214
g328
(g1609
g330
Ntp3215
Rp3216
(dp3217
g1613
g1416
sg1614
g1755
sg354
g1419
sbsS'IwGeomVec.h.tpl'
p3218
g328
(g1609
g330
Ntp3219
Rp3220
(dp3221
g1613
g1316
sg1614
g1675
sg354
g1358
sbsS's3eAccelerometer.h'
p3222
g328
(g1609
g330
Ntp3223
Rp3224
(dp3225
g1613
g1621
sg1614
g1637
sg354
S'c:/marmalade/7.5/s3e/h/s3eAccelerometer.h'
p3226
sbsS'setjmp.h'
p3227
g328
(g1609
g330
Ntp3228
Rp3229
(dp3230
g1613
g1621
sg1614
g1643
sg354
S'c:/marmalade/7.5/s3e/h/std/setjmp.h'
p3231
sbsS'IwSoundParams.cpp'
p3232
g328
(g1609
g330
Ntp3233
Rp3234
(dp3235
g1613
g1140
sg1614
g1661
sg354
g1157
sbsS'IwFile.h'
p3236
g328
(g1609
g330
Ntp3237
Rp3238
(dp3239
g1613
g1480
sg1614
g1650
sg354
g1556
sbsS'IwTextParseable.h'
p3240
g328
(g1609
g330
Ntp3241
Rp3242
(dp3243
g1613
g1480
sg1614
g1650
sg354
g1503
sbsS'istream.h'
p3244
g328
(g1609
g330
Ntp3245
Rp3246
(dp3247
g1613
g1621
sg1614
g1622
sg354
S'c:/marmalade/7.5/s3e/h/std/c++/istream.h'
p3248
sbsS'stdint.h'
p3249
g328
(g1609
g330
Ntp3250
Rp3251
(dp3252
g1613
g1621
sg1614
g1643
sg354
S'c:/marmalade/7.5/s3e/h/std/stdint.h'
p3253
sbsS'semaphore.h'
p3254
g328
(g1609
g330
Ntp3255
Rp3256
(dp3257
g1613
g1621
sg1614
g1643
sg354
S'c:/marmalade/7.5/s3e/h/std/semaphore.h'
p3258
sbsS'ctime'
p3259
g328
(g1609
g330
Ntp3260
Rp3261
(dp3262
g1613
g1621
sg1614
g1622
sg354
S'c:/marmalade/7.5/s3e/h/std/c++/ctime'
p3263
sbsS'sstream'
p3264
g328
(g1609
g330
Ntp3265
Rp3266
(dp3267
g1613
g1621
sg1614
g1622
sg354
S'c:/marmalade/7.5/s3e/h/std/c++/sstream'
p3268
sbsS'IwGeomFBBox.h'
p3269
g328
(g1609
g330
Ntp3270
Rp3271
(dp3272
g1613
g1316
sg1614
g1675
sg354
g1342
sbsS'IwDebugPrim.h'
p3273
g328
(g1609
g330
Ntp3274
Rp3275
(dp3276
g1613
g1416
sg1614
g1755
sg354
g1414
sbsS'IwGxFontContainer.h'
p3277
g328
(g1609
g330
Ntp3278
Rp3279
(dp3280
g1613
g1294
sg1614
g1615
sg354
g1301
sbsS'IwGeomSVec3.h'
p3281
g328
(g1609
g330
Ntp3282
Rp3283
(dp3284
g1613
g1316
sg1614
g1675
sg354
g1319
sbsS'hero.h'
p3285
g328
(g1609
g330
Ntp3286
Rp3287
(dp3288
g1613
g1197
sg1614
g1765
sg354
g1222
sbsS'iw2dscenegraphcore.mkf'
p3289
g328
(g1609
g330
Ntp3290
Rp3291
(dp3292
g1613
g1470
sg1614
g2729
sg354
g1468
sbsS's3eExt.h'
p3293
g328
(g1609
g330
Ntp3294
Rp3295
(dp3296
g1613
g1621
sg1614
g1637
sg354
S'c:/marmalade/7.5/s3e/h/s3eExt.h'
p3297
sbsS'IwGeomFVec3.h'
p3298
g328
(g1609
g330
Ntp3299
Rp3300
(dp3301
g1613
g1316
sg1614
g1675
sg354
g1378
sbsS'streambuf'
p3302
g328
(g1609
g330
Ntp3303
Rp3304
(dp3305
g1613
g1621
sg1614
g1622
sg354
S'c:/marmalade/7.5/s3e/h/std/c++/streambuf'
p3306
sbsS's3eMetrics.h'
p3307
g328
(g1609
g330
Ntp3308
Rp3309
(dp3310
g1613
g1621
sg1614
g1848
sg354
S'c:/marmalade/7.5/s3e/h/ext/s3eMetrics.h'
p3311
sbsS'IwGxFont.h'
p3312
g328
(g1609
g330
Ntp3313
Rp3314
(dp3315
g1613
g1294
sg1614
g1615
sg354
g1308
sbsS's3eSecureStorage.h'
p3316
g328
(g1609
g330
Ntp3317
Rp3318
(dp3319
g1613
g1621
sg1614
g1637
sg354
S'c:/marmalade/7.5/s3e/h/s3eSecureStorage.h'
p3320
sbsS'string.h'
p3321
g328
(g1609
g330
Ntp3322
Rp3323
(dp3324
g1613
g1621
sg1614
g1643
sg354
S'c:/marmalade/7.5/s3e/h/std/string.h'
p3325
sbsS'IwResource.h'
p3326
g328
(g1609
g330
Ntp3327
Rp3328
(dp3329
g1613
g1480
sg1614
g1650
sg354
g1576
sbsS'IwGeomSVec2.h'
p3330
g328
(g1609
g330
Ntp3331
Rp3332
(dp3333
g1613
g1316
sg1614
g1675
sg354
g1314
sbsS'libjpeg.mkf'
p3334
g328
(g1609
g330
Ntp3335
Rp3336
(dp3337
g1613
g1095
sg1614
(lp3338
g1091
asg354
g1093
sbsS'IwGxDebug.h'
p3339
g328
(g1609
g330
Ntp3340
Rp3341
(dp3342
g1613
g1416
sg1614
g1755
sg354
g1439
sbsS'float.h'
p3343
g328
(g1609
g330
Ntp3344
Rp3345
(dp3346
g1613
g1621
sg1614
g1643
sg354
S'c:/marmalade/7.5/s3e/h/std/float.h'
p3347
sbsS'iomanip.h'
p3348
g328
(g1609
g330
Ntp3349
Rp3350
(dp3351
g1613
g1621
sg1614
g1622
sg354
S'c:/marmalade/7.5/s3e/h/std/c++/iomanip.h'
p3352
sbsS'enemy.h'
p3353
g328
(g1609
g330
Ntp3354
Rp3355
(dp3356
g1613
g1197
sg1614
g1765
sg354
g1218
sbsS'IwKeymap.h'
p3357
g328
(g1609
g330
Ntp3358
Rp3359
(dp3360
g1613
g1480
sg1614
g1650
sg354
g1521
sbsS'IwDebug.h'
p3361
g328
(g1609
g330
Ntp3362
Rp3363
(dp3364
g1613
g1480
sg1614
g1650
sg354
g1509
sbsS's3eIOSBackgroundAudio.h'
p3365
g328
(g1609
g330
Ntp3366
Rp3367
(dp3368
g1613
g1621
sg1614
g1848
sg354
S'c:/marmalade/7.5/s3e/h/ext/s3eIOSBackgroundAudio.h'
p3369
sbsS'IwGeomMenu.h'
p3370
g328
(g1609
g330
Ntp3371
Rp3372
(dp3373
g1613
g1316
sg1614
g1675
sg354
g1372
sbsS'IwDivTable.h'
p3374
g328
(g1609
g330
Ntp3375
Rp3376
(dp3377
g1613
g1480
sg1614
g1650
sg354
g1499
sbsS'ctype.h'
p3378
g328
(g1609
g330
Ntp3379
Rp3380
(dp3381
g1613
g1621
sg1614
g1643
sg354
S'c:/marmalade/7.5/s3e/h/std/ctype.h'
p3382
sbsS'mainMenu.cpp'
p3383
g328
(g1609
g330
Ntp3384
Rp3385
(dp3386
g1613
g1197
sg1614
g1765
sg354
g1208
sbsS'IwResGroup.h'
p3387
g328
(g1609
g330
Ntp3388
Rp3389
(dp3390
g1613
g1392
sg1614
g1893
sg354
g1406
sbsS'signal_1.h'
p3391
g328
(g1609
g330
Ntp3392
Rp3393
(dp3394
g1613
g1621
sg1614
g1774
sg354
S'c:/marmalade/7.5/s3e/h/std/sys/signal.h'
p3395
sbsS'IwSoundData.cpp'
p3396
g328
(g1609
g330
Ntp3397
Rp3398
(dp3399
g1613
g1140
sg1614
g1661
sg354
g1177
sbsS'main.cpp'
p3400
g328
(g1609
g330
Ntp3401
Rp3402
(dp3403
g1613
g1197
sg1614
g1765
sg354
g1212
sbsS'shm.h'
p3404
g328
(g1609
g330
Ntp3405
Rp3406
(dp3407
g1613
g1621
sg1614
g1774
sg354
S'c:/marmalade/7.5/s3e/h/std/sys/shm.h'
p3408
sbsS'IwManagedList.h'
p3409
g328
(g1609
g330
Ntp3410
Rp3411
(dp3412
g1613
g1480
sg1614
g1650
sg354
g1493
sbsS'prctl.h'
p3413
g328
(g1609
g330
Ntp3414
Rp3415
(dp3416
g1613
g1621
sg1614
g1774
sg354
S'c:/marmalade/7.5/s3e/h/std/sys/prctl.h'
p3417
sbsS'IwGxStream.h'
p3418
g328
(g1609
g330
Ntp3419
Rp3420
(dp3421
g1613
g1416
sg1614
g1755
sg354
g1427
sbsS'temp_defines_debug.h'
p3422
g328
(g1609
g330
Ntp3423
Rp3424
(dp3425
g1613
(lp3426
sg1614
(lp3427
g2936
asg354
S'c:/Marmalade/7.5/examples/GameTutorial/CPP/marm1/build_stage4_vc12/temp_defines_debug.h'
p3428
sbsS'utility'
p3429
g328
(g1609
g330
Ntp3430
Rp3431
(dp3432
g1613
g1621
sg1614
g1622
sg354
S'c:/marmalade/7.5/s3e/h/std/c++/utility'
p3433
sbsS'input.h'
p3434
g328
(g1609
g330
Ntp3435
Rp3436
(dp3437
g1613
g1197
sg1614
g1765
sg354
g1198
sbsS'IwGeomLegacy.h'
p3438
g328
(g1609
g330
Ntp3439
Rp3440
(dp3441
g1613
g1316
sg1614
g1675
sg354
g1336
sbsS'IwTPage.h'
p3442
g328
(g1609
g330
Ntp3443
Rp3444
(dp3445
g1613
g1416
sg1614
g1755
sg354
g1464
sbsS'IwResSerialise.h'
p3446
g328
(g1609
g330
Ntp3447
Rp3448
(dp3449
g1613
g1392
sg1614
g1893
sg354
g1393
sbsS's3eCrypto.h'
p3450
g328
(g1609
g330
Ntp3451
Rp3452
(dp3453
g1613
g1621
sg1614
g1637
sg354
S'c:/marmalade/7.5/s3e/h/s3eCrypto.h'
p3454
sbsS's3eKeyboard.h'
p3455
g328
(g1609
g330
Ntp3456
Rp3457
(dp3458
g1613
g1621
sg1614
g1637
sg354
S'c:/marmalade/7.5/s3e/h/s3eKeyboard.h'
p3459
sbsS'fcntl.h'
p3460
g328
(g1609
g330
Ntp3461
Rp3462
(dp3463
g1613
g1621
sg1614
g1643
sg354
S'c:/marmalade/7.5/s3e/h/std/fcntl.h'
p3464
sbsS'Iw2DSceneGraphCore.h'
p3465
g328
(g1609
g330
Ntp3466
Rp3467
(dp3468
g1613
g1473
sg1614
g2729
sg354
g1471
sbsS'memory.h'
p3469
g328
(g1609
g330
Ntp3470
Rp3471
(dp3472
g1613
g1621
sg1614
g1643
sg354
S'c:/marmalade/7.5/s3e/h/std/memory.h'
p3473
sbsS'pthread.h'
p3474
g328
(g1609
g330
Ntp3475
Rp3476
(dp3477
g1613
g1621
sg1614
g1643
sg354
S'c:/marmalade/7.5/s3e/h/std/pthread.h'
p3478
sbsS'IwGeomIntersect.h'
p3479
g328
(g1609
g330
Ntp3480
Rp3481
(dp3482
g1613
g1316
sg1614
g1675
sg354
g1362
sbsS'IwTextParserITX.h'
p3483
g328
(g1609
g330
Ntp3484
Rp3485
(dp3486
g1613
g1480
sg1614
g1650
sg354
g1519
sbsS'IwClip.inl'
p3487
g328
(g1609
g330
Ntp3488
Rp3489
(dp3490
g1613
g1416
sg1614
g1755
sg354
g1449
sbsS'Iw2DSceneGraph.cpp'
p3491
g328
(g1609
g330
Ntp3492
Rp3493
(dp3494
g1613
g1258
sg1614
g1935
sg354
g1256
sbsS'ostream.h'
p3495
g328
(g1609
g330
Ntp3496
Rp3497
(dp3498
g1613
g1621
sg1614
g1622
sg354
S'c:/marmalade/7.5/s3e/h/std/c++/ostream.h'
p3499
sbsS'stl_user_config.h'
p3500
g328
(g1609
g330
Ntp3501
Rp3502
(dp3503
g1613
g1621
sg1614
g1622
sg354
S'c:/marmalade/7.5/s3e/h/std/c++/stl_user_config.h'
p3504
sbsS'IwProfileMenu.h'
p3505
g328
(g1609
g330
Ntp3506
Rp3507
(dp3508
g1613
g1480
sg1614
g1650
sg354
g1495
sbsS'MarmaladeVersion.h'
p3509
g328
(g1609
g330
Ntp3510
Rp3511
(dp3512
g1613
g1621
sg1614
g1637
sg354
S'c:/marmalade/7.5/s3e/h/MarmaladeVersion.h'
p3513
sbsS'IwResHandlerWAV.h'
p3514
g328
(g1609
g330
Ntp3515
Rp3516
(dp3517
g1613
g1140
sg1614
g1661
sg354
g1145
sbsS'gl3platform.h'
p3518
g328
(g1609
g330
Ntp3519
Rp3520
(dp3521
g1613
g1621
sg1614
g1946
sg354
S'c:/marmalade/7.5/s3e/h/GLES3/gl3platform.h'
p3522
sbsS'ios.h'
p3523
g328
(g1609
g330
Ntp3524
Rp3525
(dp3526
g1613
g1621
sg1614
g1622
sg354
S'c:/marmalade/7.5/s3e/h/std/c++/ios.h'
p3527
sbsS'IwImageHelper.h'
p3528
g328
(g1609
g330
Ntp3529
Rp3530
(dp3531
g1613
g1480
sg1614
g1650
sg354
g1491
sbsS'hash_set'
p3532
g328
(g1609
g330
Ntp3533
Rp3534
(dp3535
g1613
g1621
sg1614
g1622
sg354
S'c:/marmalade/7.5/s3e/h/std/c++/hash_set'
p3536
sbsS'IwGeomFQuat.h'
p3537
g328
(g1609
g330
Ntp3538
Rp3539
(dp3540
g1613
g1316
sg1614
g1675
sg354
g1326
sbsS'jmorecfg.h'
p3541
g328
(g1609
g330
Ntp3542
Rp3543
(dp3544
g1613
g1099
sg1614
g1709
sg354
g1108
sbsS'eglplatform.h'
p3545
g328
(g1609
g330
Ntp3546
Rp3547
(dp3548
g1613
g1621
sg1614
g1978
sg354
S'c:/marmalade/7.5/s3e/h/EGL/eglplatform.h'
p3549
sbsS'cmath'
p3550
g328
(g1609
g330
Ntp3551
Rp3552
(dp3553
g1613
g1621
sg1614
g1622
sg354
S'c:/marmalade/7.5/s3e/h/std/c++/cmath'
p3554
sbsS'math_gcc.h'
p3555
g328
(g1609
g330
Ntp3556
Rp3557
(dp3558
g1613
g1621
sg1614
g1643
sg354
S'c:/marmalade/7.5/s3e/h/std/math_gcc.h'
p3559
sbsS's3eMemory.h'
p3560
g328
(g1609
g330
Ntp3561
Rp3562
(dp3563
g1613
g1621
sg1614
g1637
sg354
S'c:/marmalade/7.5/s3e/h/s3eMemory.h'
p3564
sbsS'strings.h'
p3565
g328
(g1609
g330
Ntp3566
Rp3567
(dp3568
g1613
g1621
sg1614
g1643
sg354
S'c:/marmalade/7.5/s3e/h/std/strings.h'
p3569
sbsS's3eFile.h'
p3570
g328
(g1609
g330
Ntp3571
Rp3572
(dp3573
g1613
g1621
sg1614
g1637
sg354
S'c:/marmalade/7.5/s3e/h/s3eFile.h'
p3574
sbsS'IwGxTypes.h'
p3575
g328
(g1609
g330
Ntp3576
Rp3577
(dp3578
g1613
g1416
sg1614
g1755
sg354
g1453
sbsS'cerrno'
p3579
g328
(g1609
g330
Ntp3580
Rp3581
(dp3582
g1613
g1621
sg1614
g1622
sg354
S'c:/marmalade/7.5/s3e/h/std/c++/cerrno'
p3583
sbsS'IwSoundManager.cpp'
p3584
g328
(g1609
g330
Ntp3585
Rp3586
(dp3587
g1613
g1140
sg1614
g1661
sg354
g1153
sbsS'main.h'
p3588
g328
(g1609
g330
Ntp3589
Rp3590
(dp3591
g1613
g1197
sg1614
g1765
sg354
g1214
sbsS'soundengine.mkf'
p3592
g328
(g1609
g330
Ntp3593
Rp3594
(dp3595
g1613
g1185
sg1614
g1661
sg354
g1183
sbsS'resource.h'
p3596
g328
(g1609
g330
Ntp3597
Rp3598
(dp3599
g1613
g1621
sg1614
g1774
sg354
S'c:/marmalade/7.5/s3e/h/std/sys/resource.h'
p3600
sbsS'clocale'
p3601
g328
(g1609
g330
Ntp3602
Rp3603
(dp3604
g1613
g1621
sg1614
g1622
sg354
S'c:/marmalade/7.5/s3e/h/std/c++/clocale'
p3605
sbsS'pvrtextool.mkf'
p3606
g328
(g1609
g330
Ntp3607
Rp3608
(dp3609
g1613
g1251
sg1614
g2256
sg354
g1249
sbsS'csetjmp'
p3610
g328
(g1609
g330
Ntp3611
Rp3612
(dp3613
g1613
g1621
sg1614
g1622
sg354
S'c:/marmalade/7.5/s3e/h/std/c++/csetjmp'
p3614
sbsS'netdb.h'
p3615
g328
(g1609
g330
Ntp3616
Rp3617
(dp3618
g1613
g1621
sg1614
g1643
sg354
S'c:/marmalade/7.5/s3e/h/std/netdb.h'
p3619
sbsS's3eAndroidJNI.h'
p3620
g328
(g1609
g330
Ntp3621
Rp3622
(dp3623
g1613
g1621
sg1614
g1848
sg354
S'c:/marmalade/7.5/s3e/h/ext/s3eAndroidJNI.h'
p3624
sbsS'stdexcept'
p3625
g328
(g1609
g330
Ntp3626
Rp3627
(dp3628
g1613
g1621
sg1614
g1622
sg354
S'c:/marmalade/7.5/s3e/h/std/c++/stdexcept'
p3629
sbsS'math.h'
p3630
g328
(g1609
g330
Ntp3631
Rp3632
(dp3633
g1613
g1621
sg1614
g1643
sg354
S'c:/marmalade/7.5/s3e/h/std/math.h'
p3634
sbsS'stdbool.h'
p3635
g328
(g1609
g330
Ntp3636
Rp3637
(dp3638
g1613
g1621
sg1614
g1643
sg354
S'c:/marmalade/7.5/s3e/h/std/stdbool.h'
p3639
sbsS'uio.h'
p3640
g328
(g1609
g330
Ntp3641
Rp3642
(dp3643
g1613
g1621
sg1614
g1774
sg354
S'c:/marmalade/7.5/s3e/h/std/sys/uio.h'
p3644
sbsS'IwUncopyable.h'
p3645
g328
(g1609
g330
Ntp3646
Rp3647
(dp3648
g1613
g1480
sg1614
g1650
sg354
g1558
sbssS'juice_build_type'
p3649
g4
sS'tests'
p3650
(lp3651
sS'project_name'
p3652
g336
sS'root_file'
p3653
g133
sS'current_root'
p3654
S'c:/Marmalade/7.5/examples/GameTutorial/CPP/marm1'
p3655
sS'dependencies'
p3656
(lp3657
sS'include_paths'
p3658
(lp3659
S'c:/marmalade/7.5/modules/iw2d/h'
p3660
aS'c:/marmalade/7.5/modules/iwgx/h'
p3661
aS'c:/marmalade/7.5/modules/iwgl/h'
p3662
aS'c:/marmalade/7.5/modules/iwutil/h'
p3663
aS'c:/marmalade/7.5/modules/third_party/libjpeg/h'
p3664
aS'c:/marmalade/7.5/modules/third_party/zlib/h'
p3665
aS'c:/marmalade/7.5/modules/third_party/libpng/h'
p3666
aS'c:/marmalade/7.5/modules/iwgeom/h'
p3667
aS'c:/marmalade/7.5/modules/iwresmanager/h'
p3668
aS'c:/marmalade/7.5/extensions/pvrtextool/h'
p3669
aS'c:/marmalade/7.5/modules/iwgxfont/h'
p3670
aS'c:/marmalade/7.5/modules/third_party/tiniconv/source'
p3671
aS'c:/marmalade/7.5/modules/iw2dscenegraph/h'
p3672
aS'c:/marmalade/7.5/modules/iw2dscenegraphcore/h'
p3673
aS'c:/marmalade/7.5/modules/iwtween/h'
p3674
aS'c:/marmalade/7.5/examples/gametutorial/cpp/modules/soundengine/h'
p3675
aS'c:/marmalade/7.5/examples/gametutorial/cpp/modules/soundengine/source'
p3676
aS'c:/marmalade/7.5/s3e/h'
p3677
aS'c:/marmalade/7.5/s3e/h/ext'
p3678
aS'c:/marmalade/7.5/s3e/h/std'
p3679
aS'c:/marmalade/7.5/s3e/h/std/c++'
p3680
aS'c:/marmalade/7.5/s3e/h/ext_legacy'
p3681
aS'c:/marmalade/7.5/s3e/h/legacy'
p3682
asS'weak_frameworks'
p3683
(lp3684
sS'extprojects'
p3685
(dp3686
sg598
(dp3687
g592
(lp3688
(S'c:/Marmalade/7.5/examples/GameTutorial/CPP/marm1/data/audio'
p3689
S'audio'
p3690
I0
tp3691
a(S'c:/Marmalade/7.5/examples/GameTutorial/CPP/marm1/data/textures'
p3692
S'textures'
p3693
I0
tp3694
a(S'c:/Marmalade/7.5/examples/GameTutorial/CPP/marm1/data/fonts'
p3695
S'fonts'
p3696
I0
tp3697
a(S'c:/Marmalade/7.5/examples/GameTutorial/CPP/marm1/data-ram/data-gles1,c:/Marmalade/7.5/examples/GameTutorial/CPP/marm1/data'
p3698
S'.'
p3699
I0
tp3700
assS'macro_types'
p3701
(dp3702
g527
I1
sg528
I0
sg529
I0
sg530
I0
sg532
I0
sg533
I0
sg534
I0
sg535
I0
sg536
I0
sg538
I0
sg539
I0
sg540
I0
sg541
I0
sg542
I0
sg544
I0
sg546
I0
sg547
I0
sg548
I0
sg549
I0
sg550
I0
sg551
I0
sg552
I0
sg553
I0
sg554
I1
sg555
I0
sg556
I0
sg557
I0
sg558
I0
sg559
I01
sg560
I1
sg561
I0
sg562
I0
sg563
I0
sg564
I0
sg565
I0
sg566
I0
sg567
I0
ssS'commands'
p3703
(lp3704
sg600
(g1072
S'VC12'
p3705
S'X86ARMAARCH64'
p3706
tp3707
sS'build_libs'
p3708
(dp3709
sg602
g0
sS'frameworks'
p3710
(lp3711
sS'environ'
p3712
(dp3713
sS'target_name_debug'
p3714
g336
sS'builders'
p3715
(dp3716
g592
(dp3717
S'.S'
p3718
(dp3719
S'gcc_aarch64'
p3720
(lp3721
S'.obj'
p3722
aS'echo AARCH64 Assembling(GCC) ${SOURCE}...'
p3723
aS'c:/marmalade/7.5/s3e\\gcc\\win32\\aarch64\\bin\\aarch64-none-elf-gcc -c -o ${TARGET} ${SOURCE}'
p3724
asS'rvct'
p3725
(lp3726
g3722
aS'echo ARM Assembling(RVCT) ${SOURCE}...'
p3727
aS'c:/marmalade/7.5/s3e\\rvct\\bin\\armasm -o ${TARGET} ${SOURCE}'
p3728
asg450
(lp3729
g3722
aS'echo ARM Assembling(GCC) ${SOURCE}...'
p3730
aS'c:/marmalade/7.5/s3e\\gcc\\win32\\arm\\bin\\arm-none-eabi-gcc -c -o ${TARGET} ${SOURCE}'
p3731
asS'ppu'
p3732
(lp3733
S'.a'
p3734
aS'echo PPU Assembling(SNC) ${SOURCE}...'
p3735
aS'c:/marmalade/7.5/s3e\\rvct\\bin\\armasm -o ${TARGET} ${SOURCE}'
p3736
assS'.s'
p3737
g3719
sS'.vp'
p3738
(lp3739
NaS'"C:/Marmalade/7.5/s3e/python/python.exe" "c:/marmalade/7.5/modules/iwgx/tools/compile_shaders.py" ${SOURCE}'
p3740
asssS'extproject_names'
p3741
(lp3742
sbtp3743
.