((dp0
S'arm_dbg_args'
p1
S'-via:"c:\\Marmalade\\7.5\\examples\\GameTutorial\\CPP\\marm1\\build_stage4_vc12\\Stage4_vc12_arm_debug.via" -qemu'
p2
sS'game-icf'
p3
S''
p4
sS'dist'
p5
NsS'csproj'
p6
g4
sS'module_path_append'
p7
NsS'global_path'
p8
S'c:\\marmalade\\7.5\\examples\\gametutorial\\cpp'
p9
sS'system_path'
p10
S'c:\\marmalade\\7.5\\s3e\\makefile_builder'
p11
sS'android_x86_dbg_args'
p12
S'../../tools/DeployTool/DeployTool.exe --dir "c:\\Marmalade\\7.5\\examples\\GameTutorial\\CPP\\marm1\\build_stage4_vc12"'
p13
sS'aarch64-arch-mod'
p14
g4
sS'no-emit'
p15
NsS'arm-float-abi'
p16
g4
sS'arm_rel_rtsm_args'
p17
S'-via:"c:\\Marmalade\\7.5\\examples\\GameTutorial\\CPP\\marm1\\build_stage4_vc12\\Stage4_vc12_arm_release.via" -qemu'
p18
sS'amd64'
p19
NsS'line-width'
p20
I80
sS'gcc_dbg_args'
p21
S'-via:"c:\\Marmalade\\7.5\\examples\\GameTutorial\\CPP\\marm1\\build_stage4_vc12\\Stage4_vc12_gcc_debug.via" -qemu'
p22
sS'android-x86'
p23
NsS'x86_dbg_exe'
p24
S'c:/marmalade/7.5/s3e\\win32\\s3e_simulator_debug.exe'
p25
sS'disable-runtime-checks'
p26
NsS'release'
p27
NsS'no-make'
p28
NsS'xcode-x86-build-settings'
p29
g4
sS'optimise-size'
p30
NsS'fat'
p31
NsS'output-name-debug'
p32
g4
sS'arm-fpu'
p33
g4
sS'proj_name'
p34
S'Stage4_vc12'
p35
sS'rvct-version'
p36
S'none'
p37
sS'compiler'
p38
g4
sS'execute'
p39
NsS'compile-static'
p40
NsS'msvc-project'
p41
I01
sS'buildenv'
p42
S'VC12'
p43
sS'quick'
p44
NsS'module_path'
p45
(lp46
S'c:/Marmalade/7.5/examples/GameTutorial/CPP/modules'
p47
asS'mkf_default'
p48
S's3e-default.mkf'
p49
sS'use-release-std-libs'
p50
NsS'using_perforce'
p51
I00
sS'tizen-x86'
p52
NsS'mips-s3e'
p53
NsS's3e-api-lib-name'
p54
S's3e_api_iwgl'
p55
sS'ios-no-pic'
p56
NsS'shared-arm-lib'
p57
NsS'arm-cpu'
p58
g4
sS'compile-thumb'
p59
NsS'no-ide'
p60
NsS'msvc-version'
p61
S'6.0'
p62
sS'arm'
p63
NsS'builddir'
p64
g4
sS'compile-debug-as-release'
p65
I0
sS'arm-arch'
p66
g4
sS'brief'
p67
NsS'dll'
p68
NsS'buildenv-toolset'
p69
g4
sS'version'
p70
NsS'aarch64-arch'
p71
g4
sS'ccache'
p72
I0
sS'offline'
p73
NsS'ios-version'
p74
g4
sS'hub_data'
p75
g4
sS'fake_vc_call'
p76
NsS'jobs'
p77
I0
sS'linkflags'
p78
NsS'gcc_aarch64_dbg_args'
p79
g13
sS'debug'
p80
NsS'xcode-build-order'
p81
g4
sS'gcc_aarch64_rel_rtsm_args'
p82
S'-via:"c:\\Marmalade\\7.5\\examples\\GameTutorial\\CPP\\marm1\\build_stage4_vc12\\Stage4_vc12_gcc_aarch64_release.via" -qemu'
p83
sS'gcc_rel_rtsm_args'
p84
S'-via:"c:\\Marmalade\\7.5\\examples\\GameTutorial\\CPP\\marm1\\build_stage4_vc12\\Stage4_vc12_gcc_release.via" -qemu'
p85
sS'done_defaults'
p86
I1
sS'path'
p87
NsS's3e-data-dir'
p88
S'c:/Marmalade/7.5/examples/GameTutorial/CPP/marm1\\data'
p89
sS'enable-exceptions'
p90
NsS'osx-dll'
p91
NsS'extension'
p92
g4
sS'no-vc6'
p93
NsS'aarch64'
p94
NsS'win32-console'
p95
NsS'dist-format'
p96
g4
sS's3e-force-arch'
p97
NsS'dump_defines'
p98
NsS'use-shared-std-libs'
p99
NsS'gcc-version'
p100
g4
sS'x86_dbg_args'
p101
S'-via:"c:\\Marmalade\\7.5\\examples\\GameTutorial\\CPP\\marm1\\build_stage4_vc12\\Stage4_vc12_debug.via"'
p102
sS'tizen_x86_dbg_args'
p103
g13
sS'arm-debugger'
p104
g4
sS'use_temp_extension'
p105
NsS'verbose'
p106
I0
sS'log'
p107
NsS'no-strip'
p108
NsS'rebuild'
p109
NsS'mips_dbg_args'
p110
g13
sS'win32-simulator-dll'
p111
NsS'strict'
p112
NsS'xcode-aarch64-build-settings'
p113
g4
sS'enable-global-path'
p114
NsS'gcc_aarch64_rel_args'
p115
g13
sS'cflags'
p116
NsS'dist-dir'
p117
g4
sS'xcode-arm-build-settings'
p118
g4
sS'jflags'
p119
NsS'csprojSDKRefs'
p120
g4
sS'tizen_x86_rel_exe'
p121
S'c:\\marmalade\\7.5\\s3e\\makefile_builder\\tool_launcher.exe'
p122
sS'test-assets'
p123
g4
sS'distcc'
p124
NsS'external-compiler'
p125
NsS'no-distcc'
p126
NsS'preinclude'
p127
NsS'using_sdk'
p128
I01
sS'nologo'
p129
NsS'warn-level'
p130
I2
sS'mips_dbg_exe'
p131
g122
sS'mkb_in'
p132
S'c:/Marmalade/7.5/examples/GameTutorial/CPP/marm1/Stage4.mkb'
p133
sS'tizen_x86_dbg_exe'
p134
g122
sS'arm_dbg_exe'
p135
S'c:/marmalade/7.5/s3e\\bin\\armdebug.exe'
p136
sS'mdev-first'
p137
NsS'csprojDLLRef'
p138
NsS'tizen_x86_rel_args'
p139
g13
sS'android_x86_dbg_exe'
p140
g122
sS'test-config'
p141
g4
sS'list-targets'
p142
NsS'arm_rel_exe'
p143
g122
sS'arm_rel_args'
p144
g13
sS'makedeps'
p145
NsS'android_x86_rel_exe'
p146
g122
sS'default-buildenv'
p147
S'vc12'
p148
sS'x86_rel_exe'
p149
g25
sS'preprocess-java'
p150
NsS'mips_rel_args'
p151
g13
sS'defines'
p152
NsS'lib'
p153
NsS'non-interactive'
p154
NsS'global_argv'
p155
(lp156
S'C:\\Marmalade\\7.5\\s3e\\makefile_builder\\mkb.py'
p157
aS'c:/Marmalade/7.5/examples/GameTutorial/CPP/marm1/Stage4.mkb'
p158
aS'--buildenv=VC12'
p159
aS'--default-buildenv=vc12'
p160
aS'--msvc-project'
p161
asS'make'
p162
NsS'optimise-speed'
p163
NsS'internal'
p164
NsS'enable-stdinc'
p165
NsS'deploy-only'
p166
NsS'x86'
p167
NsS'deploy'
p168
g4
sS'x86_run_exe'
p169
S'c:/marmalade/7.5/s3e\\win32\\s3e_console.exe'
p170
sS'cxxflags'
p171
NsS'x86_rel_args'
p172
S'-via:"c:\\Marmalade\\7.5\\examples\\GameTutorial\\CPP\\marm1\\build_stage4_vc12\\Stage4_vc12_release.via"'
p173
sS'gcc_rel_args'
p174
g13
sS'mips'
p175
NsS'xcode-build-settings'
p176
g4
sS'incredibuild'
p177
NsS'strict-compile'
p178
NsS'use-auto-subdirs'
p179
NsS'mips_rel_exe'
p180
g122
sS'android_x86_rel_args'
p181
g13
sS'app-icf'
p182
g4
sS'deployargs'
p183
NsS'iosnativedebug'
p184
NsS'use_prebuilt'
p185
NsS'mkf_in'
p186
(lp187
S'c:\\marmalade\\7.5\\s3e\\s3e-default.mkf'
p188
aS'c:\\marmalade\\7.5\\modules\\iw2d\\iw2d.mkf'
p189
aS'c:\\marmalade\\7.5\\modules\\iwgx\\iwgx.mkf'
p190
aS'c:\\marmalade\\7.5\\modules\\iwgl\\iwgl.mkf'
p191
aS'c:\\marmalade\\7.5\\modules\\iwutil\\iwutil.mkf'
p192
aS'c:\\marmalade\\7.5\\modules\\third_party\\libjpeg\\libjpeg.mkf'
p193
aS'c:\\marmalade\\7.5\\modules\\third_party\\libpng\\libpng.mkf'
p194
aS'c:\\marmalade\\7.5\\modules\\third_party\\zlib\\zlib.mkf'
p195
aS'c:\\marmalade\\7.5\\modules\\iwgeom\\iwgeom.mkf'
p196
aS'c:\\marmalade\\7.5\\modules\\iwresmanager\\iwresmanager.mkf'
p197
aS'c:\\marmalade\\7.5\\extensions\\pvrtextool\\pvrtextool.mkf'
p198
aS'c:\\marmalade\\7.5\\modules\\iwgxfont\\iwgxfont.mkf'
p199
aS'c:\\marmalade\\7.5\\modules\\third_party\\tiniconv\\tiniconv.mkf'
p200
aS'c:\\marmalade\\7.5\\modules\\iw2dscenegraph\\iw2dscenegraph.mkf'
p201
aS'c:\\marmalade\\7.5\\modules\\iw2dscenegraphcore\\iw2dscenegraphcore.mkf'
p202
aS'c:\\marmalade\\7.5\\modules\\iwtween\\iwtween.mkf'
p203
aS'c:\\marmalade\\7.5\\examples\\gametutorial\\cpp\\modules\\soundengine\\soundengine.mkf'
p204
aS'c:\\marmalade\\7.5\\examples\\marmaladeexampleresources\\marmaladeexampleresources.mkf'
p205
asS'strict-mkb'
p206
NsS'executeargs'
p207
NsS'clean'
p208
NsS'no-asm'
p209
NsS'output-name'
p210
g4
sS'no-modules'
p211
NsS'find_define'
p212
g4
s(dp213
S'c:\\marmalade\\7.5\\s3e\\makefile_builder\\templates\\vc7_suo.pyc'
p214
F1424160376.0
sS'c:\\marmalade\\7.5\\s3e\\makefile_builder\\templates\\ws81_vcxproj.pyc'
p215
F1424160380.0
sS'c:\\marmalade\\7.5\\s3e\\makefile_builder\\plugins\\s3e_ws8.pyc'
p216
F1424160376.0
sS'c:\\marmalade\\7.5\\s3e\\makefile_builder\\templates'
p217
F1424630747.758857
sS'c:\\marmalade\\7.5\\s3e\\makefile_builder\\templates\\qmake.py'
p218
F1424159312.0
sS'c:\\marmalade\\7.5\\s3e\\makefile_builder\\templates\\vc10_user.pyc'
p219
F1424160378.0
sS'c:\\marmalade\\7.5\\s3e\\makefile_builder\\plugins'
p220
F1424631019.086376
sS'c:\\marmalade\\7.5\\s3e\\makefile_builder\\mkb_main.pyc'
p221
F1424160376.0
sS'c:\\marmalade\\7.5\\s3e\\makefile_builder\\templates\\mips_linker_script'
p222
F1424159312.0
sS'c:\\marmalade\\7.5\\s3e\\makefile_builder\\plugins\\XcodeEmitter.py'
p223
F1424159310.0
sS'c:\\marmalade\\7.5\\s3e\\makefile_builder\\mkb.py'
p224
F1424159310.0
sS'c:\\marmalade\\7.5\\s3e\\makefile_builder\\templates\\ws81_ext_sln.pyc'
p225
F1424160380.0
sS'c:\\marmalade\\7.5\\s3e\\makefile_builder\\templates\\win32_dsp.pyc'
p226
F1424160376.0
sS'c:\\marmalade\\7.5\\s3e\\makefile_builder\\templates\\ws8_csproj.pyc'
p227
F1424160380.0
sS'c:\\marmalade\\7.5\\s3e\\makefile_builder\\deployment.pyc'
p228
F1424160376.0
sS'c:\\marmalade\\7.5\\s3e\\makefile_builder\\plugins\\win32_vc6.pyc'
p229
F1424160376.0
sS'c:\\marmalade\\7.5\\s3e\\makefile_builder\\plugins\\osx_xcode.pyc'
p230
F1424160376.0
sS'c:\\marmalade\\7.5\\s3e\\makefile_builder\\plugins\\null.pyc'
p231
F1424160376.0
sS'c:\\marmalade\\7.5\\s3e\\makefile_builder\\templates\\wp81_csproj.pyc'
p232
F1424160380.0
sS'c:\\marmalade\\7.5\\s3e\\makefile_builder\\templates\\qmake_user.py'
p233
F1424159312.0
sS'c:\\marmalade\\7.5\\s3e\\makefile_builder\\templates\\vc6_opt.pyc'
p234
F1424160376.0
sS'c:\\marmalade\\7.5\\s3e\\makefile_builder\\plugins\\vc7_utils.pyc'
p235
F1424160376.0
sS'c:\\marmalade\\7.5\\s3e\\makefile_builder\\templates\\wp81_vcxproj.pyc'
p236
F1424160380.0
sS'c:\\marmalade\\7.5\\s3e\\makefile_builder\\templates\\win32_vcxproj.pyc'
p237
F1424160378.0
sS'c:\\marmalade\\7.5\\s3e\\makefile_builder\\templates\\ws8_ext_sln.pyc'
p238
F1424160380.0
sS'c:\\marmalade\\7.5\\s3e\\makefile_builder\\templates\\ws8_ext_csproj.pyc'
p239
F1424160380.0
sS'c:\\marmalade\\7.5\\s3e\\makefile_builder\\templates\\wp8_ext_csproj.pyc'
p240
F1424160378.0
sS'c:\\marmalade\\7.5\\s3e\\makefile_builder\\plugins\\s3e_wp8.pyc'
p241
F1424160376.0
sS'c:\\marmalade\\7.5\\s3e\\makefile_builder\\templates\\ws81_csproj.pyc'
p242
F1424160380.0
sS'c:\\marmalade\\7.5\\s3e\\makefile_builder\\docs\\deprecated.options.txt'
p243
F1424159310.0
sS'c:\\marmalade\\7.5\\s3e\\makefile_builder\\plugins\\s3e_make.pyc'
p244
F1424160376.0
sS'c:\\marmalade\\7.5\\s3e\\makefile_builder\\templates\\win8_ext_csproj.pyc'
p245
F1424160378.0
sS'c:\\marmalade\\7.5\\s3e\\makefile_builder\\mkb_parser.pyc'
p246
F1424160376.0
sS'c:\\marmalade\\7.5\\s3e\\makefile_builder\\plugins\\s3e_web.pyc'
p247
F1424160376.0
sS'c:\\marmalade\\7.5\\s3e\\makefile_builder\\docs\\mkb.defines.txt'
p248
F1424159310.0
sS'c:\\marmalade\\7.5\\s3e\\makefile_builder\\plugins\\osx_scons.pyc'
p249
F1424160376.0
sS'c:\\marmalade\\7.5\\s3e\\makefile_builder\\plugins\\ws81_ws81.pyc'
p250
F1424160376.0
sS'c:\\marmalade\\7.5\\s3e\\makefile_builder\\plugins\\s3e_qmake.py'
p251
F1424159312.0
sS'c:\\marmalade\\7.5\\s3e\\makefile_builder\\templates\\win8_csproj.pyc'
p252
F1424160378.0
sS'c:\\marmalade\\7.5\\s3e\\makefile_builder\\plugins\\s3e_vc6.pyc'
p253
F1424160376.0
sS'c:\\marmalade\\7.5\\s3e\\makefile_builder\\plugins\\wp81_wp81.pyc'
p254
F1424160376.0
sS'c:\\marmalade\\7.5\\s3e\\makefile_builder\\templates\\wp81_csproj_user.pyc'
p255
F1424160380.0
sS'c:\\marmalade\\7.5\\s3e\\makefile_builder\\templates\\win32_dsw.pyc'
p256
F1424160376.0
sS'c:\\marmalade\\7.5\\s3e\\makefile_builder\\templates\\xcode4.xcscheme'
p257
F1424159312.0
sS'c:\\marmalade\\7.5\\s3e\\makefile_builder\\templates\\template.opt'
p258
F1424159312.0
sS'c:\\marmalade\\7.5\\s3e\\makefile_builder\\templates\\template.suo'
p259
F1424159312.0
sS'c:\\marmalade\\7.5\\s3e\\makefile_builder\\templates\\linker_script'
p260
F1424159312.0
sS'c:\\marmalade\\7.5\\s3e\\makefile_builder\\templates\\gdb_start.txt'
p261
F1424159312.0
sS'c:\\marmalade\\7.5\\s3e\\makefile_builder\\mkb_launcher.exe'
p262
F1424159548.0
sS'c:\\marmalade\\7.5\\s3e\\makefile_builder\\templates\\scons.pyc'
p263
F1424160376.0
sS'c:\\marmalade\\7.5\\s3e\\makefile_builder\\docs\\parse_options.pyc'
p264
F1424160380.0
sS'c:\\marmalade\\7.5\\s3e\\makefile_builder\\templates\\xcode4_arm.xcscheme'
p265
F1424159312.0
sS'c:\\marmalade\\7.5\\s3e\\makefile_builder\\plugins\\VisualStudioEmitter.pyc'
p266
F1424160376.0
sS'c:\\marmalade\\7.5\\s3e\\makefile_builder\\plugins\\s3e_xcode.pyc'
p267
F1424631019.087376
sS'c:\\marmalade\\7.5\\s3e\\makefile_builder\\plugins\\Emitter.pyc'
p268
F1424160376.0
sS'c:\\marmalade\\7.5\\s3e\\makefile_builder\\templates\\ws8_sln.pyc'
p269
F1424160380.0
sS'c:\\marmalade\\7.5\\s3e\\makefile_builder\\tool_launcher.exe'
p270
F1424159548.0
sS'c:\\marmalade\\7.5\\s3e\\makefile_builder\\templates\\wp8_sln.pyc'
p271
F1424160378.0
sS'c:\\marmalade\\7.5\\s3e\\makefile_builder\\mkb_upstream.pyc'
p272
F1424160376.0
sS'c:\\marmalade\\7.5\\s3e\\makefile_builder\\templates\\ws81_csproj_user.pyc'
p273
F1424160380.0
sS'c:\\marmalade\\7.5\\s3e\\makefile_builder\\templates\\win32_sln.pyc'
p274
F1424160376.0
sS'c:\\marmalade\\7.5\\s3e\\makefile_builder\\templates\\xcode4_DeployTool.xcscheme'
p275
F1424159312.0
sS'c:\\marmalade\\7.5\\s3e\\makefile_builder\\plugins\\deploy.pyc'
p276
F1424160376.0
sS'c:\\marmalade\\7.5\\s3e\\makefile_builder\\plugins\\s3e_win8.pyc'
p277
F1424160376.0
sS'c:\\marmalade\\7.5\\s3e\\makefile_builder\\plugins\\iphone.pyc'
p278
F1424160376.0
sS'c:\\marmalade\\7.5\\s3e\\makefile_builder\\plugins\\Win8Emitter.pyc'
p279
F1424160376.0
sS'c:\\marmalade\\7.5\\s3e\\makefile_builder\\plugins\\s3e_qmake.pyc'
p280
F1424631018.9523683
sS'c:\\marmalade\\7.5\\s3e\\makefile_builder\\docs'
p281
F1424630747.7758577
sS'c:\\marmalade\\7.5\\s3e\\makefile_builder\\mkb_globals.pyc'
p282
F1424160376.0
sS'c:\\marmalade\\7.5\\s3e\\makefile_builder\\plugins\\win8_utils.pyc'
p283
F1424160376.0
sS'c:\\marmalade\\7.5\\s3e\\makefile_builder\\plugins\\xcode4_schememanagement.py'
p284
F1424159312.0
sS'c:\\marmalade\\7.5\\s3e\\makefile_builder\\templates\\wp81_ext_sln.pyc'
p285
F1424160380.0
sS'c:\\marmalade\\7.5\\s3e\\makefile_builder\\templates\\make.py'
p286
F1424159312.0
sS'c:\\marmalade\\7.5\\s3e\\makefile_builder\\templates\\ws81_ext_csproj.pyc'
p287
F1424160380.0
sS'c:\\marmalade\\7.5\\s3e\\makefile_builder\\plugins\\s3e_xcode.py'
p288
F1424159312.0
sS'c:\\marmalade\\7.5\\s3e\\makefile_builder\\plugins\\XcodeEmitter.pyc'
p289
F1424631018.8013597
sS'c:\\marmalade\\7.5\\s3e\\makefile_builder\\docs\\deployment_options.txt'
p290
F1424159310.0
sS'c:\\marmalade\\7.5\\s3e\\makefile_builder\\templates\\win8_sln.pyc'
p291
F1424160378.0
sS'c:\\marmalade\\7.5\\s3e\\makefile_builder\\plugins\\java.pyc'
p292
F1424160376.0
sS'c:\\marmalade\\7.5\\s3e\\makefile_builder\\plugins\\xcode4_schememanagement.pyc'
p293
F1424631018.80836
sS'c:\\marmalade\\7.5\\s3e\\makefile_builder\\plugins\\SConsEmitter.pyc'
p294
F1424160376.0
sS'c:\\marmalade\\7.5\\s3e\\makefile_builder\\templates\\win32_vcproj.pyc'
p295
F1424160378.0
sS'c:\\marmalade\\7.5\\s3e\\makefile_builder\\plugins\\wp8_wp8.pyc'
p296
F1424160376.0
sS'c:\\marmalade\\7.5\\s3e\\makefile_builder\\templates\\MainWindow.xib'
p297
F1424159312.0
sS'c:\\marmalade\\7.5\\s3e\\makefile_builder\\mkb_util.pyc'
p298
F1424160376.0
sS'c:\\marmalade\\7.5\\s3e\\makefile_builder\\templates\\vc8_user.pyc'
p299
F1424160378.0
sS'c:\\marmalade\\7.5\\s3e\\makefile_builder\\templates\\Info.plist'
p300
F1424159312.0
sS'c:\\marmalade\\7.5\\s3e\\makefile_builder\\templates\\wp8_csproj_user.pyc'
p301
F1424160378.0
sS'c:\\marmalade\\7.5\\s3e\\makefile_builder\\docs\\deprecated.defines.txt'
p302
F1424159310.0
sS'c:\\marmalade\\7.5\\s3e\\makefile_builder\\templates\\ws8_csproj_user.pyc'
p303
F1424160380.0
sS'c:\\marmalade\\7.5\\s3e\\makefile_builder\\plugins\\S3EEmitter.pyc'
p304
F1424160376.0
sS'c:\\marmalade\\7.5\\s3e\\makefile_builder\\templates\\rvct_linker_script'
p305
F1424159312.0
sS'c:\\marmalade\\7.5\\s3e\\makefile_builder\\templates\\xcode_pbxuser.py'
p306
F1424159312.0
sS'c:\\marmalade\\7.5\\s3e\\makefile_builder\\docs\\options.txt'
p307
F1424159310.0
sS'c:\\marmalade\\7.5\\s3e\\makefile_builder\\templates\\wp81_sln.pyc'
p308
F1424160380.0
sS'c:\\marmalade\\7.5\\s3e\\makefile_builder\\templates\\ws81_sln.pyc'
p309
F1424160380.0
sS'c:\\marmalade\\7.5\\s3e\\makefile_builder\\plugins\\vc6_utils.pyc'
p310
F1424160376.0
sS'c:\\marmalade\\7.5\\s3e\\makefile_builder\\templates\\wp81_ext_csproj.pyc'
p311
F1424160380.0
sS'c:\\marmalade\\7.5\\s3e\\makefile_builder\\plugins\\s3e_wp81.pyc'
p312
F1424160376.0
sS'c:\\marmalade\\7.5\\s3e\\makefile_builder\\templates\\aarch64_linker_script'
p313
F1424159312.0
sS'c:\\marmalade\\7.5\\s3e\\makefile_builder\\templates\\ws8_vcxproj.pyc'
p314
F1424160380.0
sS'c:\\marmalade\\7.5\\s3e\\makefile_builder\\plugins\\MakeEmitter.pyc'
p315
F1424160376.0
sS'c:\\marmalade\\7.5\\s3e\\makefile_builder\\templates\\win32_vcxproj_filters.pyc'
p316
F1424160378.0
sS'c:\\marmalade\\7.5\\s3e\\makefile_builder\\templates\\xcode.py'
p317
F1424159312.0
sS'c:\\marmalade\\7.5\\s3e\\makefile_builder\\plugins\\s3e_ws81.pyc'
p318
F1424160376.0
sS'c:\\marmalade\\7.5\\s3e\\makefile_builder\\plugins\\linux_scons.pyc'
p319
F1424160376.0
sS'c:\\marmalade\\7.5\\s3e\\makefile_builder\\templates\\win8_vcxproj.pyc'
p320
F1424160378.0
sS'c:\\marmalade\\7.5\\s3e\\makefile_builder\\plugins\\s3e_scons.pyc'
p321
F1424160376.0
sS'c:\\marmalade\\7.5\\s3e\\makefile_builder\\templates\\wp8_csproj.pyc'
p322
F1424160378.0
sS'c:\\marmalade\\7.5\\s3e\\makefile_builder\\templates\\win8_csproj_user.pyc'
p323
F1424160378.0
sS'c:\\marmalade\\7.5\\s3e\\makefile_builder\\plugins\\ws8_ws8.pyc'
p324
F1424160376.0
sS'c:\\marmalade\\7.5\\s3e\\makefile_builder\\templates\\wp8_vcxproj.pyc'
p325
F1424160378.0
sS'c:\\marmalade\\7.5\\s3e\\makefile_builder\\mkb_option.pyc'
p326
F1424160376.0
sccopy_reg
_reconstructor
p327
(cmkb_main
MkbFile
p328
c__builtin__
object
p329
Ntp330
Rp331
(dp332
g5
(lp333
sS'target_name'
p334
S'Stage4'
p335
sS'current_file'
p336
g133
sS'package_path'
p337
(lp338
sS'post_build'
p339
(lp340
(lp341
S'c:/marmalade/7.5/s3e/tools'
p342
aS'C:\\Marmalade\\7.5\\s3e\\python\\python.exe .\\process_map.py "$(TargetPath)"'
p343
aa(S'c:\\marmalade\\7.5\\s3e\\bin'
p344
S'"s3e_plink" -l "$(TargetPath)" '
p345
g167
tp346
asS'librarys'
p347
(lp348
g327
(cmkb_main
Library
p349
g329
Ntp350
Rp351
(dp352
S'name'
p353
S'vc6_compat.lib'
p354
sS'expand_name'
p355
I00
sS'include_spec_rvct_objs'
p356
(lp357
sS'include_all_objs'
p358
I00
sS'share_arm'
p359
I00
sS'arch'
p360
S'x86'
p361
sS'nodebug'
p362
I00
sg38
Nsbag327
(g349
g329
Ntp363
Rp364
(dp365
g353
S'iw2d'
p366
sg355
I01
sg356
(lp367
sg358
Nsg359
Nsg360
Nsg362
I00
sg38
Nsbag327
(g349
g329
Ntp368
Rp369
(dp370
g353
S'ATI_Compress_MT_VC7.lib'
p371
sg355
I00
sg356
g367
sg358
Nsg359
Nsg360
S'x86'
p372
sg362
I00
sg38
Nsbag327
(g349
g329
Ntp373
Rp374
(dp375
g353
S'iwgx'
p376
sg355
I01
sg356
g367
sg358
Nsg359
Nsg360
Nsg362
I00
sg38
Nsbag327
(g349
g329
Ntp377
Rp378
(dp379
g353
S'iwgl'
p380
sg355
I01
sg356
g367
sg358
Nsg359
Nsg360
Nsg362
I00
sg38
Nsbag327
(g349
g329
Ntp381
Rp382
(dp383
g353
S'iwutil'
p384
sg355
I01
sg356
g367
sg358
Nsg359
Nsg360
Nsg362
I00
sg38
Nsbag327
(g349
g329
Ntp385
Rp386
(dp387
g353
S'jpeg'
p388
sg355
I01
sg356
g367
sg358
Nsg359
Nsg360
Nsg362
I00
sg38
Nsbag327
(g349
g329
Ntp389
Rp390
(dp391
g353
S'z'
p392
sg355
I01
sg356
g367
sg358
Nsg359
Nsg360
Nsg362
I00
sg38
Nsbag327
(g349
g329
Ntp393
Rp394
(dp395
g353
S'png'
p396
sg355
I01
sg356
g367
sg358
Nsg359
Nsg360
Nsg362
I00
sg38
Nsbag327
(g349
g329
Ntp397
Rp398
(dp399
g353
S'iwgeom'
p400
sg355
I01
sg356
g367
sg358
Nsg359
Nsg360
Nsg362
I00
sg38
Nsbag327
(g349
g329
Ntp401
Rp402
(dp403
g353
S'iwresmanager'
p404
sg355
I01
sg356
g367
sg358
Nsg359
Nsg360
Nsg362
I00
sg38
Nsbag327
(g349
g329
Ntp405
Rp406
(dp407
g353
S'iwgxfont'
p408
sg355
I01
sg356
g367
sg358
Nsg359
Nsg360
Nsg362
I00
sg38
Nsbag327
(g349
g329
Ntp409
Rp410
(dp411
g353
S'tiniconv'
p412
sg355
I01
sg356
g367
sg358
Nsg359
Nsg360
Nsg362
I00
sg38
Nsbag327
(g349
g329
Ntp413
Rp414
(dp415
g353
S's3e_cpp'
p416
sg355
I01
sg356
g357
sg358
I00
sg359
I00
sg360
Nsg362
I00
sg38
Nsbag327
(g349
g329
Ntp417
Rp418
(dp419
g353
S's3e'
p420
sg355
I01
sg356
(lp421
S'iwcrt.o'
p422
asg358
I00
sg359
I00
sg360
Nsg362
I00
sg38
Nsbag327
(g349
g329
Ntp423
Rp424
(dp425
g353
g55
sg355
I01
sg356
g357
sg358
I00
sg359
I00
sg360
S'x86'
p426
sg362
I01
sg38
Nsbag327
(g349
g329
Ntp427
Rp428
(dp429
g353
g55
sg355
I01
sg356
g357
sg358
I00
sg359
I00
sg360
S'!x86'
p430
sg362
I01
sg38
Nsbag327
(g349
g329
Ntp431
Rp432
(dp433
g353
S'stdc++'
p434
sg355
I00
sg356
g357
sg358
I00
sg359
I00
sg360
S'mips'
p435
sg362
I00
sg38
Nsbag327
(g349
g329
Ntp436
Rp437
(dp438
g353
S'c'
p439
sg355
I00
sg356
g357
sg358
I00
sg359
I00
sg360
S'mips'
p440
sg362
I00
sg38
Nsbag327
(g349
g329
Ntp441
Rp442
(dp443
g353
S'm'
p444
sg355
I00
sg356
g357
sg358
I00
sg359
I00
sg360
S'mips'
p445
sg362
I00
sg38
Nsbag327
(g349
g329
Ntp446
Rp447
(dp448
g353
S'gcc'
p449
sg355
I00
sg356
g357
sg358
I00
sg359
I00
sg360
S'mips'
p450
sg362
I00
sg38
Nsbag327
(g349
g329
Ntp451
Rp452
(dp453
g353
S'stdc++'
p454
sg355
I00
sg356
g357
sg358
I00
sg359
I00
sg360
S'gcc_x86_android'
p455
sg362
I00
sg38
Nsbag327
(g349
g329
Ntp456
Rp457
(dp458
g353
g439
sg355
I00
sg356
g357
sg358
I00
sg359
I00
sg360
S'gcc_x86_android'
p459
sg362
I00
sg38
Nsbag327
(g349
g329
Ntp460
Rp461
(dp462
g353
g444
sg355
I00
sg356
g357
sg358
I00
sg359
I00
sg360
S'gcc_x86_android'
p463
sg362
I00
sg38
Nsbag327
(g349
g329
Ntp464
Rp465
(dp466
g353
g449
sg355
I00
sg356
g357
sg358
I00
sg359
I00
sg360
S'gcc_x86_android'
p467
sg362
I00
sg38
NsbasS'library_paths'
p468
(lp469
g327
(cmkb_main
LibraryPath
p470
g329
Ntp471
Rp472
(dp473
S'expand_path'
p474
I01
sg353
S'c:/marmalade/7.5/modules/iw2d'
p475
sbag327
(g470
g329
Ntp476
Rp477
(dp478
g474
I00
sg353
S'c:/marmalade/7.5/modules/iwgx/atitools'
p479
sbag327
(g470
g329
Ntp480
Rp481
(dp482
g474
I01
sg353
S'c:/marmalade/7.5/modules/iwgx'
p483
sbag327
(g470
g329
Ntp484
Rp485
(dp486
g474
I01
sg353
S'c:/marmalade/7.5/modules/iwgl'
p487
sbag327
(g470
g329
Ntp488
Rp489
(dp490
g474
I01
sg353
S'c:/marmalade/7.5/modules/iwutil'
p491
sbag327
(g470
g329
Ntp492
Rp493
(dp494
g474
I01
sg353
S'c:/marmalade/7.5/modules/third_party/libjpeg'
p495
sbag327
(g470
g329
Ntp496
Rp497
(dp498
g474
I01
sg353
S'c:/marmalade/7.5/modules/third_party/zlib'
p499
sbag327
(g470
g329
Ntp500
Rp501
(dp502
g474
I01
sg353
S'c:/marmalade/7.5/modules/third_party/libpng'
p503
sbag327
(g470
g329
Ntp504
Rp505
(dp506
g474
I01
sg353
S'c:/marmalade/7.5/modules/iwgeom'
p507
sbag327
(g470
g329
Ntp508
Rp509
(dp510
g474
I01
sg353
S'c:/marmalade/7.5/modules/iwresmanager'
p511
sbag327
(g470
g329
Ntp512
Rp513
(dp514
g474
I01
sg353
S'c:/marmalade/7.5/modules/iwgxfont'
p515
sbag327
(g470
g329
Ntp516
Rp517
(dp518
g474
I01
sg353
S'c:/marmalade/7.5/modules/third_party/tiniconv'
p519
sbag327
(g470
g329
Ntp520
Rp521
(dp522
g474
I01
sg353
S'c:/marmalade/7.5/s3e'
p523
sbasS'macros'
p524
(dp525
S'IW_USE_CALLSTACK'
p526
NsS'IW_MKF_IWGEOM'
p527
NsS'I3D_PLATFORM_S3E'
p528
NsS'IW_TRACE_CHANNEL_PVRTEXTOOL_VERBOSE'
p529
S'2'
p530
sS'IW_MKF_LIBJPEG'
p531
NsS'I3D_OS_S3E'
p532
NsS'IW_MKF_PVRTEXTOOL'
p533
NsS'IW_MKF_TINICONV'
p534
NsS'IW_APP_VERSION'
p535
S'"1.0"'
p536
sS'__S3E__'
p537
NsS'IW_MKF_IWRESMANAGER'
p538
NsS'IW_MKF_IWUTIL'
p539
NsS'IW_PLATFORM_S3E'
p540
NsS'IW_ASSERTION_CHANNEL_2D'
p541
S'1'
p542
sS'IW_APP_NAME'
p543
S'"Stage4"'
p544
sS'IW_MKF_MARMALADEEXAMPLERESOURCES'
p545
NsS'IW_MKF_IWGXFONT'
p546
NsS'IW_MKF_IWTWEEN'
p547
NsS'IW_MKF_ZLIB'
p548
NsS'IW_MKF_S3E_DEFAULT'
p549
NsS'IW_MKF_IWGX'
p550
NsS'IW_MKF_IW2DSCENEGRAPH'
p551
NsS'IW_MKF_SOUNDENGINE'
p552
NsS'IW_USE_ASSERTIONS'
p553
NsS'_CRT_SECURE_NO_DEPRECATE'
p554
NsS'IW_MKF_IWGL'
p555
NsS'IW_MKF_LIBPNG'
p556
NsS'IW_TRACE_CHANNEL_IW_2DSCENEGRAPH'
p557
g542
sS'IW_DEBUG'
p558
NsS'IW_USE_TRACING'
p559
NsS'IW_ASSERTION_CHANNEL_IW_2DSCENEGRAPH'
p560
g542
sS'IW_TRACE_CHANNEL_PVRTEXTOOL'
p561
g542
sS'IW_SDK'
p562
NsS'S3E_INCLUDE_LEGACY'
p563
NsS'IW_MKF_IW2DSCENEGRAPHCORE'
p564
NsS'IW_MKF_IW2D'
p565
NsS'IW_ASSERTION_CHANNEL_PVRTEXTOOL'
p566
g542
ssS'done_warnings'
p567
(dp568
sS'subprojects'
p569
(dp570
g190
S'iwgx'
p571
sg199
S'iwgxfont'
p572
sg188
S's3e-default.mkf'
p573
sg202
S'../iw2dscenegraphcore'
p574
sg195
S'zlib'
p575
sg197
S'iwresmanager'
p576
sg200
S'tiniconv'
p577
sg193
S'libjpeg'
p578
sg189
S'iw2d'
p579
sg205
S'../../../MarmaladeExampleResources'
p580
sg192
S'iwutil'
p581
sg203
S'iwtween'
p582
sg194
S'libpng'
p583
sg201
S'iw2dscenegraph'
p584
sg204
S'SoundEngine'
p585
sg191
S'iwgl'
p586
sg196
S'iwgeom'
p587
sg198
S'PVRTexTool'
p588
ssS'deployments'
p589
(dp590
S'Default'
p591
g327
(cdeployment
Deployment
p592
g329
Ntp593
Rp594
(dp595
S'got_version'
p596
I0
sS'assets'
p597
g591
sS'mkb'
p598
g331
sS'target'
p599
Nsg360
(lp600
sS'options'
p601
(dp602
S'iphone-link-lib'
p603
(lp604
sS'game-icf'
p605
NsS'android-tm'
p606
NsS'winmobile-icon32'
p607
NsS'ws8-logo-image150x150'
p608
NsS'wp81-logo-image150x150'
p609
NsS'android-keystore'
p610
NsS'osx-ext-dll'
p611
(lp612
S'c:/marmalade/7.5/extensions/pvrtextool/lib/osx/libPVRTexTool.dylib'
p613
asS'iphone-provisioning-profile'
p614
NsS'ws8-splash-screen-image620x300'
p615
NsS'wp81-extra-pri'
p616
(lp617
sS'ws8-ext-capabilities'
p618
(lp619
sS'android-icon-hdpi'
p620
NsS'iphone-ipad-only'
p621
NsS'iphone-splash-full-orient'
p622
NsS'wp8-tile-fliptemplate-supports-large'
p623
NsS'iphone-show-status-bar'
p624
NsS'roku-requires-mkv'
p625
NsS'long-caption'
p626
NsS'android-pkgname'
p627
NsS'wp81-publisher-display-name'
p628
NsS'blackberry-permissions-read-device-identifying-information'
p629
NsS'ws81-certificate-end-date'
p630
NsS'psp-dlgcontentid'
p631
NsS'iphone-minimum-ios-version'
p632
NsS'target-folder'
p633
NsS'tizen-dist1-CA-path'
p634
NsS'symbian-icon2-format'
p635
NsS'tizen-author-key'
p636
NsS'firefoxos-icon-128X128'
p637
NsS'iphone-region'
p638
NsS'uiq3-icon3-mask'
p639
NsS'brew-encoding'
p640
NsS'android-x86'
p641
NsS'nds-initialcode'
p642
NsS'iphone-persistent-wifi'
p643
NsS'psp-snd0'
p644
NsS'roku-icon-focus-hd'
p645
NsS'osx-appid'
p646
NsS'winmobile-install-folder'
p647
NsS'android-external-res'
p648
(lp649
sS'ws8-product-version'
p650
NsS'brew-priviledges'
p651
NsS'iphone-info-plist-override'
p652
NsS'iphone-icon-ipad'
p653
NsS'iphone-skip-icon-generation'
p654
NsS'roku-hidden'
p655
NsS'psp-titlename'
p656
NsS'wp81-product-version'
p657
NsS'symbian-icon1-mask'
p658
NsS'psp-parentallevel'
p659
NsS'iphone-launch-storyboard'
p660
NsS'splashscreen-use-all'
p661
NsS'wp8-author'
p662
NsS'symbian-disable-ecompxl'
p663
NsS'splashscreen-auto-onblack'
p664
NsS'iphone-icon-dir'
p665
NsS'iphone-icon-extra'
p666
NsS'win32-ext-dll'
p667
(lp668
S'c:/marmalade/7.5/extensions/pvrtextool/lib/win32/PVRTexTool.dll'
p669
asS'iphone-development-key'
p670
NsS'winmobile-icon48'
p671
NsS'android-unsigned'
p672
NsS'osx-appstore-category'
p673
NsS'version-revision'
p674
NsS'roku-icon-focus-sd'
p675
NsS'ws81-product-version'
p676
NsS'winmobile-png90'
p677
NsS'iphone-icon-ipad-high-res'
p678
NsS'iphone-disable-ipad'
p679
NsS'ws81-splash-screen-background'
p680
NsS'wp8-ext-capabilities'
p681
(lp682
sS'brew-icon-large'
p683
NsS'symbian-icon1-mask-black'
p684
NsS'ws8-extra-res'
p685
(lp686
sS'iphone-bundle-localisations'
p687
NsS'winmobile-png60'
p688
NsS'blackberry-permissions-access-shared'
p689
NsS'blackberry-author'
p690
NsS'android-icon-xxxhdpi'
p691
NsS'olddeploytoolstyle'
p692
NsS'android_icon_gallery'
p693
NsS'wp81-splash-screen-background'
p694
NsS'winmobile-cab-compress'
p695
NsS'iphone-info-plist'
p696
NsS'ws81-ext-managed-dll'
p697
(lp698
sS'playbook-cskpass'
p699
NsS'win32-icon'
p700
NsS'symbian-key'
p701
NsS'app-icf'
p702
NsS'blackberry-storepass'
p703
NsS'wp8-tile-fliptemplate-back-title'
p704
NsS'brew-compress-loader'
p705
NsS'iphone-testflight'
p706
NsS'win32-pref-windowposy'
p707
NsS'win32-pref-windowposx'
p708
NsS'roku-requires-audiometadata'
p709
NsS'wp8-exclude-low-mem'
p710
NsS'iphone-icon-ipad-search-high-res'
p711
NsS'iphone-link-libdir'
p712
(lp713
sS'wp81-ext-capabilities'
p714
(lp715
sS'blackberry-permissions-read-geolocation'
p716
NsS'ws81-ext-device-capabilities'
p717
(lp718
sS'tizen-signed'
p719
NsS'android-extra-application-manifest'
p720
(lp721
sS'ws8-ext-native-dll'
p722
(lp723
sS'symbian-icon2-mask'
p724
NsS'iphone-launch-extra'
p725
NsS'webos-memory'
p726
NsS'android-keypass'
p727
NsS'name'
p728
NsS'uiq3-icon2-format'
p729
NsS'roku-splash-screen-sd'
p730
NsS'auto-derbh'
p731
NsS'roku-icon-side-sd'
p732
NsS'android-external-assets'
p733
(lp734
sS'nds-publicsavedatasize'
p735
NsS'splashscreen'
p736
S'c:/marmalade/7.5/examples/marmaladeexampleresources/resources/splashscreens'
p737
sS'brew-mif'
p738
NsS'iphone-icon-settings-high-res'
p739
NsS'android-manifest'
p740
NsS'ws81-splash-screen-image620x300'
p741
NsS'wp81-product-name'
p742
NsS's3e-compression'
p743
NsS'tizen-author-password'
p744
NsS'wp8-tile-fliptemplate-back-content'
p745
NsS'blackberry-extra-descriptor'
p746
(lp747
sS'symbian-icon1'
p748
NsS'symbian-icon2'
p749
NsS'nds-makercode'
p750
NsS'android-extra-styles-file'
p751
NsS'wp81-publisher-id'
p752
NsS'nds-bannertitle-jp'
p753
NsS'wp81-logo-image44x44'
p754
NsS'osx-sign-for-store'
p755
NsS'symbian7-uid'
p756
NsS'wp8-tile-fliptemplate-large-back-content'
p757
NsS'wp81-phone-publisher-id'
p758
NsS'nds-bannertitle-cn'
p759
NsS'iphone-distribution-key'
p760
NsS'android-icon-gallery'
p761
NsS'blackberry-keystore'
p762
NsS'iphone-nosign'
p763
NsS'caption'
p764
NsS'android-extra-manifest'
p765
(lp766
sS'wp81-ext-sdk-ref'
p767
(lp768
sS'android-icon-xxhdpi'
p769
NsS'version-minor'
p770
NsS'iphone-skip-launch-generation'
p771
NsS'iphone-link-libdirs'
p772
(lp773
sS'iphone-icon-large'
p774
NsS'symbian-keypwd'
p775
NsS'symbian8-uid'
p776
NsS'symbian-cert-key'
p777
NsS'winmobile-ampd-part-number'
p778
NsS'arch'
p779
NsS'nds-romheadertemplate'
p780
NsS'webos-icon'
p781
NsS'wp81-ext-device-capabilities'
p782
(lp783
sS'psp-dlgprotectdocument'
p784
NsS'ws8-splash-screen-background'
p785
NsS'android-icon-mdpi'
p786
NsS'nds-icon'
p787
NsS'ws8-custom-manifest-fill'
p788
NsS'iphone-development-cert'
p789
NsS'and'
p790
NsS'symbian-icon2-mask-black'
p791
NsS'blackberry-phone-icon'
p792
NsS'iphone-enable-4inch-retina'
p793
NsS'ws8-custom-manifest'
p794
NsS'version-major'
p795
NsS'wp8-genre-isgame'
p796
NsS'uiq3-uid'
p797
NsS'iphone-splash-retina-generate'
p798
NsS'tizen-hw-acceleration'
p799
NsS'iphone_bundle_localisations'
p800
NsS'tizen-dist1-key'
p801
NsS'wp81-custom-manifest-fill'
p802
NsS'wp8-custom-manifest'
p803
NsS'nds-bannertitle-ge'
p804
NsS'iphone-sign-for-distribution'
p805
NsS'wp8-tile-fliptemplate-medium-back-image'
p806
NsS'wp8-publisher-id'
p807
NsS'icon'
p808
S'c:/marmalade/7.5/examples/marmaladeexampleresources/resources/icons'
p809
sS'wp8-exclude-wxga'
p810
NsS'wp81-identity-name'
p811
NsS'uiq3-icon2-mask'
p812
NsS'iphone-splashscreen-portrait'
p813
NsS'iphone-icon-high-res'
p814
NsS'ws81-distribution-pfx-password'
p815
NsS'playbook-author'
p816
NsS'android-icon-xhdpi'
p817
NsS'linux-ext-lib'
p818
(lp819
sS'blackberry-permissions-access-internet'
p820
NsS'wp8-exclude-720p'
p821
NsS'lgtv-use-drm'
p822
NsS'symbian-platsecflags'
p823
NsS'ws8-description'
p824
NsS'blackberry-playbook-icon'
p825
NsS'copyright'
p826
NsS'ws8-distribution-pfx-password'
p827
NsS'win32-gles-directory'
p828
NsS'version'
p829
NsS'iphone-uiviewcontroller-based-status-bar'
p830
NsS'ws81-logo-image150x150'
p831
NsS'osx-signing-identity-app'
p832
NsS'tizen-project-url'
p833
NsS'symbian-icon-svg'
p834
NsS'android-aliasname'
p835
NsS'psp-dlgmanual'
p836
NsS'brew-uid'
p837
NsS'symbian-locationsupport'
p838
NsS'wp81-logo-image50x50'
p839
NsS'ws8-ext-managed-dll'
p840
(lp841
sS'nds-bannertitle-it'
p842
NsS'ws81-custom-manifest-fill'
p843
NsS'ws8-ext-sdk-manifest-part'
p844
(lp845
sS'uiq3-icon1-mask'
p846
NsS'winmobile-icon16'
p847
NsS'ws8-product-name'
p848
NsS'blackberry-cskpass'
p849
NsS'winmobile-start-menu-folder'
p850
NsS'brew-clsid'
p851
NsS'roku-requires-bluetooth'
p852
NsS'iphone-default-development-profile'
p853
NsS'ws8-ext-device-capabilities'
p854
(lp855
sS'blackberry-permissions-use-camera'
p856
NsS'ws81-extra-pri'
p857
(lp858
sS'iphone-prerendered-icon'
p859
NsS'iphone-appid'
p860
NsS'ws8-identity-name'
p861
NsS'tizen-dist2-CA-path'
p862
NsS'android-external-jars'
p863
(lp864
sS'winmobile-icon64'
p865
NsS'blackberry-permissions-post-notification'
p866
NsS'winmobile-setup-dll'
p867
NsS'firefoxos-manifest'
p868
NsS'win8-winrt-extra-res'
p869
(lp870
sS'wp81-ext-sdk-manifest-part'
p871
(lp872
sS'symbian9-uid'
p873
NsS'iphone-icon-ipad-ios7'
p874
NsS'winmobile-trace-file'
p875
NsS'roku-splash-color'
p876
NsS'psp-appversion'
p877
NsS'ws8-publisher-id'
p878
NsS'android-supports-gl-texture'
p879
(lp880
sS'winmobile-png45'
p881
NsS'wp81-extra-res'
p882
(lp883
sS'android-storepass'
p884
NsS'osx-signing-identity-inst'
p885
NsS'android-custom-activity'
p886
NsS'psp-discversion'
p887
NsS'wp81-ext-managed-dll'
p888
(lp889
sS'psp-copyright'
p890
NsS'embed-icf'
p891
NsS'tizen-manifest'
p892
NsS'osx-icon'
p893
NsS'webos-appinfo'
p894
NsS'psp-dlghealthwarning'
p895
NsS'webos-appid'
p896
NsS'roku-icon-side-hd'
p897
NsS'iphone-icon-ipad-search-high-res-ios7'
p898
NsS'iphone-extra-plist'
p899
(lp900
sS'ws81-ext-sdk-manifest-part'
p901
(lp902
sS'loader_name_prefix'
p903
NsS'iphone-launch-dir'
p904
NsS'nds-titlename'
p905
NsS'ws81-logo-image50x50'
p906
NsS'wp81-custom-manifest'
p907
NsS'osx-entitlements-plist'
p908
NsS'psp-dlgicon0'
p909
NsS'winmobile-nouninstall'
p910
NsS'psp-discid'
p911
NsS'tizen-dist2-password'
p912
NsS'ws8-ext-sdk-ref'
p913
(lp914
sS'iphone-extra-string'
p915
(lp916
sS'version-string'
p917
NsS'iphone-icon-high-res-ios7'
p918
NsS'blackberry-permissions-record-audio'
p919
NsS'ws8-certificate-end-date'
p920
NsS'tizen-so'
p921
(lp922
sS'wp8-tile-fliptemplate-small-image'
p923
NsS'playbook-authorid'
p924
NsS'iphone-signing-identity'
p925
NsS'roku-persist-quota'
p926
NsS'nds-bannertitle-fr'
p927
NsS'ws8-distribution-pfx'
p928
NsS'ws8-publisher-display-name'
p929
NsS'brew-icon-small'
p930
NsS'psp-dlgpic2'
p931
NsS'psp-dlgpic0'
p932
NsS'psp-pic0'
p933
NsS'psp-pic1'
p934
NsS'win32-pref-windowtitle'
p935
NsS'psp-icon0'
p936
NsS'psp-icon1'
p937
NsS'ws81-identity-name'
p938
NsS'winmobile-icon'
p939
NsS'iphone-no-splash'
p940
NsS'iphone-splash'
p941
NsS'iphone-app-fonts'
p942
NsS'wp8-ext-native-dll'
p943
(lp944
sS'wp81-splash-screen-image480x800'
p945
NsS'ws81-distribution-cer'
p946
NsS'iphone-backgroundmode-audio'
p947
NsS'uiq3-icon2'
p948
NsS'uiq3-icon3'
p949
NsS'uiq3-icon1'
p950
NsS'uiq3-icon1-format'
p951
NsS'ws8-logo-image50x50'
p952
NsS'iphone-icon-ipad-search'
p953
NsS'symbian-run-on-install'
p954
NsS'wp81-description'
p955
NsS'ws81-publisher-display-name'
p956
NsS'firefoxos-xulrunner'
p957
NsS'symbian-soundrecordsupport'
p958
NsS'nds-bannertitle-sp'
p959
NsS'psp-producer'
p960
NsS'iphone-apple-wwdr-cert'
p961
NsS'android-icon-nonstandard'
p962
NsS'win32-pref-processtitle'
p963
NsS'nds-bannertitle-hn'
p964
NsS'tizen-dist2-key'
p965
NsS'brew-depends'
p966
NsS'ws81-custom-manifest'
p967
NsS'iphone-allow-launch-rotation'
p968
NsS'iphone-icon-ipad-search-ios7'
p969
NsS'brew-icon-medium'
p970
NsS'iphone-bundle-url-name'
p971
NsS'wp8-tile-fliptemplate-large-front-image'
p972
NsS'tizen-dist2-CA-root-path'
p973
NsS'ws81-description'
p974
NsS'uiq3-icon3-format'
p975
NsS'ws81-logo-image30x30'
p976
NsS'win8-phone-extra-res'
p977
(lp978
sS'iphone-signing-host'
p979
NsS'tizen-icon'
p980
NsS'osx-info-plist'
p981
NsS'symbian-icon1-format'
p982
NsS'ws81-distribution-pfx'
p983
NsS'blackberry-authorid'
p984
NsS'ws81-publisher-id'
p985
NsS'win8-store-extra-res'
p986
(lp987
sS'wp8-description'
p988
NsS'iphone-link-opts'
p989
(lp990
sS'ws81-ext-sdk-ref'
p991
(lp992
sS'roku-splash-min-time'
p993
NsS'wp8-tile-fliptemplate-medium-front-image'
p994
NsS'iphone-disable-launch-images'
p995
NsS'provider'
p996
NsS'playbook-keystore'
p997
NsS'tizen-appid'
p998
NsS'wp8-extra-res'
p999
(lp1000
sS'symbian-osexecsupport'
p1001
NsS'android-install-location'
p1002
NsS'nds-privatesavedatasize'
p1003
NsS'iphone-disable-testflight'
p1004
NsS'playbook-storepass'
p1005
NsS'android-icon-ldpi'
p1006
NsS'manufacturer'
p1007
NsS'itunes-artwork'
p1008
NsS'iphone-extra-sections'
p1009
NsS'ws81-product-name'
p1010
NsS'ws81-ext-native-dll'
p1011
(lp1012
sS'ws8-extra-pri'
p1013
(lp1014
sS'wp8-product-id'
p1015
NsS'ws8-logo-image30x30'
p1016
NsS'wp8-ext-managed-dll'
p1017
(lp1018
sS'iphone-splashscreen-landscape'
p1019
NsS'symbian-maxheapsize'
p1020
NsS'android-extra-packages'
p1021
(lp1022
sS'priv-sign-key'
p1023
NsS'networking'
p1024
NsS'android-icon'
p1025
NsS'iphone-icon-settings'
p1026
NsS'wp81-phone-product-id'
p1027
NsS'firefoxos-icon-60X60'
p1028
NsS'iphone-distribution-cert'
p1029
NsS'android_extra_strings'
p1030
NsS'nds-bannertitle-en'
p1031
NsS'wp8-tile-fliptemplate-title'
p1032
NsS'android-so'
p1033
(lp1034
sS'wp8-higher-mem'
p1035
NsS'wp8-ext-sdk-ref'
p1036
(lp1037
sS'wp8-fast-resume-mode'
p1038
NsS'roku-splash-screen-hd'
p1039
NsS'iphone-bundle-url-schemes'
p1040
NsS'roku-screensaver-private'
p1041
NsS'osx-extra-res'
p1042
(lp1043
sS'ws81-extra-res'
p1044
(lp1045
sS'playbook-icon'
p1046
NsS'uid'
p1047
NsS'pkguid-as-uid'
p1048
NsS'wp81-ext-native-dll'
p1049
(lp1050
sS'tizen-dist1-password'
p1051
NsS'roku-screensaver-title'
p1052
NsS'osx-minimum-osx-version'
p1053
NsS'symbian-cert'
p1054
NsS'iphone-icon'
p1055
NsS'ws81-ext-capabilities'
p1056
(lp1057
sS'ws8-distribution-cer'
p1058
NsS'playbook-access-shared'
p1059
NsS'iphone-icon-ipad-high-res-ios7'
p1060
NsS'iphone-link-libs'
p1061
(lp1062
sS'wp8-exclude-wvga'
p1063
NsS'assets'
p1064
NsS'wp8-tile-fliptemplate-large-back-image'
p1065
NsS'wp8-custom-manifest-fill'
p1066
NsS'pub-sign-key'
p1067
NsS'android-extra-strings'
p1068
NsS'tizen-author-CA-path'
p1069
Nssg353
g591
sbssS'platform'
p1070
S'S3E'
p1071
sg70
S'1.0'
p1072
sS'arcade_platform'
p1073
g4
sS'extensions'
p1074
(dp1075
sS'source_groups_tree'
p1076
(dp1077
S'(libpng)'
p1078
(dp1079
S'h'
p1080
(dp1081
S'c:/marmalade/7.5/modules/third_party/libpng/h/png.h'
p1082
(lp1083
I1
a(dp1084
asS'c:/marmalade/7.5/modules/third_party/libpng/h/pngconf.h'
p1085
(lp1086
I1
ag1084
assS'c:/marmalade/7.5/modules/third_party/libpng/libpng.mkf'
p1087
(lp1088
I1
a(dp1089
assS'(libjpeg)'
p1090
(dp1091
S'c:/marmalade/7.5/modules/third_party/libjpeg/libjpeg.mkf'
p1092
(lp1093
I1
a(dp1094
asg1080
(dp1095
S'c:/marmalade/7.5/modules/third_party/libjpeg/h/jerror.h'
p1096
(lp1097
I1
a(dp1098
asS'c:/marmalade/7.5/modules/third_party/libjpeg/h/jdhuff.h'
p1099
(lp1100
I1
ag1098
asS'c:/marmalade/7.5/modules/third_party/libjpeg/h/cderror.h'
p1101
(lp1102
I1
ag1098
asS'c:/marmalade/7.5/modules/third_party/libjpeg/h/transupp.h'
p1103
(lp1104
I1
ag1098
asS'c:/marmalade/7.5/modules/third_party/libjpeg/h/jinclude.h'
p1105
(lp1106
I1
ag1098
asS'c:/marmalade/7.5/modules/third_party/libjpeg/h/jmorecfg.h'
p1107
(lp1108
I1
ag1098
asS'c:/marmalade/7.5/modules/third_party/libjpeg/h/jdct.h'
p1109
(lp1110
I1
ag1098
asS'c:/marmalade/7.5/modules/third_party/libjpeg/h/jmemsys.h'
p1111
(lp1112
I1
ag1098
asS'c:/marmalade/7.5/modules/third_party/libjpeg/h/jpegint.h'
p1113
(lp1114
I1
ag1098
asS'c:/marmalade/7.5/modules/third_party/libjpeg/h/jchuff.h'
p1115
(lp1116
I1
ag1098
asS'c:/marmalade/7.5/modules/third_party/libjpeg/h/cdjpeg.h'
p1117
(lp1118
I1
ag1098
asS'c:/marmalade/7.5/modules/third_party/libjpeg/h/jversion.h'
p1119
(lp1120
I1
ag1098
asS'c:/marmalade/7.5/modules/third_party/libjpeg/h/jconfig.h'
p1121
(lp1122
I1
ag1098
asS'c:/marmalade/7.5/modules/third_party/libjpeg/h/jpeglib.h'
p1123
(lp1124
I1
ag1098
asssS'(tiniconv)'
p1125
(dp1126
S'c:/marmalade/7.5/modules/third_party/tiniconv/tiniconv.mkf'
p1127
(lp1128
I1
a(dp1129
asS'c:/marmalade/7.5/modules/third_party/tiniconv/source/tiniconv_int.h'
p1130
(lp1131
I1
a(dp1132
asS'c:/marmalade/7.5/modules/third_party/tiniconv/source/tiniconv.h'
p1133
(lp1134
I1
ag1132
assS'(SoundEngine)'
p1135
(dp1136
S'c:/marmalade/7.5/examples/gametutorial/cpp/modules/soundengine/source/IwSoundGroup.cpp'
p1137
(lp1138
I1
a(dp1139
asS'c:/marmalade/7.5/examples/gametutorial/cpp/modules/soundengine/h/IwSoundADPCM.h'
p1140
(lp1141
I1
ag1139
asS'c:/marmalade/7.5/examples/gametutorial/cpp/modules/soundengine/source/IwResHandlerWAV.cpp'
p1142
(lp1143
I1
ag1139
asS'c:/marmalade/7.5/examples/gametutorial/cpp/modules/soundengine/h/IwResHandlerWAV.h'
p1144
(lp1145
I1
ag1139
asS'Docs'
p1146
(dp1147
S'c:/marmalade/7.5/examples/gametutorial/cpp/modules/soundengine/docs/iwsound.config.txt'
p1148
(lp1149
I1
ag1139
assS'c:/marmalade/7.5/examples/gametutorial/cpp/modules/soundengine/h/IwSoundInst.h'
p1150
(lp1151
I1
ag1139
asS'c:/marmalade/7.5/examples/gametutorial/cpp/modules/soundengine/source/IwSoundManager.cpp'
p1152
(lp1153
I1
ag1139
asS'c:/marmalade/7.5/examples/gametutorial/cpp/modules/soundengine/h/IwSoundSpec.h'
p1154
(lp1155
I1
ag1139
asS'c:/marmalade/7.5/examples/gametutorial/cpp/modules/soundengine/source/IwSoundParams.cpp'
p1156
(lp1157
I1
ag1139
asS'c:/marmalade/7.5/examples/gametutorial/cpp/modules/soundengine/h/IwSoundManager.h'
p1158
(lp1159
I1
ag1139
asS'c:/marmalade/7.5/examples/gametutorial/cpp/modules/soundengine/source/IwSoundPCM.cpp'
p1160
(lp1161
I1
ag1139
asS'c:/marmalade/7.5/examples/gametutorial/cpp/modules/soundengine/source/IwSoundWAV.cpp'
p1162
(lp1163
I1
ag1139
asS'c:/marmalade/7.5/examples/gametutorial/cpp/modules/soundengine/source/IwSoundInst.cpp'
p1164
(lp1165
I1
ag1139
asS'c:/marmalade/7.5/examples/gametutorial/cpp/modules/soundengine/h/IwSoundWAV.h'
p1166
(lp1167
I1
ag1139
asS'c:/marmalade/7.5/examples/gametutorial/cpp/modules/soundengine/source/IwSoundSpec.cpp'
p1168
(lp1169
I1
ag1139
asS'c:/marmalade/7.5/examples/gametutorial/cpp/modules/soundengine/h/IwSoundParams.h'
p1170
(lp1171
I1
ag1139
asS'c:/marmalade/7.5/examples/gametutorial/cpp/modules/soundengine/source/IwSoundADPCM.cpp'
p1172
(lp1173
I1
ag1139
asS'c:/marmalade/7.5/examples/gametutorial/cpp/modules/soundengine/h/IwSound.h'
p1174
(lp1175
I1
ag1139
asS'c:/marmalade/7.5/examples/gametutorial/cpp/modules/soundengine/source/IwSoundData.cpp'
p1176
(lp1177
I1
ag1139
asS'c:/marmalade/7.5/examples/gametutorial/cpp/modules/soundengine/h/IwSoundData.h'
p1178
(lp1179
I1
ag1139
asS'c:/marmalade/7.5/examples/gametutorial/cpp/modules/soundengine/h/IwSoundPCM.h'
p1180
(lp1181
I1
ag1139
asS'c:/marmalade/7.5/examples/gametutorial/cpp/modules/soundengine/soundengine.mkf'
p1182
(lp1183
I1
a(dp1184
asS'c:/marmalade/7.5/examples/gametutorial/cpp/modules/soundengine/h/IwSoundGroup.h'
p1185
(lp1186
I1
ag1139
assS'(MarmaladeExampleResources)'
p1187
(dp1188
S'c:/marmalade/7.5/examples/marmaladeexampleresources/marmaladeexampleresources.mkf'
p1189
(lp1190
I1
a(dp1191
assS'source'
p1192
(dp1193
S'c:/Marmalade/7.5/examples/GameTutorial/CPP/marm1/source/pauseMenu.h'
p1194
(lp1195
I1
a(dp1196
asS'c:/Marmalade/7.5/examples/GameTutorial/CPP/marm1/source/input.h'
p1197
(lp1198
I1
ag1196
asS'c:/Marmalade/7.5/examples/GameTutorial/CPP/marm1/source/resources.cpp'
p1199
(lp1200
I1
ag1196
asS'c:/Marmalade/7.5/examples/GameTutorial/CPP/marm1/source/mainMenu.h'
p1201
(lp1202
I1
ag1196
asS'c:/Marmalade/7.5/examples/GameTutorial/CPP/marm1/source/audio.h'
p1203
(lp1204
I1
ag1196
asS'c:/Marmalade/7.5/examples/GameTutorial/CPP/marm1/source/mainMenu.cpp'
p1205
(lp1206
I1
ag1196
asS'c:/Marmalade/7.5/examples/GameTutorial/CPP/marm1/source/input.cpp'
p1207
(lp1208
I1
ag1196
asS'c:/Marmalade/7.5/examples/GameTutorial/CPP/marm1/source/main.cpp'
p1209
(lp1210
I1
ag1196
asS'c:/Marmalade/7.5/examples/GameTutorial/CPP/marm1/source/main.h'
p1211
(lp1212
I1
ag1196
asS'c:/Marmalade/7.5/examples/GameTutorial/CPP/marm1/source/audio.cpp'
p1213
(lp1214
I1
ag1196
asS'c:/Marmalade/7.5/examples/GameTutorial/CPP/marm1/source/resources.h'
p1215
(lp1216
I1
ag1196
asS'c:/Marmalade/7.5/examples/GameTutorial/CPP/marm1/source/scene.h'
p1217
(lp1218
I1
ag1196
asS'c:/Marmalade/7.5/examples/GameTutorial/CPP/marm1/source/game.h'
p1219
(lp1220
I1
ag1196
asS'c:/Marmalade/7.5/examples/GameTutorial/CPP/marm1/source/scene.cpp'
p1221
(lp1222
I1
ag1196
asS'c:/Marmalade/7.5/examples/GameTutorial/CPP/marm1/source/game.cpp'
p1223
(lp1224
I1
ag1196
asS'c:/Marmalade/7.5/examples/GameTutorial/CPP/marm1/source/pauseMenu.cpp'
p1225
(lp1226
I1
ag1196
assS'Extensions'
p1227
(dp1228
S'PVRTexTool'
p1229
(dp1230
S'interface'
p1231
(dp1232
S'c:/marmalade/7.5/extensions/pvrtextool/interface/PVRTexTool.defines.txt'
p1233
(lp1234
I1
a(dp1235
asS'c:/marmalade/7.5/extensions/pvrtextool/interface/PVRTexTool_interface.cpp'
p1236
(lp1237
I1
ag1235
assS'c:/marmalade/7.5/extensions/pvrtextool/h/PVRTexTool.h'
p1238
(lp1239
I1
ag1235
asS'c:/marmalade/7.5/extensions/pvrtextool/pvrtextool.mkf'
p1240
(lp1241
I1
a(dp1242
asssS"'Marmalade Studio'"
p1243
(dp1244
S'iw2dscenegraph'
p1245
(dp1246
S'c:/marmalade/7.5/modules/iw2dscenegraph/source/Iw2DSceneGraph.cpp'
p1247
(lp1248
I1
a(dp1249
asS'c:/marmalade/7.5/modules/iw2dscenegraph/docs/iw2dscenegraph.defines.txt'
p1250
(lp1251
I1
ag1249
asS'c:/marmalade/7.5/modules/iw2dscenegraph/h/Iw2DSceneGraph.h'
p1252
(lp1253
I1
ag1249
asS'c:/marmalade/7.5/modules/iw2dscenegraph/iw2dscenegraph.mkf'
p1254
(lp1255
I1
a(dp1256
assS'iwgl'
p1257
(dp1258
S'c:/marmalade/7.5/modules/iwgl/iwgl.mkf'
p1259
(lp1260
I1
a(dp1261
asS'c:/marmalade/7.5/modules/iwgl/h/IwGL.h'
p1262
(lp1263
I1
a(dp1264
asS'c:/marmalade/7.5/modules/iwgl/docs/iwgl.config.txt'
p1265
(lp1266
I1
ag1264
asS'c:/marmalade/7.5/modules/iwgl/h/IwGLExt.h'
p1267
(lp1268
I1
ag1264
assS'iw2d'
p1269
(dp1270
S'c:/marmalade/7.5/modules/iw2d/docs/iw2d_public.defines.txt'
p1271
(lp1272
I1
a(dp1273
asS'c:/marmalade/7.5/modules/iw2d/docs/iw2d.config.txt'
p1274
(lp1275
I1
ag1273
asS'c:/marmalade/7.5/modules/iw2d/h/Iw2D.h'
p1276
(lp1277
I1
ag1273
asS'c:/marmalade/7.5/modules/iw2d/iw2d.mkf'
p1278
(lp1279
I1
a(dp1280
assS'iwgxfont'
p1281
(dp1282
S'c:/marmalade/7.5/modules/iwgxfont/h/IwGxFontGlyph.h'
p1283
(lp1284
I1
a(dp1285
asS'c:/marmalade/7.5/modules/iwgxfont/h/IwGxFontTypes.h'
p1286
(lp1287
I1
ag1285
asS'c:/marmalade/7.5/modules/iwgxfont/docs/iwgxfont.config.txt'
p1288
(lp1289
I1
ag1285
asS'c:/marmalade/7.5/modules/iwgxfont/h/IwGxFontState.h'
p1290
(lp1291
I1
ag1285
asS'c:/marmalade/7.5/modules/iwgxfont/h/IwGxFontContainer.h'
p1292
(lp1293
I1
ag1285
asS'c:/marmalade/7.5/modules/iwgxfont/iwgxfont.mkf'
p1294
(lp1295
I1
a(dp1296
asS'c:/marmalade/7.5/modules/iwgxfont/h/IwGxFontPreparedData.h'
p1297
(lp1298
I1
ag1285
asS'c:/marmalade/7.5/modules/iwgxfont/h/IwGxFont.h'
p1299
(lp1300
I1
ag1285
asS'c:/marmalade/7.5/modules/iwgxfont/docs/iwgxfont_public.defines.txt'
p1301
(lp1302
I1
ag1285
assS'iwgeom'
p1303
(dp1304
S'c:/marmalade/7.5/modules/iwgeom/h/IwGeomSVec2.h'
p1305
(lp1306
I1
a(dp1307
asS'c:/marmalade/7.5/modules/iwgeom/h/IwGeomSphere.h'
p1308
(lp1309
I1
ag1307
asS'c:/marmalade/7.5/modules/iwgeom/h/IwGeomSVec3.h'
p1310
(lp1311
I1
ag1307
asS'c:/marmalade/7.5/modules/iwgeom/iwgeom.mkf'
p1312
(lp1313
I1
a(dp1314
asS'c:/marmalade/7.5/modules/iwgeom/h/IwGeomSqrt.h'
p1315
(lp1316
I1
ag1307
asS'c:/marmalade/7.5/modules/iwgeom/h/IwGeomFQuat.h'
p1317
(lp1318
I1
ag1307
asS'c:/marmalade/7.5/modules/iwgeom/h/IwGeomQuat.h.tpl'
p1319
(lp1320
I1
ag1307
asS'c:/marmalade/7.5/modules/iwgeom/h/IwGeomVec2.h'
p1321
(lp1322
I1
ag1307
asS'c:/marmalade/7.5/modules/iwgeom/h/IwGeomMat.h'
p1323
(lp1324
I1
ag1307
asS'c:/marmalade/7.5/modules/iwgeom/h/IwGeomVec3.h'
p1325
(lp1326
I1
ag1307
asS'c:/marmalade/7.5/modules/iwgeom/h/IwGeomLegacy.h'
p1327
(lp1328
I1
ag1307
asS'c:/marmalade/7.5/modules/iwgeom/h/IwGeom.h'
p1329
(lp1330
I1
ag1307
asS'c:/marmalade/7.5/modules/iwgeom/h/IwGeomSQuat.h'
p1331
(lp1332
I1
ag1307
asS'c:/marmalade/7.5/modules/iwgeom/h/IwGeomFBBox.h'
p1333
(lp1334
I1
ag1307
asS'c:/marmalade/7.5/modules/iwgeom/h/IwGeomFMat.h'
p1335
(lp1336
I1
ag1307
asS'c:/marmalade/7.5/modules/iwgeom/h/IwGeomPlane.h'
p1337
(lp1338
I1
ag1307
asS'c:/marmalade/7.5/modules/iwgeom/h/IwGeomMat2D.h'
p1339
(lp1340
I1
ag1307
asS'c:/marmalade/7.5/modules/iwgeom/h/IwGeomFVec2.h'
p1341
(lp1342
I1
ag1307
asS'c:/marmalade/7.5/modules/iwgeom/h/IwGeomSVec4.h'
p1343
(lp1344
I1
ag1307
asS'c:/marmalade/7.5/modules/iwgeom/h/IwGeomVec4.h'
p1345
(lp1346
I1
ag1307
asS'c:/marmalade/7.5/modules/iwgeom/h/IwGeomCore.h'
p1347
(lp1348
I1
ag1307
asS'c:/marmalade/7.5/modules/iwgeom/h/IwGeomVec.h.tpl'
p1349
(lp1350
I1
ag1307
asS'c:/marmalade/7.5/modules/iwgeom/h/IwGeomVec.h'
p1351
(lp1352
I1
ag1307
asS'c:/marmalade/7.5/modules/iwgeom/h/IwGeomIntersect.h'
p1353
(lp1354
I1
ag1307
asS'c:/marmalade/7.5/modules/iwgeom/h/IwGeomFVec4.h'
p1355
(lp1356
I1
ag1307
asS'c:/marmalade/7.5/modules/iwgeom/h/IwGeomMat.h.tpl'
p1357
(lp1358
I1
ag1307
asS'c:/marmalade/7.5/modules/iwgeom/h/IwGeomMat2D.h.tpl'
p1359
(lp1360
I1
ag1307
asS'c:/marmalade/7.5/modules/iwgeom/h/IwGeomFMat2D.h'
p1361
(lp1362
I1
ag1307
asS'c:/marmalade/7.5/modules/iwgeom/h/IwGeomMenu.h'
p1363
(lp1364
I1
ag1307
asS'c:/marmalade/7.5/modules/iwgeom/h/IwGeomBBox.h'
p1365
(lp1366
I1
ag1307
asS'c:/marmalade/7.5/modules/iwgeom/h/IwGeomFSphere.h'
p1367
(lp1368
I1
ag1307
asS'c:/marmalade/7.5/modules/iwgeom/h/IwGeomFVec3.h'
p1369
(lp1370
I1
ag1307
asS'c:/marmalade/7.5/modules/iwgeom/h/IwGeomFPlane.h'
p1371
(lp1372
I1
ag1307
asS'c:/marmalade/7.5/modules/iwgeom/docs/iwgeom.config.txt'
p1373
(lp1374
I1
ag1307
asS'c:/marmalade/7.5/modules/iwgeom/h/IwGeomQuat.h'
p1375
(lp1376
I1
ag1307
asS'c:/marmalade/7.5/modules/iwgeom/h/IwGeomFIntersect.h'
p1377
(lp1378
I1
ag1307
assS'iwresmanager'
p1379
(dp1380
S'c:/marmalade/7.5/modules/iwresmanager/h/IwResHandlerITX.h'
p1381
(lp1382
I1
a(dp1383
asS'c:/marmalade/7.5/modules/iwresmanager/h/IwResSerialise.h'
p1384
(lp1385
I1
ag1383
asS'c:/marmalade/7.5/modules/iwresmanager/h/IwResManagerClass.h'
p1386
(lp1387
I1
ag1383
asS'c:/marmalade/7.5/modules/iwresmanager/h/IwResHandlerGROUP.h'
p1388
(lp1389
I1
ag1383
asS'c:/marmalade/7.5/modules/iwresmanager/h/IwResManager.h'
p1390
(lp1391
I1
ag1383
asS'c:/marmalade/7.5/modules/iwresmanager/iwresmanager.mkf'
p1392
(lp1393
I1
a(dp1394
asS'c:/marmalade/7.5/modules/iwresmanager/docs/iwresmanager.config.txt'
p1395
(lp1396
I1
ag1383
asS'c:/marmalade/7.5/modules/iwresmanager/h/IwResGroup.h'
p1397
(lp1398
I1
ag1383
asS'c:/marmalade/7.5/modules/iwresmanager/h/IwResHandler.h'
p1399
(lp1400
I1
ag1383
asS'c:/marmalade/7.5/modules/iwresmanager/h/IwResHandlerImage.h'
p1401
(lp1402
I1
ag1383
assS'iwgx'
p1403
(dp1404
S'c:/marmalade/7.5/modules/iwgx/h/IwDebugPrim.h'
p1405
(lp1406
I1
a(dp1407
asS'c:/marmalade/7.5/modules/iwgx/h/IwMatAnim.h'
p1408
(lp1409
I1
ag1407
asS'c:/marmalade/7.5/modules/iwgx/h/IwTexture.h'
p1410
(lp1411
I1
ag1407
asS'c:/marmalade/7.5/modules/iwgx/h/IwGxFuncTable.h'
p1412
(lp1413
I1
ag1407
asS'c:/marmalade/7.5/modules/iwgx/h/IwResHandlerMTL.h'
p1414
(lp1415
I1
ag1407
asS'c:/marmalade/7.5/modules/iwgx/h/IwGxPrint.h'
p1416
(lp1417
I1
ag1407
asS'c:/marmalade/7.5/modules/iwgx/h/IwGxStream.h'
p1418
(lp1419
I1
ag1407
asS'c:/marmalade/7.5/modules/iwgx/h/IwClip.h'
p1420
(lp1421
I1
ag1407
asS'c:/marmalade/7.5/modules/iwgx/h/IwGxSurface.h'
p1422
(lp1423
I1
ag1407
asS'c:/marmalade/7.5/modules/iwgx/h/IwGxError.h'
p1424
(lp1425
I1
ag1407
asS'c:/marmalade/7.5/modules/iwgx/h/IwGx.h'
p1426
(lp1427
I1
ag1407
asS'c:/marmalade/7.5/modules/iwgx/docs/iwgx_public.defines.txt'
p1428
(lp1429
I1
ag1407
asS'c:/marmalade/7.5/modules/iwgx/h/IwGxDebug.h'
p1430
(lp1431
I1
ag1407
asS'c:/marmalade/7.5/modules/iwgx/h/IwGxShaderTechnique.h'
p1432
(lp1433
I1
ag1407
asS'c:/marmalade/7.5/modules/iwgx/h/IwGxTransformSW.h'
p1434
(lp1435
I1
ag1407
asS'c:/marmalade/7.5/modules/iwgx/h/IwMaterial.h'
p1436
(lp1437
I1
ag1407
asS'c:/marmalade/7.5/modules/iwgx/h/IwGxMetrics.h'
p1438
(lp1439
I1
ag1407
asS'c:/marmalade/7.5/modules/iwgx/h/IwClip.inl'
p1440
(lp1441
I1
ag1407
asS'c:/marmalade/7.5/modules/iwgx/h/IwFColour.h'
p1442
(lp1443
I1
ag1407
asS'c:/marmalade/7.5/modules/iwgx/h/IwGxTypes.h'
p1444
(lp1445
I1
ag1407
asS'c:/marmalade/7.5/modules/iwgx/iwgx.mkf'
p1446
(lp1447
I1
a(dp1448
asS'c:/marmalade/7.5/modules/iwgx/docs/iwgx.config.txt'
p1449
(lp1450
I1
ag1407
asS'c:/marmalade/7.5/modules/iwgx/h/IwColour.h'
p1451
(lp1452
I1
ag1407
asS'c:/marmalade/7.5/modules/iwgx/h/IwGxState.h'
p1453
(lp1454
I1
ag1407
asS'c:/marmalade/7.5/modules/iwgx/h/IwTPage.h'
p1455
(lp1456
I1
ag1407
assS'iw2dscenegraphcore'
p1457
(dp1458
S'c:/marmalade/7.5/modules/iw2dscenegraphcore/iw2dscenegraphcore.mkf'
p1459
(lp1460
I1
a(dp1461
asS'c:/marmalade/7.5/modules/iw2dscenegraphcore/h/Iw2DSceneGraphCore.h'
p1462
(lp1463
I1
a(dp1464
asS'c:/marmalade/7.5/modules/iw2dscenegraphcore/source/Iw2DSceneGraphCore.cpp'
p1465
(lp1466
I1
ag1464
assS'iwutil'
p1467
(dp1468
S'c:/marmalade/7.5/modules/iwutil/h/IwSingleton.h'
p1469
(lp1470
I1
a(dp1471
asS'c:/marmalade/7.5/modules/iwutil/h/IwMath.h'
p1472
(lp1473
I1
ag1471
asS'c:/marmalade/7.5/modules/iwutil/h/IwBuffer.h'
p1474
(lp1475
I1
ag1471
asS'c:/marmalade/7.5/modules/iwutil/h/IwCore.h'
p1476
(lp1477
I1
ag1471
asS'c:/marmalade/7.5/modules/iwutil/h/IwDivide.h'
p1478
(lp1479
I1
ag1471
asS'c:/marmalade/7.5/modules/iwutil/h/IwMemory.h'
p1480
(lp1481
I1
ag1471
asS'c:/marmalade/7.5/modules/iwutil/h/IwImageHelper.h'
p1482
(lp1483
I1
ag1471
asS'c:/marmalade/7.5/modules/iwutil/h/IwManagedList.h'
p1484
(lp1485
I1
ag1471
asS'c:/marmalade/7.5/modules/iwutil/h/IwProfileMenu.h'
p1486
(lp1487
I1
ag1471
asS'c:/marmalade/7.5/modules/iwutil/h/IwClassFactory.h'
p1488
(lp1489
I1
ag1471
asS'c:/marmalade/7.5/modules/iwutil/h/IwDivTable.h'
p1490
(lp1491
I1
ag1471
asS'c:/marmalade/7.5/modules/iwutil/h/IwManaged.h'
p1492
(lp1493
I1
ag1471
asS'c:/marmalade/7.5/modules/iwutil/h/IwTextParseable.h'
p1494
(lp1495
I1
ag1471
asS'c:/marmalade/7.5/modules/iwutil/h/IwChar.h'
p1496
(lp1497
I1
ag1471
asS'c:/marmalade/7.5/modules/iwutil/h/IwRandom.h'
p1498
(lp1499
I1
ag1471
asS'c:/marmalade/7.5/modules/iwutil/h/IwDebug.h'
p1500
(lp1501
I1
ag1471
asS'c:/marmalade/7.5/modules/iwutil/h/IwUTF8.h'
p1502
(lp1503
I1
ag1471
asS'c:/marmalade/7.5/modules/iwutil/docs/iwutil.config.txt'
p1504
(lp1505
I1
ag1471
asS'c:/marmalade/7.5/modules/iwutil/h/IwAllocator.h'
p1506
(lp1507
I1
ag1471
asS'c:/marmalade/7.5/modules/iwutil/h/IwMemBucketHelpers.h'
p1508
(lp1509
I1
ag1471
asS'c:/marmalade/7.5/modules/iwutil/h/IwTextParserITX.h'
p1510
(lp1511
I1
ag1471
asS'c:/marmalade/7.5/modules/iwutil/h/IwKeymap.h'
p1512
(lp1513
I1
ag1471
asS'c:/marmalade/7.5/modules/iwutil/h/IwImage.h'
p1514
(lp1515
I1
ag1471
asS'c:/marmalade/7.5/modules/iwutil/h/IwOptimiseARM.h'
p1516
(lp1517
I1
ag1471
asS'c:/marmalade/7.5/modules/iwutil/h/IwMemBucket.h'
p1518
(lp1519
I1
ag1471
asS'c:/marmalade/7.5/modules/iwutil/h/IwOptimiseSize.h'
p1520
(lp1521
I1
ag1471
asS'c:/marmalade/7.5/modules/iwutil/h/IwRuntime.h'
p1522
(lp1523
I1
ag1471
asS'c:/marmalade/7.5/modules/iwutil/h/IwMemManagerDL.h'
p1524
(lp1525
I1
ag1471
asS'c:/marmalade/7.5/modules/iwutil/h/IwPath.h'
p1526
(lp1527
I1
ag1471
asS'c:/marmalade/7.5/modules/iwutil/h/IwOptimiseSpeed.h'
p1528
(lp1529
I1
ag1471
asS'c:/marmalade/7.5/modules/iwutil/h/IwList.h'
p1530
(lp1531
I1
ag1471
asS'c:/marmalade/7.5/modules/iwutil/h/IwAutoFile.h'
p1532
(lp1533
I1
ag1471
asS'c:/marmalade/7.5/modules/iwutil/h/IwVariableBitField.h'
p1534
(lp1535
I1
ag1471
asS'c:/marmalade/7.5/modules/iwutil/h/IwHashString.h'
p1536
(lp1537
I1
ag1471
asS'c:/marmalade/7.5/modules/iwutil/h/IwOptimiseThumb.h'
p1538
(lp1539
I1
ag1471
asS'c:/marmalade/7.5/modules/iwutil/iwutil.mkf'
p1540
(lp1541
I1
a(dp1542
asS'c:/marmalade/7.5/modules/iwutil/h/IwUtil.h'
p1543
(lp1544
I1
ag1471
asS'c:/marmalade/7.5/modules/iwutil/h/IwString.h'
p1545
(lp1546
I1
ag1471
asS'c:/marmalade/7.5/modules/iwutil/h/IwFile.h'
p1547
(lp1548
I1
ag1471
asS'c:/marmalade/7.5/modules/iwutil/h/IwUncopyable.h'
p1549
(lp1550
I1
ag1471
asS'c:/marmalade/7.5/modules/iwutil/h/IwTextParser.h'
p1551
(lp1552
I1
ag1471
asS'c:/marmalade/7.5/modules/iwutil/h/IwCopyingPtr.h'
p1553
(lp1554
I1
ag1471
asS'c:/marmalade/7.5/modules/iwutil/h/IwEvent.h'
p1555
(lp1556
I1
ag1471
asS'c:/marmalade/7.5/modules/iwutil/h/IwFibre.h'
p1557
(lp1558
I1
ag1471
asS'c:/marmalade/7.5/modules/iwutil/h/IwArray.h'
p1559
(lp1560
I1
ag1471
asS'c:/marmalade/7.5/modules/iwutil/h/IwMenu.h'
p1561
(lp1562
I1
ag1471
asS'c:/marmalade/7.5/modules/iwutil/h/IwTypes.h'
p1563
(lp1564
I1
ag1471
asS'c:/marmalade/7.5/modules/iwutil/h/IwUtilInitTerm.h'
p1565
(lp1566
I1
ag1471
asS'c:/marmalade/7.5/modules/iwutil/h/IwResource.h'
p1567
(lp1568
I1
ag1471
asS'c:/marmalade/7.5/modules/iwutil/h/IwSerialise.h'
p1569
(lp1570
I1
ag1471
asssS'(zlib)'
p1571
(dp1572
g1080
(dp1573
S'c:/marmalade/7.5/modules/third_party/zlib/h/zconf.h'
p1574
(lp1575
I1
a(dp1576
asS'c:/marmalade/7.5/modules/third_party/zlib/h/zlib.h'
p1577
(lp1578
I1
ag1576
assS'c:/marmalade/7.5/modules/third_party/zlib/zlib.mkf'
p1579
(lp1580
I1
a(dp1581
assS'(iwtween)'
p1582
(dp1583
S'c:/marmalade/7.5/modules/iwtween/h/IwTween.h'
p1584
(lp1585
I1
a(dp1586
asS'c:/marmalade/7.5/modules/iwtween/source/IwTween.cpp'
p1587
(lp1588
I1
ag1586
asS'c:/marmalade/7.5/modules/iwtween/iwtween.mkf'
p1589
(lp1590
I1
a(dp1591
assS'(s3e-default)'
p1592
(dp1593
S'c:/marmalade/7.5/s3e/s3e-default.mkf'
p1594
(lp1595
I1
a(dp1596
asssS'files'
p1597
(dp1598
S'IwGxFontPreparedData.h'
p1599
g327
(cmkb_main
File
p1600
g329
Ntp1601
Rp1602
(dp1603
S'flags'
p1604
g1285
sS'group'
p1605
(lp1606
S"'Marmalade Studio'"
p1607
ag1281
asg353
g1297
sbsS'iterator'
p1608
g327
(g1600
g329
Ntp1609
Rp1610
(dp1611
g1604
(dp1612
sg1605
(lp1613
S"'Marmalade System (S3E)'"
p1614
aS'stdc headers'
p1615
aS'c++'
p1616
asg353
S'c:/marmalade/7.5/s3e/h/std/c++/iterator'
p1617
sbsS'IwGL.h'
p1618
g327
(g1600
g329
Ntp1619
Rp1620
(dp1621
g1604
g1264
sg1605
(lp1622
S"'Marmalade Studio'"
p1623
ag1257
asg353
g1262
sbsS's3e.h'
p1624
g327
(g1600
g329
Ntp1625
Rp1626
(dp1627
g1604
g1612
sg1605
(lp1628
g1614
asg353
S'c:/marmalade/7.5/s3e/h/s3e.h'
p1629
sbsS'errno.h'
p1630
g327
(g1600
g329
Ntp1631
Rp1632
(dp1633
g1604
g1612
sg1605
(lp1634
g1614
aS'stdc headers'
p1635
asg353
S'c:/marmalade/7.5/s3e/h/std/errno.h'
p1636
sbsS'IwSingleton.h'
p1637
g327
(g1600
g329
Ntp1638
Rp1639
(dp1640
g1604
g1471
sg1605
(lp1641
S"'Marmalade Studio'"
p1642
ag1467
asg353
g1469
sbsS'dlfcn.h'
p1643
g327
(g1600
g329
Ntp1644
Rp1645
(dp1646
g1604
g1612
sg1605
g1634
sg353
S'c:/marmalade/7.5/s3e/h/std/dlfcn.h'
p1647
sbsS'IwSoundWAV.cpp'
p1648
g327
(g1600
g329
Ntp1649
Rp1650
(dp1651
g1604
g1139
sg1605
(lp1652
g1135
asg353
g1162
sbsS'sched.h'
p1653
g327
(g1600
g329
Ntp1654
Rp1655
(dp1656
g1604
g1612
sg1605
g1634
sg353
S'c:/marmalade/7.5/s3e/h/std/sched.h'
p1657
sbsS'IwSoundPCM.h'
p1658
g327
(g1600
g329
Ntp1659
Rp1660
(dp1661
g1604
g1139
sg1605
g1652
sg353
g1180
sbsS'IwGeomFMat2D.h'
p1662
g327
(g1600
g329
Ntp1663
Rp1664
(dp1665
g1604
g1307
sg1605
(lp1666
S"'Marmalade Studio'"
p1667
ag1303
asg353
g1361
sbsS'cassert'
p1668
g327
(g1600
g329
Ntp1669
Rp1670
(dp1671
g1604
g1612
sg1605
g1613
sg353
S'c:/marmalade/7.5/s3e/h/std/c++/cassert'
p1672
sbsS'grp.h'
p1673
g327
(g1600
g329
Ntp1674
Rp1675
(dp1676
g1604
g1612
sg1605
g1634
sg353
S'c:/marmalade/7.5/s3e/h/std/grp.h'
p1677
sbsS'list'
p1678
g327
(g1600
g329
Ntp1679
Rp1680
(dp1681
g1604
g1612
sg1605
g1613
sg353
S'c:/marmalade/7.5/s3e/h/std/c++/list'
p1682
sbsS'IwSoundSpec.cpp'
p1683
g327
(g1600
g329
Ntp1684
Rp1685
(dp1686
g1604
g1139
sg1605
g1652
sg353
g1168
sbsS'IwGeomMat.h.tpl'
p1687
g327
(g1600
g329
Ntp1688
Rp1689
(dp1690
g1604
g1307
sg1605
g1666
sg353
g1357
sbsS'istream'
p1691
g327
(g1600
g329
Ntp1692
Rp1693
(dp1694
g1604
g1612
sg1605
g1613
sg353
S'c:/marmalade/7.5/s3e/h/std/c++/istream'
p1695
sbsS'jpeglib.h'
p1696
g327
(g1600
g329
Ntp1697
Rp1698
(dp1699
g1604
g1098
sg1605
(lp1700
g1090
ag1080
asg353
g1123
sbsS'iw2d_public.defines.txt'
p1701
g327
(g1600
g329
Ntp1702
Rp1703
(dp1704
g1604
g1273
sg1605
(lp1705
S"'Marmalade Studio'"
p1706
ag1269
asg353
g1271
sbsS'iostream.h'
p1707
g327
(g1600
g329
Ntp1708
Rp1709
(dp1710
g1604
g1612
sg1605
g1613
sg353
S'c:/marmalade/7.5/s3e/h/std/c++/iostream.h'
p1711
sbsS'IwSoundADPCM.h'
p1712
g327
(g1600
g329
Ntp1713
Rp1714
(dp1715
g1604
g1139
sg1605
g1652
sg353
g1140
sbsS'string'
p1716
g327
(g1600
g329
Ntp1717
Rp1718
(dp1719
g1604
g1612
sg1605
g1613
sg353
S'c:/marmalade/7.5/s3e/h/std/c++/string'
p1720
sbsS'IwMemory.h'
p1721
g327
(g1600
g329
Ntp1722
Rp1723
(dp1724
g1604
g1471
sg1605
g1641
sg353
g1480
sbsS'IwGeomPlane.h'
p1725
g327
(g1600
g329
Ntp1726
Rp1727
(dp1728
g1604
g1307
sg1605
g1666
sg353
g1337
sbsS'iw2d.config.txt'
p1729
g327
(g1600
g329
Ntp1730
Rp1731
(dp1732
g1604
g1273
sg1605
g1705
sg353
g1274
sbsS'iomanip'
p1733
g327
(g1600
g329
Ntp1734
Rp1735
(dp1736
g1604
g1612
sg1605
g1613
sg353
S'c:/marmalade/7.5/s3e/h/std/c++/iomanip'
p1737
sbsS'iwgeom.mkf'
p1738
g327
(g1600
g329
Ntp1739
Rp1740
(dp1741
g1604
g1314
sg1605
g1666
sg353
g1312
sbsS'IwGxError.h'
p1742
g327
(g1600
g329
Ntp1743
Rp1744
(dp1745
g1604
g1407
sg1605
(lp1746
S"'Marmalade Studio'"
p1747
ag1403
asg353
g1424
sbsS'IwGeom.h'
p1748
g327
(g1600
g329
Ntp1749
Rp1750
(dp1751
g1604
g1307
sg1605
g1666
sg353
g1329
sbsS'scene.cpp'
p1752
g327
(g1600
g329
Ntp1753
Rp1754
(dp1755
g1604
g1196
sg1605
(lp1756
g1192
asg353
g1221
sbsS'IwGeomVec4.h'
p1757
g327
(g1600
g329
Ntp1758
Rp1759
(dp1760
g1604
g1307
sg1605
g1666
sg353
g1345
sbsS'dir.h'
p1761
g327
(g1600
g329
Ntp1762
Rp1763
(dp1764
g1604
g1612
sg1605
(lp1765
g1614
aS'stdc headers'
p1766
aS'sys'
p1767
asg353
S'c:/marmalade/7.5/s3e/h/std/sys/dir.h'
p1768
sbsS'locale.h'
p1769
g327
(g1600
g329
Ntp1770
Rp1771
(dp1772
g1604
g1612
sg1605
g1634
sg353
S'c:/marmalade/7.5/s3e/h/std/locale.h'
p1773
sbsS'vector'
p1774
g327
(g1600
g329
Ntp1775
Rp1776
(dp1777
g1604
g1612
sg1605
g1613
sg353
S'c:/marmalade/7.5/s3e/h/std/c++/vector'
p1778
sbsS'IwManaged.h'
p1779
g327
(g1600
g329
Ntp1780
Rp1781
(dp1782
g1604
g1471
sg1605
g1641
sg353
g1492
sbsS's3eCompass.h'
p1783
g327
(g1600
g329
Ntp1784
Rp1785
(dp1786
g1604
g1612
sg1605
g1628
sg353
S'c:/marmalade/7.5/s3e/h/s3eCompass.h'
p1787
sbsS'cderror.h'
p1788
g327
(g1600
g329
Ntp1789
Rp1790
(dp1791
g1604
g1098
sg1605
g1700
sg353
g1101
sbsS'climits'
p1792
g327
(g1600
g329
Ntp1793
Rp1794
(dp1795
g1604
g1612
sg1605
g1613
sg353
S'c:/marmalade/7.5/s3e/h/std/c++/climits'
p1796
sbsS'ipc.h'
p1797
g327
(g1600
g329
Ntp1798
Rp1799
(dp1800
g1604
g1612
sg1605
g1765
sg353
S'c:/marmalade/7.5/s3e/h/std/sys/ipc.h'
p1801
sbsS'jversion.h'
p1802
g327
(g1600
g329
Ntp1803
Rp1804
(dp1805
g1604
g1098
sg1605
g1700
sg353
g1119
sbsS'fnmatch.h'
p1806
g327
(g1600
g329
Ntp1807
Rp1808
(dp1809
g1604
g1612
sg1605
g1634
sg353
S'c:/marmalade/7.5/s3e/h/std/fnmatch.h'
p1810
sbsS'IwGxState.h'
p1811
g327
(g1600
g329
Ntp1812
Rp1813
(dp1814
g1604
g1407
sg1605
g1746
sg353
g1453
sbsS'rope'
p1815
g327
(g1600
g329
Ntp1816
Rp1817
(dp1818
g1604
g1612
sg1605
g1613
sg353
S'c:/marmalade/7.5/s3e/h/std/c++/rope'
p1819
sbsS's3eAudio.h'
p1820
g327
(g1600
g329
Ntp1821
Rp1822
(dp1823
g1604
g1612
sg1605
g1628
sg353
S'c:/marmalade/7.5/s3e/h/s3eAudio.h'
p1824
sbsS's3eSurface.h'
p1825
g327
(g1600
g329
Ntp1826
Rp1827
(dp1828
g1604
g1612
sg1605
g1628
sg353
S'c:/marmalade/7.5/s3e/h/s3eSurface.h'
p1829
sbsS'new'
p1830
g327
(g1600
g329
Ntp1831
Rp1832
(dp1833
g1604
g1612
sg1605
g1613
sg353
S'c:/marmalade/7.5/s3e/h/std/c++/new'
p1834
sbsS's3eWindow.h'
p1835
g327
(g1600
g329
Ntp1836
Rp1837
(dp1838
g1604
g1612
sg1605
(lp1839
g1614
aS'Extensions'
p1840
asg353
S'c:/marmalade/7.5/s3e/h/ext/s3eWindow.h'
p1841
sbsS'IwBuffer.h'
p1842
g327
(g1600
g329
Ntp1843
Rp1844
(dp1845
g1604
g1471
sg1605
g1641
sg353
g1474
sbsS'stdio_streambuf'
p1846
g327
(g1600
g329
Ntp1847
Rp1848
(dp1849
g1604
g1612
sg1605
g1613
sg353
S'c:/marmalade/7.5/s3e/h/std/c++/stdio_streambuf'
p1850
sbsS'IwGeomQuat.h.tpl'
p1851
g327
(g1600
g329
Ntp1852
Rp1853
(dp1854
g1604
g1307
sg1605
g1666
sg353
g1319
sbsS's3eOSExec.h'
p1855
g327
(g1600
g329
Ntp1856
Rp1857
(dp1858
g1604
g1612
sg1605
g1839
sg353
S'c:/marmalade/7.5/s3e/h/ext/s3eOSExec.h'
p1859
sbsS'IwGxTransformSW.h'
p1860
g327
(g1600
g329
Ntp1861
Rp1862
(dp1863
g1604
g1407
sg1605
g1746
sg353
g1434
sbsS'IwGxMetrics.h'
p1864
g327
(g1600
g329
Ntp1865
Rp1866
(dp1867
g1604
g1407
sg1605
g1746
sg353
g1438
sbsS'iwgxfont.config.txt'
p1868
g327
(g1600
g329
Ntp1869
Rp1870
(dp1871
g1604
g1285
sg1605
g1606
sg353
g1288
sbsS'gl2platform.h'
p1872
g327
(g1600
g329
Ntp1873
Rp1874
(dp1875
g1604
g1612
sg1605
(lp1876
g1614
aS'GL'
p1877
aS'GLES 2.0'
p1878
asg353
S'c:/marmalade/7.5/s3e/h/GLES2/gl2platform.h'
p1879
sbsS'IwResManagerClass.h'
p1880
g327
(g1600
g329
Ntp1881
Rp1882
(dp1883
g1604
g1383
sg1605
(lp1884
g1243
ag1379
asg353
g1386
sbsS'queue'
p1885
g327
(g1600
g329
Ntp1886
Rp1887
(dp1888
g1604
g1612
sg1605
g1613
sg353
S'c:/marmalade/7.5/s3e/h/std/c++/queue'
p1889
sbsS'time_1.h'
p1890
g327
(g1600
g329
Ntp1891
Rp1892
(dp1893
g1604
g1612
sg1605
g1765
sg353
S'c:/marmalade/7.5/s3e/h/std/sys/time.h'
p1894
sbsS'Iw2D.h'
p1895
g327
(g1600
g329
Ntp1896
Rp1897
(dp1898
g1604
g1273
sg1605
g1705
sg353
g1276
sbsS'IwGeomVec2.h'
p1899
g327
(g1600
g329
Ntp1900
Rp1901
(dp1902
g1604
g1307
sg1605
g1666
sg353
g1321
sbsS'sendfile.h'
p1903
g327
(g1600
g329
Ntp1904
Rp1905
(dp1906
g1604
g1612
sg1605
g1765
sg353
S'c:/marmalade/7.5/s3e/h/std/sys/sendfile.h'
p1907
sbsS'malloc.h'
p1908
g327
(g1600
g329
Ntp1909
Rp1910
(dp1911
g1604
g1612
sg1605
g1634
sg353
S'c:/marmalade/7.5/s3e/h/std/malloc.h'
p1912
sbsS'stdarg.h'
p1913
g327
(g1600
g329
Ntp1914
Rp1915
(dp1916
g1604
g1612
sg1605
g1634
sg353
S'c:/marmalade/7.5/s3e/h/std/stdarg.h'
p1917
sbsS'IwGeomCore.h'
p1918
g327
(g1600
g329
Ntp1919
Rp1920
(dp1921
g1604
g1307
sg1605
g1666
sg353
g1347
sbsS'Iw2DSceneGraph.h'
p1922
g327
(g1600
g329
Ntp1923
Rp1924
(dp1925
g1604
g1249
sg1605
(lp1926
S"'Marmalade Studio'"
p1927
ag1245
asg353
g1252
sbsS'endian.h'
p1928
g327
(g1600
g329
Ntp1929
Rp1930
(dp1931
g1604
g1612
sg1605
g1634
sg353
S'c:/marmalade/7.5/s3e/h/std/endian.h'
p1932
sbsS'gl3ext.h'
p1933
g327
(g1600
g329
Ntp1934
Rp1935
(dp1936
g1604
g1612
sg1605
(lp1937
g1614
aS'GL'
p1938
aS'GLES 3.0'
p1939
asg353
S'c:/marmalade/7.5/s3e/h/GLES3/gl3ext.h'
p1940
sbsS'glob.h'
p1941
g327
(g1600
g329
Ntp1942
Rp1943
(dp1944
g1604
g1612
sg1605
g1634
sg353
S'c:/marmalade/7.5/s3e/h/std/glob.h'
p1945
sbsS'fstream'
p1946
g327
(g1600
g329
Ntp1947
Rp1948
(dp1949
g1604
g1612
sg1605
g1613
sg353
S'c:/marmalade/7.5/s3e/h/std/c++/fstream'
p1950
sbsS's3eCamera.h'
p1951
g327
(g1600
g329
Ntp1952
Rp1953
(dp1954
g1604
g1612
sg1605
g1628
sg353
S'c:/marmalade/7.5/s3e/h/s3eCamera.h'
p1955
sbsS'jconfig.h'
p1956
g327
(g1600
g329
Ntp1957
Rp1958
(dp1959
g1604
g1098
sg1605
g1700
sg353
g1121
sbsS'memory'
p1960
g327
(g1600
g329
Ntp1961
Rp1962
(dp1963
g1604
g1612
sg1605
g1613
sg353
S'c:/marmalade/7.5/s3e/h/std/c++/memory'
p1964
sbsS'egl.h'
p1965
g327
(g1600
g329
Ntp1966
Rp1967
(dp1968
g1604
g1612
sg1605
(lp1969
g1614
aS'GL'
p1970
aS'EGL'
p1971
asg353
S'c:/marmalade/7.5/s3e/h/EGL/egl.h'
p1972
sbsS'egl_1.h'
p1973
g327
(g1600
g329
Ntp1974
Rp1975
(dp1976
g1604
g1612
sg1605
(lp1977
g1614
aS'GL'
p1978
aS'GLES 1.x'
p1979
asg353
S'c:/marmalade/7.5/s3e/h/GLES/egl.h'
p1980
sbsS'IwMemManagerDL.h'
p1981
g327
(g1600
g329
Ntp1982
Rp1983
(dp1984
g1604
g1471
sg1605
g1641
sg353
g1524
sbsS'deque'
p1985
g327
(g1600
g329
Ntp1986
Rp1987
(dp1988
g1604
g1612
sg1605
g1613
sg353
S'c:/marmalade/7.5/s3e/h/std/c++/deque'
p1989
sbsS'IwString.h'
p1990
g327
(g1600
g329
Ntp1991
Rp1992
(dp1993
g1604
g1471
sg1605
g1641
sg353
g1545
sbsS'cwchar'
p1994
g327
(g1600
g329
Ntp1995
Rp1996
(dp1997
g1604
g1612
sg1605
g1613
sg353
S'c:/marmalade/7.5/s3e/h/std/c++/cwchar'
p1998
sbsS'iwutil.mkf'
p1999
g327
(g1600
g329
Ntp2000
Rp2001
(dp2002
g1604
g1542
sg1605
g1641
sg353
g1540
sbsS'csignal'
p2003
g327
(g1600
g329
Ntp2004
Rp2005
(dp2006
g1604
g1612
sg1605
g1613
sg353
S'c:/marmalade/7.5/s3e/h/std/c++/csignal'
p2007
sbsS'float.h'
p2008
g327
(g1600
g329
Ntp2009
Rp2010
(dp2011
g1604
g1612
sg1605
g1634
sg353
S'c:/marmalade/7.5/s3e/h/std/float.h'
p2012
sbsS'pthread_alloc'
p2013
g327
(g1600
g329
Ntp2014
Rp2015
(dp2016
g1604
g1612
sg1605
g1613
sg353
S'c:/marmalade/7.5/s3e/h/std/c++/pthread_alloc'
p2017
sbsS'getopt.h'
p2018
g327
(g1600
g329
Ntp2019
Rp2020
(dp2021
g1604
g1612
sg1605
g1634
sg353
S'c:/marmalade/7.5/s3e/h/std/getopt.h'
p2022
sbsS'IwOptimiseARM.h'
p2023
g327
(g1600
g329
Ntp2024
Rp2025
(dp2026
g1604
g1471
sg1605
g1641
sg353
g1516
sbsS'times.h'
p2027
g327
(g1600
g329
Ntp2028
Rp2029
(dp2030
g1604
g1612
sg1605
g1765
sg353
S'c:/marmalade/7.5/s3e/h/std/sys/times.h'
p2031
sbsS'IwGeomFSphere.h'
p2032
g327
(g1600
g329
Ntp2033
Rp2034
(dp2035
g1604
g1307
sg1605
g1666
sg353
g1367
sbsS'game.h'
p2036
g327
(g1600
g329
Ntp2037
Rp2038
(dp2039
g1604
g1196
sg1605
g1756
sg353
g1219
sbsS'functional'
p2040
g327
(g1600
g329
Ntp2041
Rp2042
(dp2043
g1604
g1612
sg1605
g1613
sg353
S'c:/marmalade/7.5/s3e/h/std/c++/functional'
p2044
sbsS'IwTypes.h'
p2045
g327
(g1600
g329
Ntp2046
Rp2047
(dp2048
g1604
g1471
sg1605
g1641
sg353
g1563
sbsS'unistd.h'
p2049
g327
(g1600
g329
Ntp2050
Rp2051
(dp2052
g1604
g1612
sg1605
g1634
sg353
S'c:/marmalade/7.5/s3e/h/std/unistd.h'
p2053
sbsS'audio.cpp'
p2054
g327
(g1600
g329
Ntp2055
Rp2056
(dp2057
g1604
g1196
sg1605
g1756
sg353
g1213
sbsS's3eCompression.h'
p2058
g327
(g1600
g329
Ntp2059
Rp2060
(dp2061
g1604
g1612
sg1605
g1628
sg353
S'c:/marmalade/7.5/s3e/h/s3eCompression.h'
p2062
sbsS'langinfo.h'
p2063
g327
(g1600
g329
Ntp2064
Rp2065
(dp2066
g1604
g1612
sg1605
g1634
sg353
S'c:/marmalade/7.5/s3e/h/std/langinfo.h'
p2067
sbsS's3edebugHeap.h'
p2068
g327
(g1600
g329
Ntp2069
Rp2070
(dp2071
g1604
g1612
sg1605
g1839
sg353
S'c:/marmalade/7.5/s3e/h/ext/s3edebugHeap.h'
p2072
sbsS'AirplayVersion.h'
p2073
g327
(g1600
g329
Ntp2074
Rp2075
(dp2076
g1604
g1612
sg1605
g1628
sg353
S'c:/marmalade/7.5/s3e/h/AirplayVersion.h'
p2077
sbsS'gl2extimg.h'
p2078
g327
(g1600
g329
Ntp2079
Rp2080
(dp2081
g1604
g1612
sg1605
g1876
sg353
S'c:/marmalade/7.5/s3e/h/GLES2/gl2extimg.h'
p2082
sbsS'IwGeomSqrt.h'
p2083
g327
(g1600
g329
Ntp2084
Rp2085
(dp2086
g1604
g1307
sg1605
g1666
sg353
g1315
sbsS'tiniconv_int.h'
p2087
g327
(g1600
g329
Ntp2088
Rp2089
(dp2090
g1604
g1132
sg1605
(lp2091
g1125
asg353
g1130
sbsS'syslog.h'
p2092
g327
(g1600
g329
Ntp2093
Rp2094
(dp2095
g1604
g1612
sg1605
g1634
sg353
S'c:/marmalade/7.5/s3e/h/std/syslog.h'
p2096
sbsS'IwGxFontTypes.h'
p2097
g327
(g1600
g329
Ntp2098
Rp2099
(dp2100
g1604
g1285
sg1605
g1606
sg353
g1286
sbsS'IwGeomFIntersect.h'
p2101
g327
(g1600
g329
Ntp2102
Rp2103
(dp2104
g1604
g1307
sg1605
g1666
sg353
g1377
sbsS'hash_map'
p2105
g327
(g1600
g329
Ntp2106
Rp2107
(dp2108
g1604
g1612
sg1605
g1613
sg353
S'c:/marmalade/7.5/s3e/h/std/c++/hash_map'
p2109
sbsS's3e.mkf'
p2110
g327
(g1600
g329
Ntp2111
Rp2112
(dp2113
g1604
(dp2114
sg1605
g1628
sg353
S'c:/marmalade/7.5/s3e/s3e.mkf'
p2115
sbsS'IwGeomMat2D.h.tpl'
p2116
g327
(g1600
g329
Ntp2117
Rp2118
(dp2119
g1604
g1307
sg1605
g1666
sg353
g1359
sbsS's3eOSReadString.h'
p2120
g327
(g1600
g329
Ntp2121
Rp2122
(dp2123
g1604
g1612
sg1605
g1839
sg353
S'c:/marmalade/7.5/s3e/h/ext/s3eOSReadString.h'
p2124
sbsS'IwSound.h'
p2125
g327
(g1600
g329
Ntp2126
Rp2127
(dp2128
g1604
g1139
sg1605
g1652
sg353
g1174
sbsS'map'
p2129
g327
(g1600
g329
Ntp2130
Rp2131
(dp2132
g1604
g1612
sg1605
g1613
sg353
S'c:/marmalade/7.5/s3e/h/std/c++/map'
p2133
sbsS'iwtween.mkf'
p2134
g327
(g1600
g329
Ntp2135
Rp2136
(dp2137
g1604
g1591
sg1605
(lp2138
g1582
asg353
g1589
sbsS'IwOptimiseSpeed.h'
p2139
g327
(g1600
g329
Ntp2140
Rp2141
(dp2142
g1604
g1471
sg1605
g1641
sg353
g1528
sbsS'ostream'
p2143
g327
(g1600
g329
Ntp2144
Rp2145
(dp2146
g1604
g1612
sg1605
g1613
sg353
S'c:/marmalade/7.5/s3e/h/std/c++/ostream'
p2147
sbsS'msl_string.h'
p2148
g327
(g1600
g329
Ntp2149
Rp2150
(dp2151
g1604
g1612
sg1605
g1613
sg353
S'c:/marmalade/7.5/s3e/h/std/c++/msl_string.h'
p2152
sbsS'select.h'
p2153
g327
(g1600
g329
Ntp2154
Rp2155
(dp2156
g1604
g1612
sg1605
g1765
sg353
S'c:/marmalade/7.5/s3e/h/std/sys/select.h'
p2157
sbsS'zlib.mkf'
p2158
g327
(g1600
g329
Ntp2159
Rp2160
(dp2161
g1604
g1581
sg1605
(lp2162
g1571
asg353
g1579
sbsS'signal.h'
p2163
g327
(g1600
g329
Ntp2164
Rp2165
(dp2166
g1604
g1612
sg1605
g1634
sg353
S'c:/marmalade/7.5/s3e/h/std/signal.h'
p2167
sbsS'sigcontext.h'
p2168
g327
(g1600
g329
Ntp2169
Rp2170
(dp2171
g1604
g1612
sg1605
g1634
sg353
S'c:/marmalade/7.5/s3e/h/std/sigcontext.h'
p2172
sbsS'libpng.mkf'
p2173
g327
(g1600
g329
Ntp2174
Rp2175
(dp2176
g1604
g1089
sg1605
(lp2177
g1078
asg353
g1087
sbsS's3eClipboard.h'
p2178
g327
(g1600
g329
Ntp2179
Rp2180
(dp2181
g1604
g1612
sg1605
g1628
sg353
S'c:/marmalade/7.5/s3e/h/s3eClipboard.h'
p2182
sbsS'IwGxFuncTable.h'
p2183
g327
(g1600
g329
Ntp2184
Rp2185
(dp2186
g1604
g1407
sg1605
g1746
sg353
g1412
sbsS'IwResHandlerGROUP.h'
p2187
g327
(g1600
g329
Ntp2188
Rp2189
(dp2190
g1604
g1383
sg1605
g1884
sg353
g1388
sbsS's3eDebug.h'
p2191
g327
(g1600
g329
Ntp2192
Rp2193
(dp2194
g1604
g1612
sg1605
g1628
sg353
S'c:/marmalade/7.5/s3e/h/s3eDebug.h'
p2195
sbsS'socket.h'
p2196
g327
(g1600
g329
Ntp2197
Rp2198
(dp2199
g1604
g1612
sg1605
g1765
sg353
S'c:/marmalade/7.5/s3e/h/std/sys/socket.h'
p2200
sbsS'glext.h'
p2201
g327
(g1600
g329
Ntp2202
Rp2203
(dp2204
g1604
g1612
sg1605
g1977
sg353
S'c:/marmalade/7.5/s3e/h/GLES/glext.h'
p2205
sbsS'typeinfo.h'
p2206
g327
(g1600
g329
Ntp2207
Rp2208
(dp2209
g1604
g1612
sg1605
g1613
sg353
S'c:/marmalade/7.5/s3e/h/std/c++/typeinfo.h'
p2210
sbsS'typeinfo'
p2211
g327
(g1600
g329
Ntp2212
Rp2213
(dp2214
g1604
g1612
sg1605
g1613
sg353
S'c:/marmalade/7.5/s3e/h/std/c++/typeinfo'
p2215
sbsS'iwsound.config.txt'
p2216
g327
(g1600
g329
Ntp2217
Rp2218
(dp2219
g1604
g1139
sg1605
(lp2220
g1135
ag1146
asg353
g1148
sbsS'fstream.h'
p2221
g327
(g1600
g329
Ntp2222
Rp2223
(dp2224
g1604
g1612
sg1605
g1613
sg353
S'c:/marmalade/7.5/s3e/h/std/c++/fstream.h'
p2225
sbsS'IwGeomMat.h'
p2226
g327
(g1600
g329
Ntp2227
Rp2228
(dp2229
g1604
g1307
sg1605
g1666
sg353
g1323
sbsS's3ePointer.h'
p2230
g327
(g1600
g329
Ntp2231
Rp2232
(dp2233
g1604
g1612
sg1605
g1628
sg353
S'c:/marmalade/7.5/s3e/h/s3ePointer.h'
p2234
sbsS'IwMemBucket.h'
p2235
g327
(g1600
g329
Ntp2236
Rp2237
(dp2238
g1604
g1471
sg1605
g1641
sg353
g1518
sbsS'PVRTexTool.h'
p2239
g327
(g1600
g329
Ntp2240
Rp2241
(dp2242
g1604
g1235
sg1605
(lp2243
g1227
ag1229
asg353
g1238
sbsS's3eGL.h'
p2244
g327
(g1600
g329
Ntp2245
Rp2246
(dp2247
g1604
g1612
sg1605
g1628
sg353
S'c:/marmalade/7.5/s3e/h/s3eGL.h'
p2248
sbsS'IwGeomFVec2.h'
p2249
g327
(g1600
g329
Ntp2250
Rp2251
(dp2252
g1604
g1307
sg1605
g1666
sg353
g1341
sbsS'IwGeomSVec4.h'
p2253
g327
(g1600
g329
Ntp2254
Rp2255
(dp2256
g1604
g1307
sg1605
g1666
sg353
g1343
sbsS'poll.h'
p2257
g327
(g1600
g329
Ntp2258
Rp2259
(dp2260
g1604
g1612
sg1605
g1634
sg353
S'c:/marmalade/7.5/s3e/h/std/poll.h'
p2261
sbsS'IwMatAnim.h'
p2262
g327
(g1600
g329
Ntp2263
Rp2264
(dp2265
g1604
g1407
sg1605
g1746
sg353
g1408
sbsS'IwGeomFVec4.h'
p2266
g327
(g1600
g329
Ntp2267
Rp2268
(dp2269
g1604
g1307
sg1605
g1666
sg353
g1355
sbsS'IwGx.h'
p2270
g327
(g1600
g329
Ntp2271
Rp2272
(dp2273
g1604
g1407
sg1605
g1746
sg353
g1426
sbsS'valarray'
p2274
g327
(g1600
g329
Ntp2275
Rp2276
(dp2277
g1604
g1612
sg1605
g1613
sg353
S'c:/marmalade/7.5/s3e/h/std/c++/valarray'
p2278
sbsS'iosfwd'
p2279
g327
(g1600
g329
Ntp2280
Rp2281
(dp2282
g1604
g1612
sg1605
g1613
sg353
S'c:/marmalade/7.5/s3e/h/std/c++/iosfwd'
p2283
sbsS'gl2.h'
p2284
g327
(g1600
g329
Ntp2285
Rp2286
(dp2287
g1604
g1612
sg1605
g1876
sg353
S'c:/marmalade/7.5/s3e/h/GLES2/gl2.h'
p2288
sbsS'jpegint.h'
p2289
g327
(g1600
g329
Ntp2290
Rp2291
(dp2292
g1604
g1098
sg1605
g1700
sg353
g1113
sbsS'stdiostream.h'
p2293
g327
(g1600
g329
Ntp2294
Rp2295
(dp2296
g1604
g1612
sg1605
g1613
sg353
S'c:/marmalade/7.5/s3e/h/std/c++/stdiostream.h'
p2297
sbsS'mem.h'
p2298
g327
(g1600
g329
Ntp2299
Rp2300
(dp2301
g1604
g1612
sg1605
g1613
sg353
S'c:/marmalade/7.5/s3e/h/std/c++/mem.h'
p2302
sbsS'jerror.h'
p2303
g327
(g1600
g329
Ntp2304
Rp2305
(dp2306
g1604
g1098
sg1605
g1700
sg353
g1096
sbsS'zconf.h'
p2307
g327
(g1600
g329
Ntp2308
Rp2309
(dp2310
g1604
g1576
sg1605
(lp2311
g1571
ag1080
asg353
g1574
sbsS's3e.config.txt'
p2312
g327
(g1600
g329
Ntp2313
Rp2314
(dp2315
g1604
g1612
sg1605
g1628
sg353
S'c:/marmalade/7.5/s3e/s3e.config.txt'
p2316
sbsS'numeric'
p2317
g327
(g1600
g329
Ntp2318
Rp2319
(dp2320
g1604
g1612
sg1605
g1613
sg353
S'c:/marmalade/7.5/s3e/h/std/c++/numeric'
p2321
sbsS'utime.h'
p2322
g327
(g1600
g329
Ntp2323
Rp2324
(dp2325
g1604
g1612
sg1605
g1634
sg353
S'c:/marmalade/7.5/s3e/h/std/utime.h'
p2326
sbsS'jdhuff.h'
p2327
g327
(g1600
g329
Ntp2328
Rp2329
(dp2330
g1604
g1098
sg1605
g1700
sg353
g1099
sbsS'IwResHandlerWAV.cpp'
p2331
g327
(g1600
g329
Ntp2332
Rp2333
(dp2334
g1604
g1139
sg1605
g1652
sg353
g1142
sbsS'un.h'
p2335
g327
(g1600
g329
Ntp2336
Rp2337
(dp2338
g1604
g1612
sg1605
g1765
sg353
S'c:/marmalade/7.5/s3e/h/std/sys/un.h'
p2339
sbsS'IwImage.h'
p2340
g327
(g1600
g329
Ntp2341
Rp2342
(dp2343
g1604
g1471
sg1605
g1641
sg353
g1514
sbsS's3eImagePicker.h'
p2344
g327
(g1600
g329
Ntp2345
Rp2346
(dp2347
g1604
g1612
sg1605
g1839
sg353
S'c:/marmalade/7.5/s3e/h/ext/s3eImagePicker.h'
p2348
sbsS'stdlib.h'
p2349
g327
(g1600
g329
Ntp2350
Rp2351
(dp2352
g1604
g1612
sg1605
g1634
sg353
S'c:/marmalade/7.5/s3e/h/std/stdlib.h'
p2353
sbsS'IwCopyingPtr.h'
p2354
g327
(g1600
g329
Ntp2355
Rp2356
(dp2357
g1604
g1471
sg1605
g1641
sg353
g1553
sbsS'iostream'
p2358
g327
(g1600
g329
Ntp2359
Rp2360
(dp2361
g1604
g1612
sg1605
g1613
sg353
S'c:/marmalade/7.5/s3e/h/std/c++/iostream'
p2362
sbsS'png.h'
p2363
g327
(g1600
g329
Ntp2364
Rp2365
(dp2366
g1604
g1084
sg1605
(lp2367
g1078
ag1080
asg353
g1082
sbsS'stddef.h'
p2368
g327
(g1600
g329
Ntp2369
Rp2370
(dp2371
g1604
g1612
sg1605
g1634
sg353
S'c:/marmalade/7.5/s3e/h/std/stddef.h'
p2372
sbsS'setjmp_win32.h'
p2373
g327
(g1600
g329
Ntp2374
Rp2375
(dp2376
g1604
g1612
sg1605
g1634
sg353
S'c:/marmalade/7.5/s3e/h/std/setjmp_win32.h'
p2377
sbsS'pauseMenu.h'
p2378
g327
(g1600
g329
Ntp2379
Rp2380
(dp2381
g1604
g1196
sg1605
g1756
sg353
g1194
sbsS'IwGxPrint.h'
p2382
g327
(g1600
g329
Ntp2383
Rp2384
(dp2385
g1604
g1407
sg1605
g1746
sg353
g1416
sbsS'iwgx_public.defines.txt'
p2386
g327
(g1600
g329
Ntp2387
Rp2388
(dp2389
g1604
g1407
sg1605
g1746
sg353
g1428
sbsS'streambuf.h'
p2390
g327
(g1600
g329
Ntp2391
Rp2392
(dp2393
g1604
g1612
sg1605
g1613
sg353
S'c:/marmalade/7.5/s3e/h/std/c++/streambuf.h'
p2394
sbsS'resources.cpp'
p2395
g327
(g1600
g329
Ntp2396
Rp2397
(dp2398
g1604
g1196
sg1605
g1756
sg353
g1199
sbsS'IwGeomFPlane.h'
p2399
g327
(g1600
g329
Ntp2400
Rp2401
(dp2402
g1604
g1307
sg1605
g1666
sg353
g1371
sbsS'wchar.h'
p2403
g327
(g1600
g329
Ntp2404
Rp2405
(dp2406
g1604
g1612
sg1605
g1634
sg353
S'c:/marmalade/7.5/s3e/h/std/wchar.h'
p2407
sbsS's3eCameraCapture.h'
p2408
g327
(g1600
g329
Ntp2409
Rp2410
(dp2411
g1604
g1612
sg1605
g1839
sg353
S'c:/marmalade/7.5/s3e/h/ext/s3eCameraCapture.h'
p2412
sbsS'eglext.h'
p2413
g327
(g1600
g329
Ntp2414
Rp2415
(dp2416
g1604
g1612
sg1605
g1969
sg353
S'c:/marmalade/7.5/s3e/h/EGL/eglext.h'
p2417
sbsS'IwResHandlerImage.h'
p2418
g327
(g1600
g329
Ntp2419
Rp2420
(dp2421
g1604
g1383
sg1605
g1884
sg353
g1401
sbsS'strstream.h'
p2422
g327
(g1600
g329
Ntp2423
Rp2424
(dp2425
g1604
g1612
sg1605
g1613
sg353
S'c:/marmalade/7.5/s3e/h/std/c++/strstream.h'
p2426
sbsS'tiniconv.h'
p2427
g327
(g1600
g329
Ntp2428
Rp2429
(dp2430
g1604
g1132
sg1605
g2091
sg353
g1133
sbsS'IwGLExt.h'
p2431
g327
(g1600
g329
Ntp2432
Rp2433
(dp2434
g1604
g1264
sg1605
g1622
sg353
g1267
sbsS'app.icf'
p2435
g327
(g1600
g329
Ntp2436
Rp2437
(dp2438
g1604
(dp2439
sg1605
g4
sg353
S'c:/Marmalade/7.5/examples/GameTutorial/CPP/marm1/data/app.icf'
p2440
sbsS'IwClassFactory.h'
p2441
g327
(g1600
g329
Ntp2442
Rp2443
(dp2444
g1604
g1471
sg1605
g1641
sg353
g1488
sbsS'file.h'
p2445
g327
(g1600
g329
Ntp2446
Rp2447
(dp2448
g1604
g1612
sg1605
g1765
sg353
S'c:/marmalade/7.5/s3e/h/std/sys/file.h'
p2449
sbsS'cstring'
p2450
g327
(g1600
g329
Ntp2451
Rp2452
(dp2453
g1604
g1612
sg1605
g1613
sg353
S'c:/marmalade/7.5/s3e/h/std/c++/cstring'
p2454
sbsS'IwSoundInst.cpp'
p2455
g327
(g1600
g329
Ntp2456
Rp2457
(dp2458
g1604
g1139
sg1605
g1652
sg353
g1164
sbsS'iwutil.config.txt'
p2459
g327
(g1600
g329
Ntp2460
Rp2461
(dp2462
g1604
g1471
sg1605
g1641
sg353
g1504
sbsS's3eSMS.h'
p2463
g327
(g1600
g329
Ntp2464
Rp2465
(dp2466
g1604
g1612
sg1605
g1839
sg353
S'c:/marmalade/7.5/s3e/h/ext/s3eSMS.h'
p2467
sbsS'limits.h'
p2468
g327
(g1600
g329
Ntp2469
Rp2470
(dp2471
g1604
g1612
sg1605
g1634
sg353
S'c:/marmalade/7.5/s3e/h/std/limits.h'
p2472
sbsS'scene.h'
p2473
g327
(g1600
g329
Ntp2474
Rp2475
(dp2476
g1604
g1196
sg1605
g1756
sg353
g1217
sbsS'IwMaterial.h'
p2477
g327
(g1600
g329
Ntp2478
Rp2479
(dp2480
g1604
g1407
sg1605
g1746
sg353
g1436
sbsS'PVRTexTool_interface.cpp'
p2481
g327
(g1600
g329
Ntp2482
Rp2483
(dp2484
g1604
g1235
sg1605
(lp2485
g1227
ag1229
ag1231
asg353
g1236
sbsS'IwGxSurface.h'
p2486
g327
(g1600
g329
Ntp2487
Rp2488
(dp2489
g1604
g1407
sg1605
g1746
sg353
g1422
sbsS's3eSocket.h'
p2490
g327
(g1600
g329
Ntp2491
Rp2492
(dp2493
g1604
g1612
sg1605
g1628
sg353
S'c:/marmalade/7.5/s3e/h/s3eSocket.h'
p2494
sbsS'IwAutoFile.h'
p2495
g327
(g1600
g329
Ntp2496
Rp2497
(dp2498
g1604
g1471
sg1605
g1641
sg353
g1532
sbsS's3eVibra.h'
p2499
g327
(g1600
g329
Ntp2500
Rp2501
(dp2502
g1604
g1612
sg1605
g1628
sg353
S'c:/marmalade/7.5/s3e/h/s3eVibra.h'
p2503
sbsS'poll_1.h'
p2504
g327
(g1600
g329
Ntp2505
Rp2506
(dp2507
g1604
g1612
sg1605
g1765
sg353
S'c:/marmalade/7.5/s3e/h/std/sys/poll.h'
p2508
sbsS's3eThread.h'
p2509
g327
(g1600
g329
Ntp2510
Rp2511
(dp2512
g1604
g1612
sg1605
g1628
sg353
S'c:/marmalade/7.5/s3e/h/s3eThread.h'
p2513
sbsS'ucontext.h'
p2514
g327
(g1600
g329
Ntp2515
Rp2516
(dp2517
g1604
g1612
sg1605
g1634
sg353
S'c:/marmalade/7.5/s3e/h/std/ucontext.h'
p2518
sbsS'time.h'
p2519
g327
(g1600
g329
Ntp2520
Rp2521
(dp2522
g1604
g1612
sg1605
g1634
sg353
S'c:/marmalade/7.5/s3e/h/std/time.h'
p2523
sbsS'jchuff.h'
p2524
g327
(g1600
g329
Ntp2525
Rp2526
(dp2527
g1604
g1098
sg1605
g1700
sg353
g1115
sbsS'IwSoundPCM.cpp'
p2528
g327
(g1600
g329
Ntp2529
Rp2530
(dp2531
g1604
g1139
sg1605
g1652
sg353
g1160
sbsS's3eSoundRecord.h'
p2532
g327
(g1600
g329
Ntp2533
Rp2534
(dp2535
g1604
g1612
sg1605
g1628
sg353
S'c:/marmalade/7.5/s3e/h/s3eSoundRecord.h'
p2536
sbsS'IwFibre.h'
p2537
g327
(g1600
g329
Ntp2538
Rp2539
(dp2540
g1604
g1471
sg1605
g1641
sg353
g1557
sbsS's3eVersion.h'
p2541
g327
(g1600
g329
Ntp2542
Rp2543
(dp2544
g1604
g1612
sg1605
g1628
sg353
S'c:/marmalade/7.5/s3e/h/s3eVersion.h'
p2545
sbsS'input.cpp'
p2546
g327
(g1600
g329
Ntp2547
Rp2548
(dp2549
g1604
g1196
sg1605
g1756
sg353
g1207
sbsS'IwSoundGroup.h'
p2550
g327
(g1600
g329
Ntp2551
Rp2552
(dp2553
g1604
g1139
sg1605
g1652
sg353
g1185
sbsS'IwSoundWAV.h'
p2554
g327
(g1600
g329
Ntp2555
Rp2556
(dp2557
g1604
g1139
sg1605
g1652
sg353
g1166
sbsS'IwGxFontGlyph.h'
p2558
g327
(g1600
g329
Ntp2559
Rp2560
(dp2561
g1604
g1285
sg1605
g1606
sg353
g1283
sbsS's3eTypes.h'
p2562
g327
(g1600
g329
Ntp2563
Rp2564
(dp2565
g1604
g1612
sg1605
g1628
sg353
S'c:/marmalade/7.5/s3e/h/s3eTypes.h'
p2566
sbsS'IwSoundSpec.h'
p2567
g327
(g1600
g329
Ntp2568
Rp2569
(dp2570
g1604
g1139
sg1605
g1652
sg353
g1154
sbsS'signal_2.h'
p2571
g327
(g1600
g329
Ntp2572
Rp2573
(dp2574
g1604
g1612
sg1605
g1613
sg353
S'c:/marmalade/7.5/s3e/h/std/c++/signal.h'
p2575
sbsS'termios.h'
p2576
g327
(g1600
g329
Ntp2577
Rp2578
(dp2579
g1604
g1612
sg1605
g1634
sg353
S'c:/marmalade/7.5/s3e/h/std/termios.h'
p2580
sbsS'iw2dscenegraph.mkf'
p2581
g327
(g1600
g329
Ntp2582
Rp2583
(dp2584
g1604
g1256
sg1605
g1926
sg353
g1254
sbsS'slist'
p2585
g327
(g1600
g329
Ntp2586
Rp2587
(dp2588
g1604
g1612
sg1605
g1613
sg353
S'c:/marmalade/7.5/s3e/h/std/c++/slist'
p2589
sbsS'cstdlib'
p2590
g327
(g1600
g329
Ntp2591
Rp2592
(dp2593
g1604
g1612
sg1605
g1613
sg353
S'c:/marmalade/7.5/s3e/h/std/c++/cstdlib'
p2594
sbsS's3eLocation.h'
p2595
g327
(g1600
g329
Ntp2596
Rp2597
(dp2598
g1604
g1612
sg1605
g1628
sg353
S'c:/marmalade/7.5/s3e/h/s3eLocation.h'
p2599
sbsS'IwMemBucketHelpers.h'
p2600
g327
(g1600
g329
Ntp2601
Rp2602
(dp2603
g1604
g1471
sg1605
g1641
sg353
g1508
sbsS's3eHash.h'
p2604
g327
(g1600
g329
Ntp2605
Rp2606
(dp2607
g1604
g1612
sg1605
g1628
sg353
S'c:/marmalade/7.5/s3e/h/s3eHash.h'
p2608
sbsS'IwSoundGroup.cpp'
p2609
g327
(g1600
g329
Ntp2610
Rp2611
(dp2612
g1604
g1139
sg1605
g1652
sg353
g1137
sbsS'IwGeomFMat.h'
p2613
g327
(g1600
g329
Ntp2614
Rp2615
(dp2616
g1604
g1307
sg1605
g1666
sg353
g1335
sbsS'type_traits.h'
p2617
g327
(g1600
g329
Ntp2618
Rp2619
(dp2620
g1604
g1612
sg1605
g1613
sg353
S'c:/marmalade/7.5/s3e/h/std/c++/type_traits.h'
p2621
sbsS's3eAtomic.h'
p2622
g327
(g1600
g329
Ntp2623
Rp2624
(dp2625
g1604
g1612
sg1605
g1628
sg353
S'c:/marmalade/7.5/s3e/h/s3eAtomic.h'
p2626
sbsS'IwMenu.h'
p2627
g327
(g1600
g329
Ntp2628
Rp2629
(dp2630
g1604
g1471
sg1605
g1641
sg353
g1561
sbsS'IwResHandlerITX.h'
p2631
g327
(g1600
g329
Ntp2632
Rp2633
(dp2634
g1604
g1383
sg1605
g1884
sg353
g1381
sbsS'IwSoundData.h'
p2635
g327
(g1600
g329
Ntp2636
Rp2637
(dp2638
g1604
g1139
sg1605
g1652
sg353
g1178
sbsS'IwArray.h'
p2639
g327
(g1600
g329
Ntp2640
Rp2641
(dp2642
g1604
g1471
sg1605
g1641
sg353
g1559
sbsS'IwUTF8.h'
p2643
g327
(g1600
g329
Ntp2644
Rp2645
(dp2646
g1604
g1471
sg1605
g1641
sg353
g1502
sbsS'math_rvct.h'
p2647
g327
(g1600
g329
Ntp2648
Rp2649
(dp2650
g1604
g1612
sg1605
g1634
sg353
S'c:/marmalade/7.5/s3e/h/std/math_rvct.h'
p2651
sbsS'IwUtil.h'
p2652
g327
(g1600
g329
Ntp2653
Rp2654
(dp2655
g1604
g1471
sg1605
g1641
sg353
g1543
sbsS'IwFColour.h'
p2656
g327
(g1600
g329
Ntp2657
Rp2658
(dp2659
g1604
g1407
sg1605
g1746
sg353
g1442
sbsS'wctype.h'
p2660
g327
(g1600
g329
Ntp2661
Rp2662
(dp2663
g1604
g1612
sg1605
g1634
sg353
S'c:/marmalade/7.5/s3e/h/std/wctype.h'
p2664
sbsS'mainMenu.h'
p2665
g327
(g1600
g329
Ntp2666
Rp2667
(dp2668
g1604
g1196
sg1605
g1756
sg353
g1201
sbsS'cstddef'
p2669
g327
(g1600
g329
Ntp2670
Rp2671
(dp2672
g1604
g1612
sg1605
g1613
sg353
S'c:/marmalade/7.5/s3e/h/std/c++/cstddef'
p2673
sbsS'assert.h'
p2674
g327
(g1600
g329
Ntp2675
Rp2676
(dp2677
g1604
g1612
sg1605
g1634
sg353
S'c:/marmalade/7.5/s3e/h/std/assert.h'
p2678
sbsS'mman.h'
p2679
g327
(g1600
g329
Ntp2680
Rp2681
(dp2682
g1604
g1612
sg1605
g1765
sg353
S'c:/marmalade/7.5/s3e/h/std/sys/mman.h'
p2683
sbsS'IwRandom.h'
p2684
g327
(g1600
g329
Ntp2685
Rp2686
(dp2687
g1604
g1471
sg1605
g1641
sg353
g1498
sbsS'libgen.h'
p2688
g327
(g1600
g329
Ntp2689
Rp2690
(dp2691
g1604
g1612
sg1605
g1634
sg353
S'c:/marmalade/7.5/s3e/h/std/libgen.h'
p2692
sbsS'utsname.h'
p2693
g327
(g1600
g329
Ntp2694
Rp2695
(dp2696
g1604
g1612
sg1605
g1765
sg353
S'c:/marmalade/7.5/s3e/h/std/sys/utsname.h'
p2697
sbsS'wait.h'
p2698
g327
(g1600
g329
Ntp2699
Rp2700
(dp2701
g1604
g1612
sg1605
g1765
sg353
S'c:/marmalade/7.5/s3e/h/std/sys/wait.h'
p2702
sbsS'param.h'
p2703
g327
(g1600
g329
Ntp2704
Rp2705
(dp2706
g1604
g1612
sg1605
g1765
sg353
S'c:/marmalade/7.5/s3e/h/std/sys/param.h'
p2707
sbsS'IwDivide.h'
p2708
g327
(g1600
g329
Ntp2709
Rp2710
(dp2711
g1604
g1471
sg1605
g1641
sg353
g1478
sbsS'Iw2DSceneGraphCore.cpp'
p2712
g327
(g1600
g329
Ntp2713
Rp2714
(dp2715
g1604
g1464
sg1605
(lp2716
S"'Marmalade Studio'"
p2717
ag1457
asg353
g1465
sbsS'IwResManager.h'
p2718
g327
(g1600
g329
Ntp2719
Rp2720
(dp2721
g1604
g1383
sg1605
g1884
sg353
g1390
sbsS'IwSoundManager.h'
p2722
g327
(g1600
g329
Ntp2723
Rp2724
(dp2725
g1604
g1139
sg1605
g1652
sg353
g1158
sbsS'cwctype'
p2726
g327
(g1600
g329
Ntp2727
Rp2728
(dp2729
g1604
g1612
sg1605
g1613
sg353
S'c:/marmalade/7.5/s3e/h/std/c++/cwctype'
p2730
sbsS'set'
p2731
g327
(g1600
g329
Ntp2732
Rp2733
(dp2734
g1604
g1612
sg1605
g1613
sg353
S'c:/marmalade/7.5/s3e/h/std/c++/set'
p2735
sbsS'IwGeomSQuat.h'
p2736
g327
(g1600
g329
Ntp2737
Rp2738
(dp2739
g1604
g1307
sg1605
g1666
sg353
g1331
sbsS'locale'
p2740
g327
(g1600
g329
Ntp2741
Rp2742
(dp2743
g1604
g1612
sg1605
g1613
sg353
S'c:/marmalade/7.5/s3e/h/std/c++/locale'
p2744
sbsS'cstdio'
p2745
g327
(g1600
g329
Ntp2746
Rp2747
(dp2748
g1604
g1612
sg1605
g1613
sg353
S'c:/marmalade/7.5/s3e/h/std/c++/cstdio'
p2749
sbsS'cdjpeg.h'
p2750
g327
(g1600
g329
Ntp2751
Rp2752
(dp2753
g1604
g1098
sg1605
g1700
sg353
g1117
sbsS'audio.h'
p2754
g327
(g1600
g329
Ntp2755
Rp2756
(dp2757
g1604
g1196
sg1605
g1756
sg353
g1203
sbsS'IwList.h'
p2758
g327
(g1600
g329
Ntp2759
Rp2760
(dp2761
g1604
g1471
sg1605
g1641
sg353
g1530
sbsS'pauseMenu.cpp'
p2762
g327
(g1600
g329
Ntp2763
Rp2764
(dp2765
g1604
g1196
sg1605
g1756
sg353
g1225
sbsS'inttypes.h'
p2766
g327
(g1600
g329
Ntp2767
Rp2768
(dp2769
g1604
g1612
sg1605
g1634
sg353
S'c:/marmalade/7.5/s3e/h/std/inttypes.h'
p2770
sbsS'dirent.h'
p2771
g327
(g1600
g329
Ntp2772
Rp2773
(dp2774
g1604
g1612
sg1605
g1634
sg353
S'c:/marmalade/7.5/s3e/h/std/dirent.h'
p2775
sbsS'IwGeomVec3.h'
p2776
g327
(g1600
g329
Ntp2777
Rp2778
(dp2779
g1604
g1307
sg1605
g1666
sg353
g1325
sbsS'transupp.h'
p2780
g327
(g1600
g329
Ntp2781
Rp2782
(dp2783
g1604
g1098
sg1605
g1700
sg353
g1103
sbsS'IwMath.h'
p2784
g327
(g1600
g329
Ntp2785
Rp2786
(dp2787
g1604
g1471
sg1605
g1641
sg353
g1472
sbsS'IwGeomQuat.h'
p2788
g327
(g1600
g329
Ntp2789
Rp2790
(dp2791
g1604
g1307
sg1605
g1666
sg353
g1375
sbsS'glplatform.h'
p2792
g327
(g1600
g329
Ntp2793
Rp2794
(dp2795
g1604
g1612
sg1605
g1977
sg353
S'c:/marmalade/7.5/s3e/h/GLES/glplatform.h'
p2796
sbsS's3e-default.mkf'
p2797
g327
(g1600
g329
Ntp2798
Rp2799
(dp2800
g1604
g1596
sg1605
(lp2801
g1592
asg353
g1594
sbsS'iwgl.config.txt'
p2802
g327
(g1600
g329
Ntp2803
Rp2804
(dp2805
g1604
g1264
sg1605
g1622
sg353
g1265
sbsS'bitset'
p2806
g327
(g1600
g329
Ntp2807
Rp2808
(dp2809
g1604
g1612
sg1605
g1613
sg353
S'c:/marmalade/7.5/s3e/h/std/c++/bitset'
p2810
sbsS'alloca.h'
p2811
g327
(g1600
g329
Ntp2812
Rp2813
(dp2814
g1604
g1612
sg1605
g1634
sg353
S'c:/marmalade/7.5/s3e/h/std/alloca.h'
p2815
sbsS'IwResHandler.h'
p2816
g327
(g1600
g329
Ntp2817
Rp2818
(dp2819
g1604
g1383
sg1605
g1884
sg353
g1399
sbsS'IwResHandlerMTL.h'
p2820
g327
(g1600
g329
Ntp2821
Rp2822
(dp2823
g1604
g1407
sg1605
g1746
sg353
g1414
sbsS'IwRuntime.h'
p2824
g327
(g1600
g329
Ntp2825
Rp2826
(dp2827
g1604
g1471
sg1605
g1641
sg353
g1522
sbsS'limits'
p2828
g327
(g1600
g329
Ntp2829
Rp2830
(dp2831
g1604
g1612
sg1605
g1613
sg353
S'c:/marmalade/7.5/s3e/h/std/c++/limits'
p2832
sbsS'IwGeomBBox.h'
p2833
g327
(g1600
g329
Ntp2834
Rp2835
(dp2836
g1604
g1307
sg1605
g1666
sg353
g1365
sbsS's3eContacts.h'
p2837
g327
(g1600
g329
Ntp2838
Rp2839
(dp2840
g1604
g1612
sg1605
g1628
sg353
S'c:/marmalade/7.5/s3e/h/s3eContacts.h'
p2841
sbsS's3eLicense.h'
p2842
g327
(g1600
g329
Ntp2843
Rp2844
(dp2845
g1604
g1612
sg1605
g1628
sg353
S'c:/marmalade/7.5/s3e/h/s3eLicense.h'
p2846
sbsS'iwgx.config.txt'
p2847
g327
(g1600
g329
Ntp2848
Rp2849
(dp2850
g1604
g1407
sg1605
g1746
sg353
g1449
sbsS'IwTextParser.h'
p2851
g327
(g1600
g329
Ntp2852
Rp2853
(dp2854
g1604
g1471
sg1605
g1641
sg353
g1551
sbsS's3eTimer.h'
p2855
g327
(g1600
g329
Ntp2856
Rp2857
(dp2858
g1604
g1612
sg1605
g1628
sg353
S'c:/marmalade/7.5/s3e/h/s3eTimer.h'
p2859
sbsS'IwGeomVec.h'
p2860
g327
(g1600
g329
Ntp2861
Rp2862
(dp2863
g1604
g1307
sg1605
g1666
sg353
g1351
sbsS'IwSerialise.h'
p2864
g327
(g1600
g329
Ntp2865
Rp2866
(dp2867
g1604
g1471
sg1605
g1641
sg353
g1569
sbsS'cstdarg'
p2868
g327
(g1600
g329
Ntp2869
Rp2870
(dp2871
g1604
g1612
sg1605
g1613
sg353
S'c:/marmalade/7.5/s3e/h/std/c++/cstdarg'
p2872
sbsS'gl2ext.h'
p2873
g327
(g1600
g329
Ntp2874
Rp2875
(dp2876
g1604
g1612
sg1605
g1876
sg353
S'c:/marmalade/7.5/s3e/h/GLES2/gl2ext.h'
p2877
sbsS'IwChar.h'
p2878
g327
(g1600
g329
Ntp2879
Rp2880
(dp2881
g1604
g1471
sg1605
g1641
sg353
g1496
sbsS's3eSound.h'
p2882
g327
(g1600
g329
Ntp2883
Rp2884
(dp2885
g1604
g1612
sg1605
g1628
sg353
S'c:/marmalade/7.5/s3e/h/s3eSound.h'
p2886
sbsS'IwVariableBitField.h'
p2887
g327
(g1600
g329
Ntp2888
Rp2889
(dp2890
g1604
g1471
sg1605
g1641
sg353
g1534
sbsS'exception.h'
p2891
g327
(g1600
g329
Ntp2892
Rp2893
(dp2894
g1604
g1612
sg1605
g1613
sg353
S'c:/marmalade/7.5/s3e/h/std/c++/exception.h'
p2895
sbsS'iwgeom.config.txt'
p2896
g327
(g1600
g329
Ntp2897
Rp2898
(dp2899
g1604
g1307
sg1605
g1666
sg353
g1373
sbsS'iwgx.mkf'
p2900
g327
(g1600
g329
Ntp2901
Rp2902
(dp2903
g1604
g1448
sg1605
g1746
sg353
g1446
sbsS'gl.h'
p2904
g327
(g1600
g329
Ntp2905
Rp2906
(dp2907
g1604
g1612
sg1605
g1977
sg353
S'c:/marmalade/7.5/s3e/h/GLES/gl.h'
p2908
sbsS'zlib.h'
p2909
g327
(g1600
g329
Ntp2910
Rp2911
(dp2912
g1604
g1576
sg1605
g2311
sg353
g1577
sbsS'temp_defines_release.h'
p2913
g327
(g1600
g329
Ntp2914
Rp2915
(dp2916
g1604
(lp2917
sg1605
(lp2918
S"'generated files'"
p2919
asg353
S'c:/Marmalade/7.5/examples/GameTutorial/CPP/marm1/build_stage4_vc12/temp_defines_release.h'
p2920
sbsS'iwgl.mkf'
p2921
g327
(g1600
g329
Ntp2922
Rp2923
(dp2924
g1604
g1261
sg1605
g1622
sg353
g1259
sbsS'IwColour.h'
p2925
g327
(g1600
g329
Ntp2926
Rp2927
(dp2928
g1604
g1407
sg1605
g1746
sg353
g1451
sbsS's3eLibrary.h'
p2929
g327
(g1600
g329
Ntp2930
Rp2931
(dp2932
g1604
g1612
sg1605
g1839
sg353
S'c:/marmalade/7.5/s3e/h/ext/s3eLibrary.h'
p2933
sbsS'types.h'
p2934
g327
(g1600
g329
Ntp2935
Rp2936
(dp2937
g1604
g1612
sg1605
g1765
sg353
S'c:/marmalade/7.5/s3e/h/std/sys/types.h'
p2938
sbsS'ifaddrs.h'
p2939
g327
(g1600
g329
Ntp2940
Rp2941
(dp2942
g1604
g1612
sg1605
g1634
sg353
S'c:/marmalade/7.5/s3e/h/std/ifaddrs.h'
p2943
sbsS'strstream'
p2944
g327
(g1600
g329
Ntp2945
Rp2946
(dp2947
g1604
g1612
sg1605
g1613
sg353
S'c:/marmalade/7.5/s3e/h/std/c++/strstream'
p2948
sbsS'IwTween.cpp'
p2949
g327
(g1600
g329
Ntp2950
Rp2951
(dp2952
g1604
g1586
sg1605
g2138
sg353
g1587
sbsS'exception'
p2953
g327
(g1600
g329
Ntp2954
Rp2955
(dp2956
g1604
g1612
sg1605
g1613
sg353
S'c:/marmalade/7.5/s3e/h/std/c++/exception'
p2957
sbsS'rlocks.h'
p2958
g327
(g1600
g329
Ntp2959
Rp2960
(dp2961
g1604
g1612
sg1605
g1613
sg353
S'c:/marmalade/7.5/s3e/h/std/c++/rlocks.h'
p2962
sbsS'ioctl.h'
p2963
g327
(g1600
g329
Ntp2964
Rp2965
(dp2966
g1604
g1612
sg1605
g1765
sg353
S'c:/marmalade/7.5/s3e/h/std/sys/ioctl.h'
p2967
sbsS'sem.h'
p2968
g327
(g1600
g329
Ntp2969
Rp2970
(dp2971
g1604
g1612
sg1605
g1765
sg353
S'c:/marmalade/7.5/s3e/h/std/sys/sem.h'
p2972
sbsS'jinclude.h'
p2973
g327
(g1600
g329
Ntp2974
Rp2975
(dp2976
g1604
g1098
sg1605
g1700
sg353
g1105
sbsS'IwEvent.h'
p2977
g327
(g1600
g329
Ntp2978
Rp2979
(dp2980
g1604
g1471
sg1605
g1641
sg353
g1555
sbsS'IwOptimiseSize.h'
p2981
g327
(g1600
g329
Ntp2982
Rp2983
(dp2984
g1604
g1471
sg1605
g1641
sg353
g1520
sbsS'iwgxfont_public.defines.txt'
p2985
g327
(g1600
g329
Ntp2986
Rp2987
(dp2988
g1604
g1285
sg1605
g1606
sg353
g1301
sbsS'iconv.h'
p2989
g327
(g1600
g329
Ntp2990
Rp2991
(dp2992
g1604
g1612
sg1605
g1634
sg353
S'c:/marmalade/7.5/s3e/h/std/iconv.h'
p2993
sbsS's3eDevice.h'
p2994
g327
(g1600
g329
Ntp2995
Rp2996
(dp2997
g1604
g1612
sg1605
g1628
sg353
S'c:/marmalade/7.5/s3e/h/s3eDevice.h'
p2998
sbsS'IwGeomSphere.h'
p2999
g327
(g1600
g329
Ntp3000
Rp3001
(dp3002
g1604
g1307
sg1605
g1666
sg353
g1308
sbsS'tiniconv.mkf'
p3003
g327
(g1600
g329
Ntp3004
Rp3005
(dp3006
g1604
g1129
sg1605
g2091
sg353
g1127
sbsS'iw2dscenegraph.defines.txt'
p3007
g327
(g1600
g329
Ntp3008
Rp3009
(dp3010
g1604
g1249
sg1605
g1926
sg353
g1250
sbsS'jdct.h'
p3011
g327
(g1600
g329
Ntp3012
Rp3013
(dp3014
g1604
g1098
sg1605
g1700
sg353
g1109
sbsS'cctype'
p3015
g327
(g1600
g329
Ntp3016
Rp3017
(dp3018
g1604
g1612
sg1605
g1613
sg353
S'c:/marmalade/7.5/s3e/h/std/c++/cctype'
p3019
sbsS'IwSoundADPCM.cpp'
p3020
g327
(g1600
g329
Ntp3021
Rp3022
(dp3023
g1604
g1139
sg1605
g1652
sg353
g1172
sbsS's3eConfig.h'
p3024
g327
(g1600
g329
Ntp3025
Rp3026
(dp3027
g1604
g1612
sg1605
g1628
sg353
S'c:/marmalade/7.5/s3e/h/s3eConfig.h'
p3028
sbsS'IwHashString.h'
p3029
g327
(g1600
g329
Ntp3030
Rp3031
(dp3032
g1604
g1471
sg1605
g1641
sg353
g1536
sbsS'stat.h'
p3033
g327
(g1600
g329
Ntp3034
Rp3035
(dp3036
g1604
g1612
sg1605
g1765
sg353
S'c:/marmalade/7.5/s3e/h/std/sys/stat.h'
p3037
sbsS'byteswap.h'
p3038
g327
(g1600
g329
Ntp3039
Rp3040
(dp3041
g1604
g1612
sg1605
g1634
sg353
S'c:/marmalade/7.5/s3e/h/std/byteswap.h'
p3042
sbsS'iwresmanager.mkf'
p3043
g327
(g1600
g329
Ntp3044
Rp3045
(dp3046
g1604
g1394
sg1605
g1884
sg353
g1392
sbsS'IwUtilInitTerm.h'
p3047
g327
(g1600
g329
Ntp3048
Rp3049
(dp3050
g1604
g1471
sg1605
g1641
sg353
g1565
sbsS'pthread_1.h'
p3051
g327
(g1600
g329
Ntp3052
Rp3053
(dp3054
g1604
g1612
sg1605
g1613
sg353
S'c:/marmalade/7.5/s3e/h/std/c++/pthread.h'
p3055
sbsS'iw2d.mkf'
p3056
g327
(g1600
g329
Ntp3057
Rp3058
(dp3059
g1604
g1280
sg1605
g1705
sg353
g1278
sbsS'complex'
p3060
g327
(g1600
g329
Ntp3061
Rp3062
(dp3063
g1604
g1612
sg1605
g1613
sg353
S'c:/marmalade/7.5/s3e/h/std/c++/complex'
p3064
sbsS'game.cpp'
p3065
g327
(g1600
g329
Ntp3066
Rp3067
(dp3068
g1604
g1196
sg1605
g1756
sg353
g1223
sbsS'algorithm'
p3069
g327
(g1600
g329
Ntp3070
Rp3071
(dp3072
g1604
g1612
sg1605
g1613
sg353
S'c:/marmalade/7.5/s3e/h/std/c++/algorithm'
p3073
sbsS's3e.icf'
p3074
g327
(g1600
g329
Ntp3075
Rp3076
(dp3077
g1604
g1612
sg1605
g1628
sg353
S'c:/marmalade/7.5/s3e/s3e.icf'
p3078
sbsS'resources.h'
p3079
g327
(g1600
g329
Ntp3080
Rp3081
(dp3082
g1604
g1196
sg1605
g1756
sg353
g1215
sbsS'IwGxFontState.h'
p3083
g327
(g1600
g329
Ntp3084
Rp3085
(dp3086
g1604
g1285
sg1605
g1606
sg353
g1290
sbsS'marmaladeexampleresources.mkf'
p3087
g327
(g1600
g329
Ntp3088
Rp3089
(dp3090
g1604
g1191
sg1605
(lp3091
g1187
asg353
g1189
sbsS'stdio.h'
p3092
g327
(g1600
g329
Ntp3093
Rp3094
(dp3095
g1604
g1612
sg1605
g1634
sg353
S'c:/marmalade/7.5/s3e/h/std/stdio.h'
p3096
sbsS'jmemsys.h'
p3097
g327
(g1600
g329
Ntp3098
Rp3099
(dp3100
g1604
g1098
sg1605
g1700
sg353
g1111
sbsS'ios'
p3101
g327
(g1600
g329
Ntp3102
Rp3103
(dp3104
g1604
g1612
sg1605
g1613
sg353
S'c:/marmalade/7.5/s3e/h/std/c++/ios'
p3105
sbsS'IwTween.h'
p3106
g327
(g1600
g329
Ntp3107
Rp3108
(dp3109
g1604
g1586
sg1605
g2138
sg353
g1584
sbsS'PVRTexTool.defines.txt'
p3110
g327
(g1600
g329
Ntp3111
Rp3112
(dp3113
g1604
g1235
sg1605
g2485
sg353
g1233
sbsS'stack'
p3114
g327
(g1600
g329
Ntp3115
Rp3116
(dp3117
g1604
g1612
sg1605
g1613
sg353
S'c:/marmalade/7.5/s3e/h/std/c++/stack'
p3118
sbsS'IwSoundParams.h'
p3119
g327
(g1600
g329
Ntp3120
Rp3121
(dp3122
g1604
g1139
sg1605
g1652
sg353
g1170
sbsS'new.h'
p3123
g327
(g1600
g329
Ntp3124
Rp3125
(dp3126
g1604
g1612
sg1605
g1613
sg353
S'c:/marmalade/7.5/s3e/h/std/c++/new.h'
p3127
sbsS's3eEMail.h'
p3128
g327
(g1600
g329
Ntp3129
Rp3130
(dp3131
g1604
g1612
sg1605
g1839
sg353
S'c:/marmalade/7.5/s3e/h/ext/s3eEMail.h'
p3132
sbsS's3eVideo.h'
p3133
g327
(g1600
g329
Ntp3134
Rp3135
(dp3136
g1604
g1612
sg1605
g1628
sg353
S'c:/marmalade/7.5/s3e/h/s3eVideo.h'
p3137
sbsS'pngconf.h'
p3138
g327
(g1600
g329
Ntp3139
Rp3140
(dp3141
g1604
g1084
sg1605
g2367
sg353
g1085
sbsS'pwd.h'
p3142
g327
(g1600
g329
Ntp3143
Rp3144
(dp3145
g1604
g1612
sg1605
g1634
sg353
S'c:/marmalade/7.5/s3e/h/std/pwd.h'
p3146
sbsS'IwOptimiseThumb.h'
p3147
g327
(g1600
g329
Ntp3148
Rp3149
(dp3150
g1604
g1471
sg1605
g1641
sg353
g1538
sbsS'gl3.h'
p3151
g327
(g1600
g329
Ntp3152
Rp3153
(dp3154
g1604
g1612
sg1605
g1937
sg353
S'c:/marmalade/7.5/s3e/h/GLES3/gl3.h'
p3155
sbsS'IwClip.h'
p3156
g327
(g1600
g329
Ntp3157
Rp3158
(dp3159
g1604
g1407
sg1605
g1746
sg353
g1420
sbsS'IwSoundInst.h'
p3160
g327
(g1600
g329
Ntp3161
Rp3162
(dp3163
g1604
g1139
sg1605
g1652
sg353
g1150
sbsS'iwresmanager.config.txt'
p3164
g327
(g1600
g329
Ntp3165
Rp3166
(dp3167
g1604
g1383
sg1605
g1884
sg353
g1395
sbsS'IwGxShaderTechnique.h'
p3168
g327
(g1600
g329
Ntp3169
Rp3170
(dp3171
g1604
g1407
sg1605
g1746
sg353
g1432
sbsS'IwCore.h'
p3172
g327
(g1600
g329
Ntp3173
Rp3174
(dp3175
g1604
g1471
sg1605
g1641
sg353
g1476
sbsS'cfloat'
p3176
g327
(g1600
g329
Ntp3177
Rp3178
(dp3179
g1604
g1612
sg1605
g1613
sg353
S'c:/marmalade/7.5/s3e/h/std/c++/cfloat'
p3180
sbsS'IwGeomMat2D.h'
p3181
g327
(g1600
g329
Ntp3182
Rp3183
(dp3184
g1604
g1307
sg1605
g1666
sg353
g1339
sbsS'IwAllocator.h'
p3185
g327
(g1600
g329
Ntp3186
Rp3187
(dp3188
g1604
g1471
sg1605
g1641
sg353
g1506
sbsS'IwPath.h'
p3189
g327
(g1600
g329
Ntp3190
Rp3191
(dp3192
g1604
g1471
sg1605
g1641
sg353
g1526
sbsS'iwgxfont.mkf'
p3193
g327
(g1600
g329
Ntp3194
Rp3195
(dp3196
g1604
g1296
sg1605
g1606
sg353
g1294
sbsS'IwTexture.h'
p3197
g327
(g1600
g329
Ntp3198
Rp3199
(dp3200
g1604
g1407
sg1605
g1746
sg353
g1410
sbsS'IwGeomVec.h.tpl'
p3201
g327
(g1600
g329
Ntp3202
Rp3203
(dp3204
g1604
g1307
sg1605
g1666
sg353
g1349
sbsS's3eAccelerometer.h'
p3205
g327
(g1600
g329
Ntp3206
Rp3207
(dp3208
g1604
g1612
sg1605
g1628
sg353
S'c:/marmalade/7.5/s3e/h/s3eAccelerometer.h'
p3209
sbsS'setjmp.h'
p3210
g327
(g1600
g329
Ntp3211
Rp3212
(dp3213
g1604
g1612
sg1605
g1634
sg353
S'c:/marmalade/7.5/s3e/h/std/setjmp.h'
p3214
sbsS'IwSoundParams.cpp'
p3215
g327
(g1600
g329
Ntp3216
Rp3217
(dp3218
g1604
g1139
sg1605
g1652
sg353
g1156
sbsS'IwFile.h'
p3219
g327
(g1600
g329
Ntp3220
Rp3221
(dp3222
g1604
g1471
sg1605
g1641
sg353
g1547
sbsS'IwTextParseable.h'
p3223
g327
(g1600
g329
Ntp3224
Rp3225
(dp3226
g1604
g1471
sg1605
g1641
sg353
g1494
sbsS'istream.h'
p3227
g327
(g1600
g329
Ntp3228
Rp3229
(dp3230
g1604
g1612
sg1605
g1613
sg353
S'c:/marmalade/7.5/s3e/h/std/c++/istream.h'
p3231
sbsS'stdint.h'
p3232
g327
(g1600
g329
Ntp3233
Rp3234
(dp3235
g1604
g1612
sg1605
g1634
sg353
S'c:/marmalade/7.5/s3e/h/std/stdint.h'
p3236
sbsS'semaphore.h'
p3237
g327
(g1600
g329
Ntp3238
Rp3239
(dp3240
g1604
g1612
sg1605
g1634
sg353
S'c:/marmalade/7.5/s3e/h/std/semaphore.h'
p3241
sbsS'ctime'
p3242
g327
(g1600
g329
Ntp3243
Rp3244
(dp3245
g1604
g1612
sg1605
g1613
sg353
S'c:/marmalade/7.5/s3e/h/std/c++/ctime'
p3246
sbsS'sstream'
p3247
g327
(g1600
g329
Ntp3248
Rp3249
(dp3250
g1604
g1612
sg1605
g1613
sg353
S'c:/marmalade/7.5/s3e/h/std/c++/sstream'
p3251
sbsS'IwGeomFBBox.h'
p3252
g327
(g1600
g329
Ntp3253
Rp3254
(dp3255
g1604
g1307
sg1605
g1666
sg353
g1333
sbsS'IwDebugPrim.h'
p3256
g327
(g1600
g329
Ntp3257
Rp3258
(dp3259
g1604
g1407
sg1605
g1746
sg353
g1405
sbsS'IwGxFontContainer.h'
p3260
g327
(g1600
g329
Ntp3261
Rp3262
(dp3263
g1604
g1285
sg1605
g1606
sg353
g1292
sbsS'IwGeomSVec3.h'
p3264
g327
(g1600
g329
Ntp3265
Rp3266
(dp3267
g1604
g1307
sg1605
g1666
sg353
g1310
sbsS'iw2dscenegraphcore.mkf'
p3268
g327
(g1600
g329
Ntp3269
Rp3270
(dp3271
g1604
g1461
sg1605
g2716
sg353
g1459
sbsS's3eExt.h'
p3272
g327
(g1600
g329
Ntp3273
Rp3274
(dp3275
g1604
g1612
sg1605
g1628
sg353
S'c:/marmalade/7.5/s3e/h/s3eExt.h'
p3276
sbsS'IwGeomFVec3.h'
p3277
g327
(g1600
g329
Ntp3278
Rp3279
(dp3280
g1604
g1307
sg1605
g1666
sg353
g1369
sbsS'streambuf'
p3281
g327
(g1600
g329
Ntp3282
Rp3283
(dp3284
g1604
g1612
sg1605
g1613
sg353
S'c:/marmalade/7.5/s3e/h/std/c++/streambuf'
p3285
sbsS's3eMetrics.h'
p3286
g327
(g1600
g329
Ntp3287
Rp3288
(dp3289
g1604
g1612
sg1605
g1839
sg353
S'c:/marmalade/7.5/s3e/h/ext/s3eMetrics.h'
p3290
sbsS'IwGxFont.h'
p3291
g327
(g1600
g329
Ntp3292
Rp3293
(dp3294
g1604
g1285
sg1605
g1606
sg353
g1299
sbsS's3eSecureStorage.h'
p3295
g327
(g1600
g329
Ntp3296
Rp3297
(dp3298
g1604
g1612
sg1605
g1628
sg353
S'c:/marmalade/7.5/s3e/h/s3eSecureStorage.h'
p3299
sbsS'string.h'
p3300
g327
(g1600
g329
Ntp3301
Rp3302
(dp3303
g1604
g1612
sg1605
g1634
sg353
S'c:/marmalade/7.5/s3e/h/std/string.h'
p3304
sbsS'IwResource.h'
p3305
g327
(g1600
g329
Ntp3306
Rp3307
(dp3308
g1604
g1471
sg1605
g1641
sg353
g1567
sbsS'IwGeomSVec2.h'
p3309
g327
(g1600
g329
Ntp3310
Rp3311
(dp3312
g1604
g1307
sg1605
g1666
sg353
g1305
sbsS'libjpeg.mkf'
p3313
g327
(g1600
g329
Ntp3314
Rp3315
(dp3316
g1604
g1094
sg1605
(lp3317
g1090
asg353
g1092
sbsS'IwGxDebug.h'
p3318
g327
(g1600
g329
Ntp3319
Rp3320
(dp3321
g1604
g1407
sg1605
g1746
sg353
g1430
sbsS'pthread_types.h'
p3322
g327
(g1600
g329
Ntp3323
Rp3324
(dp3325
g1604
g1612
sg1605
g1634
sg353
S'c:/marmalade/7.5/s3e/h/std/pthread_types.h'
p3326
sbsS'iomanip.h'
p3327
g327
(g1600
g329
Ntp3328
Rp3329
(dp3330
g1604
g1612
sg1605
g1613
sg353
S'c:/marmalade/7.5/s3e/h/std/c++/iomanip.h'
p3331
sbsS'IwKeymap.h'
p3332
g327
(g1600
g329
Ntp3333
Rp3334
(dp3335
g1604
g1471
sg1605
g1641
sg353
g1512
sbsS'IwDebug.h'
p3336
g327
(g1600
g329
Ntp3337
Rp3338
(dp3339
g1604
g1471
sg1605
g1641
sg353
g1500
sbsS's3eIOSBackgroundAudio.h'
p3340
g327
(g1600
g329
Ntp3341
Rp3342
(dp3343
g1604
g1612
sg1605
g1839
sg353
S'c:/marmalade/7.5/s3e/h/ext/s3eIOSBackgroundAudio.h'
p3344
sbsS'IwGeomMenu.h'
p3345
g327
(g1600
g329
Ntp3346
Rp3347
(dp3348
g1604
g1307
sg1605
g1666
sg353
g1363
sbsS'IwDivTable.h'
p3349
g327
(g1600
g329
Ntp3350
Rp3351
(dp3352
g1604
g1471
sg1605
g1641
sg353
g1490
sbsS'ctype.h'
p3353
g327
(g1600
g329
Ntp3354
Rp3355
(dp3356
g1604
g1612
sg1605
g1634
sg353
S'c:/marmalade/7.5/s3e/h/std/ctype.h'
p3357
sbsS'mainMenu.cpp'
p3358
g327
(g1600
g329
Ntp3359
Rp3360
(dp3361
g1604
g1196
sg1605
g1756
sg353
g1205
sbsS'IwResGroup.h'
p3362
g327
(g1600
g329
Ntp3363
Rp3364
(dp3365
g1604
g1383
sg1605
g1884
sg353
g1397
sbsS'signal_1.h'
p3366
g327
(g1600
g329
Ntp3367
Rp3368
(dp3369
g1604
g1612
sg1605
g1765
sg353
S'c:/marmalade/7.5/s3e/h/std/sys/signal.h'
p3370
sbsS'IwSoundData.cpp'
p3371
g327
(g1600
g329
Ntp3372
Rp3373
(dp3374
g1604
g1139
sg1605
g1652
sg353
g1176
sbsS'main.cpp'
p3375
g327
(g1600
g329
Ntp3376
Rp3377
(dp3378
g1604
g1196
sg1605
g1756
sg353
g1209
sbsS'shm.h'
p3379
g327
(g1600
g329
Ntp3380
Rp3381
(dp3382
g1604
g1612
sg1605
g1765
sg353
S'c:/marmalade/7.5/s3e/h/std/sys/shm.h'
p3383
sbsS'IwManagedList.h'
p3384
g327
(g1600
g329
Ntp3385
Rp3386
(dp3387
g1604
g1471
sg1605
g1641
sg353
g1484
sbsS'prctl.h'
p3388
g327
(g1600
g329
Ntp3389
Rp3390
(dp3391
g1604
g1612
sg1605
g1765
sg353
S'c:/marmalade/7.5/s3e/h/std/sys/prctl.h'
p3392
sbsS'IwGxStream.h'
p3393
g327
(g1600
g329
Ntp3394
Rp3395
(dp3396
g1604
g1407
sg1605
g1746
sg353
g1418
sbsS'temp_defines_debug.h'
p3397
g327
(g1600
g329
Ntp3398
Rp3399
(dp3400
g1604
(lp3401
sg1605
(lp3402
g2919
asg353
S'c:/Marmalade/7.5/examples/GameTutorial/CPP/marm1/build_stage4_vc12/temp_defines_debug.h'
p3403
sbsS'utility'
p3404
g327
(g1600
g329
Ntp3405
Rp3406
(dp3407
g1604
g1612
sg1605
g1613
sg353
S'c:/marmalade/7.5/s3e/h/std/c++/utility'
p3408
sbsS'input.h'
p3409
g327
(g1600
g329
Ntp3410
Rp3411
(dp3412
g1604
g1196
sg1605
g1756
sg353
g1197
sbsS'IwGeomLegacy.h'
p3413
g327
(g1600
g329
Ntp3414
Rp3415
(dp3416
g1604
g1307
sg1605
g1666
sg353
g1327
sbsS'IwTPage.h'
p3417
g327
(g1600
g329
Ntp3418
Rp3419
(dp3420
g1604
g1407
sg1605
g1746
sg353
g1455
sbsS'IwResSerialise.h'
p3421
g327
(g1600
g329
Ntp3422
Rp3423
(dp3424
g1604
g1383
sg1605
g1884
sg353
g1384
sbsS's3eCrypto.h'
p3425
g327
(g1600
g329
Ntp3426
Rp3427
(dp3428
g1604
g1612
sg1605
g1628
sg353
S'c:/marmalade/7.5/s3e/h/s3eCrypto.h'
p3429
sbsS's3eKeyboard.h'
p3430
g327
(g1600
g329
Ntp3431
Rp3432
(dp3433
g1604
g1612
sg1605
g1628
sg353
S'c:/marmalade/7.5/s3e/h/s3eKeyboard.h'
p3434
sbsS'fcntl.h'
p3435
g327
(g1600
g329
Ntp3436
Rp3437
(dp3438
g1604
g1612
sg1605
g1634
sg353
S'c:/marmalade/7.5/s3e/h/std/fcntl.h'
p3439
sbsS'Iw2DSceneGraphCore.h'
p3440
g327
(g1600
g329
Ntp3441
Rp3442
(dp3443
g1604
g1464
sg1605
g2716
sg353
g1462
sbsS'memory.h'
p3444
g327
(g1600
g329
Ntp3445
Rp3446
(dp3447
g1604
g1612
sg1605
g1634
sg353
S'c:/marmalade/7.5/s3e/h/std/memory.h'
p3448
sbsS'pthread.h'
p3449
g327
(g1600
g329
Ntp3450
Rp3451
(dp3452
g1604
g1612
sg1605
g1634
sg353
S'c:/marmalade/7.5/s3e/h/std/pthread.h'
p3453
sbsS'IwGeomIntersect.h'
p3454
g327
(g1600
g329
Ntp3455
Rp3456
(dp3457
g1604
g1307
sg1605
g1666
sg353
g1353
sbsS'IwTextParserITX.h'
p3458
g327
(g1600
g329
Ntp3459
Rp3460
(dp3461
g1604
g1471
sg1605
g1641
sg353
g1510
sbsS'IwClip.inl'
p3462
g327
(g1600
g329
Ntp3463
Rp3464
(dp3465
g1604
g1407
sg1605
g1746
sg353
g1440
sbsS'Iw2DSceneGraph.cpp'
p3466
g327
(g1600
g329
Ntp3467
Rp3468
(dp3469
g1604
g1249
sg1605
g1926
sg353
g1247
sbsS'ostream.h'
p3470
g327
(g1600
g329
Ntp3471
Rp3472
(dp3473
g1604
g1612
sg1605
g1613
sg353
S'c:/marmalade/7.5/s3e/h/std/c++/ostream.h'
p3474
sbsS'stl_user_config.h'
p3475
g327
(g1600
g329
Ntp3476
Rp3477
(dp3478
g1604
g1612
sg1605
g1613
sg353
S'c:/marmalade/7.5/s3e/h/std/c++/stl_user_config.h'
p3479
sbsS'IwProfileMenu.h'
p3480
g327
(g1600
g329
Ntp3481
Rp3482
(dp3483
g1604
g1471
sg1605
g1641
sg353
g1486
sbsS'MarmaladeVersion.h'
p3484
g327
(g1600
g329
Ntp3485
Rp3486
(dp3487
g1604
g1612
sg1605
g1628
sg353
S'c:/marmalade/7.5/s3e/h/MarmaladeVersion.h'
p3488
sbsS'IwResHandlerWAV.h'
p3489
g327
(g1600
g329
Ntp3490
Rp3491
(dp3492
g1604
g1139
sg1605
g1652
sg353
g1144
sbsS'gl3platform.h'
p3493
g327
(g1600
g329
Ntp3494
Rp3495
(dp3496
g1604
g1612
sg1605
g1937
sg353
S'c:/marmalade/7.5/s3e/h/GLES3/gl3platform.h'
p3497
sbsS'ios.h'
p3498
g327
(g1600
g329
Ntp3499
Rp3500
(dp3501
g1604
g1612
sg1605
g1613
sg353
S'c:/marmalade/7.5/s3e/h/std/c++/ios.h'
p3502
sbsS'IwImageHelper.h'
p3503
g327
(g1600
g329
Ntp3504
Rp3505
(dp3506
g1604
g1471
sg1605
g1641
sg353
g1482
sbsS'hash_set'
p3507
g327
(g1600
g329
Ntp3508
Rp3509
(dp3510
g1604
g1612
sg1605
g1613
sg353
S'c:/marmalade/7.5/s3e/h/std/c++/hash_set'
p3511
sbsS'IwGeomFQuat.h'
p3512
g327
(g1600
g329
Ntp3513
Rp3514
(dp3515
g1604
g1307
sg1605
g1666
sg353
g1317
sbsS'jmorecfg.h'
p3516
g327
(g1600
g329
Ntp3517
Rp3518
(dp3519
g1604
g1098
sg1605
g1700
sg353
g1107
sbsS'eglplatform.h'
p3520
g327
(g1600
g329
Ntp3521
Rp3522
(dp3523
g1604
g1612
sg1605
g1969
sg353
S'c:/marmalade/7.5/s3e/h/EGL/eglplatform.h'
p3524
sbsS'cmath'
p3525
g327
(g1600
g329
Ntp3526
Rp3527
(dp3528
g1604
g1612
sg1605
g1613
sg353
S'c:/marmalade/7.5/s3e/h/std/c++/cmath'
p3529
sbsS'math_gcc.h'
p3530
g327
(g1600
g329
Ntp3531
Rp3532
(dp3533
g1604
g1612
sg1605
g1634
sg353
S'c:/marmalade/7.5/s3e/h/std/math_gcc.h'
p3534
sbsS's3eMemory.h'
p3535
g327
(g1600
g329
Ntp3536
Rp3537
(dp3538
g1604
g1612
sg1605
g1628
sg353
S'c:/marmalade/7.5/s3e/h/s3eMemory.h'
p3539
sbsS'strings.h'
p3540
g327
(g1600
g329
Ntp3541
Rp3542
(dp3543
g1604
g1612
sg1605
g1634
sg353
S'c:/marmalade/7.5/s3e/h/std/strings.h'
p3544
sbsS's3eFile.h'
p3545
g327
(g1600
g329
Ntp3546
Rp3547
(dp3548
g1604
g1612
sg1605
g1628
sg353
S'c:/marmalade/7.5/s3e/h/s3eFile.h'
p3549
sbsS'IwGxTypes.h'
p3550
g327
(g1600
g329
Ntp3551
Rp3552
(dp3553
g1604
g1407
sg1605
g1746
sg353
g1444
sbsS'cerrno'
p3554
g327
(g1600
g329
Ntp3555
Rp3556
(dp3557
g1604
g1612
sg1605
g1613
sg353
S'c:/marmalade/7.5/s3e/h/std/c++/cerrno'
p3558
sbsS'IwSoundManager.cpp'
p3559
g327
(g1600
g329
Ntp3560
Rp3561
(dp3562
g1604
g1139
sg1605
g1652
sg353
g1152
sbsS'main.h'
p3563
g327
(g1600
g329
Ntp3564
Rp3565
(dp3566
g1604
g1196
sg1605
g1756
sg353
g1211
sbsS'soundengine.mkf'
p3567
g327
(g1600
g329
Ntp3568
Rp3569
(dp3570
g1604
g1184
sg1605
g1652
sg353
g1182
sbsS'resource.h'
p3571
g327
(g1600
g329
Ntp3572
Rp3573
(dp3574
g1604
g1612
sg1605
g1765
sg353
S'c:/marmalade/7.5/s3e/h/std/sys/resource.h'
p3575
sbsS'clocale'
p3576
g327
(g1600
g329
Ntp3577
Rp3578
(dp3579
g1604
g1612
sg1605
g1613
sg353
S'c:/marmalade/7.5/s3e/h/std/c++/clocale'
p3580
sbsS'pvrtextool.mkf'
p3581
g327
(g1600
g329
Ntp3582
Rp3583
(dp3584
g1604
g1242
sg1605
g2243
sg353
g1240
sbsS'csetjmp'
p3585
g327
(g1600
g329
Ntp3586
Rp3587
(dp3588
g1604
g1612
sg1605
g1613
sg353
S'c:/marmalade/7.5/s3e/h/std/c++/csetjmp'
p3589
sbsS'netdb.h'
p3590
g327
(g1600
g329
Ntp3591
Rp3592
(dp3593
g1604
g1612
sg1605
g1634
sg353
S'c:/marmalade/7.5/s3e/h/std/netdb.h'
p3594
sbsS's3eAndroidJNI.h'
p3595
g327
(g1600
g329
Ntp3596
Rp3597
(dp3598
g1604
g1612
sg1605
g1839
sg353
S'c:/marmalade/7.5/s3e/h/ext/s3eAndroidJNI.h'
p3599
sbsS'stdexcept'
p3600
g327
(g1600
g329
Ntp3601
Rp3602
(dp3603
g1604
g1612
sg1605
g1613
sg353
S'c:/marmalade/7.5/s3e/h/std/c++/stdexcept'
p3604
sbsS'math.h'
p3605
g327
(g1600
g329
Ntp3606
Rp3607
(dp3608
g1604
g1612
sg1605
g1634
sg353
S'c:/marmalade/7.5/s3e/h/std/math.h'
p3609
sbsS'stdbool.h'
p3610
g327
(g1600
g329
Ntp3611
Rp3612
(dp3613
g1604
g1612
sg1605
g1634
sg353
S'c:/marmalade/7.5/s3e/h/std/stdbool.h'
p3614
sbsS'uio.h'
p3615
g327
(g1600
g329
Ntp3616
Rp3617
(dp3618
g1604
g1612
sg1605
g1765
sg353
S'c:/marmalade/7.5/s3e/h/std/sys/uio.h'
p3619
sbsS'IwUncopyable.h'
p3620
g327
(g1600
g329
Ntp3621
Rp3622
(dp3623
g1604
g1471
sg1605
g1641
sg353
g1549
sbssS'juice_build_type'
p3624
g4
sS'tests'
p3625
(lp3626
sS'project_name'
p3627
g335
sS'root_file'
p3628
g133
sS'current_root'
p3629
S'c:/Marmalade/7.5/examples/GameTutorial/CPP/marm1'
p3630
sS'dependencies'
p3631
(lp3632
sS'include_paths'
p3633
(lp3634
S'c:/marmalade/7.5/modules/iw2d/h'
p3635
aS'c:/marmalade/7.5/modules/iwgx/h'
p3636
aS'c:/marmalade/7.5/modules/iwgl/h'
p3637
aS'c:/marmalade/7.5/modules/iwutil/h'
p3638
aS'c:/marmalade/7.5/modules/third_party/libjpeg/h'
p3639
aS'c:/marmalade/7.5/modules/third_party/zlib/h'
p3640
aS'c:/marmalade/7.5/modules/third_party/libpng/h'
p3641
aS'c:/marmalade/7.5/modules/iwgeom/h'
p3642
aS'c:/marmalade/7.5/modules/iwresmanager/h'
p3643
aS'c:/marmalade/7.5/extensions/pvrtextool/h'
p3644
aS'c:/marmalade/7.5/modules/iwgxfont/h'
p3645
aS'c:/marmalade/7.5/modules/third_party/tiniconv/source'
p3646
aS'c:/marmalade/7.5/modules/iw2dscenegraph/h'
p3647
aS'c:/marmalade/7.5/modules/iw2dscenegraphcore/h'
p3648
aS'c:/marmalade/7.5/modules/iwtween/h'
p3649
aS'c:/marmalade/7.5/examples/gametutorial/cpp/modules/soundengine/h'
p3650
aS'c:/marmalade/7.5/examples/gametutorial/cpp/modules/soundengine/source'
p3651
aS'c:/marmalade/7.5/s3e/h'
p3652
aS'c:/marmalade/7.5/s3e/h/ext'
p3653
aS'c:/marmalade/7.5/s3e/h/std'
p3654
aS'c:/marmalade/7.5/s3e/h/std/c++'
p3655
aS'c:/marmalade/7.5/s3e/h/ext_legacy'
p3656
aS'c:/marmalade/7.5/s3e/h/legacy'
p3657
asS'weak_frameworks'
p3658
(lp3659
sS'extprojects'
p3660
(dp3661
sg597
(dp3662
g591
(lp3663
(S'c:/Marmalade/7.5/examples/GameTutorial/CPP/marm1/data/audio'
p3664
S'audio'
p3665
I0
tp3666
a(S'c:/Marmalade/7.5/examples/GameTutorial/CPP/marm1/data/textures'
p3667
S'textures'
p3668
I0
tp3669
a(S'c:/Marmalade/7.5/examples/GameTutorial/CPP/marm1/data/fonts'
p3670
S'fonts'
p3671
I0
tp3672
a(S'c:/Marmalade/7.5/examples/GameTutorial/CPP/marm1/data-ram/data-gles1,c:/Marmalade/7.5/examples/GameTutorial/CPP/marm1/data'
p3673
S'.'
p3674
I0
tp3675
assS'macro_types'
p3676
(dp3677
g526
I1
sg527
I0
sg528
I0
sg529
I0
sg531
I0
sg532
I0
sg533
I0
sg534
I0
sg535
I0
sg537
I0
sg538
I0
sg539
I0
sg540
I0
sg541
I0
sg543
I0
sg545
I0
sg546
I0
sg547
I0
sg548
I0
sg549
I0
sg550
I0
sg551
I0
sg552
I0
sg553
I1
sg554
I0
sg555
I0
sg556
I0
sg557
I0
sg558
I01
sg559
I1
sg560
I0
sg561
I0
sg562
I0
sg563
I0
sg564
I0
sg565
I0
sg566
I0
ssS'commands'
p3678
(lp3679
sg599
(g1071
S'VC12'
p3680
S'X86ARMAARCH64'
p3681
tp3682
sS'build_libs'
p3683
(dp3684
sg601
g0
sS'frameworks'
p3685
(lp3686
sS'environ'
p3687
(dp3688
sS'target_name_debug'
p3689
g335
sS'builders'
p3690
(dp3691
g591
(dp3692
S'.S'
p3693
(dp3694
S'gcc_aarch64'
p3695
(lp3696
S'.obj'
p3697
aS'echo AARCH64 Assembling(GCC) ${SOURCE}...'
p3698
aS'c:/marmalade/7.5/s3e\\gcc\\win32\\aarch64\\bin\\aarch64-none-elf-gcc -c -o ${TARGET} ${SOURCE}'
p3699
asS'rvct'
p3700
(lp3701
g3697
aS'echo ARM Assembling(RVCT) ${SOURCE}...'
p3702
aS'c:/marmalade/7.5/s3e\\rvct\\bin\\armasm -o ${TARGET} ${SOURCE}'
p3703
asg449
(lp3704
g3697
aS'echo ARM Assembling(GCC) ${SOURCE}...'
p3705
aS'c:/marmalade/7.5/s3e\\gcc\\win32\\arm\\bin\\arm-none-eabi-gcc -c -o ${TARGET} ${SOURCE}'
p3706
asS'ppu'
p3707
(lp3708
S'.a'
p3709
aS'echo PPU Assembling(SNC) ${SOURCE}...'
p3710
aS'c:/marmalade/7.5/s3e\\rvct\\bin\\armasm -o ${TARGET} ${SOURCE}'
p3711
assS'.s'
p3712
g3694
sS'.vp'
p3713
(lp3714
NaS'"C:/Marmalade/7.5/s3e/python/python.exe" "c:/marmalade/7.5/modules/iwgx/tools/compile_shaders.py" ${SOURCE}'
p3715
asssS'extproject_names'
p3716
(lp3717
sbtp3718
.