((dp0
S'arm_dbg_args'
p1
S'-via:"c:\\Marmalade\\7.5\\examples\\GameTutorial\\CPP\\marm1\\build_stage4_vc12\\Stage4_vc12_arm_debug.via" -qemu'
p2
sS'game-icf'
p3
S''
p4
sS'dist'
p5
NsS'csproj'
p6
g4
sS'module_path_append'
p7
NsS'global_path'
p8
S'c:\\marmalade\\7.5\\examples\\gametutorial\\cpp'
p9
sS'system_path'
p10
S'c:\\marmalade\\7.5\\s3e\\makefile_builder'
p11
sS'android_x86_dbg_args'
p12
S'../../tools/DeployTool/DeployTool.exe --dir "c:\\Marmalade\\7.5\\examples\\GameTutorial\\CPP\\marm1\\build_stage4_vc12"'
p13
sS'aarch64-arch-mod'
p14
g4
sS'no-emit'
p15
NsS'arm-float-abi'
p16
g4
sS'arm_rel_rtsm_args'
p17
S'-via:"c:\\Marmalade\\7.5\\examples\\GameTutorial\\CPP\\marm1\\build_stage4_vc12\\Stage4_vc12_arm_release.via" -qemu'
p18
sS'amd64'
p19
NsS'line-width'
p20
I80
sS'gcc_dbg_args'
p21
S'-via:"c:\\Marmalade\\7.5\\examples\\GameTutorial\\CPP\\marm1\\build_stage4_vc12\\Stage4_vc12_gcc_debug.via" -qemu'
p22
sS'android-x86'
p23
NsS'x86_dbg_exe'
p24
S'c:/marmalade/7.5/s3e\\win32\\s3e_simulator_debug.exe'
p25
sS'disable-runtime-checks'
p26
NsS'release'
p27
NsS'no-make'
p28
NsS'xcode-x86-build-settings'
p29
g4
sS'optimise-size'
p30
NsS'fat'
p31
NsS'output-name-debug'
p32
g4
sS'arm-fpu'
p33
g4
sS'proj_name'
p34
S'Stage4_vc12'
p35
sS'rvct-version'
p36
S'none'
p37
sS'compiler'
p38
g4
sS'execute'
p39
NsS'compile-static'
p40
NsS'msvc-project'
p41
NsS'buildenv'
p42
S'VC12'
p43
sS'quick'
p44
NsS'module_path'
p45
(lp46
S'c:/Marmalade/7.5/examples/GameTutorial/CPP/modules'
p47
asS'mkf_default'
p48
S's3e-default.mkf'
p49
sS'use-release-std-libs'
p50
NsS'using_perforce'
p51
I00
sS'tizen-x86'
p52
NsS'mips-s3e'
p53
NsS's3e-api-lib-name'
p54
S's3e_api_iwgl'
p55
sS'ios-no-pic'
p56
NsS'shared-arm-lib'
p57
NsS'arm-cpu'
p58
g4
sS'compile-thumb'
p59
NsS'no-ide'
p60
NsS'msvc-version'
p61
S'6.0'
p62
sS'arm'
p63
NsS'builddir'
p64
g4
sS'compile-debug-as-release'
p65
I0
sS'arm-arch'
p66
g4
sS'brief'
p67
NsS'dll'
p68
NsS'buildenv-toolset'
p69
g4
sS'version'
p70
NsS'aarch64-arch'
p71
g4
sS'ccache'
p72
I0
sS'offline'
p73
NsS'ios-version'
p74
g4
sS'hub_data'
p75
g4
sS'fake_vc_call'
p76
I01
sS'jobs'
p77
I0
sS'linkflags'
p78
NsS'gcc_aarch64_dbg_args'
p79
g13
sS'debug'
p80
NsS'xcode-build-order'
p81
g4
sS'gcc_aarch64_rel_rtsm_args'
p82
S'-via:"c:\\Marmalade\\7.5\\examples\\GameTutorial\\CPP\\marm1\\build_stage4_vc12\\Stage4_vc12_gcc_aarch64_release.via" -qemu'
p83
sS'gcc_rel_rtsm_args'
p84
S'-via:"c:\\Marmalade\\7.5\\examples\\GameTutorial\\CPP\\marm1\\build_stage4_vc12\\Stage4_vc12_gcc_release.via" -qemu'
p85
sS'done_defaults'
p86
I1
sS'path'
p87
NsS's3e-data-dir'
p88
S'c:/Marmalade/7.5/examples/GameTutorial/CPP/marm1\\data'
p89
sS'enable-exceptions'
p90
NsS'osx-dll'
p91
NsS'extension'
p92
g4
sS'no-vc6'
p93
NsS'aarch64'
p94
NsS'win32-console'
p95
NsS'dist-format'
p96
g4
sS's3e-force-arch'
p97
NsS'dump_defines'
p98
NsS'use-shared-std-libs'
p99
NsS'gcc-version'
p100
g4
sS'x86_dbg_args'
p101
S'-via:"c:\\Marmalade\\7.5\\examples\\GameTutorial\\CPP\\marm1\\build_stage4_vc12\\Stage4_vc12_debug.via"'
p102
sS'tizen_x86_dbg_args'
p103
g13
sS'arm-debugger'
p104
g4
sS'use_temp_extension'
p105
NsS'verbose'
p106
I0
sS'log'
p107
NsS'no-strip'
p108
NsS'rebuild'
p109
NsS'mips_dbg_args'
p110
g13
sS'win32-simulator-dll'
p111
NsS'strict'
p112
NsS'xcode-aarch64-build-settings'
p113
g4
sS'enable-global-path'
p114
NsS'gcc_aarch64_rel_args'
p115
g13
sS'cflags'
p116
NsS'dist-dir'
p117
g4
sS'xcode-arm-build-settings'
p118
g4
sS'jflags'
p119
NsS'csprojSDKRefs'
p120
g4
sS'tizen_x86_rel_exe'
p121
S'c:\\marmalade\\7.5\\s3e\\makefile_builder\\tool_launcher.exe'
p122
sS'test-assets'
p123
S'Default'
p124
sS'distcc'
p125
NsS'external-compiler'
p126
NsS'no-distcc'
p127
NsS'preinclude'
p128
NsS'using_sdk'
p129
I01
sS'nologo'
p130
NsS'warn-level'
p131
I2
sS'mips_dbg_exe'
p132
g122
sS'mkb_in'
p133
S'c:/Marmalade/7.5/examples/GameTutorial/CPP/marm1/Stage4.mkb'
p134
sS'tizen_x86_dbg_exe'
p135
g122
sS'arm_dbg_exe'
p136
S'c:/marmalade/7.5/s3e\\bin\\armdebug.exe'
p137
sS'mdev-first'
p138
NsS'csprojDLLRef'
p139
NsS'tizen_x86_rel_args'
p140
g13
sS'android_x86_dbg_exe'
p141
g122
sS'test-config'
p142
g4
sS'list-targets'
p143
NsS'arm_rel_exe'
p144
g122
sS'arm_rel_args'
p145
g13
sS'makedeps'
p146
NsS'android_x86_rel_exe'
p147
g122
sS'default-buildenv'
p148
S'VC12'
p149
sS'x86_rel_exe'
p150
g25
sS'preprocess-java'
p151
NsS'mips_rel_args'
p152
g13
sS'defines'
p153
NsS'lib'
p154
NsS'non-interactive'
p155
NsS'global_argv'
p156
(lp157
S'C:\\Marmalade\\7.5\\s3e\\makefile_builder\\mkb.py'
p158
aS'C:/Marmalade/7.5/examples/GameTutorial/CPP/marm1/Stage4.mkb'
p159
aS'--buildenv=VC12'
p160
aS'--test-assets'
p161
ag124
aS'--fake-vc-call'
p162
asS'make'
p163
NsS'optimise-speed'
p164
NsS'internal'
p165
NsS'enable-stdinc'
p166
NsS'deploy-only'
p167
NsS'x86'
p168
NsS'deploy'
p169
g4
sS'x86_run_exe'
p170
S'c:/marmalade/7.5/s3e\\win32\\s3e_console.exe'
p171
sS'cxxflags'
p172
NsS'x86_rel_args'
p173
S'-via:"c:\\Marmalade\\7.5\\examples\\GameTutorial\\CPP\\marm1\\build_stage4_vc12\\Stage4_vc12_release.via"'
p174
sS'gcc_rel_args'
p175
g13
sS'mips'
p176
NsS'xcode-build-settings'
p177
g4
sS'incredibuild'
p178
NsS'strict-compile'
p179
NsS'use-auto-subdirs'
p180
NsS'mips_rel_exe'
p181
g122
sS'android_x86_rel_args'
p182
g13
sS'app-icf'
p183
g4
sS'deployargs'
p184
NsS'iosnativedebug'
p185
NsS'use_prebuilt'
p186
NsS'mkf_in'
p187
(lp188
S'c:\\marmalade\\7.5\\s3e\\s3e-default.mkf'
p189
aS'c:\\marmalade\\7.5\\modules\\iw2d\\iw2d.mkf'
p190
aS'c:\\marmalade\\7.5\\modules\\iwgx\\iwgx.mkf'
p191
aS'c:\\marmalade\\7.5\\modules\\iwgl\\iwgl.mkf'
p192
aS'c:\\marmalade\\7.5\\modules\\iwutil\\iwutil.mkf'
p193
aS'c:\\marmalade\\7.5\\modules\\third_party\\libjpeg\\libjpeg.mkf'
p194
aS'c:\\marmalade\\7.5\\modules\\third_party\\libpng\\libpng.mkf'
p195
aS'c:\\marmalade\\7.5\\modules\\third_party\\zlib\\zlib.mkf'
p196
aS'c:\\marmalade\\7.5\\modules\\iwgeom\\iwgeom.mkf'
p197
aS'c:\\marmalade\\7.5\\modules\\iwresmanager\\iwresmanager.mkf'
p198
aS'c:\\marmalade\\7.5\\extensions\\pvrtextool\\pvrtextool.mkf'
p199
aS'c:\\marmalade\\7.5\\modules\\iwgxfont\\iwgxfont.mkf'
p200
aS'c:\\marmalade\\7.5\\modules\\third_party\\tiniconv\\tiniconv.mkf'
p201
aS'c:\\marmalade\\7.5\\modules\\iw2dscenegraph\\iw2dscenegraph.mkf'
p202
aS'c:\\marmalade\\7.5\\modules\\iw2dscenegraphcore\\iw2dscenegraphcore.mkf'
p203
aS'c:\\marmalade\\7.5\\modules\\iwtween\\iwtween.mkf'
p204
aS'c:\\marmalade\\7.5\\examples\\gametutorial\\cpp\\modules\\soundengine\\soundengine.mkf'
p205
aS'c:\\marmalade\\7.5\\examples\\marmaladeexampleresources\\marmaladeexampleresources.mkf'
p206
asS'strict-mkb'
p207
NsS'executeargs'
p208
NsS'clean'
p209
NsS'no-asm'
p210
NsS'output-name'
p211
g4
sS'no-modules'
p212
NsS'find_define'
p213
g4
s(dp214
S'c:\\marmalade\\7.5\\s3e\\makefile_builder\\templates\\vc7_suo.pyc'
p215
F1424160376.0
sS'c:\\marmalade\\7.5\\s3e\\makefile_builder\\templates\\ws81_vcxproj.pyc'
p216
F1424160380.0
sS'c:\\marmalade\\7.5\\s3e\\makefile_builder\\plugins\\s3e_ws8.pyc'
p217
F1424160376.0
sS'c:\\marmalade\\7.5\\s3e\\makefile_builder\\templates'
p218
F1424630747.758857
sS'c:\\marmalade\\7.5\\s3e\\makefile_builder\\templates\\qmake.py'
p219
F1424159312.0
sS'c:\\marmalade\\7.5\\s3e\\makefile_builder\\templates\\vc10_user.pyc'
p220
F1424160378.0
sS'c:\\marmalade\\7.5\\s3e\\makefile_builder\\plugins'
p221
F1424631019.086376
sS'c:\\marmalade\\7.5\\s3e\\makefile_builder\\mkb_main.pyc'
p222
F1424160376.0
sS'c:\\marmalade\\7.5\\s3e\\makefile_builder\\templates\\mips_linker_script'
p223
F1424159312.0
sS'c:\\marmalade\\7.5\\s3e\\makefile_builder\\plugins\\XcodeEmitter.py'
p224
F1424159310.0
sS'c:\\marmalade\\7.5\\s3e\\makefile_builder\\mkb.py'
p225
F1424159310.0
sS'c:\\marmalade\\7.5\\s3e\\makefile_builder\\templates\\ws81_ext_sln.pyc'
p226
F1424160380.0
sS'c:\\marmalade\\7.5\\s3e\\makefile_builder\\templates\\win32_dsp.pyc'
p227
F1424160376.0
sS'c:\\marmalade\\7.5\\s3e\\makefile_builder\\templates\\ws8_csproj.pyc'
p228
F1424160380.0
sS'c:\\marmalade\\7.5\\s3e\\makefile_builder\\deployment.pyc'
p229
F1424160376.0
sS'c:\\marmalade\\7.5\\s3e\\makefile_builder\\plugins\\win32_vc6.pyc'
p230
F1424160376.0
sS'c:\\marmalade\\7.5\\s3e\\makefile_builder\\plugins\\osx_xcode.pyc'
p231
F1424160376.0
sS'c:\\marmalade\\7.5\\s3e\\makefile_builder\\plugins\\null.pyc'
p232
F1424160376.0
sS'c:\\marmalade\\7.5\\s3e\\makefile_builder\\templates\\wp81_csproj.pyc'
p233
F1424160380.0
sS'c:\\marmalade\\7.5\\s3e\\makefile_builder\\templates\\qmake_user.py'
p234
F1424159312.0
sS'c:\\marmalade\\7.5\\s3e\\makefile_builder\\templates\\vc6_opt.pyc'
p235
F1424160376.0
sS'c:\\marmalade\\7.5\\s3e\\makefile_builder\\plugins\\vc7_utils.pyc'
p236
F1424160376.0
sS'c:\\marmalade\\7.5\\s3e\\makefile_builder\\templates\\wp81_vcxproj.pyc'
p237
F1424160380.0
sS'c:\\marmalade\\7.5\\s3e\\makefile_builder\\templates\\win32_vcxproj.pyc'
p238
F1424160378.0
sS'c:\\marmalade\\7.5\\s3e\\makefile_builder\\templates\\ws8_ext_sln.pyc'
p239
F1424160380.0
sS'c:\\marmalade\\7.5\\s3e\\makefile_builder\\templates\\ws8_ext_csproj.pyc'
p240
F1424160380.0
sS'c:\\marmalade\\7.5\\s3e\\makefile_builder\\templates\\wp8_ext_csproj.pyc'
p241
F1424160378.0
sS'c:\\marmalade\\7.5\\s3e\\makefile_builder\\plugins\\s3e_wp8.pyc'
p242
F1424160376.0
sS'c:\\marmalade\\7.5\\s3e\\makefile_builder\\templates\\ws81_csproj.pyc'
p243
F1424160380.0
sS'c:\\marmalade\\7.5\\s3e\\makefile_builder\\docs\\deprecated.options.txt'
p244
F1424159310.0
sS'c:\\marmalade\\7.5\\s3e\\makefile_builder\\plugins\\s3e_make.pyc'
p245
F1424160376.0
sS'c:\\marmalade\\7.5\\s3e\\makefile_builder\\templates\\win8_ext_csproj.pyc'
p246
F1424160378.0
sS'c:\\marmalade\\7.5\\s3e\\makefile_builder\\mkb_parser.pyc'
p247
F1424160376.0
sS'c:\\marmalade\\7.5\\s3e\\makefile_builder\\plugins\\s3e_web.pyc'
p248
F1424160376.0
sS'c:\\marmalade\\7.5\\s3e\\makefile_builder\\docs\\mkb.defines.txt'
p249
F1424159310.0
sS'c:\\marmalade\\7.5\\s3e\\makefile_builder\\plugins\\osx_scons.pyc'
p250
F1424160376.0
sS'c:\\marmalade\\7.5\\s3e\\makefile_builder\\plugins\\ws81_ws81.pyc'
p251
F1424160376.0
sS'c:\\marmalade\\7.5\\s3e\\makefile_builder\\plugins\\s3e_qmake.py'
p252
F1424159312.0
sS'c:\\marmalade\\7.5\\s3e\\makefile_builder\\templates\\win8_csproj.pyc'
p253
F1424160378.0
sS'c:\\marmalade\\7.5\\s3e\\makefile_builder\\plugins\\s3e_vc6.pyc'
p254
F1424160376.0
sS'c:\\marmalade\\7.5\\s3e\\makefile_builder\\plugins\\wp81_wp81.pyc'
p255
F1424160376.0
sS'c:\\marmalade\\7.5\\s3e\\makefile_builder\\templates\\wp81_csproj_user.pyc'
p256
F1424160380.0
sS'c:\\marmalade\\7.5\\s3e\\makefile_builder\\templates\\win32_dsw.pyc'
p257
F1424160376.0
sS'c:\\marmalade\\7.5\\s3e\\makefile_builder\\templates\\xcode4.xcscheme'
p258
F1424159312.0
sS'c:\\marmalade\\7.5\\s3e\\makefile_builder\\templates\\template.opt'
p259
F1424159312.0
sS'c:\\marmalade\\7.5\\s3e\\makefile_builder\\templates\\template.suo'
p260
F1424159312.0
sS'c:\\marmalade\\7.5\\s3e\\makefile_builder\\templates\\linker_script'
p261
F1424159312.0
sS'c:\\marmalade\\7.5\\s3e\\makefile_builder\\templates\\gdb_start.txt'
p262
F1424159312.0
sS'c:\\marmalade\\7.5\\s3e\\makefile_builder\\mkb_launcher.exe'
p263
F1424159548.0
sS'c:\\marmalade\\7.5\\s3e\\makefile_builder\\templates\\scons.pyc'
p264
F1424160376.0
sS'c:\\marmalade\\7.5\\s3e\\makefile_builder\\docs\\parse_options.pyc'
p265
F1424160380.0
sS'c:\\marmalade\\7.5\\s3e\\makefile_builder\\templates\\xcode4_arm.xcscheme'
p266
F1424159312.0
sS'c:\\marmalade\\7.5\\s3e\\makefile_builder\\plugins\\VisualStudioEmitter.pyc'
p267
F1424160376.0
sS'c:\\marmalade\\7.5\\s3e\\makefile_builder\\plugins\\s3e_xcode.pyc'
p268
F1424631019.087376
sS'c:\\marmalade\\7.5\\s3e\\makefile_builder\\plugins\\Emitter.pyc'
p269
F1424160376.0
sS'c:\\marmalade\\7.5\\s3e\\makefile_builder\\templates\\ws8_sln.pyc'
p270
F1424160380.0
sS'c:\\marmalade\\7.5\\s3e\\makefile_builder\\tool_launcher.exe'
p271
F1424159548.0
sS'c:\\marmalade\\7.5\\s3e\\makefile_builder\\templates\\wp8_sln.pyc'
p272
F1424160378.0
sS'c:\\marmalade\\7.5\\s3e\\makefile_builder\\mkb_upstream.pyc'
p273
F1424160376.0
sS'c:\\marmalade\\7.5\\s3e\\makefile_builder\\templates\\ws81_csproj_user.pyc'
p274
F1424160380.0
sS'c:\\marmalade\\7.5\\s3e\\makefile_builder\\templates\\win32_sln.pyc'
p275
F1424160376.0
sS'c:\\marmalade\\7.5\\s3e\\makefile_builder\\templates\\xcode4_DeployTool.xcscheme'
p276
F1424159312.0
sS'c:\\marmalade\\7.5\\s3e\\makefile_builder\\plugins\\deploy.pyc'
p277
F1424160376.0
sS'c:\\marmalade\\7.5\\s3e\\makefile_builder\\plugins\\s3e_win8.pyc'
p278
F1424160376.0
sS'c:\\marmalade\\7.5\\s3e\\makefile_builder\\plugins\\iphone.pyc'
p279
F1424160376.0
sS'c:\\marmalade\\7.5\\s3e\\makefile_builder\\plugins\\Win8Emitter.pyc'
p280
F1424160376.0
sS'c:\\marmalade\\7.5\\s3e\\makefile_builder\\plugins\\s3e_qmake.pyc'
p281
F1424631018.9523683
sS'c:\\marmalade\\7.5\\s3e\\makefile_builder\\docs'
p282
F1424630747.7758577
sS'c:\\marmalade\\7.5\\s3e\\makefile_builder\\mkb_globals.pyc'
p283
F1424160376.0
sS'c:\\marmalade\\7.5\\s3e\\makefile_builder\\plugins\\win8_utils.pyc'
p284
F1424160376.0
sS'c:\\marmalade\\7.5\\s3e\\makefile_builder\\plugins\\xcode4_schememanagement.py'
p285
F1424159312.0
sS'c:\\marmalade\\7.5\\s3e\\makefile_builder\\templates\\wp81_ext_sln.pyc'
p286
F1424160380.0
sS'c:\\marmalade\\7.5\\s3e\\makefile_builder\\templates\\make.py'
p287
F1424159312.0
sS'c:\\marmalade\\7.5\\s3e\\makefile_builder\\templates\\ws81_ext_csproj.pyc'
p288
F1424160380.0
sS'c:\\marmalade\\7.5\\s3e\\makefile_builder\\plugins\\s3e_xcode.py'
p289
F1424159312.0
sS'c:\\marmalade\\7.5\\s3e\\makefile_builder\\plugins\\XcodeEmitter.pyc'
p290
F1424631018.8013597
sS'c:\\marmalade\\7.5\\s3e\\makefile_builder\\docs\\deployment_options.txt'
p291
F1424159310.0
sS'c:\\marmalade\\7.5\\s3e\\makefile_builder\\templates\\win8_sln.pyc'
p292
F1424160378.0
sS'c:\\marmalade\\7.5\\s3e\\makefile_builder\\plugins\\java.pyc'
p293
F1424160376.0
sS'c:\\marmalade\\7.5\\s3e\\makefile_builder\\plugins\\xcode4_schememanagement.pyc'
p294
F1424631018.80836
sS'c:\\marmalade\\7.5\\s3e\\makefile_builder\\plugins\\SConsEmitter.pyc'
p295
F1424160376.0
sS'c:\\marmalade\\7.5\\s3e\\makefile_builder\\templates\\win32_vcproj.pyc'
p296
F1424160378.0
sS'c:\\marmalade\\7.5\\s3e\\makefile_builder\\plugins\\wp8_wp8.pyc'
p297
F1424160376.0
sS'c:\\marmalade\\7.5\\s3e\\makefile_builder\\templates\\MainWindow.xib'
p298
F1424159312.0
sS'c:\\marmalade\\7.5\\s3e\\makefile_builder\\mkb_util.pyc'
p299
F1424160376.0
sS'c:\\marmalade\\7.5\\s3e\\makefile_builder\\templates\\vc8_user.pyc'
p300
F1424160378.0
sS'c:\\marmalade\\7.5\\s3e\\makefile_builder\\templates\\Info.plist'
p301
F1424159312.0
sS'c:\\marmalade\\7.5\\s3e\\makefile_builder\\templates\\wp8_csproj_user.pyc'
p302
F1424160378.0
sS'c:\\marmalade\\7.5\\s3e\\makefile_builder\\docs\\deprecated.defines.txt'
p303
F1424159310.0
sS'c:\\marmalade\\7.5\\s3e\\makefile_builder\\templates\\ws8_csproj_user.pyc'
p304
F1424160380.0
sS'c:\\marmalade\\7.5\\s3e\\makefile_builder\\plugins\\S3EEmitter.pyc'
p305
F1424160376.0
sS'c:\\marmalade\\7.5\\s3e\\makefile_builder\\templates\\rvct_linker_script'
p306
F1424159312.0
sS'c:\\marmalade\\7.5\\s3e\\makefile_builder\\templates\\xcode_pbxuser.py'
p307
F1424159312.0
sS'c:\\marmalade\\7.5\\s3e\\makefile_builder\\docs\\options.txt'
p308
F1424159310.0
sS'c:\\marmalade\\7.5\\s3e\\makefile_builder\\templates\\wp81_sln.pyc'
p309
F1424160380.0
sS'c:\\marmalade\\7.5\\s3e\\makefile_builder\\templates\\ws81_sln.pyc'
p310
F1424160380.0
sS'c:\\marmalade\\7.5\\s3e\\makefile_builder\\plugins\\vc6_utils.pyc'
p311
F1424160376.0
sS'c:\\marmalade\\7.5\\s3e\\makefile_builder\\templates\\wp81_ext_csproj.pyc'
p312
F1424160380.0
sS'c:\\marmalade\\7.5\\s3e\\makefile_builder\\plugins\\s3e_wp81.pyc'
p313
F1424160376.0
sS'c:\\marmalade\\7.5\\s3e\\makefile_builder\\templates\\aarch64_linker_script'
p314
F1424159312.0
sS'c:\\marmalade\\7.5\\s3e\\makefile_builder\\templates\\ws8_vcxproj.pyc'
p315
F1424160380.0
sS'c:\\marmalade\\7.5\\s3e\\makefile_builder\\plugins\\MakeEmitter.pyc'
p316
F1424160376.0
sS'c:\\marmalade\\7.5\\s3e\\makefile_builder\\templates\\win32_vcxproj_filters.pyc'
p317
F1424160378.0
sS'c:\\marmalade\\7.5\\s3e\\makefile_builder\\templates\\xcode.py'
p318
F1424159312.0
sS'c:\\marmalade\\7.5\\s3e\\makefile_builder\\plugins\\s3e_ws81.pyc'
p319
F1424160376.0
sS'c:\\marmalade\\7.5\\s3e\\makefile_builder\\plugins\\linux_scons.pyc'
p320
F1424160376.0
sS'c:\\marmalade\\7.5\\s3e\\makefile_builder\\templates\\win8_vcxproj.pyc'
p321
F1424160378.0
sS'c:\\marmalade\\7.5\\s3e\\makefile_builder\\plugins\\s3e_scons.pyc'
p322
F1424160376.0
sS'c:\\marmalade\\7.5\\s3e\\makefile_builder\\templates\\wp8_csproj.pyc'
p323
F1424160378.0
sS'c:\\marmalade\\7.5\\s3e\\makefile_builder\\templates\\win8_csproj_user.pyc'
p324
F1424160378.0
sS'c:\\marmalade\\7.5\\s3e\\makefile_builder\\plugins\\ws8_ws8.pyc'
p325
F1424160376.0
sS'c:\\marmalade\\7.5\\s3e\\makefile_builder\\templates\\wp8_vcxproj.pyc'
p326
F1424160378.0
sS'c:\\marmalade\\7.5\\s3e\\makefile_builder\\mkb_option.pyc'
p327
F1424160376.0
sccopy_reg
_reconstructor
p328
(cmkb_main
MkbFile
p329
c__builtin__
object
p330
Ntp331
Rp332
(dp333
g5
(lp334
sS'target_name'
p335
S'Stage4'
p336
sS'current_file'
p337
g134
sS'package_path'
p338
(lp339
sS'post_build'
p340
(lp341
(lp342
S'c:/marmalade/7.5/s3e/tools'
p343
aS'C:\\Marmalade\\7.5\\s3e\\python\\python.exe .\\process_map.py "$(TargetPath)"'
p344
aa(S'c:\\marmalade\\7.5\\s3e\\bin'
p345
S'"s3e_plink" -l "$(TargetPath)" '
p346
g168
tp347
asS'librarys'
p348
(lp349
g328
(cmkb_main
Library
p350
g330
Ntp351
Rp352
(dp353
S'name'
p354
S'vc6_compat.lib'
p355
sS'expand_name'
p356
I00
sS'include_spec_rvct_objs'
p357
(lp358
sS'include_all_objs'
p359
I00
sS'share_arm'
p360
I00
sS'arch'
p361
S'x86'
p362
sS'nodebug'
p363
I00
sg38
Nsbag328
(g350
g330
Ntp364
Rp365
(dp366
g354
S'iw2d'
p367
sg356
I01
sg357
(lp368
sg359
Nsg360
Nsg361
Nsg363
I00
sg38
Nsbag328
(g350
g330
Ntp369
Rp370
(dp371
g354
S'ATI_Compress_MT_VC7.lib'
p372
sg356
I00
sg357
g368
sg359
Nsg360
Nsg361
S'x86'
p373
sg363
I00
sg38
Nsbag328
(g350
g330
Ntp374
Rp375
(dp376
g354
S'iwgx'
p377
sg356
I01
sg357
g368
sg359
Nsg360
Nsg361
Nsg363
I00
sg38
Nsbag328
(g350
g330
Ntp378
Rp379
(dp380
g354
S'iwgl'
p381
sg356
I01
sg357
g368
sg359
Nsg360
Nsg361
Nsg363
I00
sg38
Nsbag328
(g350
g330
Ntp382
Rp383
(dp384
g354
S'iwutil'
p385
sg356
I01
sg357
g368
sg359
Nsg360
Nsg361
Nsg363
I00
sg38
Nsbag328
(g350
g330
Ntp386
Rp387
(dp388
g354
S'jpeg'
p389
sg356
I01
sg357
g368
sg359
Nsg360
Nsg361
Nsg363
I00
sg38
Nsbag328
(g350
g330
Ntp390
Rp391
(dp392
g354
S'z'
p393
sg356
I01
sg357
g368
sg359
Nsg360
Nsg361
Nsg363
I00
sg38
Nsbag328
(g350
g330
Ntp394
Rp395
(dp396
g354
S'png'
p397
sg356
I01
sg357
g368
sg359
Nsg360
Nsg361
Nsg363
I00
sg38
Nsbag328
(g350
g330
Ntp398
Rp399
(dp400
g354
S'iwgeom'
p401
sg356
I01
sg357
g368
sg359
Nsg360
Nsg361
Nsg363
I00
sg38
Nsbag328
(g350
g330
Ntp402
Rp403
(dp404
g354
S'iwresmanager'
p405
sg356
I01
sg357
g368
sg359
Nsg360
Nsg361
Nsg363
I00
sg38
Nsbag328
(g350
g330
Ntp406
Rp407
(dp408
g354
S'iwgxfont'
p409
sg356
I01
sg357
g368
sg359
Nsg360
Nsg361
Nsg363
I00
sg38
Nsbag328
(g350
g330
Ntp410
Rp411
(dp412
g354
S'tiniconv'
p413
sg356
I01
sg357
g368
sg359
Nsg360
Nsg361
Nsg363
I00
sg38
Nsbag328
(g350
g330
Ntp414
Rp415
(dp416
g354
S's3e_cpp'
p417
sg356
I01
sg357
g358
sg359
I00
sg360
I00
sg361
Nsg363
I00
sg38
Nsbag328
(g350
g330
Ntp418
Rp419
(dp420
g354
S's3e'
p421
sg356
I01
sg357
(lp422
S'iwcrt.o'
p423
asg359
I00
sg360
I00
sg361
Nsg363
I00
sg38
Nsbag328
(g350
g330
Ntp424
Rp425
(dp426
g354
g55
sg356
I01
sg357
g358
sg359
I00
sg360
I00
sg361
S'x86'
p427
sg363
I01
sg38
Nsbag328
(g350
g330
Ntp428
Rp429
(dp430
g354
g55
sg356
I01
sg357
g358
sg359
I00
sg360
I00
sg361
S'!x86'
p431
sg363
I01
sg38
Nsbag328
(g350
g330
Ntp432
Rp433
(dp434
g354
S'stdc++'
p435
sg356
I00
sg357
g358
sg359
I00
sg360
I00
sg361
S'mips'
p436
sg363
I00
sg38
Nsbag328
(g350
g330
Ntp437
Rp438
(dp439
g354
S'c'
p440
sg356
I00
sg357
g358
sg359
I00
sg360
I00
sg361
S'mips'
p441
sg363
I00
sg38
Nsbag328
(g350
g330
Ntp442
Rp443
(dp444
g354
S'm'
p445
sg356
I00
sg357
g358
sg359
I00
sg360
I00
sg361
S'mips'
p446
sg363
I00
sg38
Nsbag328
(g350
g330
Ntp447
Rp448
(dp449
g354
S'gcc'
p450
sg356
I00
sg357
g358
sg359
I00
sg360
I00
sg361
S'mips'
p451
sg363
I00
sg38
Nsbag328
(g350
g330
Ntp452
Rp453
(dp454
g354
S'stdc++'
p455
sg356
I00
sg357
g358
sg359
I00
sg360
I00
sg361
S'gcc_x86_android'
p456
sg363
I00
sg38
Nsbag328
(g350
g330
Ntp457
Rp458
(dp459
g354
g440
sg356
I00
sg357
g358
sg359
I00
sg360
I00
sg361
S'gcc_x86_android'
p460
sg363
I00
sg38
Nsbag328
(g350
g330
Ntp461
Rp462
(dp463
g354
g445
sg356
I00
sg357
g358
sg359
I00
sg360
I00
sg361
S'gcc_x86_android'
p464
sg363
I00
sg38
Nsbag328
(g350
g330
Ntp465
Rp466
(dp467
g354
g450
sg356
I00
sg357
g358
sg359
I00
sg360
I00
sg361
S'gcc_x86_android'
p468
sg363
I00
sg38
NsbasS'library_paths'
p469
(lp470
g328
(cmkb_main
LibraryPath
p471
g330
Ntp472
Rp473
(dp474
S'expand_path'
p475
I01
sg354
S'c:/marmalade/7.5/modules/iw2d'
p476
sbag328
(g471
g330
Ntp477
Rp478
(dp479
g475
I00
sg354
S'c:/marmalade/7.5/modules/iwgx/atitools'
p480
sbag328
(g471
g330
Ntp481
Rp482
(dp483
g475
I01
sg354
S'c:/marmalade/7.5/modules/iwgx'
p484
sbag328
(g471
g330
Ntp485
Rp486
(dp487
g475
I01
sg354
S'c:/marmalade/7.5/modules/iwgl'
p488
sbag328
(g471
g330
Ntp489
Rp490
(dp491
g475
I01
sg354
S'c:/marmalade/7.5/modules/iwutil'
p492
sbag328
(g471
g330
Ntp493
Rp494
(dp495
g475
I01
sg354
S'c:/marmalade/7.5/modules/third_party/libjpeg'
p496
sbag328
(g471
g330
Ntp497
Rp498
(dp499
g475
I01
sg354
S'c:/marmalade/7.5/modules/third_party/zlib'
p500
sbag328
(g471
g330
Ntp501
Rp502
(dp503
g475
I01
sg354
S'c:/marmalade/7.5/modules/third_party/libpng'
p504
sbag328
(g471
g330
Ntp505
Rp506
(dp507
g475
I01
sg354
S'c:/marmalade/7.5/modules/iwgeom'
p508
sbag328
(g471
g330
Ntp509
Rp510
(dp511
g475
I01
sg354
S'c:/marmalade/7.5/modules/iwresmanager'
p512
sbag328
(g471
g330
Ntp513
Rp514
(dp515
g475
I01
sg354
S'c:/marmalade/7.5/modules/iwgxfont'
p516
sbag328
(g471
g330
Ntp517
Rp518
(dp519
g475
I01
sg354
S'c:/marmalade/7.5/modules/third_party/tiniconv'
p520
sbag328
(g471
g330
Ntp521
Rp522
(dp523
g475
I01
sg354
S'c:/marmalade/7.5/s3e'
p524
sbasS'macros'
p525
(dp526
S'IW_USE_CALLSTACK'
p527
NsS'IW_MKF_IWGEOM'
p528
NsS'I3D_PLATFORM_S3E'
p529
NsS'IW_TRACE_CHANNEL_PVRTEXTOOL_VERBOSE'
p530
S'2'
p531
sS'IW_MKF_LIBJPEG'
p532
NsS'I3D_OS_S3E'
p533
NsS'IW_MKF_PVRTEXTOOL'
p534
NsS'IW_MKF_TINICONV'
p535
NsS'IW_APP_VERSION'
p536
S'"1.0"'
p537
sS'__S3E__'
p538
NsS'IW_MKF_IWRESMANAGER'
p539
NsS'IW_MKF_IWUTIL'
p540
NsS'IW_PLATFORM_S3E'
p541
NsS'IW_ASSERTION_CHANNEL_2D'
p542
S'1'
p543
sS'IW_APP_NAME'
p544
S'"Stage4"'
p545
sS'IW_MKF_MARMALADEEXAMPLERESOURCES'
p546
NsS'IW_MKF_IWGXFONT'
p547
NsS'IW_MKF_IWTWEEN'
p548
NsS'IW_MKF_ZLIB'
p549
NsS'IW_MKF_S3E_DEFAULT'
p550
NsS'IW_MKF_IWGX'
p551
NsS'IW_MKF_IW2DSCENEGRAPH'
p552
NsS'IW_MKF_SOUNDENGINE'
p553
NsS'IW_USE_ASSERTIONS'
p554
NsS'_CRT_SECURE_NO_DEPRECATE'
p555
NsS'IW_MKF_IWGL'
p556
NsS'IW_MKF_LIBPNG'
p557
NsS'IW_TRACE_CHANNEL_IW_2DSCENEGRAPH'
p558
g543
sS'IW_DEBUG'
p559
NsS'IW_USE_TRACING'
p560
NsS'IW_ASSERTION_CHANNEL_IW_2DSCENEGRAPH'
p561
g543
sS'IW_TRACE_CHANNEL_PVRTEXTOOL'
p562
g543
sS'IW_SDK'
p563
NsS'S3E_INCLUDE_LEGACY'
p564
NsS'IW_MKF_IW2DSCENEGRAPHCORE'
p565
NsS'IW_MKF_IW2D'
p566
NsS'IW_ASSERTION_CHANNEL_PVRTEXTOOL'
p567
g543
ssS'done_warnings'
p568
(dp569
sS'subprojects'
p570
(dp571
g191
S'iwgx'
p572
sg200
S'iwgxfont'
p573
sg189
S's3e-default.mkf'
p574
sg203
S'../iw2dscenegraphcore'
p575
sg196
S'zlib'
p576
sg198
S'iwresmanager'
p577
sg201
S'tiniconv'
p578
sg194
S'libjpeg'
p579
sg190
S'iw2d'
p580
sg206
S'../../../MarmaladeExampleResources'
p581
sg193
S'iwutil'
p582
sg204
S'iwtween'
p583
sg195
S'libpng'
p584
sg202
S'iw2dscenegraph'
p585
sg205
S'SoundEngine'
p586
sg192
S'iwgl'
p587
sg197
S'iwgeom'
p588
sg199
S'PVRTexTool'
p589
ssS'deployments'
p590
(dp591
S'Default'
p592
g328
(cdeployment
Deployment
p593
g330
Ntp594
Rp595
(dp596
S'got_version'
p597
I0
sS'assets'
p598
g592
sS'mkb'
p599
g332
sS'target'
p600
Nsg361
(lp601
sS'options'
p602
(dp603
S'iphone-link-lib'
p604
(lp605
sS'game-icf'
p606
NsS'android-tm'
p607
NsS'winmobile-icon32'
p608
NsS'ws8-logo-image150x150'
p609
NsS'wp81-logo-image150x150'
p610
NsS'android-keystore'
p611
NsS'osx-ext-dll'
p612
(lp613
S'c:/marmalade/7.5/extensions/pvrtextool/lib/osx/libPVRTexTool.dylib'
p614
asS'iphone-provisioning-profile'
p615
NsS'ws8-splash-screen-image620x300'
p616
NsS'wp81-extra-pri'
p617
(lp618
sS'ws8-ext-capabilities'
p619
(lp620
sS'android-icon-hdpi'
p621
NsS'iphone-ipad-only'
p622
NsS'iphone-splash-full-orient'
p623
NsS'wp8-tile-fliptemplate-supports-large'
p624
NsS'iphone-show-status-bar'
p625
NsS'roku-requires-mkv'
p626
NsS'long-caption'
p627
NsS'android-pkgname'
p628
NsS'wp81-publisher-display-name'
p629
NsS'blackberry-permissions-read-device-identifying-information'
p630
NsS'ws81-certificate-end-date'
p631
NsS'psp-dlgcontentid'
p632
NsS'iphone-minimum-ios-version'
p633
NsS'target-folder'
p634
NsS'tizen-dist1-CA-path'
p635
NsS'symbian-icon2-format'
p636
NsS'tizen-author-key'
p637
NsS'firefoxos-icon-128X128'
p638
NsS'iphone-region'
p639
NsS'uiq3-icon3-mask'
p640
NsS'brew-encoding'
p641
NsS'android-x86'
p642
NsS'nds-initialcode'
p643
NsS'iphone-persistent-wifi'
p644
NsS'psp-snd0'
p645
NsS'roku-icon-focus-hd'
p646
NsS'osx-appid'
p647
NsS'winmobile-install-folder'
p648
NsS'android-external-res'
p649
(lp650
sS'ws8-product-version'
p651
NsS'brew-priviledges'
p652
NsS'iphone-info-plist-override'
p653
NsS'iphone-icon-ipad'
p654
NsS'iphone-skip-icon-generation'
p655
NsS'roku-hidden'
p656
NsS'psp-titlename'
p657
NsS'wp81-product-version'
p658
NsS'symbian-icon1-mask'
p659
NsS'psp-parentallevel'
p660
NsS'iphone-launch-storyboard'
p661
NsS'splashscreen-use-all'
p662
NsS'wp8-author'
p663
NsS'symbian-disable-ecompxl'
p664
NsS'splashscreen-auto-onblack'
p665
NsS'iphone-icon-dir'
p666
NsS'iphone-icon-extra'
p667
NsS'win32-ext-dll'
p668
(lp669
S'c:/marmalade/7.5/extensions/pvrtextool/lib/win32/PVRTexTool.dll'
p670
asS'iphone-development-key'
p671
NsS'winmobile-icon48'
p672
NsS'android-unsigned'
p673
NsS'osx-appstore-category'
p674
NsS'version-revision'
p675
NsS'roku-icon-focus-sd'
p676
NsS'ws81-product-version'
p677
NsS'winmobile-png90'
p678
NsS'iphone-icon-ipad-high-res'
p679
NsS'iphone-disable-ipad'
p680
NsS'ws81-splash-screen-background'
p681
NsS'wp8-ext-capabilities'
p682
(lp683
sS'brew-icon-large'
p684
NsS'symbian-icon1-mask-black'
p685
NsS'ws8-extra-res'
p686
(lp687
sS'iphone-bundle-localisations'
p688
NsS'winmobile-png60'
p689
NsS'blackberry-permissions-access-shared'
p690
NsS'blackberry-author'
p691
NsS'android-icon-xxxhdpi'
p692
NsS'olddeploytoolstyle'
p693
NsS'android_icon_gallery'
p694
NsS'wp81-splash-screen-background'
p695
NsS'winmobile-cab-compress'
p696
NsS'iphone-info-plist'
p697
NsS'ws81-ext-managed-dll'
p698
(lp699
sS'playbook-cskpass'
p700
NsS'win32-icon'
p701
NsS'symbian-key'
p702
NsS'app-icf'
p703
NsS'blackberry-storepass'
p704
NsS'wp8-tile-fliptemplate-back-title'
p705
NsS'brew-compress-loader'
p706
NsS'iphone-testflight'
p707
NsS'win32-pref-windowposy'
p708
NsS'win32-pref-windowposx'
p709
NsS'roku-requires-audiometadata'
p710
NsS'wp8-exclude-low-mem'
p711
NsS'iphone-icon-ipad-search-high-res'
p712
NsS'iphone-link-libdir'
p713
(lp714
sS'wp81-ext-capabilities'
p715
(lp716
sS'blackberry-permissions-read-geolocation'
p717
NsS'ws81-ext-device-capabilities'
p718
(lp719
sS'tizen-signed'
p720
NsS'android-extra-application-manifest'
p721
(lp722
sS'ws8-ext-native-dll'
p723
(lp724
sS'symbian-icon2-mask'
p725
NsS'iphone-launch-extra'
p726
NsS'webos-memory'
p727
NsS'android-keypass'
p728
NsS'name'
p729
NsS'uiq3-icon2-format'
p730
NsS'roku-splash-screen-sd'
p731
NsS'auto-derbh'
p732
NsS'roku-icon-side-sd'
p733
NsS'android-external-assets'
p734
(lp735
sS'nds-publicsavedatasize'
p736
NsS'splashscreen'
p737
S'c:/marmalade/7.5/examples/marmaladeexampleresources/resources/splashscreens'
p738
sS'brew-mif'
p739
NsS'iphone-icon-settings-high-res'
p740
NsS'android-manifest'
p741
NsS'ws81-splash-screen-image620x300'
p742
NsS'wp81-product-name'
p743
NsS's3e-compression'
p744
NsS'tizen-author-password'
p745
NsS'wp8-tile-fliptemplate-back-content'
p746
NsS'blackberry-extra-descriptor'
p747
(lp748
sS'symbian-icon1'
p749
NsS'symbian-icon2'
p750
NsS'nds-makercode'
p751
NsS'android-extra-styles-file'
p752
NsS'wp81-publisher-id'
p753
NsS'nds-bannertitle-jp'
p754
NsS'wp81-logo-image44x44'
p755
NsS'osx-sign-for-store'
p756
NsS'symbian7-uid'
p757
NsS'wp8-tile-fliptemplate-large-back-content'
p758
NsS'wp81-phone-publisher-id'
p759
NsS'nds-bannertitle-cn'
p760
NsS'iphone-distribution-key'
p761
NsS'android-icon-gallery'
p762
NsS'blackberry-keystore'
p763
NsS'iphone-nosign'
p764
NsS'caption'
p765
NsS'android-extra-manifest'
p766
(lp767
sS'wp81-ext-sdk-ref'
p768
(lp769
sS'android-icon-xxhdpi'
p770
NsS'version-minor'
p771
NsS'iphone-skip-launch-generation'
p772
NsS'iphone-link-libdirs'
p773
(lp774
sS'iphone-icon-large'
p775
NsS'symbian-keypwd'
p776
NsS'symbian8-uid'
p777
NsS'symbian-cert-key'
p778
NsS'winmobile-ampd-part-number'
p779
NsS'arch'
p780
NsS'nds-romheadertemplate'
p781
NsS'webos-icon'
p782
NsS'wp81-ext-device-capabilities'
p783
(lp784
sS'psp-dlgprotectdocument'
p785
NsS'ws8-splash-screen-background'
p786
NsS'android-icon-mdpi'
p787
NsS'nds-icon'
p788
NsS'ws8-custom-manifest-fill'
p789
NsS'iphone-development-cert'
p790
NsS'and'
p791
NsS'symbian-icon2-mask-black'
p792
NsS'blackberry-phone-icon'
p793
NsS'iphone-enable-4inch-retina'
p794
NsS'ws8-custom-manifest'
p795
NsS'version-major'
p796
NsS'wp8-genre-isgame'
p797
NsS'uiq3-uid'
p798
NsS'iphone-splash-retina-generate'
p799
NsS'tizen-hw-acceleration'
p800
NsS'iphone_bundle_localisations'
p801
NsS'tizen-dist1-key'
p802
NsS'wp81-custom-manifest-fill'
p803
NsS'wp8-custom-manifest'
p804
NsS'nds-bannertitle-ge'
p805
NsS'iphone-sign-for-distribution'
p806
NsS'wp8-tile-fliptemplate-medium-back-image'
p807
NsS'wp8-publisher-id'
p808
NsS'icon'
p809
S'c:/marmalade/7.5/examples/marmaladeexampleresources/resources/icons'
p810
sS'wp8-exclude-wxga'
p811
NsS'wp81-identity-name'
p812
NsS'uiq3-icon2-mask'
p813
NsS'iphone-splashscreen-portrait'
p814
NsS'iphone-icon-high-res'
p815
NsS'ws81-distribution-pfx-password'
p816
NsS'playbook-author'
p817
NsS'android-icon-xhdpi'
p818
NsS'linux-ext-lib'
p819
(lp820
sS'blackberry-permissions-access-internet'
p821
NsS'wp8-exclude-720p'
p822
NsS'lgtv-use-drm'
p823
NsS'symbian-platsecflags'
p824
NsS'ws8-description'
p825
NsS'blackberry-playbook-icon'
p826
NsS'copyright'
p827
NsS'ws8-distribution-pfx-password'
p828
NsS'win32-gles-directory'
p829
NsS'version'
p830
NsS'iphone-uiviewcontroller-based-status-bar'
p831
NsS'ws81-logo-image150x150'
p832
NsS'osx-signing-identity-app'
p833
NsS'tizen-project-url'
p834
NsS'symbian-icon-svg'
p835
NsS'android-aliasname'
p836
NsS'psp-dlgmanual'
p837
NsS'brew-uid'
p838
NsS'symbian-locationsupport'
p839
NsS'wp81-logo-image50x50'
p840
NsS'ws8-ext-managed-dll'
p841
(lp842
sS'nds-bannertitle-it'
p843
NsS'ws81-custom-manifest-fill'
p844
NsS'ws8-ext-sdk-manifest-part'
p845
(lp846
sS'uiq3-icon1-mask'
p847
NsS'winmobile-icon16'
p848
NsS'ws8-product-name'
p849
NsS'blackberry-cskpass'
p850
NsS'winmobile-start-menu-folder'
p851
NsS'brew-clsid'
p852
NsS'roku-requires-bluetooth'
p853
NsS'iphone-default-development-profile'
p854
NsS'ws8-ext-device-capabilities'
p855
(lp856
sS'blackberry-permissions-use-camera'
p857
NsS'ws81-extra-pri'
p858
(lp859
sS'iphone-prerendered-icon'
p860
NsS'iphone-appid'
p861
NsS'ws8-identity-name'
p862
NsS'tizen-dist2-CA-path'
p863
NsS'android-external-jars'
p864
(lp865
sS'winmobile-icon64'
p866
NsS'blackberry-permissions-post-notification'
p867
NsS'winmobile-setup-dll'
p868
NsS'firefoxos-manifest'
p869
NsS'win8-winrt-extra-res'
p870
(lp871
sS'wp81-ext-sdk-manifest-part'
p872
(lp873
sS'symbian9-uid'
p874
NsS'iphone-icon-ipad-ios7'
p875
NsS'winmobile-trace-file'
p876
NsS'roku-splash-color'
p877
NsS'psp-appversion'
p878
NsS'ws8-publisher-id'
p879
NsS'android-supports-gl-texture'
p880
(lp881
sS'winmobile-png45'
p882
NsS'wp81-extra-res'
p883
(lp884
sS'android-storepass'
p885
NsS'osx-signing-identity-inst'
p886
NsS'android-custom-activity'
p887
NsS'psp-discversion'
p888
NsS'wp81-ext-managed-dll'
p889
(lp890
sS'psp-copyright'
p891
NsS'embed-icf'
p892
NsS'tizen-manifest'
p893
NsS'osx-icon'
p894
NsS'webos-appinfo'
p895
NsS'psp-dlghealthwarning'
p896
NsS'webos-appid'
p897
NsS'roku-icon-side-hd'
p898
NsS'iphone-icon-ipad-search-high-res-ios7'
p899
NsS'iphone-extra-plist'
p900
(lp901
sS'ws81-ext-sdk-manifest-part'
p902
(lp903
sS'loader_name_prefix'
p904
NsS'iphone-launch-dir'
p905
NsS'nds-titlename'
p906
NsS'ws81-logo-image50x50'
p907
NsS'wp81-custom-manifest'
p908
NsS'osx-entitlements-plist'
p909
NsS'psp-dlgicon0'
p910
NsS'winmobile-nouninstall'
p911
NsS'psp-discid'
p912
NsS'tizen-dist2-password'
p913
NsS'ws8-ext-sdk-ref'
p914
(lp915
sS'iphone-extra-string'
p916
(lp917
sS'version-string'
p918
NsS'iphone-icon-high-res-ios7'
p919
NsS'blackberry-permissions-record-audio'
p920
NsS'ws8-certificate-end-date'
p921
NsS'tizen-so'
p922
(lp923
sS'wp8-tile-fliptemplate-small-image'
p924
NsS'playbook-authorid'
p925
NsS'iphone-signing-identity'
p926
NsS'roku-persist-quota'
p927
NsS'nds-bannertitle-fr'
p928
NsS'ws8-distribution-pfx'
p929
NsS'ws8-publisher-display-name'
p930
NsS'brew-icon-small'
p931
NsS'psp-dlgpic2'
p932
NsS'psp-dlgpic0'
p933
NsS'psp-pic0'
p934
NsS'psp-pic1'
p935
NsS'win32-pref-windowtitle'
p936
NsS'psp-icon0'
p937
NsS'psp-icon1'
p938
NsS'ws81-identity-name'
p939
NsS'winmobile-icon'
p940
NsS'iphone-no-splash'
p941
NsS'iphone-splash'
p942
NsS'iphone-app-fonts'
p943
NsS'wp8-ext-native-dll'
p944
(lp945
sS'wp81-splash-screen-image480x800'
p946
NsS'ws81-distribution-cer'
p947
NsS'iphone-backgroundmode-audio'
p948
NsS'uiq3-icon2'
p949
NsS'uiq3-icon3'
p950
NsS'uiq3-icon1'
p951
NsS'uiq3-icon1-format'
p952
NsS'ws8-logo-image50x50'
p953
NsS'iphone-icon-ipad-search'
p954
NsS'symbian-run-on-install'
p955
NsS'wp81-description'
p956
NsS'ws81-publisher-display-name'
p957
NsS'firefoxos-xulrunner'
p958
NsS'symbian-soundrecordsupport'
p959
NsS'nds-bannertitle-sp'
p960
NsS'psp-producer'
p961
NsS'iphone-apple-wwdr-cert'
p962
NsS'android-icon-nonstandard'
p963
NsS'win32-pref-processtitle'
p964
NsS'nds-bannertitle-hn'
p965
NsS'tizen-dist2-key'
p966
NsS'brew-depends'
p967
NsS'ws81-custom-manifest'
p968
NsS'iphone-allow-launch-rotation'
p969
NsS'iphone-icon-ipad-search-ios7'
p970
NsS'brew-icon-medium'
p971
NsS'iphone-bundle-url-name'
p972
NsS'wp8-tile-fliptemplate-large-front-image'
p973
NsS'tizen-dist2-CA-root-path'
p974
NsS'ws81-description'
p975
NsS'uiq3-icon3-format'
p976
NsS'ws81-logo-image30x30'
p977
NsS'win8-phone-extra-res'
p978
(lp979
sS'iphone-signing-host'
p980
NsS'tizen-icon'
p981
NsS'osx-info-plist'
p982
NsS'symbian-icon1-format'
p983
NsS'ws81-distribution-pfx'
p984
NsS'blackberry-authorid'
p985
NsS'ws81-publisher-id'
p986
NsS'win8-store-extra-res'
p987
(lp988
sS'wp8-description'
p989
NsS'iphone-link-opts'
p990
(lp991
sS'ws81-ext-sdk-ref'
p992
(lp993
sS'roku-splash-min-time'
p994
NsS'wp8-tile-fliptemplate-medium-front-image'
p995
NsS'iphone-disable-launch-images'
p996
NsS'provider'
p997
NsS'playbook-keystore'
p998
NsS'tizen-appid'
p999
NsS'wp8-extra-res'
p1000
(lp1001
sS'symbian-osexecsupport'
p1002
NsS'android-install-location'
p1003
NsS'nds-privatesavedatasize'
p1004
NsS'iphone-disable-testflight'
p1005
NsS'playbook-storepass'
p1006
NsS'android-icon-ldpi'
p1007
NsS'manufacturer'
p1008
NsS'itunes-artwork'
p1009
NsS'iphone-extra-sections'
p1010
NsS'ws81-product-name'
p1011
NsS'ws81-ext-native-dll'
p1012
(lp1013
sS'ws8-extra-pri'
p1014
(lp1015
sS'wp8-product-id'
p1016
NsS'ws8-logo-image30x30'
p1017
NsS'wp8-ext-managed-dll'
p1018
(lp1019
sS'iphone-splashscreen-landscape'
p1020
NsS'symbian-maxheapsize'
p1021
NsS'android-extra-packages'
p1022
(lp1023
sS'priv-sign-key'
p1024
NsS'networking'
p1025
NsS'android-icon'
p1026
NsS'iphone-icon-settings'
p1027
NsS'wp81-phone-product-id'
p1028
NsS'firefoxos-icon-60X60'
p1029
NsS'iphone-distribution-cert'
p1030
NsS'android_extra_strings'
p1031
NsS'nds-bannertitle-en'
p1032
NsS'wp8-tile-fliptemplate-title'
p1033
NsS'android-so'
p1034
(lp1035
sS'wp8-higher-mem'
p1036
NsS'wp8-ext-sdk-ref'
p1037
(lp1038
sS'wp8-fast-resume-mode'
p1039
NsS'roku-splash-screen-hd'
p1040
NsS'iphone-bundle-url-schemes'
p1041
NsS'roku-screensaver-private'
p1042
NsS'osx-extra-res'
p1043
(lp1044
sS'ws81-extra-res'
p1045
(lp1046
sS'playbook-icon'
p1047
NsS'uid'
p1048
NsS'pkguid-as-uid'
p1049
NsS'wp81-ext-native-dll'
p1050
(lp1051
sS'tizen-dist1-password'
p1052
NsS'roku-screensaver-title'
p1053
NsS'osx-minimum-osx-version'
p1054
NsS'symbian-cert'
p1055
NsS'iphone-icon'
p1056
NsS'ws81-ext-capabilities'
p1057
(lp1058
sS'ws8-distribution-cer'
p1059
NsS'playbook-access-shared'
p1060
NsS'iphone-icon-ipad-high-res-ios7'
p1061
NsS'iphone-link-libs'
p1062
(lp1063
sS'wp8-exclude-wvga'
p1064
NsS'assets'
p1065
NsS'wp8-tile-fliptemplate-large-back-image'
p1066
NsS'wp8-custom-manifest-fill'
p1067
NsS'pub-sign-key'
p1068
NsS'android-extra-strings'
p1069
NsS'tizen-author-CA-path'
p1070
Nssg354
g592
sbssS'platform'
p1071
S'S3E'
p1072
sg70
S'1.0'
p1073
sS'arcade_platform'
p1074
g4
sS'extensions'
p1075
(dp1076
sS'source_groups_tree'
p1077
(dp1078
S'(libpng)'
p1079
(dp1080
S'h'
p1081
(dp1082
S'c:/marmalade/7.5/modules/third_party/libpng/h/png.h'
p1083
(lp1084
I1
a(dp1085
asS'c:/marmalade/7.5/modules/third_party/libpng/h/pngconf.h'
p1086
(lp1087
I1
ag1085
assS'c:/marmalade/7.5/modules/third_party/libpng/libpng.mkf'
p1088
(lp1089
I1
a(dp1090
assS'(libjpeg)'
p1091
(dp1092
S'c:/marmalade/7.5/modules/third_party/libjpeg/libjpeg.mkf'
p1093
(lp1094
I1
a(dp1095
asg1081
(dp1096
S'c:/marmalade/7.5/modules/third_party/libjpeg/h/jerror.h'
p1097
(lp1098
I1
a(dp1099
asS'c:/marmalade/7.5/modules/third_party/libjpeg/h/jdhuff.h'
p1100
(lp1101
I1
ag1099
asS'c:/marmalade/7.5/modules/third_party/libjpeg/h/cderror.h'
p1102
(lp1103
I1
ag1099
asS'c:/marmalade/7.5/modules/third_party/libjpeg/h/transupp.h'
p1104
(lp1105
I1
ag1099
asS'c:/marmalade/7.5/modules/third_party/libjpeg/h/jinclude.h'
p1106
(lp1107
I1
ag1099
asS'c:/marmalade/7.5/modules/third_party/libjpeg/h/jmorecfg.h'
p1108
(lp1109
I1
ag1099
asS'c:/marmalade/7.5/modules/third_party/libjpeg/h/jdct.h'
p1110
(lp1111
I1
ag1099
asS'c:/marmalade/7.5/modules/third_party/libjpeg/h/jmemsys.h'
p1112
(lp1113
I1
ag1099
asS'c:/marmalade/7.5/modules/third_party/libjpeg/h/jpegint.h'
p1114
(lp1115
I1
ag1099
asS'c:/marmalade/7.5/modules/third_party/libjpeg/h/jchuff.h'
p1116
(lp1117
I1
ag1099
asS'c:/marmalade/7.5/modules/third_party/libjpeg/h/cdjpeg.h'
p1118
(lp1119
I1
ag1099
asS'c:/marmalade/7.5/modules/third_party/libjpeg/h/jversion.h'
p1120
(lp1121
I1
ag1099
asS'c:/marmalade/7.5/modules/third_party/libjpeg/h/jconfig.h'
p1122
(lp1123
I1
ag1099
asS'c:/marmalade/7.5/modules/third_party/libjpeg/h/jpeglib.h'
p1124
(lp1125
I1
ag1099
asssS'(tiniconv)'
p1126
(dp1127
S'c:/marmalade/7.5/modules/third_party/tiniconv/tiniconv.mkf'
p1128
(lp1129
I1
a(dp1130
asS'c:/marmalade/7.5/modules/third_party/tiniconv/source/tiniconv_int.h'
p1131
(lp1132
I1
a(dp1133
asS'c:/marmalade/7.5/modules/third_party/tiniconv/source/tiniconv.h'
p1134
(lp1135
I1
ag1133
assS'(SoundEngine)'
p1136
(dp1137
S'c:/marmalade/7.5/examples/gametutorial/cpp/modules/soundengine/source/IwSoundGroup.cpp'
p1138
(lp1139
I1
a(dp1140
asS'c:/marmalade/7.5/examples/gametutorial/cpp/modules/soundengine/h/IwSoundADPCM.h'
p1141
(lp1142
I1
ag1140
asS'c:/marmalade/7.5/examples/gametutorial/cpp/modules/soundengine/source/IwResHandlerWAV.cpp'
p1143
(lp1144
I1
ag1140
asS'c:/marmalade/7.5/examples/gametutorial/cpp/modules/soundengine/h/IwResHandlerWAV.h'
p1145
(lp1146
I1
ag1140
asS'Docs'
p1147
(dp1148
S'c:/marmalade/7.5/examples/gametutorial/cpp/modules/soundengine/docs/iwsound.config.txt'
p1149
(lp1150
I1
ag1140
assS'c:/marmalade/7.5/examples/gametutorial/cpp/modules/soundengine/h/IwSoundInst.h'
p1151
(lp1152
I1
ag1140
asS'c:/marmalade/7.5/examples/gametutorial/cpp/modules/soundengine/source/IwSoundManager.cpp'
p1153
(lp1154
I1
ag1140
asS'c:/marmalade/7.5/examples/gametutorial/cpp/modules/soundengine/h/IwSoundSpec.h'
p1155
(lp1156
I1
ag1140
asS'c:/marmalade/7.5/examples/gametutorial/cpp/modules/soundengine/source/IwSoundParams.cpp'
p1157
(lp1158
I1
ag1140
asS'c:/marmalade/7.5/examples/gametutorial/cpp/modules/soundengine/h/IwSoundManager.h'
p1159
(lp1160
I1
ag1140
asS'c:/marmalade/7.5/examples/gametutorial/cpp/modules/soundengine/source/IwSoundPCM.cpp'
p1161
(lp1162
I1
ag1140
asS'c:/marmalade/7.5/examples/gametutorial/cpp/modules/soundengine/source/IwSoundWAV.cpp'
p1163
(lp1164
I1
ag1140
asS'c:/marmalade/7.5/examples/gametutorial/cpp/modules/soundengine/source/IwSoundInst.cpp'
p1165
(lp1166
I1
ag1140
asS'c:/marmalade/7.5/examples/gametutorial/cpp/modules/soundengine/h/IwSoundWAV.h'
p1167
(lp1168
I1
ag1140
asS'c:/marmalade/7.5/examples/gametutorial/cpp/modules/soundengine/source/IwSoundSpec.cpp'
p1169
(lp1170
I1
ag1140
asS'c:/marmalade/7.5/examples/gametutorial/cpp/modules/soundengine/h/IwSoundParams.h'
p1171
(lp1172
I1
ag1140
asS'c:/marmalade/7.5/examples/gametutorial/cpp/modules/soundengine/source/IwSoundADPCM.cpp'
p1173
(lp1174
I1
ag1140
asS'c:/marmalade/7.5/examples/gametutorial/cpp/modules/soundengine/h/IwSound.h'
p1175
(lp1176
I1
ag1140
asS'c:/marmalade/7.5/examples/gametutorial/cpp/modules/soundengine/source/IwSoundData.cpp'
p1177
(lp1178
I1
ag1140
asS'c:/marmalade/7.5/examples/gametutorial/cpp/modules/soundengine/h/IwSoundData.h'
p1179
(lp1180
I1
ag1140
asS'c:/marmalade/7.5/examples/gametutorial/cpp/modules/soundengine/h/IwSoundPCM.h'
p1181
(lp1182
I1
ag1140
asS'c:/marmalade/7.5/examples/gametutorial/cpp/modules/soundengine/soundengine.mkf'
p1183
(lp1184
I1
a(dp1185
asS'c:/marmalade/7.5/examples/gametutorial/cpp/modules/soundengine/h/IwSoundGroup.h'
p1186
(lp1187
I1
ag1140
assS'(MarmaladeExampleResources)'
p1188
(dp1189
S'c:/marmalade/7.5/examples/marmaladeexampleresources/marmaladeexampleresources.mkf'
p1190
(lp1191
I1
a(dp1192
assS'source'
p1193
(dp1194
S'c:/Marmalade/7.5/examples/GameTutorial/CPP/marm1/source/pauseMenu.h'
p1195
(lp1196
I1
a(dp1197
asS'c:/Marmalade/7.5/examples/GameTutorial/CPP/marm1/source/input.h'
p1198
(lp1199
I1
ag1197
asS'c:/Marmalade/7.5/examples/GameTutorial/CPP/marm1/source/resources.cpp'
p1200
(lp1201
I1
ag1197
asS'c:/Marmalade/7.5/examples/GameTutorial/CPP/marm1/source/mainMenu.h'
p1202
(lp1203
I1
ag1197
asS'c:/Marmalade/7.5/examples/GameTutorial/CPP/marm1/source/audio.h'
p1204
(lp1205
I1
ag1197
asS'c:/Marmalade/7.5/examples/GameTutorial/CPP/marm1/source/mainMenu.cpp'
p1206
(lp1207
I1
ag1197
asS'c:/Marmalade/7.5/examples/GameTutorial/CPP/marm1/source/input.cpp'
p1208
(lp1209
I1
ag1197
asS'c:/Marmalade/7.5/examples/GameTutorial/CPP/marm1/source/main.cpp'
p1210
(lp1211
I1
ag1197
asS'c:/Marmalade/7.5/examples/GameTutorial/CPP/marm1/source/main.h'
p1212
(lp1213
I1
ag1197
asS'c:/Marmalade/7.5/examples/GameTutorial/CPP/marm1/source/audio.cpp'
p1214
(lp1215
I1
ag1197
asS'c:/Marmalade/7.5/examples/GameTutorial/CPP/marm1/source/resources.h'
p1216
(lp1217
I1
ag1197
asS'c:/Marmalade/7.5/examples/GameTutorial/CPP/marm1/source/scene.h'
p1218
(lp1219
I1
ag1197
asS'c:/Marmalade/7.5/examples/GameTutorial/CPP/marm1/source/game.h'
p1220
(lp1221
I1
ag1197
asS'c:/Marmalade/7.5/examples/GameTutorial/CPP/marm1/source/scene.cpp'
p1222
(lp1223
I1
ag1197
asS'c:/Marmalade/7.5/examples/GameTutorial/CPP/marm1/source/game.cpp'
p1224
(lp1225
I1
ag1197
asS'c:/Marmalade/7.5/examples/GameTutorial/CPP/marm1/source/pauseMenu.cpp'
p1226
(lp1227
I1
ag1197
assS'Extensions'
p1228
(dp1229
S'PVRTexTool'
p1230
(dp1231
S'interface'
p1232
(dp1233
S'c:/marmalade/7.5/extensions/pvrtextool/interface/PVRTexTool.defines.txt'
p1234
(lp1235
I1
a(dp1236
asS'c:/marmalade/7.5/extensions/pvrtextool/interface/PVRTexTool_interface.cpp'
p1237
(lp1238
I1
ag1236
assS'c:/marmalade/7.5/extensions/pvrtextool/h/PVRTexTool.h'
p1239
(lp1240
I1
ag1236
asS'c:/marmalade/7.5/extensions/pvrtextool/pvrtextool.mkf'
p1241
(lp1242
I1
a(dp1243
asssS"'Marmalade Studio'"
p1244
(dp1245
S'iw2dscenegraph'
p1246
(dp1247
S'c:/marmalade/7.5/modules/iw2dscenegraph/source/Iw2DSceneGraph.cpp'
p1248
(lp1249
I1
a(dp1250
asS'c:/marmalade/7.5/modules/iw2dscenegraph/docs/iw2dscenegraph.defines.txt'
p1251
(lp1252
I1
ag1250
asS'c:/marmalade/7.5/modules/iw2dscenegraph/h/Iw2DSceneGraph.h'
p1253
(lp1254
I1
ag1250
asS'c:/marmalade/7.5/modules/iw2dscenegraph/iw2dscenegraph.mkf'
p1255
(lp1256
I1
a(dp1257
assS'iwgl'
p1258
(dp1259
S'c:/marmalade/7.5/modules/iwgl/iwgl.mkf'
p1260
(lp1261
I1
a(dp1262
asS'c:/marmalade/7.5/modules/iwgl/h/IwGL.h'
p1263
(lp1264
I1
a(dp1265
asS'c:/marmalade/7.5/modules/iwgl/docs/iwgl.config.txt'
p1266
(lp1267
I1
ag1265
asS'c:/marmalade/7.5/modules/iwgl/h/IwGLExt.h'
p1268
(lp1269
I1
ag1265
assS'iw2d'
p1270
(dp1271
S'c:/marmalade/7.5/modules/iw2d/docs/iw2d_public.defines.txt'
p1272
(lp1273
I1
a(dp1274
asS'c:/marmalade/7.5/modules/iw2d/docs/iw2d.config.txt'
p1275
(lp1276
I1
ag1274
asS'c:/marmalade/7.5/modules/iw2d/h/Iw2D.h'
p1277
(lp1278
I1
ag1274
asS'c:/marmalade/7.5/modules/iw2d/iw2d.mkf'
p1279
(lp1280
I1
a(dp1281
assS'iwgxfont'
p1282
(dp1283
S'c:/marmalade/7.5/modules/iwgxfont/h/IwGxFontGlyph.h'
p1284
(lp1285
I1
a(dp1286
asS'c:/marmalade/7.5/modules/iwgxfont/h/IwGxFontTypes.h'
p1287
(lp1288
I1
ag1286
asS'c:/marmalade/7.5/modules/iwgxfont/docs/iwgxfont.config.txt'
p1289
(lp1290
I1
ag1286
asS'c:/marmalade/7.5/modules/iwgxfont/h/IwGxFontState.h'
p1291
(lp1292
I1
ag1286
asS'c:/marmalade/7.5/modules/iwgxfont/h/IwGxFontContainer.h'
p1293
(lp1294
I1
ag1286
asS'c:/marmalade/7.5/modules/iwgxfont/iwgxfont.mkf'
p1295
(lp1296
I1
a(dp1297
asS'c:/marmalade/7.5/modules/iwgxfont/h/IwGxFontPreparedData.h'
p1298
(lp1299
I1
ag1286
asS'c:/marmalade/7.5/modules/iwgxfont/h/IwGxFont.h'
p1300
(lp1301
I1
ag1286
asS'c:/marmalade/7.5/modules/iwgxfont/docs/iwgxfont_public.defines.txt'
p1302
(lp1303
I1
ag1286
assS'iwgeom'
p1304
(dp1305
S'c:/marmalade/7.5/modules/iwgeom/h/IwGeomSVec2.h'
p1306
(lp1307
I1
a(dp1308
asS'c:/marmalade/7.5/modules/iwgeom/h/IwGeomSphere.h'
p1309
(lp1310
I1
ag1308
asS'c:/marmalade/7.5/modules/iwgeom/h/IwGeomSVec3.h'
p1311
(lp1312
I1
ag1308
asS'c:/marmalade/7.5/modules/iwgeom/iwgeom.mkf'
p1313
(lp1314
I1
a(dp1315
asS'c:/marmalade/7.5/modules/iwgeom/h/IwGeomSqrt.h'
p1316
(lp1317
I1
ag1308
asS'c:/marmalade/7.5/modules/iwgeom/h/IwGeomFQuat.h'
p1318
(lp1319
I1
ag1308
asS'c:/marmalade/7.5/modules/iwgeom/h/IwGeomQuat.h.tpl'
p1320
(lp1321
I1
ag1308
asS'c:/marmalade/7.5/modules/iwgeom/h/IwGeomVec2.h'
p1322
(lp1323
I1
ag1308
asS'c:/marmalade/7.5/modules/iwgeom/h/IwGeomMat.h'
p1324
(lp1325
I1
ag1308
asS'c:/marmalade/7.5/modules/iwgeom/h/IwGeomVec3.h'
p1326
(lp1327
I1
ag1308
asS'c:/marmalade/7.5/modules/iwgeom/h/IwGeomLegacy.h'
p1328
(lp1329
I1
ag1308
asS'c:/marmalade/7.5/modules/iwgeom/h/IwGeom.h'
p1330
(lp1331
I1
ag1308
asS'c:/marmalade/7.5/modules/iwgeom/h/IwGeomSQuat.h'
p1332
(lp1333
I1
ag1308
asS'c:/marmalade/7.5/modules/iwgeom/h/IwGeomFBBox.h'
p1334
(lp1335
I1
ag1308
asS'c:/marmalade/7.5/modules/iwgeom/h/IwGeomFMat.h'
p1336
(lp1337
I1
ag1308
asS'c:/marmalade/7.5/modules/iwgeom/h/IwGeomPlane.h'
p1338
(lp1339
I1
ag1308
asS'c:/marmalade/7.5/modules/iwgeom/h/IwGeomMat2D.h'
p1340
(lp1341
I1
ag1308
asS'c:/marmalade/7.5/modules/iwgeom/h/IwGeomFVec2.h'
p1342
(lp1343
I1
ag1308
asS'c:/marmalade/7.5/modules/iwgeom/h/IwGeomSVec4.h'
p1344
(lp1345
I1
ag1308
asS'c:/marmalade/7.5/modules/iwgeom/h/IwGeomVec4.h'
p1346
(lp1347
I1
ag1308
asS'c:/marmalade/7.5/modules/iwgeom/h/IwGeomCore.h'
p1348
(lp1349
I1
ag1308
asS'c:/marmalade/7.5/modules/iwgeom/h/IwGeomVec.h.tpl'
p1350
(lp1351
I1
ag1308
asS'c:/marmalade/7.5/modules/iwgeom/h/IwGeomVec.h'
p1352
(lp1353
I1
ag1308
asS'c:/marmalade/7.5/modules/iwgeom/h/IwGeomIntersect.h'
p1354
(lp1355
I1
ag1308
asS'c:/marmalade/7.5/modules/iwgeom/h/IwGeomFVec4.h'
p1356
(lp1357
I1
ag1308
asS'c:/marmalade/7.5/modules/iwgeom/h/IwGeomMat.h.tpl'
p1358
(lp1359
I1
ag1308
asS'c:/marmalade/7.5/modules/iwgeom/h/IwGeomMat2D.h.tpl'
p1360
(lp1361
I1
ag1308
asS'c:/marmalade/7.5/modules/iwgeom/h/IwGeomFMat2D.h'
p1362
(lp1363
I1
ag1308
asS'c:/marmalade/7.5/modules/iwgeom/h/IwGeomMenu.h'
p1364
(lp1365
I1
ag1308
asS'c:/marmalade/7.5/modules/iwgeom/h/IwGeomBBox.h'
p1366
(lp1367
I1
ag1308
asS'c:/marmalade/7.5/modules/iwgeom/h/IwGeomFSphere.h'
p1368
(lp1369
I1
ag1308
asS'c:/marmalade/7.5/modules/iwgeom/h/IwGeomFVec3.h'
p1370
(lp1371
I1
ag1308
asS'c:/marmalade/7.5/modules/iwgeom/h/IwGeomFPlane.h'
p1372
(lp1373
I1
ag1308
asS'c:/marmalade/7.5/modules/iwgeom/docs/iwgeom.config.txt'
p1374
(lp1375
I1
ag1308
asS'c:/marmalade/7.5/modules/iwgeom/h/IwGeomQuat.h'
p1376
(lp1377
I1
ag1308
asS'c:/marmalade/7.5/modules/iwgeom/h/IwGeomFIntersect.h'
p1378
(lp1379
I1
ag1308
assS'iwresmanager'
p1380
(dp1381
S'c:/marmalade/7.5/modules/iwresmanager/h/IwResHandlerITX.h'
p1382
(lp1383
I1
a(dp1384
asS'c:/marmalade/7.5/modules/iwresmanager/h/IwResSerialise.h'
p1385
(lp1386
I1
ag1384
asS'c:/marmalade/7.5/modules/iwresmanager/h/IwResManagerClass.h'
p1387
(lp1388
I1
ag1384
asS'c:/marmalade/7.5/modules/iwresmanager/h/IwResHandlerGROUP.h'
p1389
(lp1390
I1
ag1384
asS'c:/marmalade/7.5/modules/iwresmanager/h/IwResManager.h'
p1391
(lp1392
I1
ag1384
asS'c:/marmalade/7.5/modules/iwresmanager/iwresmanager.mkf'
p1393
(lp1394
I1
a(dp1395
asS'c:/marmalade/7.5/modules/iwresmanager/docs/iwresmanager.config.txt'
p1396
(lp1397
I1
ag1384
asS'c:/marmalade/7.5/modules/iwresmanager/h/IwResGroup.h'
p1398
(lp1399
I1
ag1384
asS'c:/marmalade/7.5/modules/iwresmanager/h/IwResHandler.h'
p1400
(lp1401
I1
ag1384
asS'c:/marmalade/7.5/modules/iwresmanager/h/IwResHandlerImage.h'
p1402
(lp1403
I1
ag1384
assS'iwgx'
p1404
(dp1405
S'c:/marmalade/7.5/modules/iwgx/h/IwDebugPrim.h'
p1406
(lp1407
I1
a(dp1408
asS'c:/marmalade/7.5/modules/iwgx/h/IwMatAnim.h'
p1409
(lp1410
I1
ag1408
asS'c:/marmalade/7.5/modules/iwgx/h/IwTexture.h'
p1411
(lp1412
I1
ag1408
asS'c:/marmalade/7.5/modules/iwgx/h/IwGxFuncTable.h'
p1413
(lp1414
I1
ag1408
asS'c:/marmalade/7.5/modules/iwgx/h/IwResHandlerMTL.h'
p1415
(lp1416
I1
ag1408
asS'c:/marmalade/7.5/modules/iwgx/h/IwGxPrint.h'
p1417
(lp1418
I1
ag1408
asS'c:/marmalade/7.5/modules/iwgx/h/IwGxStream.h'
p1419
(lp1420
I1
ag1408
asS'c:/marmalade/7.5/modules/iwgx/h/IwClip.h'
p1421
(lp1422
I1
ag1408
asS'c:/marmalade/7.5/modules/iwgx/h/IwGxSurface.h'
p1423
(lp1424
I1
ag1408
asS'c:/marmalade/7.5/modules/iwgx/h/IwGxError.h'
p1425
(lp1426
I1
ag1408
asS'c:/marmalade/7.5/modules/iwgx/h/IwGx.h'
p1427
(lp1428
I1
ag1408
asS'c:/marmalade/7.5/modules/iwgx/docs/iwgx_public.defines.txt'
p1429
(lp1430
I1
ag1408
asS'c:/marmalade/7.5/modules/iwgx/h/IwGxDebug.h'
p1431
(lp1432
I1
ag1408
asS'c:/marmalade/7.5/modules/iwgx/h/IwGxShaderTechnique.h'
p1433
(lp1434
I1
ag1408
asS'c:/marmalade/7.5/modules/iwgx/h/IwGxTransformSW.h'
p1435
(lp1436
I1
ag1408
asS'c:/marmalade/7.5/modules/iwgx/h/IwMaterial.h'
p1437
(lp1438
I1
ag1408
asS'c:/marmalade/7.5/modules/iwgx/h/IwGxMetrics.h'
p1439
(lp1440
I1
ag1408
asS'c:/marmalade/7.5/modules/iwgx/h/IwClip.inl'
p1441
(lp1442
I1
ag1408
asS'c:/marmalade/7.5/modules/iwgx/h/IwFColour.h'
p1443
(lp1444
I1
ag1408
asS'c:/marmalade/7.5/modules/iwgx/h/IwGxTypes.h'
p1445
(lp1446
I1
ag1408
asS'c:/marmalade/7.5/modules/iwgx/iwgx.mkf'
p1447
(lp1448
I1
a(dp1449
asS'c:/marmalade/7.5/modules/iwgx/docs/iwgx.config.txt'
p1450
(lp1451
I1
ag1408
asS'c:/marmalade/7.5/modules/iwgx/h/IwColour.h'
p1452
(lp1453
I1
ag1408
asS'c:/marmalade/7.5/modules/iwgx/h/IwGxState.h'
p1454
(lp1455
I1
ag1408
asS'c:/marmalade/7.5/modules/iwgx/h/IwTPage.h'
p1456
(lp1457
I1
ag1408
assS'iw2dscenegraphcore'
p1458
(dp1459
S'c:/marmalade/7.5/modules/iw2dscenegraphcore/iw2dscenegraphcore.mkf'
p1460
(lp1461
I1
a(dp1462
asS'c:/marmalade/7.5/modules/iw2dscenegraphcore/h/Iw2DSceneGraphCore.h'
p1463
(lp1464
I1
a(dp1465
asS'c:/marmalade/7.5/modules/iw2dscenegraphcore/source/Iw2DSceneGraphCore.cpp'
p1466
(lp1467
I1
ag1465
assS'iwutil'
p1468
(dp1469
S'c:/marmalade/7.5/modules/iwutil/h/IwSingleton.h'
p1470
(lp1471
I1
a(dp1472
asS'c:/marmalade/7.5/modules/iwutil/h/IwMath.h'
p1473
(lp1474
I1
ag1472
asS'c:/marmalade/7.5/modules/iwutil/h/IwBuffer.h'
p1475
(lp1476
I1
ag1472
asS'c:/marmalade/7.5/modules/iwutil/h/IwCore.h'
p1477
(lp1478
I1
ag1472
asS'c:/marmalade/7.5/modules/iwutil/h/IwDivide.h'
p1479
(lp1480
I1
ag1472
asS'c:/marmalade/7.5/modules/iwutil/h/IwMemory.h'
p1481
(lp1482
I1
ag1472
asS'c:/marmalade/7.5/modules/iwutil/h/IwImageHelper.h'
p1483
(lp1484
I1
ag1472
asS'c:/marmalade/7.5/modules/iwutil/h/IwManagedList.h'
p1485
(lp1486
I1
ag1472
asS'c:/marmalade/7.5/modules/iwutil/h/IwProfileMenu.h'
p1487
(lp1488
I1
ag1472
asS'c:/marmalade/7.5/modules/iwutil/h/IwClassFactory.h'
p1489
(lp1490
I1
ag1472
asS'c:/marmalade/7.5/modules/iwutil/h/IwDivTable.h'
p1491
(lp1492
I1
ag1472
asS'c:/marmalade/7.5/modules/iwutil/h/IwManaged.h'
p1493
(lp1494
I1
ag1472
asS'c:/marmalade/7.5/modules/iwutil/h/IwTextParseable.h'
p1495
(lp1496
I1
ag1472
asS'c:/marmalade/7.5/modules/iwutil/h/IwChar.h'
p1497
(lp1498
I1
ag1472
asS'c:/marmalade/7.5/modules/iwutil/h/IwRandom.h'
p1499
(lp1500
I1
ag1472
asS'c:/marmalade/7.5/modules/iwutil/h/IwDebug.h'
p1501
(lp1502
I1
ag1472
asS'c:/marmalade/7.5/modules/iwutil/h/IwUTF8.h'
p1503
(lp1504
I1
ag1472
asS'c:/marmalade/7.5/modules/iwutil/docs/iwutil.config.txt'
p1505
(lp1506
I1
ag1472
asS'c:/marmalade/7.5/modules/iwutil/h/IwAllocator.h'
p1507
(lp1508
I1
ag1472
asS'c:/marmalade/7.5/modules/iwutil/h/IwMemBucketHelpers.h'
p1509
(lp1510
I1
ag1472
asS'c:/marmalade/7.5/modules/iwutil/h/IwTextParserITX.h'
p1511
(lp1512
I1
ag1472
asS'c:/marmalade/7.5/modules/iwutil/h/IwKeymap.h'
p1513
(lp1514
I1
ag1472
asS'c:/marmalade/7.5/modules/iwutil/h/IwImage.h'
p1515
(lp1516
I1
ag1472
asS'c:/marmalade/7.5/modules/iwutil/h/IwOptimiseARM.h'
p1517
(lp1518
I1
ag1472
asS'c:/marmalade/7.5/modules/iwutil/h/IwMemBucket.h'
p1519
(lp1520
I1
ag1472
asS'c:/marmalade/7.5/modules/iwutil/h/IwOptimiseSize.h'
p1521
(lp1522
I1
ag1472
asS'c:/marmalade/7.5/modules/iwutil/h/IwRuntime.h'
p1523
(lp1524
I1
ag1472
asS'c:/marmalade/7.5/modules/iwutil/h/IwMemManagerDL.h'
p1525
(lp1526
I1
ag1472
asS'c:/marmalade/7.5/modules/iwutil/h/IwPath.h'
p1527
(lp1528
I1
ag1472
asS'c:/marmalade/7.5/modules/iwutil/h/IwOptimiseSpeed.h'
p1529
(lp1530
I1
ag1472
asS'c:/marmalade/7.5/modules/iwutil/h/IwList.h'
p1531
(lp1532
I1
ag1472
asS'c:/marmalade/7.5/modules/iwutil/h/IwAutoFile.h'
p1533
(lp1534
I1
ag1472
asS'c:/marmalade/7.5/modules/iwutil/h/IwVariableBitField.h'
p1535
(lp1536
I1
ag1472
asS'c:/marmalade/7.5/modules/iwutil/h/IwHashString.h'
p1537
(lp1538
I1
ag1472
asS'c:/marmalade/7.5/modules/iwutil/h/IwOptimiseThumb.h'
p1539
(lp1540
I1
ag1472
asS'c:/marmalade/7.5/modules/iwutil/iwutil.mkf'
p1541
(lp1542
I1
a(dp1543
asS'c:/marmalade/7.5/modules/iwutil/h/IwUtil.h'
p1544
(lp1545
I1
ag1472
asS'c:/marmalade/7.5/modules/iwutil/h/IwString.h'
p1546
(lp1547
I1
ag1472
asS'c:/marmalade/7.5/modules/iwutil/h/IwFile.h'
p1548
(lp1549
I1
ag1472
asS'c:/marmalade/7.5/modules/iwutil/h/IwUncopyable.h'
p1550
(lp1551
I1
ag1472
asS'c:/marmalade/7.5/modules/iwutil/h/IwTextParser.h'
p1552
(lp1553
I1
ag1472
asS'c:/marmalade/7.5/modules/iwutil/h/IwCopyingPtr.h'
p1554
(lp1555
I1
ag1472
asS'c:/marmalade/7.5/modules/iwutil/h/IwEvent.h'
p1556
(lp1557
I1
ag1472
asS'c:/marmalade/7.5/modules/iwutil/h/IwFibre.h'
p1558
(lp1559
I1
ag1472
asS'c:/marmalade/7.5/modules/iwutil/h/IwArray.h'
p1560
(lp1561
I1
ag1472
asS'c:/marmalade/7.5/modules/iwutil/h/IwMenu.h'
p1562
(lp1563
I1
ag1472
asS'c:/marmalade/7.5/modules/iwutil/h/IwTypes.h'
p1564
(lp1565
I1
ag1472
asS'c:/marmalade/7.5/modules/iwutil/h/IwUtilInitTerm.h'
p1566
(lp1567
I1
ag1472
asS'c:/marmalade/7.5/modules/iwutil/h/IwResource.h'
p1568
(lp1569
I1
ag1472
asS'c:/marmalade/7.5/modules/iwutil/h/IwSerialise.h'
p1570
(lp1571
I1
ag1472
asssS'(zlib)'
p1572
(dp1573
g1081
(dp1574
S'c:/marmalade/7.5/modules/third_party/zlib/h/zconf.h'
p1575
(lp1576
I1
a(dp1577
asS'c:/marmalade/7.5/modules/third_party/zlib/h/zlib.h'
p1578
(lp1579
I1
ag1577
assS'c:/marmalade/7.5/modules/third_party/zlib/zlib.mkf'
p1580
(lp1581
I1
a(dp1582
assS'(iwtween)'
p1583
(dp1584
S'c:/marmalade/7.5/modules/iwtween/h/IwTween.h'
p1585
(lp1586
I1
a(dp1587
asS'c:/marmalade/7.5/modules/iwtween/source/IwTween.cpp'
p1588
(lp1589
I1
ag1587
asS'c:/marmalade/7.5/modules/iwtween/iwtween.mkf'
p1590
(lp1591
I1
a(dp1592
assS'(s3e-default)'
p1593
(dp1594
S'c:/marmalade/7.5/s3e/s3e-default.mkf'
p1595
(lp1596
I1
a(dp1597
asssS'files'
p1598
(dp1599
S'IwGxFontPreparedData.h'
p1600
g328
(cmkb_main
File
p1601
g330
Ntp1602
Rp1603
(dp1604
S'flags'
p1605
g1286
sS'group'
p1606
(lp1607
S"'Marmalade Studio'"
p1608
ag1282
asg354
g1298
sbsS'iterator'
p1609
g328
(g1601
g330
Ntp1610
Rp1611
(dp1612
g1605
(dp1613
sg1606
(lp1614
S"'Marmalade System (S3E)'"
p1615
aS'stdc headers'
p1616
aS'c++'
p1617
asg354
S'c:/marmalade/7.5/s3e/h/std/c++/iterator'
p1618
sbsS'IwGL.h'
p1619
g328
(g1601
g330
Ntp1620
Rp1621
(dp1622
g1605
g1265
sg1606
(lp1623
S"'Marmalade Studio'"
p1624
ag1258
asg354
g1263
sbsS's3e.h'
p1625
g328
(g1601
g330
Ntp1626
Rp1627
(dp1628
g1605
g1613
sg1606
(lp1629
g1615
asg354
S'c:/marmalade/7.5/s3e/h/s3e.h'
p1630
sbsS'errno.h'
p1631
g328
(g1601
g330
Ntp1632
Rp1633
(dp1634
g1605
g1613
sg1606
(lp1635
g1615
aS'stdc headers'
p1636
asg354
S'c:/marmalade/7.5/s3e/h/std/errno.h'
p1637
sbsS'IwSingleton.h'
p1638
g328
(g1601
g330
Ntp1639
Rp1640
(dp1641
g1605
g1472
sg1606
(lp1642
S"'Marmalade Studio'"
p1643
ag1468
asg354
g1470
sbsS'dlfcn.h'
p1644
g328
(g1601
g330
Ntp1645
Rp1646
(dp1647
g1605
g1613
sg1606
g1635
sg354
S'c:/marmalade/7.5/s3e/h/std/dlfcn.h'
p1648
sbsS'IwSoundWAV.cpp'
p1649
g328
(g1601
g330
Ntp1650
Rp1651
(dp1652
g1605
g1140
sg1606
(lp1653
g1136
asg354
g1163
sbsS'sched.h'
p1654
g328
(g1601
g330
Ntp1655
Rp1656
(dp1657
g1605
g1613
sg1606
g1635
sg354
S'c:/marmalade/7.5/s3e/h/std/sched.h'
p1658
sbsS'IwSoundPCM.h'
p1659
g328
(g1601
g330
Ntp1660
Rp1661
(dp1662
g1605
g1140
sg1606
g1653
sg354
g1181
sbsS'IwGeomFMat2D.h'
p1663
g328
(g1601
g330
Ntp1664
Rp1665
(dp1666
g1605
g1308
sg1606
(lp1667
S"'Marmalade Studio'"
p1668
ag1304
asg354
g1362
sbsS'cassert'
p1669
g328
(g1601
g330
Ntp1670
Rp1671
(dp1672
g1605
g1613
sg1606
g1614
sg354
S'c:/marmalade/7.5/s3e/h/std/c++/cassert'
p1673
sbsS'grp.h'
p1674
g328
(g1601
g330
Ntp1675
Rp1676
(dp1677
g1605
g1613
sg1606
g1635
sg354
S'c:/marmalade/7.5/s3e/h/std/grp.h'
p1678
sbsS'list'
p1679
g328
(g1601
g330
Ntp1680
Rp1681
(dp1682
g1605
g1613
sg1606
g1614
sg354
S'c:/marmalade/7.5/s3e/h/std/c++/list'
p1683
sbsS'IwSoundSpec.cpp'
p1684
g328
(g1601
g330
Ntp1685
Rp1686
(dp1687
g1605
g1140
sg1606
g1653
sg354
g1169
sbsS'IwGeomMat.h.tpl'
p1688
g328
(g1601
g330
Ntp1689
Rp1690
(dp1691
g1605
g1308
sg1606
g1667
sg354
g1358
sbsS'istream'
p1692
g328
(g1601
g330
Ntp1693
Rp1694
(dp1695
g1605
g1613
sg1606
g1614
sg354
S'c:/marmalade/7.5/s3e/h/std/c++/istream'
p1696
sbsS'jpeglib.h'
p1697
g328
(g1601
g330
Ntp1698
Rp1699
(dp1700
g1605
g1099
sg1606
(lp1701
g1091
ag1081
asg354
g1124
sbsS'iw2d_public.defines.txt'
p1702
g328
(g1601
g330
Ntp1703
Rp1704
(dp1705
g1605
g1274
sg1606
(lp1706
S"'Marmalade Studio'"
p1707
ag1270
asg354
g1272
sbsS'iostream.h'
p1708
g328
(g1601
g330
Ntp1709
Rp1710
(dp1711
g1605
g1613
sg1606
g1614
sg354
S'c:/marmalade/7.5/s3e/h/std/c++/iostream.h'
p1712
sbsS'IwSoundADPCM.h'
p1713
g328
(g1601
g330
Ntp1714
Rp1715
(dp1716
g1605
g1140
sg1606
g1653
sg354
g1141
sbsS'string'
p1717
g328
(g1601
g330
Ntp1718
Rp1719
(dp1720
g1605
g1613
sg1606
g1614
sg354
S'c:/marmalade/7.5/s3e/h/std/c++/string'
p1721
sbsS'IwMemory.h'
p1722
g328
(g1601
g330
Ntp1723
Rp1724
(dp1725
g1605
g1472
sg1606
g1642
sg354
g1481
sbsS'IwGeomPlane.h'
p1726
g328
(g1601
g330
Ntp1727
Rp1728
(dp1729
g1605
g1308
sg1606
g1667
sg354
g1338
sbsS'iw2d.config.txt'
p1730
g328
(g1601
g330
Ntp1731
Rp1732
(dp1733
g1605
g1274
sg1606
g1706
sg354
g1275
sbsS'iomanip'
p1734
g328
(g1601
g330
Ntp1735
Rp1736
(dp1737
g1605
g1613
sg1606
g1614
sg354
S'c:/marmalade/7.5/s3e/h/std/c++/iomanip'
p1738
sbsS'iwgeom.mkf'
p1739
g328
(g1601
g330
Ntp1740
Rp1741
(dp1742
g1605
g1315
sg1606
g1667
sg354
g1313
sbsS'IwGxError.h'
p1743
g328
(g1601
g330
Ntp1744
Rp1745
(dp1746
g1605
g1408
sg1606
(lp1747
S"'Marmalade Studio'"
p1748
ag1404
asg354
g1425
sbsS'IwGeom.h'
p1749
g328
(g1601
g330
Ntp1750
Rp1751
(dp1752
g1605
g1308
sg1606
g1667
sg354
g1330
sbsS'scene.cpp'
p1753
g328
(g1601
g330
Ntp1754
Rp1755
(dp1756
g1605
g1197
sg1606
(lp1757
g1193
asg354
g1222
sbsS'IwGeomVec4.h'
p1758
g328
(g1601
g330
Ntp1759
Rp1760
(dp1761
g1605
g1308
sg1606
g1667
sg354
g1346
sbsS'dir.h'
p1762
g328
(g1601
g330
Ntp1763
Rp1764
(dp1765
g1605
g1613
sg1606
(lp1766
g1615
aS'stdc headers'
p1767
aS'sys'
p1768
asg354
S'c:/marmalade/7.5/s3e/h/std/sys/dir.h'
p1769
sbsS'locale.h'
p1770
g328
(g1601
g330
Ntp1771
Rp1772
(dp1773
g1605
g1613
sg1606
g1635
sg354
S'c:/marmalade/7.5/s3e/h/std/locale.h'
p1774
sbsS'vector'
p1775
g328
(g1601
g330
Ntp1776
Rp1777
(dp1778
g1605
g1613
sg1606
g1614
sg354
S'c:/marmalade/7.5/s3e/h/std/c++/vector'
p1779
sbsS'IwManaged.h'
p1780
g328
(g1601
g330
Ntp1781
Rp1782
(dp1783
g1605
g1472
sg1606
g1642
sg354
g1493
sbsS's3eCompass.h'
p1784
g328
(g1601
g330
Ntp1785
Rp1786
(dp1787
g1605
g1613
sg1606
g1629
sg354
S'c:/marmalade/7.5/s3e/h/s3eCompass.h'
p1788
sbsS'cderror.h'
p1789
g328
(g1601
g330
Ntp1790
Rp1791
(dp1792
g1605
g1099
sg1606
g1701
sg354
g1102
sbsS'climits'
p1793
g328
(g1601
g330
Ntp1794
Rp1795
(dp1796
g1605
g1613
sg1606
g1614
sg354
S'c:/marmalade/7.5/s3e/h/std/c++/climits'
p1797
sbsS'ipc.h'
p1798
g328
(g1601
g330
Ntp1799
Rp1800
(dp1801
g1605
g1613
sg1606
g1766
sg354
S'c:/marmalade/7.5/s3e/h/std/sys/ipc.h'
p1802
sbsS'jversion.h'
p1803
g328
(g1601
g330
Ntp1804
Rp1805
(dp1806
g1605
g1099
sg1606
g1701
sg354
g1120
sbsS'fnmatch.h'
p1807
g328
(g1601
g330
Ntp1808
Rp1809
(dp1810
g1605
g1613
sg1606
g1635
sg354
S'c:/marmalade/7.5/s3e/h/std/fnmatch.h'
p1811
sbsS'IwGxState.h'
p1812
g328
(g1601
g330
Ntp1813
Rp1814
(dp1815
g1605
g1408
sg1606
g1747
sg354
g1454
sbsS'rope'
p1816
g328
(g1601
g330
Ntp1817
Rp1818
(dp1819
g1605
g1613
sg1606
g1614
sg354
S'c:/marmalade/7.5/s3e/h/std/c++/rope'
p1820
sbsS's3eAudio.h'
p1821
g328
(g1601
g330
Ntp1822
Rp1823
(dp1824
g1605
g1613
sg1606
g1629
sg354
S'c:/marmalade/7.5/s3e/h/s3eAudio.h'
p1825
sbsS's3eSurface.h'
p1826
g328
(g1601
g330
Ntp1827
Rp1828
(dp1829
g1605
g1613
sg1606
g1629
sg354
S'c:/marmalade/7.5/s3e/h/s3eSurface.h'
p1830
sbsS'new'
p1831
g328
(g1601
g330
Ntp1832
Rp1833
(dp1834
g1605
g1613
sg1606
g1614
sg354
S'c:/marmalade/7.5/s3e/h/std/c++/new'
p1835
sbsS's3eWindow.h'
p1836
g328
(g1601
g330
Ntp1837
Rp1838
(dp1839
g1605
g1613
sg1606
(lp1840
g1615
aS'Extensions'
p1841
asg354
S'c:/marmalade/7.5/s3e/h/ext/s3eWindow.h'
p1842
sbsS'IwBuffer.h'
p1843
g328
(g1601
g330
Ntp1844
Rp1845
(dp1846
g1605
g1472
sg1606
g1642
sg354
g1475
sbsS'stdio_streambuf'
p1847
g328
(g1601
g330
Ntp1848
Rp1849
(dp1850
g1605
g1613
sg1606
g1614
sg354
S'c:/marmalade/7.5/s3e/h/std/c++/stdio_streambuf'
p1851
sbsS'IwGeomQuat.h.tpl'
p1852
g328
(g1601
g330
Ntp1853
Rp1854
(dp1855
g1605
g1308
sg1606
g1667
sg354
g1320
sbsS's3eOSExec.h'
p1856
g328
(g1601
g330
Ntp1857
Rp1858
(dp1859
g1605
g1613
sg1606
g1840
sg354
S'c:/marmalade/7.5/s3e/h/ext/s3eOSExec.h'
p1860
sbsS'IwGxTransformSW.h'
p1861
g328
(g1601
g330
Ntp1862
Rp1863
(dp1864
g1605
g1408
sg1606
g1747
sg354
g1435
sbsS'IwGxMetrics.h'
p1865
g328
(g1601
g330
Ntp1866
Rp1867
(dp1868
g1605
g1408
sg1606
g1747
sg354
g1439
sbsS'iwgxfont.config.txt'
p1869
g328
(g1601
g330
Ntp1870
Rp1871
(dp1872
g1605
g1286
sg1606
g1607
sg354
g1289
sbsS'gl2platform.h'
p1873
g328
(g1601
g330
Ntp1874
Rp1875
(dp1876
g1605
g1613
sg1606
(lp1877
g1615
aS'GL'
p1878
aS'GLES 2.0'
p1879
asg354
S'c:/marmalade/7.5/s3e/h/GLES2/gl2platform.h'
p1880
sbsS'IwResManagerClass.h'
p1881
g328
(g1601
g330
Ntp1882
Rp1883
(dp1884
g1605
g1384
sg1606
(lp1885
g1244
ag1380
asg354
g1387
sbsS'queue'
p1886
g328
(g1601
g330
Ntp1887
Rp1888
(dp1889
g1605
g1613
sg1606
g1614
sg354
S'c:/marmalade/7.5/s3e/h/std/c++/queue'
p1890
sbsS'time_1.h'
p1891
g328
(g1601
g330
Ntp1892
Rp1893
(dp1894
g1605
g1613
sg1606
g1766
sg354
S'c:/marmalade/7.5/s3e/h/std/sys/time.h'
p1895
sbsS'Iw2D.h'
p1896
g328
(g1601
g330
Ntp1897
Rp1898
(dp1899
g1605
g1274
sg1606
g1706
sg354
g1277
sbsS'IwGeomVec2.h'
p1900
g328
(g1601
g330
Ntp1901
Rp1902
(dp1903
g1605
g1308
sg1606
g1667
sg354
g1322
sbsS'sendfile.h'
p1904
g328
(g1601
g330
Ntp1905
Rp1906
(dp1907
g1605
g1613
sg1606
g1766
sg354
S'c:/marmalade/7.5/s3e/h/std/sys/sendfile.h'
p1908
sbsS'malloc.h'
p1909
g328
(g1601
g330
Ntp1910
Rp1911
(dp1912
g1605
g1613
sg1606
g1635
sg354
S'c:/marmalade/7.5/s3e/h/std/malloc.h'
p1913
sbsS'stdarg.h'
p1914
g328
(g1601
g330
Ntp1915
Rp1916
(dp1917
g1605
g1613
sg1606
g1635
sg354
S'c:/marmalade/7.5/s3e/h/std/stdarg.h'
p1918
sbsS'IwGeomCore.h'
p1919
g328
(g1601
g330
Ntp1920
Rp1921
(dp1922
g1605
g1308
sg1606
g1667
sg354
g1348
sbsS'Iw2DSceneGraph.h'
p1923
g328
(g1601
g330
Ntp1924
Rp1925
(dp1926
g1605
g1250
sg1606
(lp1927
S"'Marmalade Studio'"
p1928
ag1246
asg354
g1253
sbsS'endian.h'
p1929
g328
(g1601
g330
Ntp1930
Rp1931
(dp1932
g1605
g1613
sg1606
g1635
sg354
S'c:/marmalade/7.5/s3e/h/std/endian.h'
p1933
sbsS'gl3ext.h'
p1934
g328
(g1601
g330
Ntp1935
Rp1936
(dp1937
g1605
g1613
sg1606
(lp1938
g1615
aS'GL'
p1939
aS'GLES 3.0'
p1940
asg354
S'c:/marmalade/7.5/s3e/h/GLES3/gl3ext.h'
p1941
sbsS'glob.h'
p1942
g328
(g1601
g330
Ntp1943
Rp1944
(dp1945
g1605
g1613
sg1606
g1635
sg354
S'c:/marmalade/7.5/s3e/h/std/glob.h'
p1946
sbsS'fstream'
p1947
g328
(g1601
g330
Ntp1948
Rp1949
(dp1950
g1605
g1613
sg1606
g1614
sg354
S'c:/marmalade/7.5/s3e/h/std/c++/fstream'
p1951
sbsS's3eCamera.h'
p1952
g328
(g1601
g330
Ntp1953
Rp1954
(dp1955
g1605
g1613
sg1606
g1629
sg354
S'c:/marmalade/7.5/s3e/h/s3eCamera.h'
p1956
sbsS'jconfig.h'
p1957
g328
(g1601
g330
Ntp1958
Rp1959
(dp1960
g1605
g1099
sg1606
g1701
sg354
g1122
sbsS'memory'
p1961
g328
(g1601
g330
Ntp1962
Rp1963
(dp1964
g1605
g1613
sg1606
g1614
sg354
S'c:/marmalade/7.5/s3e/h/std/c++/memory'
p1965
sbsS'egl.h'
p1966
g328
(g1601
g330
Ntp1967
Rp1968
(dp1969
g1605
g1613
sg1606
(lp1970
g1615
aS'GL'
p1971
aS'EGL'
p1972
asg354
S'c:/marmalade/7.5/s3e/h/EGL/egl.h'
p1973
sbsS'egl_1.h'
p1974
g328
(g1601
g330
Ntp1975
Rp1976
(dp1977
g1605
g1613
sg1606
(lp1978
g1615
aS'GL'
p1979
aS'GLES 1.x'
p1980
asg354
S'c:/marmalade/7.5/s3e/h/GLES/egl.h'
p1981
sbsS'IwMemManagerDL.h'
p1982
g328
(g1601
g330
Ntp1983
Rp1984
(dp1985
g1605
g1472
sg1606
g1642
sg354
g1525
sbsS'deque'
p1986
g328
(g1601
g330
Ntp1987
Rp1988
(dp1989
g1605
g1613
sg1606
g1614
sg354
S'c:/marmalade/7.5/s3e/h/std/c++/deque'
p1990
sbsS'IwString.h'
p1991
g328
(g1601
g330
Ntp1992
Rp1993
(dp1994
g1605
g1472
sg1606
g1642
sg354
g1546
sbsS'cwchar'
p1995
g328
(g1601
g330
Ntp1996
Rp1997
(dp1998
g1605
g1613
sg1606
g1614
sg354
S'c:/marmalade/7.5/s3e/h/std/c++/cwchar'
p1999
sbsS'iwutil.mkf'
p2000
g328
(g1601
g330
Ntp2001
Rp2002
(dp2003
g1605
g1543
sg1606
g1642
sg354
g1541
sbsS'csignal'
p2004
g328
(g1601
g330
Ntp2005
Rp2006
(dp2007
g1605
g1613
sg1606
g1614
sg354
S'c:/marmalade/7.5/s3e/h/std/c++/csignal'
p2008
sbsS'float.h'
p2009
g328
(g1601
g330
Ntp2010
Rp2011
(dp2012
g1605
g1613
sg1606
g1635
sg354
S'c:/marmalade/7.5/s3e/h/std/float.h'
p2013
sbsS'pthread_alloc'
p2014
g328
(g1601
g330
Ntp2015
Rp2016
(dp2017
g1605
g1613
sg1606
g1614
sg354
S'c:/marmalade/7.5/s3e/h/std/c++/pthread_alloc'
p2018
sbsS'getopt.h'
p2019
g328
(g1601
g330
Ntp2020
Rp2021
(dp2022
g1605
g1613
sg1606
g1635
sg354
S'c:/marmalade/7.5/s3e/h/std/getopt.h'
p2023
sbsS'IwOptimiseARM.h'
p2024
g328
(g1601
g330
Ntp2025
Rp2026
(dp2027
g1605
g1472
sg1606
g1642
sg354
g1517
sbsS'times.h'
p2028
g328
(g1601
g330
Ntp2029
Rp2030
(dp2031
g1605
g1613
sg1606
g1766
sg354
S'c:/marmalade/7.5/s3e/h/std/sys/times.h'
p2032
sbsS'IwGeomFSphere.h'
p2033
g328
(g1601
g330
Ntp2034
Rp2035
(dp2036
g1605
g1308
sg1606
g1667
sg354
g1368
sbsS'game.h'
p2037
g328
(g1601
g330
Ntp2038
Rp2039
(dp2040
g1605
g1197
sg1606
g1757
sg354
g1220
sbsS'functional'
p2041
g328
(g1601
g330
Ntp2042
Rp2043
(dp2044
g1605
g1613
sg1606
g1614
sg354
S'c:/marmalade/7.5/s3e/h/std/c++/functional'
p2045
sbsS'IwTypes.h'
p2046
g328
(g1601
g330
Ntp2047
Rp2048
(dp2049
g1605
g1472
sg1606
g1642
sg354
g1564
sbsS'unistd.h'
p2050
g328
(g1601
g330
Ntp2051
Rp2052
(dp2053
g1605
g1613
sg1606
g1635
sg354
S'c:/marmalade/7.5/s3e/h/std/unistd.h'
p2054
sbsS'audio.cpp'
p2055
g328
(g1601
g330
Ntp2056
Rp2057
(dp2058
g1605
g1197
sg1606
g1757
sg354
g1214
sbsS's3eCompression.h'
p2059
g328
(g1601
g330
Ntp2060
Rp2061
(dp2062
g1605
g1613
sg1606
g1629
sg354
S'c:/marmalade/7.5/s3e/h/s3eCompression.h'
p2063
sbsS'langinfo.h'
p2064
g328
(g1601
g330
Ntp2065
Rp2066
(dp2067
g1605
g1613
sg1606
g1635
sg354
S'c:/marmalade/7.5/s3e/h/std/langinfo.h'
p2068
sbsS's3edebugHeap.h'
p2069
g328
(g1601
g330
Ntp2070
Rp2071
(dp2072
g1605
g1613
sg1606
g1840
sg354
S'c:/marmalade/7.5/s3e/h/ext/s3edebugHeap.h'
p2073
sbsS'AirplayVersion.h'
p2074
g328
(g1601
g330
Ntp2075
Rp2076
(dp2077
g1605
g1613
sg1606
g1629
sg354
S'c:/marmalade/7.5/s3e/h/AirplayVersion.h'
p2078
sbsS'gl2extimg.h'
p2079
g328
(g1601
g330
Ntp2080
Rp2081
(dp2082
g1605
g1613
sg1606
g1877
sg354
S'c:/marmalade/7.5/s3e/h/GLES2/gl2extimg.h'
p2083
sbsS'IwGeomSqrt.h'
p2084
g328
(g1601
g330
Ntp2085
Rp2086
(dp2087
g1605
g1308
sg1606
g1667
sg354
g1316
sbsS'tiniconv_int.h'
p2088
g328
(g1601
g330
Ntp2089
Rp2090
(dp2091
g1605
g1133
sg1606
(lp2092
g1126
asg354
g1131
sbsS'syslog.h'
p2093
g328
(g1601
g330
Ntp2094
Rp2095
(dp2096
g1605
g1613
sg1606
g1635
sg354
S'c:/marmalade/7.5/s3e/h/std/syslog.h'
p2097
sbsS'IwGxFontTypes.h'
p2098
g328
(g1601
g330
Ntp2099
Rp2100
(dp2101
g1605
g1286
sg1606
g1607
sg354
g1287
sbsS'IwGeomFIntersect.h'
p2102
g328
(g1601
g330
Ntp2103
Rp2104
(dp2105
g1605
g1308
sg1606
g1667
sg354
g1378
sbsS'hash_map'
p2106
g328
(g1601
g330
Ntp2107
Rp2108
(dp2109
g1605
g1613
sg1606
g1614
sg354
S'c:/marmalade/7.5/s3e/h/std/c++/hash_map'
p2110
sbsS's3e.mkf'
p2111
g328
(g1601
g330
Ntp2112
Rp2113
(dp2114
g1605
(dp2115
sg1606
g1629
sg354
S'c:/marmalade/7.5/s3e/s3e.mkf'
p2116
sbsS'IwGeomMat2D.h.tpl'
p2117
g328
(g1601
g330
Ntp2118
Rp2119
(dp2120
g1605
g1308
sg1606
g1667
sg354
g1360
sbsS's3eOSReadString.h'
p2121
g328
(g1601
g330
Ntp2122
Rp2123
(dp2124
g1605
g1613
sg1606
g1840
sg354
S'c:/marmalade/7.5/s3e/h/ext/s3eOSReadString.h'
p2125
sbsS'IwSound.h'
p2126
g328
(g1601
g330
Ntp2127
Rp2128
(dp2129
g1605
g1140
sg1606
g1653
sg354
g1175
sbsS'map'
p2130
g328
(g1601
g330
Ntp2131
Rp2132
(dp2133
g1605
g1613
sg1606
g1614
sg354
S'c:/marmalade/7.5/s3e/h/std/c++/map'
p2134
sbsS'iwtween.mkf'
p2135
g328
(g1601
g330
Ntp2136
Rp2137
(dp2138
g1605
g1592
sg1606
(lp2139
g1583
asg354
g1590
sbsS'IwOptimiseSpeed.h'
p2140
g328
(g1601
g330
Ntp2141
Rp2142
(dp2143
g1605
g1472
sg1606
g1642
sg354
g1529
sbsS'ostream'
p2144
g328
(g1601
g330
Ntp2145
Rp2146
(dp2147
g1605
g1613
sg1606
g1614
sg354
S'c:/marmalade/7.5/s3e/h/std/c++/ostream'
p2148
sbsS'msl_string.h'
p2149
g328
(g1601
g330
Ntp2150
Rp2151
(dp2152
g1605
g1613
sg1606
g1614
sg354
S'c:/marmalade/7.5/s3e/h/std/c++/msl_string.h'
p2153
sbsS'select.h'
p2154
g328
(g1601
g330
Ntp2155
Rp2156
(dp2157
g1605
g1613
sg1606
g1766
sg354
S'c:/marmalade/7.5/s3e/h/std/sys/select.h'
p2158
sbsS'zlib.mkf'
p2159
g328
(g1601
g330
Ntp2160
Rp2161
(dp2162
g1605
g1582
sg1606
(lp2163
g1572
asg354
g1580
sbsS'signal.h'
p2164
g328
(g1601
g330
Ntp2165
Rp2166
(dp2167
g1605
g1613
sg1606
g1635
sg354
S'c:/marmalade/7.5/s3e/h/std/signal.h'
p2168
sbsS'sigcontext.h'
p2169
g328
(g1601
g330
Ntp2170
Rp2171
(dp2172
g1605
g1613
sg1606
g1635
sg354
S'c:/marmalade/7.5/s3e/h/std/sigcontext.h'
p2173
sbsS'libpng.mkf'
p2174
g328
(g1601
g330
Ntp2175
Rp2176
(dp2177
g1605
g1090
sg1606
(lp2178
g1079
asg354
g1088
sbsS's3eClipboard.h'
p2179
g328
(g1601
g330
Ntp2180
Rp2181
(dp2182
g1605
g1613
sg1606
g1629
sg354
S'c:/marmalade/7.5/s3e/h/s3eClipboard.h'
p2183
sbsS'IwGxFuncTable.h'
p2184
g328
(g1601
g330
Ntp2185
Rp2186
(dp2187
g1605
g1408
sg1606
g1747
sg354
g1413
sbsS'IwResHandlerGROUP.h'
p2188
g328
(g1601
g330
Ntp2189
Rp2190
(dp2191
g1605
g1384
sg1606
g1885
sg354
g1389
sbsS's3eDebug.h'
p2192
g328
(g1601
g330
Ntp2193
Rp2194
(dp2195
g1605
g1613
sg1606
g1629
sg354
S'c:/marmalade/7.5/s3e/h/s3eDebug.h'
p2196
sbsS'socket.h'
p2197
g328
(g1601
g330
Ntp2198
Rp2199
(dp2200
g1605
g1613
sg1606
g1766
sg354
S'c:/marmalade/7.5/s3e/h/std/sys/socket.h'
p2201
sbsS'glext.h'
p2202
g328
(g1601
g330
Ntp2203
Rp2204
(dp2205
g1605
g1613
sg1606
g1978
sg354
S'c:/marmalade/7.5/s3e/h/GLES/glext.h'
p2206
sbsS'typeinfo.h'
p2207
g328
(g1601
g330
Ntp2208
Rp2209
(dp2210
g1605
g1613
sg1606
g1614
sg354
S'c:/marmalade/7.5/s3e/h/std/c++/typeinfo.h'
p2211
sbsS'typeinfo'
p2212
g328
(g1601
g330
Ntp2213
Rp2214
(dp2215
g1605
g1613
sg1606
g1614
sg354
S'c:/marmalade/7.5/s3e/h/std/c++/typeinfo'
p2216
sbsS'iwsound.config.txt'
p2217
g328
(g1601
g330
Ntp2218
Rp2219
(dp2220
g1605
g1140
sg1606
(lp2221
g1136
ag1147
asg354
g1149
sbsS'fstream.h'
p2222
g328
(g1601
g330
Ntp2223
Rp2224
(dp2225
g1605
g1613
sg1606
g1614
sg354
S'c:/marmalade/7.5/s3e/h/std/c++/fstream.h'
p2226
sbsS'IwGeomMat.h'
p2227
g328
(g1601
g330
Ntp2228
Rp2229
(dp2230
g1605
g1308
sg1606
g1667
sg354
g1324
sbsS's3ePointer.h'
p2231
g328
(g1601
g330
Ntp2232
Rp2233
(dp2234
g1605
g1613
sg1606
g1629
sg354
S'c:/marmalade/7.5/s3e/h/s3ePointer.h'
p2235
sbsS'IwMemBucket.h'
p2236
g328
(g1601
g330
Ntp2237
Rp2238
(dp2239
g1605
g1472
sg1606
g1642
sg354
g1519
sbsS'PVRTexTool.h'
p2240
g328
(g1601
g330
Ntp2241
Rp2242
(dp2243
g1605
g1236
sg1606
(lp2244
g1228
ag1230
asg354
g1239
sbsS's3eGL.h'
p2245
g328
(g1601
g330
Ntp2246
Rp2247
(dp2248
g1605
g1613
sg1606
g1629
sg354
S'c:/marmalade/7.5/s3e/h/s3eGL.h'
p2249
sbsS'IwGeomFVec2.h'
p2250
g328
(g1601
g330
Ntp2251
Rp2252
(dp2253
g1605
g1308
sg1606
g1667
sg354
g1342
sbsS'IwGeomSVec4.h'
p2254
g328
(g1601
g330
Ntp2255
Rp2256
(dp2257
g1605
g1308
sg1606
g1667
sg354
g1344
sbsS'poll.h'
p2258
g328
(g1601
g330
Ntp2259
Rp2260
(dp2261
g1605
g1613
sg1606
g1635
sg354
S'c:/marmalade/7.5/s3e/h/std/poll.h'
p2262
sbsS'IwMatAnim.h'
p2263
g328
(g1601
g330
Ntp2264
Rp2265
(dp2266
g1605
g1408
sg1606
g1747
sg354
g1409
sbsS'IwGeomFVec4.h'
p2267
g328
(g1601
g330
Ntp2268
Rp2269
(dp2270
g1605
g1308
sg1606
g1667
sg354
g1356
sbsS'IwGx.h'
p2271
g328
(g1601
g330
Ntp2272
Rp2273
(dp2274
g1605
g1408
sg1606
g1747
sg354
g1427
sbsS'valarray'
p2275
g328
(g1601
g330
Ntp2276
Rp2277
(dp2278
g1605
g1613
sg1606
g1614
sg354
S'c:/marmalade/7.5/s3e/h/std/c++/valarray'
p2279
sbsS'iosfwd'
p2280
g328
(g1601
g330
Ntp2281
Rp2282
(dp2283
g1605
g1613
sg1606
g1614
sg354
S'c:/marmalade/7.5/s3e/h/std/c++/iosfwd'
p2284
sbsS'gl2.h'
p2285
g328
(g1601
g330
Ntp2286
Rp2287
(dp2288
g1605
g1613
sg1606
g1877
sg354
S'c:/marmalade/7.5/s3e/h/GLES2/gl2.h'
p2289
sbsS'jpegint.h'
p2290
g328
(g1601
g330
Ntp2291
Rp2292
(dp2293
g1605
g1099
sg1606
g1701
sg354
g1114
sbsS'stdiostream.h'
p2294
g328
(g1601
g330
Ntp2295
Rp2296
(dp2297
g1605
g1613
sg1606
g1614
sg354
S'c:/marmalade/7.5/s3e/h/std/c++/stdiostream.h'
p2298
sbsS'mem.h'
p2299
g328
(g1601
g330
Ntp2300
Rp2301
(dp2302
g1605
g1613
sg1606
g1614
sg354
S'c:/marmalade/7.5/s3e/h/std/c++/mem.h'
p2303
sbsS'jerror.h'
p2304
g328
(g1601
g330
Ntp2305
Rp2306
(dp2307
g1605
g1099
sg1606
g1701
sg354
g1097
sbsS'zconf.h'
p2308
g328
(g1601
g330
Ntp2309
Rp2310
(dp2311
g1605
g1577
sg1606
(lp2312
g1572
ag1081
asg354
g1575
sbsS's3e.config.txt'
p2313
g328
(g1601
g330
Ntp2314
Rp2315
(dp2316
g1605
g1613
sg1606
g1629
sg354
S'c:/marmalade/7.5/s3e/s3e.config.txt'
p2317
sbsS'numeric'
p2318
g328
(g1601
g330
Ntp2319
Rp2320
(dp2321
g1605
g1613
sg1606
g1614
sg354
S'c:/marmalade/7.5/s3e/h/std/c++/numeric'
p2322
sbsS'utime.h'
p2323
g328
(g1601
g330
Ntp2324
Rp2325
(dp2326
g1605
g1613
sg1606
g1635
sg354
S'c:/marmalade/7.5/s3e/h/std/utime.h'
p2327
sbsS'jdhuff.h'
p2328
g328
(g1601
g330
Ntp2329
Rp2330
(dp2331
g1605
g1099
sg1606
g1701
sg354
g1100
sbsS'IwResHandlerWAV.cpp'
p2332
g328
(g1601
g330
Ntp2333
Rp2334
(dp2335
g1605
g1140
sg1606
g1653
sg354
g1143
sbsS'un.h'
p2336
g328
(g1601
g330
Ntp2337
Rp2338
(dp2339
g1605
g1613
sg1606
g1766
sg354
S'c:/marmalade/7.5/s3e/h/std/sys/un.h'
p2340
sbsS'IwImage.h'
p2341
g328
(g1601
g330
Ntp2342
Rp2343
(dp2344
g1605
g1472
sg1606
g1642
sg354
g1515
sbsS's3eImagePicker.h'
p2345
g328
(g1601
g330
Ntp2346
Rp2347
(dp2348
g1605
g1613
sg1606
g1840
sg354
S'c:/marmalade/7.5/s3e/h/ext/s3eImagePicker.h'
p2349
sbsS'stdlib.h'
p2350
g328
(g1601
g330
Ntp2351
Rp2352
(dp2353
g1605
g1613
sg1606
g1635
sg354
S'c:/marmalade/7.5/s3e/h/std/stdlib.h'
p2354
sbsS'IwCopyingPtr.h'
p2355
g328
(g1601
g330
Ntp2356
Rp2357
(dp2358
g1605
g1472
sg1606
g1642
sg354
g1554
sbsS'iostream'
p2359
g328
(g1601
g330
Ntp2360
Rp2361
(dp2362
g1605
g1613
sg1606
g1614
sg354
S'c:/marmalade/7.5/s3e/h/std/c++/iostream'
p2363
sbsS'png.h'
p2364
g328
(g1601
g330
Ntp2365
Rp2366
(dp2367
g1605
g1085
sg1606
(lp2368
g1079
ag1081
asg354
g1083
sbsS'stddef.h'
p2369
g328
(g1601
g330
Ntp2370
Rp2371
(dp2372
g1605
g1613
sg1606
g1635
sg354
S'c:/marmalade/7.5/s3e/h/std/stddef.h'
p2373
sbsS'setjmp_win32.h'
p2374
g328
(g1601
g330
Ntp2375
Rp2376
(dp2377
g1605
g1613
sg1606
g1635
sg354
S'c:/marmalade/7.5/s3e/h/std/setjmp_win32.h'
p2378
sbsS'pauseMenu.h'
p2379
g328
(g1601
g330
Ntp2380
Rp2381
(dp2382
g1605
g1197
sg1606
g1757
sg354
g1195
sbsS'IwGxPrint.h'
p2383
g328
(g1601
g330
Ntp2384
Rp2385
(dp2386
g1605
g1408
sg1606
g1747
sg354
g1417
sbsS'iwgx_public.defines.txt'
p2387
g328
(g1601
g330
Ntp2388
Rp2389
(dp2390
g1605
g1408
sg1606
g1747
sg354
g1429
sbsS'streambuf.h'
p2391
g328
(g1601
g330
Ntp2392
Rp2393
(dp2394
g1605
g1613
sg1606
g1614
sg354
S'c:/marmalade/7.5/s3e/h/std/c++/streambuf.h'
p2395
sbsS'resources.cpp'
p2396
g328
(g1601
g330
Ntp2397
Rp2398
(dp2399
g1605
g1197
sg1606
g1757
sg354
g1200
sbsS'IwGeomFPlane.h'
p2400
g328
(g1601
g330
Ntp2401
Rp2402
(dp2403
g1605
g1308
sg1606
g1667
sg354
g1372
sbsS'wchar.h'
p2404
g328
(g1601
g330
Ntp2405
Rp2406
(dp2407
g1605
g1613
sg1606
g1635
sg354
S'c:/marmalade/7.5/s3e/h/std/wchar.h'
p2408
sbsS's3eCameraCapture.h'
p2409
g328
(g1601
g330
Ntp2410
Rp2411
(dp2412
g1605
g1613
sg1606
g1840
sg354
S'c:/marmalade/7.5/s3e/h/ext/s3eCameraCapture.h'
p2413
sbsS'eglext.h'
p2414
g328
(g1601
g330
Ntp2415
Rp2416
(dp2417
g1605
g1613
sg1606
g1970
sg354
S'c:/marmalade/7.5/s3e/h/EGL/eglext.h'
p2418
sbsS'IwResHandlerImage.h'
p2419
g328
(g1601
g330
Ntp2420
Rp2421
(dp2422
g1605
g1384
sg1606
g1885
sg354
g1402
sbsS'strstream.h'
p2423
g328
(g1601
g330
Ntp2424
Rp2425
(dp2426
g1605
g1613
sg1606
g1614
sg354
S'c:/marmalade/7.5/s3e/h/std/c++/strstream.h'
p2427
sbsS'tiniconv.h'
p2428
g328
(g1601
g330
Ntp2429
Rp2430
(dp2431
g1605
g1133
sg1606
g2092
sg354
g1134
sbsS'IwGLExt.h'
p2432
g328
(g1601
g330
Ntp2433
Rp2434
(dp2435
g1605
g1265
sg1606
g1623
sg354
g1268
sbsS'app.icf'
p2436
g328
(g1601
g330
Ntp2437
Rp2438
(dp2439
g1605
(dp2440
sg1606
g4
sg354
S'c:/Marmalade/7.5/examples/GameTutorial/CPP/marm1/data/app.icf'
p2441
sbsS'IwClassFactory.h'
p2442
g328
(g1601
g330
Ntp2443
Rp2444
(dp2445
g1605
g1472
sg1606
g1642
sg354
g1489
sbsS'file.h'
p2446
g328
(g1601
g330
Ntp2447
Rp2448
(dp2449
g1605
g1613
sg1606
g1766
sg354
S'c:/marmalade/7.5/s3e/h/std/sys/file.h'
p2450
sbsS'cstring'
p2451
g328
(g1601
g330
Ntp2452
Rp2453
(dp2454
g1605
g1613
sg1606
g1614
sg354
S'c:/marmalade/7.5/s3e/h/std/c++/cstring'
p2455
sbsS'IwSoundInst.cpp'
p2456
g328
(g1601
g330
Ntp2457
Rp2458
(dp2459
g1605
g1140
sg1606
g1653
sg354
g1165
sbsS'iwutil.config.txt'
p2460
g328
(g1601
g330
Ntp2461
Rp2462
(dp2463
g1605
g1472
sg1606
g1642
sg354
g1505
sbsS's3eSMS.h'
p2464
g328
(g1601
g330
Ntp2465
Rp2466
(dp2467
g1605
g1613
sg1606
g1840
sg354
S'c:/marmalade/7.5/s3e/h/ext/s3eSMS.h'
p2468
sbsS'limits.h'
p2469
g328
(g1601
g330
Ntp2470
Rp2471
(dp2472
g1605
g1613
sg1606
g1635
sg354
S'c:/marmalade/7.5/s3e/h/std/limits.h'
p2473
sbsS'scene.h'
p2474
g328
(g1601
g330
Ntp2475
Rp2476
(dp2477
g1605
g1197
sg1606
g1757
sg354
g1218
sbsS'IwMaterial.h'
p2478
g328
(g1601
g330
Ntp2479
Rp2480
(dp2481
g1605
g1408
sg1606
g1747
sg354
g1437
sbsS'PVRTexTool_interface.cpp'
p2482
g328
(g1601
g330
Ntp2483
Rp2484
(dp2485
g1605
g1236
sg1606
(lp2486
g1228
ag1230
ag1232
asg354
g1237
sbsS'IwGxSurface.h'
p2487
g328
(g1601
g330
Ntp2488
Rp2489
(dp2490
g1605
g1408
sg1606
g1747
sg354
g1423
sbsS's3eSocket.h'
p2491
g328
(g1601
g330
Ntp2492
Rp2493
(dp2494
g1605
g1613
sg1606
g1629
sg354
S'c:/marmalade/7.5/s3e/h/s3eSocket.h'
p2495
sbsS'IwAutoFile.h'
p2496
g328
(g1601
g330
Ntp2497
Rp2498
(dp2499
g1605
g1472
sg1606
g1642
sg354
g1533
sbsS's3eVibra.h'
p2500
g328
(g1601
g330
Ntp2501
Rp2502
(dp2503
g1605
g1613
sg1606
g1629
sg354
S'c:/marmalade/7.5/s3e/h/s3eVibra.h'
p2504
sbsS'poll_1.h'
p2505
g328
(g1601
g330
Ntp2506
Rp2507
(dp2508
g1605
g1613
sg1606
g1766
sg354
S'c:/marmalade/7.5/s3e/h/std/sys/poll.h'
p2509
sbsS's3eThread.h'
p2510
g328
(g1601
g330
Ntp2511
Rp2512
(dp2513
g1605
g1613
sg1606
g1629
sg354
S'c:/marmalade/7.5/s3e/h/s3eThread.h'
p2514
sbsS'ucontext.h'
p2515
g328
(g1601
g330
Ntp2516
Rp2517
(dp2518
g1605
g1613
sg1606
g1635
sg354
S'c:/marmalade/7.5/s3e/h/std/ucontext.h'
p2519
sbsS'time.h'
p2520
g328
(g1601
g330
Ntp2521
Rp2522
(dp2523
g1605
g1613
sg1606
g1635
sg354
S'c:/marmalade/7.5/s3e/h/std/time.h'
p2524
sbsS'jchuff.h'
p2525
g328
(g1601
g330
Ntp2526
Rp2527
(dp2528
g1605
g1099
sg1606
g1701
sg354
g1116
sbsS'IwSoundPCM.cpp'
p2529
g328
(g1601
g330
Ntp2530
Rp2531
(dp2532
g1605
g1140
sg1606
g1653
sg354
g1161
sbsS's3eSoundRecord.h'
p2533
g328
(g1601
g330
Ntp2534
Rp2535
(dp2536
g1605
g1613
sg1606
g1629
sg354
S'c:/marmalade/7.5/s3e/h/s3eSoundRecord.h'
p2537
sbsS'IwFibre.h'
p2538
g328
(g1601
g330
Ntp2539
Rp2540
(dp2541
g1605
g1472
sg1606
g1642
sg354
g1558
sbsS's3eVersion.h'
p2542
g328
(g1601
g330
Ntp2543
Rp2544
(dp2545
g1605
g1613
sg1606
g1629
sg354
S'c:/marmalade/7.5/s3e/h/s3eVersion.h'
p2546
sbsS'input.cpp'
p2547
g328
(g1601
g330
Ntp2548
Rp2549
(dp2550
g1605
g1197
sg1606
g1757
sg354
g1208
sbsS'IwSoundGroup.h'
p2551
g328
(g1601
g330
Ntp2552
Rp2553
(dp2554
g1605
g1140
sg1606
g1653
sg354
g1186
sbsS'IwSoundWAV.h'
p2555
g328
(g1601
g330
Ntp2556
Rp2557
(dp2558
g1605
g1140
sg1606
g1653
sg354
g1167
sbsS'IwGxFontGlyph.h'
p2559
g328
(g1601
g330
Ntp2560
Rp2561
(dp2562
g1605
g1286
sg1606
g1607
sg354
g1284
sbsS's3eTypes.h'
p2563
g328
(g1601
g330
Ntp2564
Rp2565
(dp2566
g1605
g1613
sg1606
g1629
sg354
S'c:/marmalade/7.5/s3e/h/s3eTypes.h'
p2567
sbsS'IwSoundSpec.h'
p2568
g328
(g1601
g330
Ntp2569
Rp2570
(dp2571
g1605
g1140
sg1606
g1653
sg354
g1155
sbsS'signal_2.h'
p2572
g328
(g1601
g330
Ntp2573
Rp2574
(dp2575
g1605
g1613
sg1606
g1614
sg354
S'c:/marmalade/7.5/s3e/h/std/c++/signal.h'
p2576
sbsS'termios.h'
p2577
g328
(g1601
g330
Ntp2578
Rp2579
(dp2580
g1605
g1613
sg1606
g1635
sg354
S'c:/marmalade/7.5/s3e/h/std/termios.h'
p2581
sbsS'iw2dscenegraph.mkf'
p2582
g328
(g1601
g330
Ntp2583
Rp2584
(dp2585
g1605
g1257
sg1606
g1927
sg354
g1255
sbsS'slist'
p2586
g328
(g1601
g330
Ntp2587
Rp2588
(dp2589
g1605
g1613
sg1606
g1614
sg354
S'c:/marmalade/7.5/s3e/h/std/c++/slist'
p2590
sbsS'cstdlib'
p2591
g328
(g1601
g330
Ntp2592
Rp2593
(dp2594
g1605
g1613
sg1606
g1614
sg354
S'c:/marmalade/7.5/s3e/h/std/c++/cstdlib'
p2595
sbsS's3eLocation.h'
p2596
g328
(g1601
g330
Ntp2597
Rp2598
(dp2599
g1605
g1613
sg1606
g1629
sg354
S'c:/marmalade/7.5/s3e/h/s3eLocation.h'
p2600
sbsS'IwMemBucketHelpers.h'
p2601
g328
(g1601
g330
Ntp2602
Rp2603
(dp2604
g1605
g1472
sg1606
g1642
sg354
g1509
sbsS's3eHash.h'
p2605
g328
(g1601
g330
Ntp2606
Rp2607
(dp2608
g1605
g1613
sg1606
g1629
sg354
S'c:/marmalade/7.5/s3e/h/s3eHash.h'
p2609
sbsS'IwSoundGroup.cpp'
p2610
g328
(g1601
g330
Ntp2611
Rp2612
(dp2613
g1605
g1140
sg1606
g1653
sg354
g1138
sbsS'IwGeomFMat.h'
p2614
g328
(g1601
g330
Ntp2615
Rp2616
(dp2617
g1605
g1308
sg1606
g1667
sg354
g1336
sbsS'type_traits.h'
p2618
g328
(g1601
g330
Ntp2619
Rp2620
(dp2621
g1605
g1613
sg1606
g1614
sg354
S'c:/marmalade/7.5/s3e/h/std/c++/type_traits.h'
p2622
sbsS's3eAtomic.h'
p2623
g328
(g1601
g330
Ntp2624
Rp2625
(dp2626
g1605
g1613
sg1606
g1629
sg354
S'c:/marmalade/7.5/s3e/h/s3eAtomic.h'
p2627
sbsS'IwMenu.h'
p2628
g328
(g1601
g330
Ntp2629
Rp2630
(dp2631
g1605
g1472
sg1606
g1642
sg354
g1562
sbsS'IwResHandlerITX.h'
p2632
g328
(g1601
g330
Ntp2633
Rp2634
(dp2635
g1605
g1384
sg1606
g1885
sg354
g1382
sbsS'IwSoundData.h'
p2636
g328
(g1601
g330
Ntp2637
Rp2638
(dp2639
g1605
g1140
sg1606
g1653
sg354
g1179
sbsS'IwArray.h'
p2640
g328
(g1601
g330
Ntp2641
Rp2642
(dp2643
g1605
g1472
sg1606
g1642
sg354
g1560
sbsS'IwUTF8.h'
p2644
g328
(g1601
g330
Ntp2645
Rp2646
(dp2647
g1605
g1472
sg1606
g1642
sg354
g1503
sbsS'math_rvct.h'
p2648
g328
(g1601
g330
Ntp2649
Rp2650
(dp2651
g1605
g1613
sg1606
g1635
sg354
S'c:/marmalade/7.5/s3e/h/std/math_rvct.h'
p2652
sbsS'IwUtil.h'
p2653
g328
(g1601
g330
Ntp2654
Rp2655
(dp2656
g1605
g1472
sg1606
g1642
sg354
g1544
sbsS'IwFColour.h'
p2657
g328
(g1601
g330
Ntp2658
Rp2659
(dp2660
g1605
g1408
sg1606
g1747
sg354
g1443
sbsS'wctype.h'
p2661
g328
(g1601
g330
Ntp2662
Rp2663
(dp2664
g1605
g1613
sg1606
g1635
sg354
S'c:/marmalade/7.5/s3e/h/std/wctype.h'
p2665
sbsS'mainMenu.h'
p2666
g328
(g1601
g330
Ntp2667
Rp2668
(dp2669
g1605
g1197
sg1606
g1757
sg354
g1202
sbsS'cstddef'
p2670
g328
(g1601
g330
Ntp2671
Rp2672
(dp2673
g1605
g1613
sg1606
g1614
sg354
S'c:/marmalade/7.5/s3e/h/std/c++/cstddef'
p2674
sbsS'assert.h'
p2675
g328
(g1601
g330
Ntp2676
Rp2677
(dp2678
g1605
g1613
sg1606
g1635
sg354
S'c:/marmalade/7.5/s3e/h/std/assert.h'
p2679
sbsS'mman.h'
p2680
g328
(g1601
g330
Ntp2681
Rp2682
(dp2683
g1605
g1613
sg1606
g1766
sg354
S'c:/marmalade/7.5/s3e/h/std/sys/mman.h'
p2684
sbsS'IwRandom.h'
p2685
g328
(g1601
g330
Ntp2686
Rp2687
(dp2688
g1605
g1472
sg1606
g1642
sg354
g1499
sbsS'libgen.h'
p2689
g328
(g1601
g330
Ntp2690
Rp2691
(dp2692
g1605
g1613
sg1606
g1635
sg354
S'c:/marmalade/7.5/s3e/h/std/libgen.h'
p2693
sbsS'utsname.h'
p2694
g328
(g1601
g330
Ntp2695
Rp2696
(dp2697
g1605
g1613
sg1606
g1766
sg354
S'c:/marmalade/7.5/s3e/h/std/sys/utsname.h'
p2698
sbsS'wait.h'
p2699
g328
(g1601
g330
Ntp2700
Rp2701
(dp2702
g1605
g1613
sg1606
g1766
sg354
S'c:/marmalade/7.5/s3e/h/std/sys/wait.h'
p2703
sbsS'param.h'
p2704
g328
(g1601
g330
Ntp2705
Rp2706
(dp2707
g1605
g1613
sg1606
g1766
sg354
S'c:/marmalade/7.5/s3e/h/std/sys/param.h'
p2708
sbsS'IwDivide.h'
p2709
g328
(g1601
g330
Ntp2710
Rp2711
(dp2712
g1605
g1472
sg1606
g1642
sg354
g1479
sbsS'Iw2DSceneGraphCore.cpp'
p2713
g328
(g1601
g330
Ntp2714
Rp2715
(dp2716
g1605
g1465
sg1606
(lp2717
S"'Marmalade Studio'"
p2718
ag1458
asg354
g1466
sbsS'IwResManager.h'
p2719
g328
(g1601
g330
Ntp2720
Rp2721
(dp2722
g1605
g1384
sg1606
g1885
sg354
g1391
sbsS'IwSoundManager.h'
p2723
g328
(g1601
g330
Ntp2724
Rp2725
(dp2726
g1605
g1140
sg1606
g1653
sg354
g1159
sbsS'cwctype'
p2727
g328
(g1601
g330
Ntp2728
Rp2729
(dp2730
g1605
g1613
sg1606
g1614
sg354
S'c:/marmalade/7.5/s3e/h/std/c++/cwctype'
p2731
sbsS'set'
p2732
g328
(g1601
g330
Ntp2733
Rp2734
(dp2735
g1605
g1613
sg1606
g1614
sg354
S'c:/marmalade/7.5/s3e/h/std/c++/set'
p2736
sbsS'IwGeomSQuat.h'
p2737
g328
(g1601
g330
Ntp2738
Rp2739
(dp2740
g1605
g1308
sg1606
g1667
sg354
g1332
sbsS'locale'
p2741
g328
(g1601
g330
Ntp2742
Rp2743
(dp2744
g1605
g1613
sg1606
g1614
sg354
S'c:/marmalade/7.5/s3e/h/std/c++/locale'
p2745
sbsS'cstdio'
p2746
g328
(g1601
g330
Ntp2747
Rp2748
(dp2749
g1605
g1613
sg1606
g1614
sg354
S'c:/marmalade/7.5/s3e/h/std/c++/cstdio'
p2750
sbsS'cdjpeg.h'
p2751
g328
(g1601
g330
Ntp2752
Rp2753
(dp2754
g1605
g1099
sg1606
g1701
sg354
g1118
sbsS'audio.h'
p2755
g328
(g1601
g330
Ntp2756
Rp2757
(dp2758
g1605
g1197
sg1606
g1757
sg354
g1204
sbsS'IwList.h'
p2759
g328
(g1601
g330
Ntp2760
Rp2761
(dp2762
g1605
g1472
sg1606
g1642
sg354
g1531
sbsS'pauseMenu.cpp'
p2763
g328
(g1601
g330
Ntp2764
Rp2765
(dp2766
g1605
g1197
sg1606
g1757
sg354
g1226
sbsS'inttypes.h'
p2767
g328
(g1601
g330
Ntp2768
Rp2769
(dp2770
g1605
g1613
sg1606
g1635
sg354
S'c:/marmalade/7.5/s3e/h/std/inttypes.h'
p2771
sbsS'dirent.h'
p2772
g328
(g1601
g330
Ntp2773
Rp2774
(dp2775
g1605
g1613
sg1606
g1635
sg354
S'c:/marmalade/7.5/s3e/h/std/dirent.h'
p2776
sbsS'IwGeomVec3.h'
p2777
g328
(g1601
g330
Ntp2778
Rp2779
(dp2780
g1605
g1308
sg1606
g1667
sg354
g1326
sbsS'transupp.h'
p2781
g328
(g1601
g330
Ntp2782
Rp2783
(dp2784
g1605
g1099
sg1606
g1701
sg354
g1104
sbsS'IwMath.h'
p2785
g328
(g1601
g330
Ntp2786
Rp2787
(dp2788
g1605
g1472
sg1606
g1642
sg354
g1473
sbsS'IwGeomQuat.h'
p2789
g328
(g1601
g330
Ntp2790
Rp2791
(dp2792
g1605
g1308
sg1606
g1667
sg354
g1376
sbsS'glplatform.h'
p2793
g328
(g1601
g330
Ntp2794
Rp2795
(dp2796
g1605
g1613
sg1606
g1978
sg354
S'c:/marmalade/7.5/s3e/h/GLES/glplatform.h'
p2797
sbsS's3e-default.mkf'
p2798
g328
(g1601
g330
Ntp2799
Rp2800
(dp2801
g1605
g1597
sg1606
(lp2802
g1593
asg354
g1595
sbsS'iwgl.config.txt'
p2803
g328
(g1601
g330
Ntp2804
Rp2805
(dp2806
g1605
g1265
sg1606
g1623
sg354
g1266
sbsS'bitset'
p2807
g328
(g1601
g330
Ntp2808
Rp2809
(dp2810
g1605
g1613
sg1606
g1614
sg354
S'c:/marmalade/7.5/s3e/h/std/c++/bitset'
p2811
sbsS'alloca.h'
p2812
g328
(g1601
g330
Ntp2813
Rp2814
(dp2815
g1605
g1613
sg1606
g1635
sg354
S'c:/marmalade/7.5/s3e/h/std/alloca.h'
p2816
sbsS'IwResHandler.h'
p2817
g328
(g1601
g330
Ntp2818
Rp2819
(dp2820
g1605
g1384
sg1606
g1885
sg354
g1400
sbsS'IwResHandlerMTL.h'
p2821
g328
(g1601
g330
Ntp2822
Rp2823
(dp2824
g1605
g1408
sg1606
g1747
sg354
g1415
sbsS'IwRuntime.h'
p2825
g328
(g1601
g330
Ntp2826
Rp2827
(dp2828
g1605
g1472
sg1606
g1642
sg354
g1523
sbsS'limits'
p2829
g328
(g1601
g330
Ntp2830
Rp2831
(dp2832
g1605
g1613
sg1606
g1614
sg354
S'c:/marmalade/7.5/s3e/h/std/c++/limits'
p2833
sbsS'IwGeomBBox.h'
p2834
g328
(g1601
g330
Ntp2835
Rp2836
(dp2837
g1605
g1308
sg1606
g1667
sg354
g1366
sbsS's3eContacts.h'
p2838
g328
(g1601
g330
Ntp2839
Rp2840
(dp2841
g1605
g1613
sg1606
g1629
sg354
S'c:/marmalade/7.5/s3e/h/s3eContacts.h'
p2842
sbsS's3eLicense.h'
p2843
g328
(g1601
g330
Ntp2844
Rp2845
(dp2846
g1605
g1613
sg1606
g1629
sg354
S'c:/marmalade/7.5/s3e/h/s3eLicense.h'
p2847
sbsS'iwgx.config.txt'
p2848
g328
(g1601
g330
Ntp2849
Rp2850
(dp2851
g1605
g1408
sg1606
g1747
sg354
g1450
sbsS'IwTextParser.h'
p2852
g328
(g1601
g330
Ntp2853
Rp2854
(dp2855
g1605
g1472
sg1606
g1642
sg354
g1552
sbsS's3eTimer.h'
p2856
g328
(g1601
g330
Ntp2857
Rp2858
(dp2859
g1605
g1613
sg1606
g1629
sg354
S'c:/marmalade/7.5/s3e/h/s3eTimer.h'
p2860
sbsS'IwGeomVec.h'
p2861
g328
(g1601
g330
Ntp2862
Rp2863
(dp2864
g1605
g1308
sg1606
g1667
sg354
g1352
sbsS'IwSerialise.h'
p2865
g328
(g1601
g330
Ntp2866
Rp2867
(dp2868
g1605
g1472
sg1606
g1642
sg354
g1570
sbsS'cstdarg'
p2869
g328
(g1601
g330
Ntp2870
Rp2871
(dp2872
g1605
g1613
sg1606
g1614
sg354
S'c:/marmalade/7.5/s3e/h/std/c++/cstdarg'
p2873
sbsS'gl2ext.h'
p2874
g328
(g1601
g330
Ntp2875
Rp2876
(dp2877
g1605
g1613
sg1606
g1877
sg354
S'c:/marmalade/7.5/s3e/h/GLES2/gl2ext.h'
p2878
sbsS'IwChar.h'
p2879
g328
(g1601
g330
Ntp2880
Rp2881
(dp2882
g1605
g1472
sg1606
g1642
sg354
g1497
sbsS's3eSound.h'
p2883
g328
(g1601
g330
Ntp2884
Rp2885
(dp2886
g1605
g1613
sg1606
g1629
sg354
S'c:/marmalade/7.5/s3e/h/s3eSound.h'
p2887
sbsS'IwVariableBitField.h'
p2888
g328
(g1601
g330
Ntp2889
Rp2890
(dp2891
g1605
g1472
sg1606
g1642
sg354
g1535
sbsS'exception.h'
p2892
g328
(g1601
g330
Ntp2893
Rp2894
(dp2895
g1605
g1613
sg1606
g1614
sg354
S'c:/marmalade/7.5/s3e/h/std/c++/exception.h'
p2896
sbsS'iwgeom.config.txt'
p2897
g328
(g1601
g330
Ntp2898
Rp2899
(dp2900
g1605
g1308
sg1606
g1667
sg354
g1374
sbsS'iwgx.mkf'
p2901
g328
(g1601
g330
Ntp2902
Rp2903
(dp2904
g1605
g1449
sg1606
g1747
sg354
g1447
sbsS'gl.h'
p2905
g328
(g1601
g330
Ntp2906
Rp2907
(dp2908
g1605
g1613
sg1606
g1978
sg354
S'c:/marmalade/7.5/s3e/h/GLES/gl.h'
p2909
sbsS'zlib.h'
p2910
g328
(g1601
g330
Ntp2911
Rp2912
(dp2913
g1605
g1577
sg1606
g2312
sg354
g1578
sbsS'temp_defines_release.h'
p2914
g328
(g1601
g330
Ntp2915
Rp2916
(dp2917
g1605
(lp2918
sg1606
(lp2919
S"'generated files'"
p2920
asg354
S'c:/Marmalade/7.5/examples/GameTutorial/CPP/marm1/build_stage4_vc12/temp_defines_release.h'
p2921
sbsS'iwgl.mkf'
p2922
g328
(g1601
g330
Ntp2923
Rp2924
(dp2925
g1605
g1262
sg1606
g1623
sg354
g1260
sbsS'IwColour.h'
p2926
g328
(g1601
g330
Ntp2927
Rp2928
(dp2929
g1605
g1408
sg1606
g1747
sg354
g1452
sbsS's3eLibrary.h'
p2930
g328
(g1601
g330
Ntp2931
Rp2932
(dp2933
g1605
g1613
sg1606
g1840
sg354
S'c:/marmalade/7.5/s3e/h/ext/s3eLibrary.h'
p2934
sbsS'types.h'
p2935
g328
(g1601
g330
Ntp2936
Rp2937
(dp2938
g1605
g1613
sg1606
g1766
sg354
S'c:/marmalade/7.5/s3e/h/std/sys/types.h'
p2939
sbsS'ifaddrs.h'
p2940
g328
(g1601
g330
Ntp2941
Rp2942
(dp2943
g1605
g1613
sg1606
g1635
sg354
S'c:/marmalade/7.5/s3e/h/std/ifaddrs.h'
p2944
sbsS'strstream'
p2945
g328
(g1601
g330
Ntp2946
Rp2947
(dp2948
g1605
g1613
sg1606
g1614
sg354
S'c:/marmalade/7.5/s3e/h/std/c++/strstream'
p2949
sbsS'IwTween.cpp'
p2950
g328
(g1601
g330
Ntp2951
Rp2952
(dp2953
g1605
g1587
sg1606
g2139
sg354
g1588
sbsS'exception'
p2954
g328
(g1601
g330
Ntp2955
Rp2956
(dp2957
g1605
g1613
sg1606
g1614
sg354
S'c:/marmalade/7.5/s3e/h/std/c++/exception'
p2958
sbsS'rlocks.h'
p2959
g328
(g1601
g330
Ntp2960
Rp2961
(dp2962
g1605
g1613
sg1606
g1614
sg354
S'c:/marmalade/7.5/s3e/h/std/c++/rlocks.h'
p2963
sbsS'ioctl.h'
p2964
g328
(g1601
g330
Ntp2965
Rp2966
(dp2967
g1605
g1613
sg1606
g1766
sg354
S'c:/marmalade/7.5/s3e/h/std/sys/ioctl.h'
p2968
sbsS'sem.h'
p2969
g328
(g1601
g330
Ntp2970
Rp2971
(dp2972
g1605
g1613
sg1606
g1766
sg354
S'c:/marmalade/7.5/s3e/h/std/sys/sem.h'
p2973
sbsS'jinclude.h'
p2974
g328
(g1601
g330
Ntp2975
Rp2976
(dp2977
g1605
g1099
sg1606
g1701
sg354
g1106
sbsS'IwEvent.h'
p2978
g328
(g1601
g330
Ntp2979
Rp2980
(dp2981
g1605
g1472
sg1606
g1642
sg354
g1556
sbsS'IwOptimiseSize.h'
p2982
g328
(g1601
g330
Ntp2983
Rp2984
(dp2985
g1605
g1472
sg1606
g1642
sg354
g1521
sbsS'iwgxfont_public.defines.txt'
p2986
g328
(g1601
g330
Ntp2987
Rp2988
(dp2989
g1605
g1286
sg1606
g1607
sg354
g1302
sbsS'iconv.h'
p2990
g328
(g1601
g330
Ntp2991
Rp2992
(dp2993
g1605
g1613
sg1606
g1635
sg354
S'c:/marmalade/7.5/s3e/h/std/iconv.h'
p2994
sbsS's3eDevice.h'
p2995
g328
(g1601
g330
Ntp2996
Rp2997
(dp2998
g1605
g1613
sg1606
g1629
sg354
S'c:/marmalade/7.5/s3e/h/s3eDevice.h'
p2999
sbsS'IwGeomSphere.h'
p3000
g328
(g1601
g330
Ntp3001
Rp3002
(dp3003
g1605
g1308
sg1606
g1667
sg354
g1309
sbsS'tiniconv.mkf'
p3004
g328
(g1601
g330
Ntp3005
Rp3006
(dp3007
g1605
g1130
sg1606
g2092
sg354
g1128
sbsS'iw2dscenegraph.defines.txt'
p3008
g328
(g1601
g330
Ntp3009
Rp3010
(dp3011
g1605
g1250
sg1606
g1927
sg354
g1251
sbsS'jdct.h'
p3012
g328
(g1601
g330
Ntp3013
Rp3014
(dp3015
g1605
g1099
sg1606
g1701
sg354
g1110
sbsS'cctype'
p3016
g328
(g1601
g330
Ntp3017
Rp3018
(dp3019
g1605
g1613
sg1606
g1614
sg354
S'c:/marmalade/7.5/s3e/h/std/c++/cctype'
p3020
sbsS'IwSoundADPCM.cpp'
p3021
g328
(g1601
g330
Ntp3022
Rp3023
(dp3024
g1605
g1140
sg1606
g1653
sg354
g1173
sbsS's3eConfig.h'
p3025
g328
(g1601
g330
Ntp3026
Rp3027
(dp3028
g1605
g1613
sg1606
g1629
sg354
S'c:/marmalade/7.5/s3e/h/s3eConfig.h'
p3029
sbsS'IwHashString.h'
p3030
g328
(g1601
g330
Ntp3031
Rp3032
(dp3033
g1605
g1472
sg1606
g1642
sg354
g1537
sbsS'stat.h'
p3034
g328
(g1601
g330
Ntp3035
Rp3036
(dp3037
g1605
g1613
sg1606
g1766
sg354
S'c:/marmalade/7.5/s3e/h/std/sys/stat.h'
p3038
sbsS'byteswap.h'
p3039
g328
(g1601
g330
Ntp3040
Rp3041
(dp3042
g1605
g1613
sg1606
g1635
sg354
S'c:/marmalade/7.5/s3e/h/std/byteswap.h'
p3043
sbsS'iwresmanager.mkf'
p3044
g328
(g1601
g330
Ntp3045
Rp3046
(dp3047
g1605
g1395
sg1606
g1885
sg354
g1393
sbsS'IwUtilInitTerm.h'
p3048
g328
(g1601
g330
Ntp3049
Rp3050
(dp3051
g1605
g1472
sg1606
g1642
sg354
g1566
sbsS'pthread_1.h'
p3052
g328
(g1601
g330
Ntp3053
Rp3054
(dp3055
g1605
g1613
sg1606
g1614
sg354
S'c:/marmalade/7.5/s3e/h/std/c++/pthread.h'
p3056
sbsS'iw2d.mkf'
p3057
g328
(g1601
g330
Ntp3058
Rp3059
(dp3060
g1605
g1281
sg1606
g1706
sg354
g1279
sbsS'complex'
p3061
g328
(g1601
g330
Ntp3062
Rp3063
(dp3064
g1605
g1613
sg1606
g1614
sg354
S'c:/marmalade/7.5/s3e/h/std/c++/complex'
p3065
sbsS'game.cpp'
p3066
g328
(g1601
g330
Ntp3067
Rp3068
(dp3069
g1605
g1197
sg1606
g1757
sg354
g1224
sbsS'algorithm'
p3070
g328
(g1601
g330
Ntp3071
Rp3072
(dp3073
g1605
g1613
sg1606
g1614
sg354
S'c:/marmalade/7.5/s3e/h/std/c++/algorithm'
p3074
sbsS's3e.icf'
p3075
g328
(g1601
g330
Ntp3076
Rp3077
(dp3078
g1605
g1613
sg1606
g1629
sg354
S'c:/marmalade/7.5/s3e/s3e.icf'
p3079
sbsS'resources.h'
p3080
g328
(g1601
g330
Ntp3081
Rp3082
(dp3083
g1605
g1197
sg1606
g1757
sg354
g1216
sbsS'IwGxFontState.h'
p3084
g328
(g1601
g330
Ntp3085
Rp3086
(dp3087
g1605
g1286
sg1606
g1607
sg354
g1291
sbsS'marmaladeexampleresources.mkf'
p3088
g328
(g1601
g330
Ntp3089
Rp3090
(dp3091
g1605
g1192
sg1606
(lp3092
g1188
asg354
g1190
sbsS'stdio.h'
p3093
g328
(g1601
g330
Ntp3094
Rp3095
(dp3096
g1605
g1613
sg1606
g1635
sg354
S'c:/marmalade/7.5/s3e/h/std/stdio.h'
p3097
sbsS'jmemsys.h'
p3098
g328
(g1601
g330
Ntp3099
Rp3100
(dp3101
g1605
g1099
sg1606
g1701
sg354
g1112
sbsS'ios'
p3102
g328
(g1601
g330
Ntp3103
Rp3104
(dp3105
g1605
g1613
sg1606
g1614
sg354
S'c:/marmalade/7.5/s3e/h/std/c++/ios'
p3106
sbsS'IwTween.h'
p3107
g328
(g1601
g330
Ntp3108
Rp3109
(dp3110
g1605
g1587
sg1606
g2139
sg354
g1585
sbsS'PVRTexTool.defines.txt'
p3111
g328
(g1601
g330
Ntp3112
Rp3113
(dp3114
g1605
g1236
sg1606
g2486
sg354
g1234
sbsS'stack'
p3115
g328
(g1601
g330
Ntp3116
Rp3117
(dp3118
g1605
g1613
sg1606
g1614
sg354
S'c:/marmalade/7.5/s3e/h/std/c++/stack'
p3119
sbsS'IwSoundParams.h'
p3120
g328
(g1601
g330
Ntp3121
Rp3122
(dp3123
g1605
g1140
sg1606
g1653
sg354
g1171
sbsS'new.h'
p3124
g328
(g1601
g330
Ntp3125
Rp3126
(dp3127
g1605
g1613
sg1606
g1614
sg354
S'c:/marmalade/7.5/s3e/h/std/c++/new.h'
p3128
sbsS's3eEMail.h'
p3129
g328
(g1601
g330
Ntp3130
Rp3131
(dp3132
g1605
g1613
sg1606
g1840
sg354
S'c:/marmalade/7.5/s3e/h/ext/s3eEMail.h'
p3133
sbsS's3eVideo.h'
p3134
g328
(g1601
g330
Ntp3135
Rp3136
(dp3137
g1605
g1613
sg1606
g1629
sg354
S'c:/marmalade/7.5/s3e/h/s3eVideo.h'
p3138
sbsS'pngconf.h'
p3139
g328
(g1601
g330
Ntp3140
Rp3141
(dp3142
g1605
g1085
sg1606
g2368
sg354
g1086
sbsS'pwd.h'
p3143
g328
(g1601
g330
Ntp3144
Rp3145
(dp3146
g1605
g1613
sg1606
g1635
sg354
S'c:/marmalade/7.5/s3e/h/std/pwd.h'
p3147
sbsS'IwOptimiseThumb.h'
p3148
g328
(g1601
g330
Ntp3149
Rp3150
(dp3151
g1605
g1472
sg1606
g1642
sg354
g1539
sbsS'gl3.h'
p3152
g328
(g1601
g330
Ntp3153
Rp3154
(dp3155
g1605
g1613
sg1606
g1938
sg354
S'c:/marmalade/7.5/s3e/h/GLES3/gl3.h'
p3156
sbsS'IwClip.h'
p3157
g328
(g1601
g330
Ntp3158
Rp3159
(dp3160
g1605
g1408
sg1606
g1747
sg354
g1421
sbsS'IwSoundInst.h'
p3161
g328
(g1601
g330
Ntp3162
Rp3163
(dp3164
g1605
g1140
sg1606
g1653
sg354
g1151
sbsS'iwresmanager.config.txt'
p3165
g328
(g1601
g330
Ntp3166
Rp3167
(dp3168
g1605
g1384
sg1606
g1885
sg354
g1396
sbsS'IwGxShaderTechnique.h'
p3169
g328
(g1601
g330
Ntp3170
Rp3171
(dp3172
g1605
g1408
sg1606
g1747
sg354
g1433
sbsS'IwCore.h'
p3173
g328
(g1601
g330
Ntp3174
Rp3175
(dp3176
g1605
g1472
sg1606
g1642
sg354
g1477
sbsS'cfloat'
p3177
g328
(g1601
g330
Ntp3178
Rp3179
(dp3180
g1605
g1613
sg1606
g1614
sg354
S'c:/marmalade/7.5/s3e/h/std/c++/cfloat'
p3181
sbsS'IwGeomMat2D.h'
p3182
g328
(g1601
g330
Ntp3183
Rp3184
(dp3185
g1605
g1308
sg1606
g1667
sg354
g1340
sbsS'IwAllocator.h'
p3186
g328
(g1601
g330
Ntp3187
Rp3188
(dp3189
g1605
g1472
sg1606
g1642
sg354
g1507
sbsS'IwPath.h'
p3190
g328
(g1601
g330
Ntp3191
Rp3192
(dp3193
g1605
g1472
sg1606
g1642
sg354
g1527
sbsS'iwgxfont.mkf'
p3194
g328
(g1601
g330
Ntp3195
Rp3196
(dp3197
g1605
g1297
sg1606
g1607
sg354
g1295
sbsS'IwTexture.h'
p3198
g328
(g1601
g330
Ntp3199
Rp3200
(dp3201
g1605
g1408
sg1606
g1747
sg354
g1411
sbsS'IwGeomVec.h.tpl'
p3202
g328
(g1601
g330
Ntp3203
Rp3204
(dp3205
g1605
g1308
sg1606
g1667
sg354
g1350
sbsS's3eAccelerometer.h'
p3206
g328
(g1601
g330
Ntp3207
Rp3208
(dp3209
g1605
g1613
sg1606
g1629
sg354
S'c:/marmalade/7.5/s3e/h/s3eAccelerometer.h'
p3210
sbsS'setjmp.h'
p3211
g328
(g1601
g330
Ntp3212
Rp3213
(dp3214
g1605
g1613
sg1606
g1635
sg354
S'c:/marmalade/7.5/s3e/h/std/setjmp.h'
p3215
sbsS'IwSoundParams.cpp'
p3216
g328
(g1601
g330
Ntp3217
Rp3218
(dp3219
g1605
g1140
sg1606
g1653
sg354
g1157
sbsS'IwFile.h'
p3220
g328
(g1601
g330
Ntp3221
Rp3222
(dp3223
g1605
g1472
sg1606
g1642
sg354
g1548
sbsS'IwTextParseable.h'
p3224
g328
(g1601
g330
Ntp3225
Rp3226
(dp3227
g1605
g1472
sg1606
g1642
sg354
g1495
sbsS'istream.h'
p3228
g328
(g1601
g330
Ntp3229
Rp3230
(dp3231
g1605
g1613
sg1606
g1614
sg354
S'c:/marmalade/7.5/s3e/h/std/c++/istream.h'
p3232
sbsS'stdint.h'
p3233
g328
(g1601
g330
Ntp3234
Rp3235
(dp3236
g1605
g1613
sg1606
g1635
sg354
S'c:/marmalade/7.5/s3e/h/std/stdint.h'
p3237
sbsS'semaphore.h'
p3238
g328
(g1601
g330
Ntp3239
Rp3240
(dp3241
g1605
g1613
sg1606
g1635
sg354
S'c:/marmalade/7.5/s3e/h/std/semaphore.h'
p3242
sbsS'ctime'
p3243
g328
(g1601
g330
Ntp3244
Rp3245
(dp3246
g1605
g1613
sg1606
g1614
sg354
S'c:/marmalade/7.5/s3e/h/std/c++/ctime'
p3247
sbsS'sstream'
p3248
g328
(g1601
g330
Ntp3249
Rp3250
(dp3251
g1605
g1613
sg1606
g1614
sg354
S'c:/marmalade/7.5/s3e/h/std/c++/sstream'
p3252
sbsS'IwGeomFBBox.h'
p3253
g328
(g1601
g330
Ntp3254
Rp3255
(dp3256
g1605
g1308
sg1606
g1667
sg354
g1334
sbsS'IwDebugPrim.h'
p3257
g328
(g1601
g330
Ntp3258
Rp3259
(dp3260
g1605
g1408
sg1606
g1747
sg354
g1406
sbsS'IwGxFontContainer.h'
p3261
g328
(g1601
g330
Ntp3262
Rp3263
(dp3264
g1605
g1286
sg1606
g1607
sg354
g1293
sbsS'IwGeomSVec3.h'
p3265
g328
(g1601
g330
Ntp3266
Rp3267
(dp3268
g1605
g1308
sg1606
g1667
sg354
g1311
sbsS'iw2dscenegraphcore.mkf'
p3269
g328
(g1601
g330
Ntp3270
Rp3271
(dp3272
g1605
g1462
sg1606
g2717
sg354
g1460
sbsS's3eExt.h'
p3273
g328
(g1601
g330
Ntp3274
Rp3275
(dp3276
g1605
g1613
sg1606
g1629
sg354
S'c:/marmalade/7.5/s3e/h/s3eExt.h'
p3277
sbsS'IwGeomFVec3.h'
p3278
g328
(g1601
g330
Ntp3279
Rp3280
(dp3281
g1605
g1308
sg1606
g1667
sg354
g1370
sbsS'streambuf'
p3282
g328
(g1601
g330
Ntp3283
Rp3284
(dp3285
g1605
g1613
sg1606
g1614
sg354
S'c:/marmalade/7.5/s3e/h/std/c++/streambuf'
p3286
sbsS's3eMetrics.h'
p3287
g328
(g1601
g330
Ntp3288
Rp3289
(dp3290
g1605
g1613
sg1606
g1840
sg354
S'c:/marmalade/7.5/s3e/h/ext/s3eMetrics.h'
p3291
sbsS'IwGxFont.h'
p3292
g328
(g1601
g330
Ntp3293
Rp3294
(dp3295
g1605
g1286
sg1606
g1607
sg354
g1300
sbsS's3eSecureStorage.h'
p3296
g328
(g1601
g330
Ntp3297
Rp3298
(dp3299
g1605
g1613
sg1606
g1629
sg354
S'c:/marmalade/7.5/s3e/h/s3eSecureStorage.h'
p3300
sbsS'string.h'
p3301
g328
(g1601
g330
Ntp3302
Rp3303
(dp3304
g1605
g1613
sg1606
g1635
sg354
S'c:/marmalade/7.5/s3e/h/std/string.h'
p3305
sbsS'IwResource.h'
p3306
g328
(g1601
g330
Ntp3307
Rp3308
(dp3309
g1605
g1472
sg1606
g1642
sg354
g1568
sbsS'IwGeomSVec2.h'
p3310
g328
(g1601
g330
Ntp3311
Rp3312
(dp3313
g1605
g1308
sg1606
g1667
sg354
g1306
sbsS'libjpeg.mkf'
p3314
g328
(g1601
g330
Ntp3315
Rp3316
(dp3317
g1605
g1095
sg1606
(lp3318
g1091
asg354
g1093
sbsS'IwGxDebug.h'
p3319
g328
(g1601
g330
Ntp3320
Rp3321
(dp3322
g1605
g1408
sg1606
g1747
sg354
g1431
sbsS'pthread_types.h'
p3323
g328
(g1601
g330
Ntp3324
Rp3325
(dp3326
g1605
g1613
sg1606
g1635
sg354
S'c:/marmalade/7.5/s3e/h/std/pthread_types.h'
p3327
sbsS'iomanip.h'
p3328
g328
(g1601
g330
Ntp3329
Rp3330
(dp3331
g1605
g1613
sg1606
g1614
sg354
S'c:/marmalade/7.5/s3e/h/std/c++/iomanip.h'
p3332
sbsS'IwKeymap.h'
p3333
g328
(g1601
g330
Ntp3334
Rp3335
(dp3336
g1605
g1472
sg1606
g1642
sg354
g1513
sbsS'IwDebug.h'
p3337
g328
(g1601
g330
Ntp3338
Rp3339
(dp3340
g1605
g1472
sg1606
g1642
sg354
g1501
sbsS's3eIOSBackgroundAudio.h'
p3341
g328
(g1601
g330
Ntp3342
Rp3343
(dp3344
g1605
g1613
sg1606
g1840
sg354
S'c:/marmalade/7.5/s3e/h/ext/s3eIOSBackgroundAudio.h'
p3345
sbsS'IwGeomMenu.h'
p3346
g328
(g1601
g330
Ntp3347
Rp3348
(dp3349
g1605
g1308
sg1606
g1667
sg354
g1364
sbsS'IwDivTable.h'
p3350
g328
(g1601
g330
Ntp3351
Rp3352
(dp3353
g1605
g1472
sg1606
g1642
sg354
g1491
sbsS'ctype.h'
p3354
g328
(g1601
g330
Ntp3355
Rp3356
(dp3357
g1605
g1613
sg1606
g1635
sg354
S'c:/marmalade/7.5/s3e/h/std/ctype.h'
p3358
sbsS'mainMenu.cpp'
p3359
g328
(g1601
g330
Ntp3360
Rp3361
(dp3362
g1605
g1197
sg1606
g1757
sg354
g1206
sbsS'IwResGroup.h'
p3363
g328
(g1601
g330
Ntp3364
Rp3365
(dp3366
g1605
g1384
sg1606
g1885
sg354
g1398
sbsS'signal_1.h'
p3367
g328
(g1601
g330
Ntp3368
Rp3369
(dp3370
g1605
g1613
sg1606
g1766
sg354
S'c:/marmalade/7.5/s3e/h/std/sys/signal.h'
p3371
sbsS'IwSoundData.cpp'
p3372
g328
(g1601
g330
Ntp3373
Rp3374
(dp3375
g1605
g1140
sg1606
g1653
sg354
g1177
sbsS'main.cpp'
p3376
g328
(g1601
g330
Ntp3377
Rp3378
(dp3379
g1605
g1197
sg1606
g1757
sg354
g1210
sbsS'shm.h'
p3380
g328
(g1601
g330
Ntp3381
Rp3382
(dp3383
g1605
g1613
sg1606
g1766
sg354
S'c:/marmalade/7.5/s3e/h/std/sys/shm.h'
p3384
sbsS'IwManagedList.h'
p3385
g328
(g1601
g330
Ntp3386
Rp3387
(dp3388
g1605
g1472
sg1606
g1642
sg354
g1485
sbsS'prctl.h'
p3389
g328
(g1601
g330
Ntp3390
Rp3391
(dp3392
g1605
g1613
sg1606
g1766
sg354
S'c:/marmalade/7.5/s3e/h/std/sys/prctl.h'
p3393
sbsS'IwGxStream.h'
p3394
g328
(g1601
g330
Ntp3395
Rp3396
(dp3397
g1605
g1408
sg1606
g1747
sg354
g1419
sbsS'temp_defines_debug.h'
p3398
g328
(g1601
g330
Ntp3399
Rp3400
(dp3401
g1605
(lp3402
sg1606
(lp3403
g2920
asg354
S'c:/Marmalade/7.5/examples/GameTutorial/CPP/marm1/build_stage4_vc12/temp_defines_debug.h'
p3404
sbsS'utility'
p3405
g328
(g1601
g330
Ntp3406
Rp3407
(dp3408
g1605
g1613
sg1606
g1614
sg354
S'c:/marmalade/7.5/s3e/h/std/c++/utility'
p3409
sbsS'input.h'
p3410
g328
(g1601
g330
Ntp3411
Rp3412
(dp3413
g1605
g1197
sg1606
g1757
sg354
g1198
sbsS'IwGeomLegacy.h'
p3414
g328
(g1601
g330
Ntp3415
Rp3416
(dp3417
g1605
g1308
sg1606
g1667
sg354
g1328
sbsS'IwTPage.h'
p3418
g328
(g1601
g330
Ntp3419
Rp3420
(dp3421
g1605
g1408
sg1606
g1747
sg354
g1456
sbsS'IwResSerialise.h'
p3422
g328
(g1601
g330
Ntp3423
Rp3424
(dp3425
g1605
g1384
sg1606
g1885
sg354
g1385
sbsS's3eCrypto.h'
p3426
g328
(g1601
g330
Ntp3427
Rp3428
(dp3429
g1605
g1613
sg1606
g1629
sg354
S'c:/marmalade/7.5/s3e/h/s3eCrypto.h'
p3430
sbsS's3eKeyboard.h'
p3431
g328
(g1601
g330
Ntp3432
Rp3433
(dp3434
g1605
g1613
sg1606
g1629
sg354
S'c:/marmalade/7.5/s3e/h/s3eKeyboard.h'
p3435
sbsS'fcntl.h'
p3436
g328
(g1601
g330
Ntp3437
Rp3438
(dp3439
g1605
g1613
sg1606
g1635
sg354
S'c:/marmalade/7.5/s3e/h/std/fcntl.h'
p3440
sbsS'Iw2DSceneGraphCore.h'
p3441
g328
(g1601
g330
Ntp3442
Rp3443
(dp3444
g1605
g1465
sg1606
g2717
sg354
g1463
sbsS'memory.h'
p3445
g328
(g1601
g330
Ntp3446
Rp3447
(dp3448
g1605
g1613
sg1606
g1635
sg354
S'c:/marmalade/7.5/s3e/h/std/memory.h'
p3449
sbsS'pthread.h'
p3450
g328
(g1601
g330
Ntp3451
Rp3452
(dp3453
g1605
g1613
sg1606
g1635
sg354
S'c:/marmalade/7.5/s3e/h/std/pthread.h'
p3454
sbsS'IwGeomIntersect.h'
p3455
g328
(g1601
g330
Ntp3456
Rp3457
(dp3458
g1605
g1308
sg1606
g1667
sg354
g1354
sbsS'IwTextParserITX.h'
p3459
g328
(g1601
g330
Ntp3460
Rp3461
(dp3462
g1605
g1472
sg1606
g1642
sg354
g1511
sbsS'IwClip.inl'
p3463
g328
(g1601
g330
Ntp3464
Rp3465
(dp3466
g1605
g1408
sg1606
g1747
sg354
g1441
sbsS'Iw2DSceneGraph.cpp'
p3467
g328
(g1601
g330
Ntp3468
Rp3469
(dp3470
g1605
g1250
sg1606
g1927
sg354
g1248
sbsS'ostream.h'
p3471
g328
(g1601
g330
Ntp3472
Rp3473
(dp3474
g1605
g1613
sg1606
g1614
sg354
S'c:/marmalade/7.5/s3e/h/std/c++/ostream.h'
p3475
sbsS'stl_user_config.h'
p3476
g328
(g1601
g330
Ntp3477
Rp3478
(dp3479
g1605
g1613
sg1606
g1614
sg354
S'c:/marmalade/7.5/s3e/h/std/c++/stl_user_config.h'
p3480
sbsS'IwProfileMenu.h'
p3481
g328
(g1601
g330
Ntp3482
Rp3483
(dp3484
g1605
g1472
sg1606
g1642
sg354
g1487
sbsS'MarmaladeVersion.h'
p3485
g328
(g1601
g330
Ntp3486
Rp3487
(dp3488
g1605
g1613
sg1606
g1629
sg354
S'c:/marmalade/7.5/s3e/h/MarmaladeVersion.h'
p3489
sbsS'IwResHandlerWAV.h'
p3490
g328
(g1601
g330
Ntp3491
Rp3492
(dp3493
g1605
g1140
sg1606
g1653
sg354
g1145
sbsS'gl3platform.h'
p3494
g328
(g1601
g330
Ntp3495
Rp3496
(dp3497
g1605
g1613
sg1606
g1938
sg354
S'c:/marmalade/7.5/s3e/h/GLES3/gl3platform.h'
p3498
sbsS'ios.h'
p3499
g328
(g1601
g330
Ntp3500
Rp3501
(dp3502
g1605
g1613
sg1606
g1614
sg354
S'c:/marmalade/7.5/s3e/h/std/c++/ios.h'
p3503
sbsS'IwImageHelper.h'
p3504
g328
(g1601
g330
Ntp3505
Rp3506
(dp3507
g1605
g1472
sg1606
g1642
sg354
g1483
sbsS'hash_set'
p3508
g328
(g1601
g330
Ntp3509
Rp3510
(dp3511
g1605
g1613
sg1606
g1614
sg354
S'c:/marmalade/7.5/s3e/h/std/c++/hash_set'
p3512
sbsS'IwGeomFQuat.h'
p3513
g328
(g1601
g330
Ntp3514
Rp3515
(dp3516
g1605
g1308
sg1606
g1667
sg354
g1318
sbsS'jmorecfg.h'
p3517
g328
(g1601
g330
Ntp3518
Rp3519
(dp3520
g1605
g1099
sg1606
g1701
sg354
g1108
sbsS'eglplatform.h'
p3521
g328
(g1601
g330
Ntp3522
Rp3523
(dp3524
g1605
g1613
sg1606
g1970
sg354
S'c:/marmalade/7.5/s3e/h/EGL/eglplatform.h'
p3525
sbsS'cmath'
p3526
g328
(g1601
g330
Ntp3527
Rp3528
(dp3529
g1605
g1613
sg1606
g1614
sg354
S'c:/marmalade/7.5/s3e/h/std/c++/cmath'
p3530
sbsS'math_gcc.h'
p3531
g328
(g1601
g330
Ntp3532
Rp3533
(dp3534
g1605
g1613
sg1606
g1635
sg354
S'c:/marmalade/7.5/s3e/h/std/math_gcc.h'
p3535
sbsS's3eMemory.h'
p3536
g328
(g1601
g330
Ntp3537
Rp3538
(dp3539
g1605
g1613
sg1606
g1629
sg354
S'c:/marmalade/7.5/s3e/h/s3eMemory.h'
p3540
sbsS'strings.h'
p3541
g328
(g1601
g330
Ntp3542
Rp3543
(dp3544
g1605
g1613
sg1606
g1635
sg354
S'c:/marmalade/7.5/s3e/h/std/strings.h'
p3545
sbsS's3eFile.h'
p3546
g328
(g1601
g330
Ntp3547
Rp3548
(dp3549
g1605
g1613
sg1606
g1629
sg354
S'c:/marmalade/7.5/s3e/h/s3eFile.h'
p3550
sbsS'IwGxTypes.h'
p3551
g328
(g1601
g330
Ntp3552
Rp3553
(dp3554
g1605
g1408
sg1606
g1747
sg354
g1445
sbsS'cerrno'
p3555
g328
(g1601
g330
Ntp3556
Rp3557
(dp3558
g1605
g1613
sg1606
g1614
sg354
S'c:/marmalade/7.5/s3e/h/std/c++/cerrno'
p3559
sbsS'IwSoundManager.cpp'
p3560
g328
(g1601
g330
Ntp3561
Rp3562
(dp3563
g1605
g1140
sg1606
g1653
sg354
g1153
sbsS'main.h'
p3564
g328
(g1601
g330
Ntp3565
Rp3566
(dp3567
g1605
g1197
sg1606
g1757
sg354
g1212
sbsS'soundengine.mkf'
p3568
g328
(g1601
g330
Ntp3569
Rp3570
(dp3571
g1605
g1185
sg1606
g1653
sg354
g1183
sbsS'resource.h'
p3572
g328
(g1601
g330
Ntp3573
Rp3574
(dp3575
g1605
g1613
sg1606
g1766
sg354
S'c:/marmalade/7.5/s3e/h/std/sys/resource.h'
p3576
sbsS'clocale'
p3577
g328
(g1601
g330
Ntp3578
Rp3579
(dp3580
g1605
g1613
sg1606
g1614
sg354
S'c:/marmalade/7.5/s3e/h/std/c++/clocale'
p3581
sbsS'pvrtextool.mkf'
p3582
g328
(g1601
g330
Ntp3583
Rp3584
(dp3585
g1605
g1243
sg1606
g2244
sg354
g1241
sbsS'csetjmp'
p3586
g328
(g1601
g330
Ntp3587
Rp3588
(dp3589
g1605
g1613
sg1606
g1614
sg354
S'c:/marmalade/7.5/s3e/h/std/c++/csetjmp'
p3590
sbsS'netdb.h'
p3591
g328
(g1601
g330
Ntp3592
Rp3593
(dp3594
g1605
g1613
sg1606
g1635
sg354
S'c:/marmalade/7.5/s3e/h/std/netdb.h'
p3595
sbsS's3eAndroidJNI.h'
p3596
g328
(g1601
g330
Ntp3597
Rp3598
(dp3599
g1605
g1613
sg1606
g1840
sg354
S'c:/marmalade/7.5/s3e/h/ext/s3eAndroidJNI.h'
p3600
sbsS'stdexcept'
p3601
g328
(g1601
g330
Ntp3602
Rp3603
(dp3604
g1605
g1613
sg1606
g1614
sg354
S'c:/marmalade/7.5/s3e/h/std/c++/stdexcept'
p3605
sbsS'math.h'
p3606
g328
(g1601
g330
Ntp3607
Rp3608
(dp3609
g1605
g1613
sg1606
g1635
sg354
S'c:/marmalade/7.5/s3e/h/std/math.h'
p3610
sbsS'stdbool.h'
p3611
g328
(g1601
g330
Ntp3612
Rp3613
(dp3614
g1605
g1613
sg1606
g1635
sg354
S'c:/marmalade/7.5/s3e/h/std/stdbool.h'
p3615
sbsS'uio.h'
p3616
g328
(g1601
g330
Ntp3617
Rp3618
(dp3619
g1605
g1613
sg1606
g1766
sg354
S'c:/marmalade/7.5/s3e/h/std/sys/uio.h'
p3620
sbsS'IwUncopyable.h'
p3621
g328
(g1601
g330
Ntp3622
Rp3623
(dp3624
g1605
g1472
sg1606
g1642
sg354
g1550
sbssS'juice_build_type'
p3625
g4
sS'tests'
p3626
(lp3627
sS'project_name'
p3628
g336
sS'root_file'
p3629
g134
sS'current_root'
p3630
S'c:/Marmalade/7.5/examples/GameTutorial/CPP/marm1'
p3631
sS'dependencies'
p3632
(lp3633
sS'include_paths'
p3634
(lp3635
S'c:/marmalade/7.5/modules/iw2d/h'
p3636
aS'c:/marmalade/7.5/modules/iwgx/h'
p3637
aS'c:/marmalade/7.5/modules/iwgl/h'
p3638
aS'c:/marmalade/7.5/modules/iwutil/h'
p3639
aS'c:/marmalade/7.5/modules/third_party/libjpeg/h'
p3640
aS'c:/marmalade/7.5/modules/third_party/zlib/h'
p3641
aS'c:/marmalade/7.5/modules/third_party/libpng/h'
p3642
aS'c:/marmalade/7.5/modules/iwgeom/h'
p3643
aS'c:/marmalade/7.5/modules/iwresmanager/h'
p3644
aS'c:/marmalade/7.5/extensions/pvrtextool/h'
p3645
aS'c:/marmalade/7.5/modules/iwgxfont/h'
p3646
aS'c:/marmalade/7.5/modules/third_party/tiniconv/source'
p3647
aS'c:/marmalade/7.5/modules/iw2dscenegraph/h'
p3648
aS'c:/marmalade/7.5/modules/iw2dscenegraphcore/h'
p3649
aS'c:/marmalade/7.5/modules/iwtween/h'
p3650
aS'c:/marmalade/7.5/examples/gametutorial/cpp/modules/soundengine/h'
p3651
aS'c:/marmalade/7.5/examples/gametutorial/cpp/modules/soundengine/source'
p3652
aS'c:/marmalade/7.5/s3e/h'
p3653
aS'c:/marmalade/7.5/s3e/h/ext'
p3654
aS'c:/marmalade/7.5/s3e/h/std'
p3655
aS'c:/marmalade/7.5/s3e/h/std/c++'
p3656
aS'c:/marmalade/7.5/s3e/h/ext_legacy'
p3657
aS'c:/marmalade/7.5/s3e/h/legacy'
p3658
asS'weak_frameworks'
p3659
(lp3660
sS'extprojects'
p3661
(dp3662
sg598
(dp3663
g592
(lp3664
(S'c:/Marmalade/7.5/examples/GameTutorial/CPP/marm1/data/audio'
p3665
S'audio'
p3666
I0
tp3667
a(S'c:/Marmalade/7.5/examples/GameTutorial/CPP/marm1/data/textures'
p3668
S'textures'
p3669
I0
tp3670
a(S'c:/Marmalade/7.5/examples/GameTutorial/CPP/marm1/data/fonts'
p3671
S'fonts'
p3672
I0
tp3673
a(S'c:/Marmalade/7.5/examples/GameTutorial/CPP/marm1/data-ram/data-gles1,c:/Marmalade/7.5/examples/GameTutorial/CPP/marm1/data'
p3674
S'.'
p3675
I0
tp3676
assS'macro_types'
p3677
(dp3678
g527
I1
sg528
I0
sg529
I0
sg530
I0
sg532
I0
sg533
I0
sg534
I0
sg535
I0
sg536
I0
sg538
I0
sg539
I0
sg540
I0
sg541
I0
sg542
I0
sg544
I0
sg546
I0
sg547
I0
sg548
I0
sg549
I0
sg550
I0
sg551
I0
sg552
I0
sg553
I0
sg554
I1
sg555
I0
sg556
I0
sg557
I0
sg558
I0
sg559
I01
sg560
I1
sg561
I0
sg562
I0
sg563
I0
sg564
I0
sg565
I0
sg566
I0
sg567
I0
ssS'commands'
p3679
(lp3680
sg600
(g1072
S'VC12'
p3681
S'X86ARMAARCH64'
p3682
tp3683
sS'build_libs'
p3684
(dp3685
sg602
g0
sS'frameworks'
p3686
(lp3687
sS'environ'
p3688
(dp3689
sS'target_name_debug'
p3690
g336
sS'builders'
p3691
(dp3692
g592
(dp3693
S'.S'
p3694
(dp3695
S'gcc_aarch64'
p3696
(lp3697
S'.obj'
p3698
aS'echo AARCH64 Assembling(GCC) ${SOURCE}...'
p3699
aS'c:/marmalade/7.5/s3e\\gcc\\win32\\aarch64\\bin\\aarch64-none-elf-gcc -c -o ${TARGET} ${SOURCE}'
p3700
asS'rvct'
p3701
(lp3702
g3698
aS'echo ARM Assembling(RVCT) ${SOURCE}...'
p3703
aS'c:/marmalade/7.5/s3e\\rvct\\bin\\armasm -o ${TARGET} ${SOURCE}'
p3704
asg450
(lp3705
g3698
aS'echo ARM Assembling(GCC) ${SOURCE}...'
p3706
aS'c:/marmalade/7.5/s3e\\gcc\\win32\\arm\\bin\\arm-none-eabi-gcc -c -o ${TARGET} ${SOURCE}'
p3707
asS'ppu'
p3708
(lp3709
S'.a'
p3710
aS'echo PPU Assembling(SNC) ${SOURCE}...'
p3711
aS'c:/marmalade/7.5/s3e\\rvct\\bin\\armasm -o ${TARGET} ${SOURCE}'
p3712
assS'.s'
p3713
g3695
sS'.vp'
p3714
(lp3715
NaS'"C:/Marmalade/7.5/s3e/python/python.exe" "c:/marmalade/7.5/modules/iwgx/tools/compile_shaders.py" ${SOURCE}'
p3716
asssS'extproject_names'
p3717
(lp3718
sbtp3719
.