((dp0
S'arm_dbg_args'
p1
S'-via:"c:\\Marmalade\\7.5\\examples\\GameTutorial\\CPP\\marm1\\build_stage4_vc12\\Stage4_vc12_arm_debug.via" -qemu'
p2
sS'game-icf'
p3
S''
p4
sS'dist'
p5
NsS'csproj'
p6
g4
sS'module_path_append'
p7
NsS'global_path'
p8
S'c:\\marmalade\\7.5\\examples\\gametutorial\\cpp'
p9
sS'system_path'
p10
S'c:\\marmalade\\7.5\\s3e\\makefile_builder'
p11
sS'android_x86_dbg_args'
p12
S'../../tools/DeployTool/DeployTool.exe --dir "c:\\Marmalade\\7.5\\examples\\GameTutorial\\CPP\\marm1\\build_stage4_vc12"'
p13
sS'aarch64-arch-mod'
p14
g4
sS'no-emit'
p15
NsS'arm-float-abi'
p16
g4
sS'arm_rel_rtsm_args'
p17
S'-via:"c:\\Marmalade\\7.5\\examples\\GameTutorial\\CPP\\marm1\\build_stage4_vc12\\Stage4_vc12_arm_release.via" -qemu'
p18
sS'amd64'
p19
NsS'line-width'
p20
I80
sS'gcc_dbg_args'
p21
S'-via:"c:\\Marmalade\\7.5\\examples\\GameTutorial\\CPP\\marm1\\build_stage4_vc12\\Stage4_vc12_gcc_debug.via" -qemu'
p22
sS'android-x86'
p23
NsS'x86_dbg_exe'
p24
S'c:/marmalade/7.5/s3e\\win32\\s3e_simulator_debug.exe'
p25
sS'disable-runtime-checks'
p26
NsS'release'
p27
NsS'no-make'
p28
NsS'xcode-x86-build-settings'
p29
g4
sS'optimise-size'
p30
NsS'fat'
p31
NsS'output-name-debug'
p32
g4
sS'arm-fpu'
p33
g4
sS'proj_name'
p34
S'Stage4_vc12'
p35
sS'rvct-version'
p36
S'none'
p37
sS'compiler'
p38
g4
sS'execute'
p39
NsS'compile-static'
p40
NsS'msvc-project'
p41
I01
sS'buildenv'
p42
S'VC12'
p43
sS'quick'
p44
NsS'module_path'
p45
(lp46
S'c:/Marmalade/7.5/examples/GameTutorial/CPP/modules'
p47
asS'mkf_default'
p48
S's3e-default.mkf'
p49
sS'use-release-std-libs'
p50
NsS'using_perforce'
p51
I00
sS'tizen-x86'
p52
NsS'mips-s3e'
p53
NsS's3e-api-lib-name'
p54
S's3e_api_iwgl'
p55
sS'ios-no-pic'
p56
NsS'shared-arm-lib'
p57
NsS'arm-cpu'
p58
g4
sS'compile-thumb'
p59
NsS'no-ide'
p60
NsS'msvc-version'
p61
S'6.0'
p62
sS'arm'
p63
NsS'builddir'
p64
g4
sS'compile-debug-as-release'
p65
I0
sS'arm-arch'
p66
g4
sS'brief'
p67
NsS'dll'
p68
NsS'buildenv-toolset'
p69
g4
sS'version'
p70
NsS'aarch64-arch'
p71
g4
sS'ccache'
p72
I0
sS'offline'
p73
NsS'ios-version'
p74
g4
sS'hub_data'
p75
g4
sS'fake_vc_call'
p76
NsS'jobs'
p77
I0
sS'linkflags'
p78
NsS'gcc_aarch64_dbg_args'
p79
g13
sS'debug'
p80
NsS'xcode-build-order'
p81
g4
sS'gcc_aarch64_rel_rtsm_args'
p82
S'-via:"c:\\Marmalade\\7.5\\examples\\GameTutorial\\CPP\\marm1\\build_stage4_vc12\\Stage4_vc12_gcc_aarch64_release.via" -qemu'
p83
sS'gcc_rel_rtsm_args'
p84
S'-via:"c:\\Marmalade\\7.5\\examples\\GameTutorial\\CPP\\marm1\\build_stage4_vc12\\Stage4_vc12_gcc_release.via" -qemu'
p85
sS'done_defaults'
p86
I1
sS'path'
p87
NsS's3e-data-dir'
p88
S'c:/Marmalade/7.5/examples/GameTutorial/CPP/marm1\\data'
p89
sS'enable-exceptions'
p90
NsS'osx-dll'
p91
NsS'extension'
p92
g4
sS'no-vc6'
p93
NsS'aarch64'
p94
NsS'win32-console'
p95
NsS'dist-format'
p96
g4
sS's3e-force-arch'
p97
NsS'dump_defines'
p98
NsS'use-shared-std-libs'
p99
NsS'gcc-version'
p100
g4
sS'x86_dbg_args'
p101
S'-via:"c:\\Marmalade\\7.5\\examples\\GameTutorial\\CPP\\marm1\\build_stage4_vc12\\Stage4_vc12_debug.via"'
p102
sS'tizen_x86_dbg_args'
p103
g13
sS'arm-debugger'
p104
g4
sS'use_temp_extension'
p105
NsS'verbose'
p106
I0
sS'log'
p107
NsS'no-strip'
p108
NsS'rebuild'
p109
NsS'mips_dbg_args'
p110
g13
sS'win32-simulator-dll'
p111
NsS'strict'
p112
NsS'xcode-aarch64-build-settings'
p113
g4
sS'enable-global-path'
p114
NsS'gcc_aarch64_rel_args'
p115
g13
sS'cflags'
p116
(lp117
S'-std=gnu++0x'
p118
asS'dist-dir'
p119
g4
sS'xcode-arm-build-settings'
p120
g4
sS'jflags'
p121
NsS'csprojSDKRefs'
p122
g4
sS'tizen_x86_rel_exe'
p123
S'c:\\marmalade\\7.5\\s3e\\makefile_builder\\tool_launcher.exe'
p124
sS'test-assets'
p125
g4
sS'distcc'
p126
NsS'external-compiler'
p127
NsS'no-distcc'
p128
NsS'preinclude'
p129
NsS'using_sdk'
p130
I01
sS'nologo'
p131
NsS'warn-level'
p132
I2
sS'mips_dbg_exe'
p133
g124
sS'mkb_in'
p134
S'c:/Marmalade/7.5/examples/GameTutorial/CPP/marm1/Stage4.mkb'
p135
sS'tizen_x86_dbg_exe'
p136
g124
sS'arm_dbg_exe'
p137
S'c:/marmalade/7.5/s3e\\bin\\armdebug.exe'
p138
sS'mdev-first'
p139
NsS'csprojDLLRef'
p140
NsS'tizen_x86_rel_args'
p141
g13
sS'android_x86_dbg_exe'
p142
g124
sS'test-config'
p143
g4
sS'list-targets'
p144
NsS'arm_rel_exe'
p145
g124
sS'arm_rel_args'
p146
g13
sS'makedeps'
p147
NsS'android_x86_rel_exe'
p148
g124
sS'default-buildenv'
p149
S'vc12'
p150
sS'x86_rel_exe'
p151
g25
sS'preprocess-java'
p152
NsS'mips_rel_args'
p153
g13
sS'defines'
p154
NsS'lib'
p155
NsS'non-interactive'
p156
NsS'global_argv'
p157
(lp158
S'C:\\Marmalade\\7.5\\s3e\\makefile_builder\\mkb.py'
p159
aS'c:/Marmalade/7.5/examples/GameTutorial/CPP/marm1/Stage4.mkb'
p160
aS'--buildenv=VC12'
p161
aS'--default-buildenv=vc12'
p162
aS'--msvc-project'
p163
asS'make'
p164
NsS'optimise-speed'
p165
NsS'internal'
p166
NsS'enable-stdinc'
p167
NsS'deploy-only'
p168
NsS'x86'
p169
NsS'deploy'
p170
g4
sS'x86_run_exe'
p171
S'c:/marmalade/7.5/s3e\\win32\\s3e_console.exe'
p172
sS'cxxflags'
p173
NsS'x86_rel_args'
p174
S'-via:"c:\\Marmalade\\7.5\\examples\\GameTutorial\\CPP\\marm1\\build_stage4_vc12\\Stage4_vc12_release.via"'
p175
sS'gcc_rel_args'
p176
g13
sS'mips'
p177
NsS'xcode-build-settings'
p178
g4
sS'incredibuild'
p179
NsS'strict-compile'
p180
NsS'use-auto-subdirs'
p181
NsS'mips_rel_exe'
p182
g124
sS'android_x86_rel_args'
p183
g13
sS'app-icf'
p184
g4
sS'deployargs'
p185
NsS'iosnativedebug'
p186
NsS'use_prebuilt'
p187
NsS'mkf_in'
p188
(lp189
S'c:\\marmalade\\7.5\\s3e\\s3e-default.mkf'
p190
aS'c:\\marmalade\\7.5\\modules\\iw2d\\iw2d.mkf'
p191
aS'c:\\marmalade\\7.5\\modules\\iwgx\\iwgx.mkf'
p192
aS'c:\\marmalade\\7.5\\modules\\iwgl\\iwgl.mkf'
p193
aS'c:\\marmalade\\7.5\\modules\\iwutil\\iwutil.mkf'
p194
aS'c:\\marmalade\\7.5\\modules\\third_party\\libjpeg\\libjpeg.mkf'
p195
aS'c:\\marmalade\\7.5\\modules\\third_party\\libpng\\libpng.mkf'
p196
aS'c:\\marmalade\\7.5\\modules\\third_party\\zlib\\zlib.mkf'
p197
aS'c:\\marmalade\\7.5\\modules\\iwgeom\\iwgeom.mkf'
p198
aS'c:\\marmalade\\7.5\\modules\\iwresmanager\\iwresmanager.mkf'
p199
aS'c:\\marmalade\\7.5\\extensions\\pvrtextool\\pvrtextool.mkf'
p200
aS'c:\\marmalade\\7.5\\modules\\iwgxfont\\iwgxfont.mkf'
p201
aS'c:\\marmalade\\7.5\\modules\\third_party\\tiniconv\\tiniconv.mkf'
p202
aS'c:\\marmalade\\7.5\\modules\\iw2dscenegraph\\iw2dscenegraph.mkf'
p203
aS'c:\\marmalade\\7.5\\modules\\iw2dscenegraphcore\\iw2dscenegraphcore.mkf'
p204
aS'c:\\marmalade\\7.5\\modules\\iwtween\\iwtween.mkf'
p205
aS'c:\\marmalade\\7.5\\examples\\gametutorial\\cpp\\modules\\soundengine\\soundengine.mkf'
p206
aS'c:\\marmalade\\7.5\\examples\\marmaladeexampleresources\\marmaladeexampleresources.mkf'
p207
asS'strict-mkb'
p208
NsS'executeargs'
p209
NsS'clean'
p210
NsS'no-asm'
p211
NsS'output-name'
p212
g4
sS'no-modules'
p213
NsS'find_define'
p214
g4
s(dp215
S'c:\\marmalade\\7.5\\s3e\\makefile_builder\\templates\\vc7_suo.pyc'
p216
F1424160376.0
sS'c:\\marmalade\\7.5\\s3e\\makefile_builder\\templates\\ws81_vcxproj.pyc'
p217
F1424160380.0
sS'c:\\marmalade\\7.5\\s3e\\makefile_builder\\plugins\\s3e_ws8.pyc'
p218
F1424160376.0
sS'c:\\marmalade\\7.5\\s3e\\makefile_builder\\templates'
p219
F1424630747.758857
sS'c:\\marmalade\\7.5\\s3e\\makefile_builder\\templates\\qmake.py'
p220
F1424159312.0
sS'c:\\marmalade\\7.5\\s3e\\makefile_builder\\templates\\vc10_user.pyc'
p221
F1424160378.0
sS'c:\\marmalade\\7.5\\s3e\\makefile_builder\\plugins'
p222
F1424631019.086376
sS'c:\\marmalade\\7.5\\s3e\\makefile_builder\\mkb_main.pyc'
p223
F1424160376.0
sS'c:\\marmalade\\7.5\\s3e\\makefile_builder\\templates\\mips_linker_script'
p224
F1424159312.0
sS'c:\\marmalade\\7.5\\s3e\\makefile_builder\\plugins\\XcodeEmitter.py'
p225
F1424159310.0
sS'c:\\marmalade\\7.5\\s3e\\makefile_builder\\mkb.py'
p226
F1424159310.0
sS'c:\\marmalade\\7.5\\s3e\\makefile_builder\\templates\\ws81_ext_sln.pyc'
p227
F1424160380.0
sS'c:\\marmalade\\7.5\\s3e\\makefile_builder\\templates\\win32_dsp.pyc'
p228
F1424160376.0
sS'c:\\marmalade\\7.5\\s3e\\makefile_builder\\templates\\ws8_csproj.pyc'
p229
F1424160380.0
sS'c:\\marmalade\\7.5\\s3e\\makefile_builder\\deployment.pyc'
p230
F1424160376.0
sS'c:\\marmalade\\7.5\\s3e\\makefile_builder\\plugins\\win32_vc6.pyc'
p231
F1424160376.0
sS'c:\\marmalade\\7.5\\s3e\\makefile_builder\\plugins\\osx_xcode.pyc'
p232
F1424160376.0
sS'c:\\marmalade\\7.5\\s3e\\makefile_builder\\plugins\\null.pyc'
p233
F1424160376.0
sS'c:\\marmalade\\7.5\\s3e\\makefile_builder\\templates\\wp81_csproj.pyc'
p234
F1424160380.0
sS'c:\\marmalade\\7.5\\s3e\\makefile_builder\\templates\\qmake_user.py'
p235
F1424159312.0
sS'c:\\marmalade\\7.5\\s3e\\makefile_builder\\templates\\vc6_opt.pyc'
p236
F1424160376.0
sS'c:\\marmalade\\7.5\\s3e\\makefile_builder\\plugins\\vc7_utils.pyc'
p237
F1424160376.0
sS'c:\\marmalade\\7.5\\s3e\\makefile_builder\\templates\\wp81_vcxproj.pyc'
p238
F1424160380.0
sS'c:\\marmalade\\7.5\\s3e\\makefile_builder\\templates\\win32_vcxproj.pyc'
p239
F1424160378.0
sS'c:\\marmalade\\7.5\\s3e\\makefile_builder\\templates\\ws8_ext_sln.pyc'
p240
F1424160380.0
sS'c:\\marmalade\\7.5\\s3e\\makefile_builder\\templates\\ws8_ext_csproj.pyc'
p241
F1424160380.0
sS'c:\\marmalade\\7.5\\s3e\\makefile_builder\\templates\\wp8_ext_csproj.pyc'
p242
F1424160378.0
sS'c:\\marmalade\\7.5\\s3e\\makefile_builder\\plugins\\s3e_wp8.pyc'
p243
F1424160376.0
sS'c:\\marmalade\\7.5\\s3e\\makefile_builder\\templates\\ws81_csproj.pyc'
p244
F1424160380.0
sS'c:\\marmalade\\7.5\\s3e\\makefile_builder\\docs\\deprecated.options.txt'
p245
F1424159310.0
sS'c:\\marmalade\\7.5\\s3e\\makefile_builder\\plugins\\s3e_make.pyc'
p246
F1424160376.0
sS'c:\\marmalade\\7.5\\s3e\\makefile_builder\\templates\\win8_ext_csproj.pyc'
p247
F1424160378.0
sS'c:\\marmalade\\7.5\\s3e\\makefile_builder\\mkb_parser.pyc'
p248
F1424160376.0
sS'c:\\marmalade\\7.5\\s3e\\makefile_builder\\plugins\\s3e_web.pyc'
p249
F1424160376.0
sS'c:\\marmalade\\7.5\\s3e\\makefile_builder\\docs\\mkb.defines.txt'
p250
F1424159310.0
sS'c:\\marmalade\\7.5\\s3e\\makefile_builder\\plugins\\osx_scons.pyc'
p251
F1424160376.0
sS'c:\\marmalade\\7.5\\s3e\\makefile_builder\\plugins\\ws81_ws81.pyc'
p252
F1424160376.0
sS'c:\\marmalade\\7.5\\s3e\\makefile_builder\\plugins\\s3e_qmake.py'
p253
F1424159312.0
sS'c:\\marmalade\\7.5\\s3e\\makefile_builder\\templates\\win8_csproj.pyc'
p254
F1424160378.0
sS'c:\\marmalade\\7.5\\s3e\\makefile_builder\\plugins\\s3e_vc6.pyc'
p255
F1424160376.0
sS'c:\\marmalade\\7.5\\s3e\\makefile_builder\\plugins\\wp81_wp81.pyc'
p256
F1424160376.0
sS'c:\\marmalade\\7.5\\s3e\\makefile_builder\\templates\\wp81_csproj_user.pyc'
p257
F1424160380.0
sS'c:\\marmalade\\7.5\\s3e\\makefile_builder\\templates\\win32_dsw.pyc'
p258
F1424160376.0
sS'c:\\marmalade\\7.5\\s3e\\makefile_builder\\templates\\xcode4.xcscheme'
p259
F1424159312.0
sS'c:\\marmalade\\7.5\\s3e\\makefile_builder\\templates\\template.opt'
p260
F1424159312.0
sS'c:\\marmalade\\7.5\\s3e\\makefile_builder\\templates\\template.suo'
p261
F1424159312.0
sS'c:\\marmalade\\7.5\\s3e\\makefile_builder\\templates\\linker_script'
p262
F1424159312.0
sS'c:\\marmalade\\7.5\\s3e\\makefile_builder\\templates\\gdb_start.txt'
p263
F1424159312.0
sS'c:\\marmalade\\7.5\\s3e\\makefile_builder\\mkb_launcher.exe'
p264
F1424159548.0
sS'c:\\marmalade\\7.5\\s3e\\makefile_builder\\templates\\scons.pyc'
p265
F1424160376.0
sS'c:\\marmalade\\7.5\\s3e\\makefile_builder\\docs\\parse_options.pyc'
p266
F1424160380.0
sS'c:\\marmalade\\7.5\\s3e\\makefile_builder\\templates\\xcode4_arm.xcscheme'
p267
F1424159312.0
sS'c:\\marmalade\\7.5\\s3e\\makefile_builder\\plugins\\VisualStudioEmitter.pyc'
p268
F1424160376.0
sS'c:\\marmalade\\7.5\\s3e\\makefile_builder\\plugins\\s3e_xcode.pyc'
p269
F1424631019.087376
sS'c:\\marmalade\\7.5\\s3e\\makefile_builder\\plugins\\Emitter.pyc'
p270
F1424160376.0
sS'c:\\marmalade\\7.5\\s3e\\makefile_builder\\templates\\ws8_sln.pyc'
p271
F1424160380.0
sS'c:\\marmalade\\7.5\\s3e\\makefile_builder\\tool_launcher.exe'
p272
F1424159548.0
sS'c:\\marmalade\\7.5\\s3e\\makefile_builder\\templates\\wp8_sln.pyc'
p273
F1424160378.0
sS'c:\\marmalade\\7.5\\s3e\\makefile_builder\\mkb_upstream.pyc'
p274
F1424160376.0
sS'c:\\marmalade\\7.5\\s3e\\makefile_builder\\templates\\ws81_csproj_user.pyc'
p275
F1424160380.0
sS'c:\\marmalade\\7.5\\s3e\\makefile_builder\\templates\\win32_sln.pyc'
p276
F1424160376.0
sS'c:\\marmalade\\7.5\\s3e\\makefile_builder\\templates\\xcode4_DeployTool.xcscheme'
p277
F1424159312.0
sS'c:\\marmalade\\7.5\\s3e\\makefile_builder\\plugins\\deploy.pyc'
p278
F1424160376.0
sS'c:\\marmalade\\7.5\\s3e\\makefile_builder\\plugins\\s3e_win8.pyc'
p279
F1424160376.0
sS'c:\\marmalade\\7.5\\s3e\\makefile_builder\\plugins\\iphone.pyc'
p280
F1424160376.0
sS'c:\\marmalade\\7.5\\s3e\\makefile_builder\\plugins\\Win8Emitter.pyc'
p281
F1424160376.0
sS'c:\\marmalade\\7.5\\s3e\\makefile_builder\\plugins\\s3e_qmake.pyc'
p282
F1424631018.9523683
sS'c:\\marmalade\\7.5\\s3e\\makefile_builder\\docs'
p283
F1424630747.7758577
sS'c:\\marmalade\\7.5\\s3e\\makefile_builder\\mkb_globals.pyc'
p284
F1424160376.0
sS'c:\\marmalade\\7.5\\s3e\\makefile_builder\\plugins\\win8_utils.pyc'
p285
F1424160376.0
sS'c:\\marmalade\\7.5\\s3e\\makefile_builder\\plugins\\xcode4_schememanagement.py'
p286
F1424159312.0
sS'c:\\marmalade\\7.5\\s3e\\makefile_builder\\templates\\wp81_ext_sln.pyc'
p287
F1424160380.0
sS'c:\\marmalade\\7.5\\s3e\\makefile_builder\\templates\\make.py'
p288
F1424159312.0
sS'c:\\marmalade\\7.5\\s3e\\makefile_builder\\templates\\ws81_ext_csproj.pyc'
p289
F1424160380.0
sS'c:\\marmalade\\7.5\\s3e\\makefile_builder\\plugins\\s3e_xcode.py'
p290
F1424159312.0
sS'c:\\marmalade\\7.5\\s3e\\makefile_builder\\plugins\\XcodeEmitter.pyc'
p291
F1424631018.8013597
sS'c:\\marmalade\\7.5\\s3e\\makefile_builder\\docs\\deployment_options.txt'
p292
F1424159310.0
sS'c:\\marmalade\\7.5\\s3e\\makefile_builder\\templates\\win8_sln.pyc'
p293
F1424160378.0
sS'c:\\marmalade\\7.5\\s3e\\makefile_builder\\plugins\\java.pyc'
p294
F1424160376.0
sS'c:\\marmalade\\7.5\\s3e\\makefile_builder\\plugins\\xcode4_schememanagement.pyc'
p295
F1424631018.80836
sS'c:\\marmalade\\7.5\\s3e\\makefile_builder\\plugins\\SConsEmitter.pyc'
p296
F1424160376.0
sS'c:\\marmalade\\7.5\\s3e\\makefile_builder\\templates\\win32_vcproj.pyc'
p297
F1424160378.0
sS'c:\\marmalade\\7.5\\s3e\\makefile_builder\\plugins\\wp8_wp8.pyc'
p298
F1424160376.0
sS'c:\\marmalade\\7.5\\s3e\\makefile_builder\\templates\\MainWindow.xib'
p299
F1424159312.0
sS'c:\\marmalade\\7.5\\s3e\\makefile_builder\\mkb_util.pyc'
p300
F1424160376.0
sS'c:\\marmalade\\7.5\\s3e\\makefile_builder\\templates\\vc8_user.pyc'
p301
F1424160378.0
sS'c:\\marmalade\\7.5\\s3e\\makefile_builder\\templates\\Info.plist'
p302
F1424159312.0
sS'c:\\marmalade\\7.5\\s3e\\makefile_builder\\templates\\wp8_csproj_user.pyc'
p303
F1424160378.0
sS'c:\\marmalade\\7.5\\s3e\\makefile_builder\\docs\\deprecated.defines.txt'
p304
F1424159310.0
sS'c:\\marmalade\\7.5\\s3e\\makefile_builder\\templates\\ws8_csproj_user.pyc'
p305
F1424160380.0
sS'c:\\marmalade\\7.5\\s3e\\makefile_builder\\plugins\\S3EEmitter.pyc'
p306
F1424160376.0
sS'c:\\marmalade\\7.5\\s3e\\makefile_builder\\templates\\rvct_linker_script'
p307
F1424159312.0
sS'c:\\marmalade\\7.5\\s3e\\makefile_builder\\templates\\xcode_pbxuser.py'
p308
F1424159312.0
sS'c:\\marmalade\\7.5\\s3e\\makefile_builder\\docs\\options.txt'
p309
F1424159310.0
sS'c:\\marmalade\\7.5\\s3e\\makefile_builder\\templates\\wp81_sln.pyc'
p310
F1424160380.0
sS'c:\\marmalade\\7.5\\s3e\\makefile_builder\\templates\\ws81_sln.pyc'
p311
F1424160380.0
sS'c:\\marmalade\\7.5\\s3e\\makefile_builder\\plugins\\vc6_utils.pyc'
p312
F1424160376.0
sS'c:\\marmalade\\7.5\\s3e\\makefile_builder\\templates\\wp81_ext_csproj.pyc'
p313
F1424160380.0
sS'c:\\marmalade\\7.5\\s3e\\makefile_builder\\plugins\\s3e_wp81.pyc'
p314
F1424160376.0
sS'c:\\marmalade\\7.5\\s3e\\makefile_builder\\templates\\aarch64_linker_script'
p315
F1424159312.0
sS'c:\\marmalade\\7.5\\s3e\\makefile_builder\\templates\\ws8_vcxproj.pyc'
p316
F1424160380.0
sS'c:\\marmalade\\7.5\\s3e\\makefile_builder\\plugins\\MakeEmitter.pyc'
p317
F1424160376.0
sS'c:\\marmalade\\7.5\\s3e\\makefile_builder\\templates\\win32_vcxproj_filters.pyc'
p318
F1424160378.0
sS'c:\\marmalade\\7.5\\s3e\\makefile_builder\\templates\\xcode.py'
p319
F1424159312.0
sS'c:\\marmalade\\7.5\\s3e\\makefile_builder\\plugins\\s3e_ws81.pyc'
p320
F1424160376.0
sS'c:\\marmalade\\7.5\\s3e\\makefile_builder\\plugins\\linux_scons.pyc'
p321
F1424160376.0
sS'c:\\marmalade\\7.5\\s3e\\makefile_builder\\templates\\win8_vcxproj.pyc'
p322
F1424160378.0
sS'c:\\marmalade\\7.5\\s3e\\makefile_builder\\plugins\\s3e_scons.pyc'
p323
F1424160376.0
sS'c:\\marmalade\\7.5\\s3e\\makefile_builder\\templates\\wp8_csproj.pyc'
p324
F1424160378.0
sS'c:\\marmalade\\7.5\\s3e\\makefile_builder\\templates\\win8_csproj_user.pyc'
p325
F1424160378.0
sS'c:\\marmalade\\7.5\\s3e\\makefile_builder\\plugins\\ws8_ws8.pyc'
p326
F1424160376.0
sS'c:\\marmalade\\7.5\\s3e\\makefile_builder\\templates\\wp8_vcxproj.pyc'
p327
F1424160378.0
sS'c:\\marmalade\\7.5\\s3e\\makefile_builder\\mkb_option.pyc'
p328
F1424160376.0
sccopy_reg
_reconstructor
p329
(cmkb_main
MkbFile
p330
c__builtin__
object
p331
Ntp332
Rp333
(dp334
g5
(lp335
sS'target_name'
p336
S'Stage4'
p337
sS'current_file'
p338
g135
sS'package_path'
p339
(lp340
sS'post_build'
p341
(lp342
(lp343
S'c:/marmalade/7.5/s3e/tools'
p344
aS'C:\\Marmalade\\7.5\\s3e\\python\\python.exe .\\process_map.py "$(TargetPath)"'
p345
aa(S'c:\\marmalade\\7.5\\s3e\\bin'
p346
S'"s3e_plink" -l "$(TargetPath)" '
p347
g169
tp348
asS'librarys'
p349
(lp350
g329
(cmkb_main
Library
p351
g331
Ntp352
Rp353
(dp354
S'name'
p355
S'vc6_compat.lib'
p356
sS'expand_name'
p357
I00
sS'include_spec_rvct_objs'
p358
(lp359
sS'include_all_objs'
p360
I00
sS'share_arm'
p361
I00
sS'arch'
p362
S'x86'
p363
sS'nodebug'
p364
I00
sg38
Nsbag329
(g351
g331
Ntp365
Rp366
(dp367
g355
S'iw2d'
p368
sg357
I01
sg358
(lp369
sg360
Nsg361
Nsg362
Nsg364
I00
sg38
Nsbag329
(g351
g331
Ntp370
Rp371
(dp372
g355
S'ATI_Compress_MT_VC7.lib'
p373
sg357
I00
sg358
g369
sg360
Nsg361
Nsg362
S'x86'
p374
sg364
I00
sg38
Nsbag329
(g351
g331
Ntp375
Rp376
(dp377
g355
S'iwgx'
p378
sg357
I01
sg358
g369
sg360
Nsg361
Nsg362
Nsg364
I00
sg38
Nsbag329
(g351
g331
Ntp379
Rp380
(dp381
g355
S'iwgl'
p382
sg357
I01
sg358
g369
sg360
Nsg361
Nsg362
Nsg364
I00
sg38
Nsbag329
(g351
g331
Ntp383
Rp384
(dp385
g355
S'iwutil'
p386
sg357
I01
sg358
g369
sg360
Nsg361
Nsg362
Nsg364
I00
sg38
Nsbag329
(g351
g331
Ntp387
Rp388
(dp389
g355
S'jpeg'
p390
sg357
I01
sg358
g369
sg360
Nsg361
Nsg362
Nsg364
I00
sg38
Nsbag329
(g351
g331
Ntp391
Rp392
(dp393
g355
S'z'
p394
sg357
I01
sg358
g369
sg360
Nsg361
Nsg362
Nsg364
I00
sg38
Nsbag329
(g351
g331
Ntp395
Rp396
(dp397
g355
S'png'
p398
sg357
I01
sg358
g369
sg360
Nsg361
Nsg362
Nsg364
I00
sg38
Nsbag329
(g351
g331
Ntp399
Rp400
(dp401
g355
S'iwgeom'
p402
sg357
I01
sg358
g369
sg360
Nsg361
Nsg362
Nsg364
I00
sg38
Nsbag329
(g351
g331
Ntp403
Rp404
(dp405
g355
S'iwresmanager'
p406
sg357
I01
sg358
g369
sg360
Nsg361
Nsg362
Nsg364
I00
sg38
Nsbag329
(g351
g331
Ntp407
Rp408
(dp409
g355
S'iwgxfont'
p410
sg357
I01
sg358
g369
sg360
Nsg361
Nsg362
Nsg364
I00
sg38
Nsbag329
(g351
g331
Ntp411
Rp412
(dp413
g355
S'tiniconv'
p414
sg357
I01
sg358
g369
sg360
Nsg361
Nsg362
Nsg364
I00
sg38
Nsbag329
(g351
g331
Ntp415
Rp416
(dp417
g355
S's3e_cpp'
p418
sg357
I01
sg358
g359
sg360
I00
sg361
I00
sg362
Nsg364
I00
sg38
Nsbag329
(g351
g331
Ntp419
Rp420
(dp421
g355
S's3e'
p422
sg357
I01
sg358
(lp423
S'iwcrt.o'
p424
asg360
I00
sg361
I00
sg362
Nsg364
I00
sg38
Nsbag329
(g351
g331
Ntp425
Rp426
(dp427
g355
g55
sg357
I01
sg358
g359
sg360
I00
sg361
I00
sg362
S'x86'
p428
sg364
I01
sg38
Nsbag329
(g351
g331
Ntp429
Rp430
(dp431
g355
g55
sg357
I01
sg358
g359
sg360
I00
sg361
I00
sg362
S'!x86'
p432
sg364
I01
sg38
Nsbag329
(g351
g331
Ntp433
Rp434
(dp435
g355
S'stdc++'
p436
sg357
I00
sg358
g359
sg360
I00
sg361
I00
sg362
S'mips'
p437
sg364
I00
sg38
Nsbag329
(g351
g331
Ntp438
Rp439
(dp440
g355
S'c'
p441
sg357
I00
sg358
g359
sg360
I00
sg361
I00
sg362
S'mips'
p442
sg364
I00
sg38
Nsbag329
(g351
g331
Ntp443
Rp444
(dp445
g355
S'm'
p446
sg357
I00
sg358
g359
sg360
I00
sg361
I00
sg362
S'mips'
p447
sg364
I00
sg38
Nsbag329
(g351
g331
Ntp448
Rp449
(dp450
g355
S'gcc'
p451
sg357
I00
sg358
g359
sg360
I00
sg361
I00
sg362
S'mips'
p452
sg364
I00
sg38
Nsbag329
(g351
g331
Ntp453
Rp454
(dp455
g355
S'stdc++'
p456
sg357
I00
sg358
g359
sg360
I00
sg361
I00
sg362
S'gcc_x86_android'
p457
sg364
I00
sg38
Nsbag329
(g351
g331
Ntp458
Rp459
(dp460
g355
g441
sg357
I00
sg358
g359
sg360
I00
sg361
I00
sg362
S'gcc_x86_android'
p461
sg364
I00
sg38
Nsbag329
(g351
g331
Ntp462
Rp463
(dp464
g355
g446
sg357
I00
sg358
g359
sg360
I00
sg361
I00
sg362
S'gcc_x86_android'
p465
sg364
I00
sg38
Nsbag329
(g351
g331
Ntp466
Rp467
(dp468
g355
g451
sg357
I00
sg358
g359
sg360
I00
sg361
I00
sg362
S'gcc_x86_android'
p469
sg364
I00
sg38
NsbasS'library_paths'
p470
(lp471
g329
(cmkb_main
LibraryPath
p472
g331
Ntp473
Rp474
(dp475
S'expand_path'
p476
I01
sg355
S'c:/marmalade/7.5/modules/iw2d'
p477
sbag329
(g472
g331
Ntp478
Rp479
(dp480
g476
I00
sg355
S'c:/marmalade/7.5/modules/iwgx/atitools'
p481
sbag329
(g472
g331
Ntp482
Rp483
(dp484
g476
I01
sg355
S'c:/marmalade/7.5/modules/iwgx'
p485
sbag329
(g472
g331
Ntp486
Rp487
(dp488
g476
I01
sg355
S'c:/marmalade/7.5/modules/iwgl'
p489
sbag329
(g472
g331
Ntp490
Rp491
(dp492
g476
I01
sg355
S'c:/marmalade/7.5/modules/iwutil'
p493
sbag329
(g472
g331
Ntp494
Rp495
(dp496
g476
I01
sg355
S'c:/marmalade/7.5/modules/third_party/libjpeg'
p497
sbag329
(g472
g331
Ntp498
Rp499
(dp500
g476
I01
sg355
S'c:/marmalade/7.5/modules/third_party/zlib'
p501
sbag329
(g472
g331
Ntp502
Rp503
(dp504
g476
I01
sg355
S'c:/marmalade/7.5/modules/third_party/libpng'
p505
sbag329
(g472
g331
Ntp506
Rp507
(dp508
g476
I01
sg355
S'c:/marmalade/7.5/modules/iwgeom'
p509
sbag329
(g472
g331
Ntp510
Rp511
(dp512
g476
I01
sg355
S'c:/marmalade/7.5/modules/iwresmanager'
p513
sbag329
(g472
g331
Ntp514
Rp515
(dp516
g476
I01
sg355
S'c:/marmalade/7.5/modules/iwgxfont'
p517
sbag329
(g472
g331
Ntp518
Rp519
(dp520
g476
I01
sg355
S'c:/marmalade/7.5/modules/third_party/tiniconv'
p521
sbag329
(g472
g331
Ntp522
Rp523
(dp524
g476
I01
sg355
S'c:/marmalade/7.5/s3e'
p525
sbasS'macros'
p526
(dp527
S'IW_USE_CALLSTACK'
p528
NsS'IW_MKF_IWGEOM'
p529
NsS'I3D_PLATFORM_S3E'
p530
NsS'IW_TRACE_CHANNEL_PVRTEXTOOL_VERBOSE'
p531
S'2'
p532
sS'IW_MKF_LIBJPEG'
p533
NsS'I3D_OS_S3E'
p534
NsS'IW_MKF_PVRTEXTOOL'
p535
NsS'IW_MKF_TINICONV'
p536
NsS'IW_APP_VERSION'
p537
S'"1.0"'
p538
sS'__S3E__'
p539
NsS'IW_MKF_IWRESMANAGER'
p540
NsS'IW_MKF_IWUTIL'
p541
NsS'IW_PLATFORM_S3E'
p542
NsS'IW_ASSERTION_CHANNEL_2D'
p543
S'1'
p544
sS'IW_APP_NAME'
p545
S'"Stage4"'
p546
sS'IW_MKF_MARMALADEEXAMPLERESOURCES'
p547
NsS'IW_MKF_IWGXFONT'
p548
NsS'IW_MKF_IWTWEEN'
p549
NsS'IW_MKF_ZLIB'
p550
NsS'IW_MKF_S3E_DEFAULT'
p551
NsS'IW_MKF_IWGX'
p552
NsS'IW_MKF_IW2DSCENEGRAPH'
p553
NsS'IW_MKF_SOUNDENGINE'
p554
NsS'IW_USE_ASSERTIONS'
p555
NsS'_CRT_SECURE_NO_DEPRECATE'
p556
NsS'IW_MKF_IWGL'
p557
NsS'IW_MKF_LIBPNG'
p558
NsS'IW_TRACE_CHANNEL_IW_2DSCENEGRAPH'
p559
g544
sS'IW_DEBUG'
p560
NsS'IW_USE_TRACING'
p561
NsS'IW_ASSERTION_CHANNEL_IW_2DSCENEGRAPH'
p562
g544
sS'IW_TRACE_CHANNEL_PVRTEXTOOL'
p563
g544
sS'IW_SDK'
p564
NsS'S3E_INCLUDE_LEGACY'
p565
NsS'IW_MKF_IW2DSCENEGRAPHCORE'
p566
NsS'IW_MKF_IW2D'
p567
NsS'IW_ASSERTION_CHANNEL_PVRTEXTOOL'
p568
g544
ssS'done_warnings'
p569
(dp570
sS'subprojects'
p571
(dp572
g192
S'iwgx'
p573
sg201
S'iwgxfont'
p574
sg190
S's3e-default.mkf'
p575
sg204
S'../iw2dscenegraphcore'
p576
sg197
S'zlib'
p577
sg199
S'iwresmanager'
p578
sg202
S'tiniconv'
p579
sg195
S'libjpeg'
p580
sg191
S'iw2d'
p581
sg207
S'../../../MarmaladeExampleResources'
p582
sg194
S'iwutil'
p583
sg205
S'iwtween'
p584
sg196
S'libpng'
p585
sg203
S'iw2dscenegraph'
p586
sg206
S'SoundEngine'
p587
sg193
S'iwgl'
p588
sg198
S'iwgeom'
p589
sg200
S'PVRTexTool'
p590
ssS'deployments'
p591
(dp592
S'Default'
p593
g329
(cdeployment
Deployment
p594
g331
Ntp595
Rp596
(dp597
S'got_version'
p598
I0
sS'assets'
p599
g593
sS'mkb'
p600
g333
sS'target'
p601
Nsg362
(lp602
sS'options'
p603
(dp604
S'iphone-link-lib'
p605
(lp606
sS'game-icf'
p607
NsS'android-tm'
p608
NsS'winmobile-icon32'
p609
NsS'ws8-logo-image150x150'
p610
NsS'wp81-logo-image150x150'
p611
NsS'android-keystore'
p612
NsS'osx-ext-dll'
p613
(lp614
S'c:/marmalade/7.5/extensions/pvrtextool/lib/osx/libPVRTexTool.dylib'
p615
asS'iphone-provisioning-profile'
p616
NsS'ws8-splash-screen-image620x300'
p617
NsS'wp81-extra-pri'
p618
(lp619
sS'ws8-ext-capabilities'
p620
(lp621
sS'android-icon-hdpi'
p622
NsS'iphone-ipad-only'
p623
NsS'iphone-splash-full-orient'
p624
NsS'wp8-tile-fliptemplate-supports-large'
p625
NsS'iphone-show-status-bar'
p626
NsS'roku-requires-mkv'
p627
NsS'long-caption'
p628
NsS'android-pkgname'
p629
NsS'wp81-publisher-display-name'
p630
NsS'blackberry-permissions-read-device-identifying-information'
p631
NsS'ws81-certificate-end-date'
p632
NsS'psp-dlgcontentid'
p633
NsS'iphone-minimum-ios-version'
p634
NsS'target-folder'
p635
NsS'tizen-dist1-CA-path'
p636
NsS'symbian-icon2-format'
p637
NsS'tizen-author-key'
p638
NsS'firefoxos-icon-128X128'
p639
NsS'iphone-region'
p640
NsS'uiq3-icon3-mask'
p641
NsS'brew-encoding'
p642
NsS'android-x86'
p643
NsS'nds-initialcode'
p644
NsS'iphone-persistent-wifi'
p645
NsS'psp-snd0'
p646
NsS'roku-icon-focus-hd'
p647
NsS'osx-appid'
p648
NsS'winmobile-install-folder'
p649
NsS'android-external-res'
p650
(lp651
sS'ws8-product-version'
p652
NsS'brew-priviledges'
p653
NsS'iphone-info-plist-override'
p654
NsS'iphone-icon-ipad'
p655
NsS'iphone-skip-icon-generation'
p656
NsS'roku-hidden'
p657
NsS'psp-titlename'
p658
NsS'wp81-product-version'
p659
NsS'symbian-icon1-mask'
p660
NsS'psp-parentallevel'
p661
NsS'iphone-launch-storyboard'
p662
NsS'splashscreen-use-all'
p663
NsS'wp8-author'
p664
NsS'symbian-disable-ecompxl'
p665
NsS'splashscreen-auto-onblack'
p666
NsS'iphone-icon-dir'
p667
NsS'iphone-icon-extra'
p668
NsS'win32-ext-dll'
p669
(lp670
S'c:/marmalade/7.5/extensions/pvrtextool/lib/win32/PVRTexTool.dll'
p671
asS'iphone-development-key'
p672
NsS'winmobile-icon48'
p673
NsS'android-unsigned'
p674
NsS'osx-appstore-category'
p675
NsS'version-revision'
p676
NsS'roku-icon-focus-sd'
p677
NsS'ws81-product-version'
p678
NsS'winmobile-png90'
p679
NsS'iphone-icon-ipad-high-res'
p680
NsS'iphone-disable-ipad'
p681
NsS'ws81-splash-screen-background'
p682
NsS'wp8-ext-capabilities'
p683
(lp684
sS'brew-icon-large'
p685
NsS'symbian-icon1-mask-black'
p686
NsS'ws8-extra-res'
p687
(lp688
sS'iphone-bundle-localisations'
p689
NsS'winmobile-png60'
p690
NsS'blackberry-permissions-access-shared'
p691
NsS'blackberry-author'
p692
NsS'android-icon-xxxhdpi'
p693
NsS'olddeploytoolstyle'
p694
NsS'android_icon_gallery'
p695
NsS'wp81-splash-screen-background'
p696
NsS'winmobile-cab-compress'
p697
NsS'iphone-info-plist'
p698
NsS'ws81-ext-managed-dll'
p699
(lp700
sS'playbook-cskpass'
p701
NsS'win32-icon'
p702
NsS'symbian-key'
p703
NsS'app-icf'
p704
NsS'blackberry-storepass'
p705
NsS'wp8-tile-fliptemplate-back-title'
p706
NsS'brew-compress-loader'
p707
NsS'iphone-testflight'
p708
NsS'win32-pref-windowposy'
p709
NsS'win32-pref-windowposx'
p710
NsS'roku-requires-audiometadata'
p711
NsS'wp8-exclude-low-mem'
p712
NsS'iphone-icon-ipad-search-high-res'
p713
NsS'iphone-link-libdir'
p714
(lp715
sS'wp81-ext-capabilities'
p716
(lp717
sS'blackberry-permissions-read-geolocation'
p718
NsS'ws81-ext-device-capabilities'
p719
(lp720
sS'tizen-signed'
p721
NsS'android-extra-application-manifest'
p722
(lp723
sS'ws8-ext-native-dll'
p724
(lp725
sS'symbian-icon2-mask'
p726
NsS'iphone-launch-extra'
p727
NsS'webos-memory'
p728
NsS'android-keypass'
p729
NsS'name'
p730
NsS'uiq3-icon2-format'
p731
NsS'roku-splash-screen-sd'
p732
NsS'auto-derbh'
p733
NsS'roku-icon-side-sd'
p734
NsS'android-external-assets'
p735
(lp736
sS'nds-publicsavedatasize'
p737
NsS'splashscreen'
p738
S'c:/marmalade/7.5/examples/marmaladeexampleresources/resources/splashscreens'
p739
sS'brew-mif'
p740
NsS'iphone-icon-settings-high-res'
p741
NsS'android-manifest'
p742
NsS'ws81-splash-screen-image620x300'
p743
NsS'wp81-product-name'
p744
NsS's3e-compression'
p745
NsS'tizen-author-password'
p746
NsS'wp8-tile-fliptemplate-back-content'
p747
NsS'blackberry-extra-descriptor'
p748
(lp749
sS'symbian-icon1'
p750
NsS'symbian-icon2'
p751
NsS'nds-makercode'
p752
NsS'android-extra-styles-file'
p753
NsS'wp81-publisher-id'
p754
NsS'nds-bannertitle-jp'
p755
NsS'wp81-logo-image44x44'
p756
NsS'osx-sign-for-store'
p757
NsS'symbian7-uid'
p758
NsS'wp8-tile-fliptemplate-large-back-content'
p759
NsS'wp81-phone-publisher-id'
p760
NsS'nds-bannertitle-cn'
p761
NsS'iphone-distribution-key'
p762
NsS'android-icon-gallery'
p763
NsS'blackberry-keystore'
p764
NsS'iphone-nosign'
p765
NsS'caption'
p766
NsS'android-extra-manifest'
p767
(lp768
sS'wp81-ext-sdk-ref'
p769
(lp770
sS'android-icon-xxhdpi'
p771
NsS'version-minor'
p772
NsS'iphone-skip-launch-generation'
p773
NsS'iphone-link-libdirs'
p774
(lp775
sS'iphone-icon-large'
p776
NsS'symbian-keypwd'
p777
NsS'symbian8-uid'
p778
NsS'symbian-cert-key'
p779
NsS'winmobile-ampd-part-number'
p780
NsS'arch'
p781
NsS'nds-romheadertemplate'
p782
NsS'webos-icon'
p783
NsS'wp81-ext-device-capabilities'
p784
(lp785
sS'psp-dlgprotectdocument'
p786
NsS'ws8-splash-screen-background'
p787
NsS'android-icon-mdpi'
p788
NsS'nds-icon'
p789
NsS'ws8-custom-manifest-fill'
p790
NsS'iphone-development-cert'
p791
NsS'and'
p792
NsS'symbian-icon2-mask-black'
p793
NsS'blackberry-phone-icon'
p794
NsS'iphone-enable-4inch-retina'
p795
NsS'ws8-custom-manifest'
p796
NsS'version-major'
p797
NsS'wp8-genre-isgame'
p798
NsS'uiq3-uid'
p799
NsS'iphone-splash-retina-generate'
p800
NsS'tizen-hw-acceleration'
p801
NsS'iphone_bundle_localisations'
p802
NsS'tizen-dist1-key'
p803
NsS'wp81-custom-manifest-fill'
p804
NsS'wp8-custom-manifest'
p805
NsS'nds-bannertitle-ge'
p806
NsS'iphone-sign-for-distribution'
p807
NsS'wp8-tile-fliptemplate-medium-back-image'
p808
NsS'wp8-publisher-id'
p809
NsS'icon'
p810
S'c:/marmalade/7.5/examples/marmaladeexampleresources/resources/icons'
p811
sS'wp8-exclude-wxga'
p812
NsS'wp81-identity-name'
p813
NsS'uiq3-icon2-mask'
p814
NsS'iphone-splashscreen-portrait'
p815
NsS'iphone-icon-high-res'
p816
NsS'ws81-distribution-pfx-password'
p817
NsS'playbook-author'
p818
NsS'android-icon-xhdpi'
p819
NsS'linux-ext-lib'
p820
(lp821
sS'blackberry-permissions-access-internet'
p822
NsS'wp8-exclude-720p'
p823
NsS'lgtv-use-drm'
p824
NsS'symbian-platsecflags'
p825
NsS'ws8-description'
p826
NsS'blackberry-playbook-icon'
p827
NsS'copyright'
p828
NsS'ws8-distribution-pfx-password'
p829
NsS'win32-gles-directory'
p830
NsS'version'
p831
NsS'iphone-uiviewcontroller-based-status-bar'
p832
NsS'ws81-logo-image150x150'
p833
NsS'osx-signing-identity-app'
p834
NsS'tizen-project-url'
p835
NsS'symbian-icon-svg'
p836
NsS'android-aliasname'
p837
NsS'psp-dlgmanual'
p838
NsS'brew-uid'
p839
NsS'symbian-locationsupport'
p840
NsS'wp81-logo-image50x50'
p841
NsS'ws8-ext-managed-dll'
p842
(lp843
sS'nds-bannertitle-it'
p844
NsS'ws81-custom-manifest-fill'
p845
NsS'ws8-ext-sdk-manifest-part'
p846
(lp847
sS'uiq3-icon1-mask'
p848
NsS'winmobile-icon16'
p849
NsS'ws8-product-name'
p850
NsS'blackberry-cskpass'
p851
NsS'winmobile-start-menu-folder'
p852
NsS'brew-clsid'
p853
NsS'roku-requires-bluetooth'
p854
NsS'iphone-default-development-profile'
p855
NsS'ws8-ext-device-capabilities'
p856
(lp857
sS'blackberry-permissions-use-camera'
p858
NsS'ws81-extra-pri'
p859
(lp860
sS'iphone-prerendered-icon'
p861
NsS'iphone-appid'
p862
NsS'ws8-identity-name'
p863
NsS'tizen-dist2-CA-path'
p864
NsS'android-external-jars'
p865
(lp866
sS'winmobile-icon64'
p867
NsS'blackberry-permissions-post-notification'
p868
NsS'winmobile-setup-dll'
p869
NsS'firefoxos-manifest'
p870
NsS'win8-winrt-extra-res'
p871
(lp872
sS'wp81-ext-sdk-manifest-part'
p873
(lp874
sS'symbian9-uid'
p875
NsS'iphone-icon-ipad-ios7'
p876
NsS'winmobile-trace-file'
p877
NsS'roku-splash-color'
p878
NsS'psp-appversion'
p879
NsS'ws8-publisher-id'
p880
NsS'android-supports-gl-texture'
p881
(lp882
sS'winmobile-png45'
p883
NsS'wp81-extra-res'
p884
(lp885
sS'android-storepass'
p886
NsS'osx-signing-identity-inst'
p887
NsS'android-custom-activity'
p888
NsS'psp-discversion'
p889
NsS'wp81-ext-managed-dll'
p890
(lp891
sS'psp-copyright'
p892
NsS'embed-icf'
p893
NsS'tizen-manifest'
p894
NsS'osx-icon'
p895
NsS'webos-appinfo'
p896
NsS'psp-dlghealthwarning'
p897
NsS'webos-appid'
p898
NsS'roku-icon-side-hd'
p899
NsS'iphone-icon-ipad-search-high-res-ios7'
p900
NsS'iphone-extra-plist'
p901
(lp902
sS'ws81-ext-sdk-manifest-part'
p903
(lp904
sS'loader_name_prefix'
p905
NsS'iphone-launch-dir'
p906
NsS'nds-titlename'
p907
NsS'ws81-logo-image50x50'
p908
NsS'wp81-custom-manifest'
p909
NsS'osx-entitlements-plist'
p910
NsS'psp-dlgicon0'
p911
NsS'winmobile-nouninstall'
p912
NsS'psp-discid'
p913
NsS'tizen-dist2-password'
p914
NsS'ws8-ext-sdk-ref'
p915
(lp916
sS'iphone-extra-string'
p917
(lp918
sS'version-string'
p919
NsS'iphone-icon-high-res-ios7'
p920
NsS'blackberry-permissions-record-audio'
p921
NsS'ws8-certificate-end-date'
p922
NsS'tizen-so'
p923
(lp924
sS'wp8-tile-fliptemplate-small-image'
p925
NsS'playbook-authorid'
p926
NsS'iphone-signing-identity'
p927
NsS'roku-persist-quota'
p928
NsS'nds-bannertitle-fr'
p929
NsS'ws8-distribution-pfx'
p930
NsS'ws8-publisher-display-name'
p931
NsS'brew-icon-small'
p932
NsS'psp-dlgpic2'
p933
NsS'psp-dlgpic0'
p934
NsS'psp-pic0'
p935
NsS'psp-pic1'
p936
NsS'win32-pref-windowtitle'
p937
NsS'psp-icon0'
p938
NsS'psp-icon1'
p939
NsS'ws81-identity-name'
p940
NsS'winmobile-icon'
p941
NsS'iphone-no-splash'
p942
NsS'iphone-splash'
p943
NsS'iphone-app-fonts'
p944
NsS'wp8-ext-native-dll'
p945
(lp946
sS'wp81-splash-screen-image480x800'
p947
NsS'ws81-distribution-cer'
p948
NsS'iphone-backgroundmode-audio'
p949
NsS'uiq3-icon2'
p950
NsS'uiq3-icon3'
p951
NsS'uiq3-icon1'
p952
NsS'uiq3-icon1-format'
p953
NsS'ws8-logo-image50x50'
p954
NsS'iphone-icon-ipad-search'
p955
NsS'symbian-run-on-install'
p956
NsS'wp81-description'
p957
NsS'ws81-publisher-display-name'
p958
NsS'firefoxos-xulrunner'
p959
NsS'symbian-soundrecordsupport'
p960
NsS'nds-bannertitle-sp'
p961
NsS'psp-producer'
p962
NsS'iphone-apple-wwdr-cert'
p963
NsS'android-icon-nonstandard'
p964
NsS'win32-pref-processtitle'
p965
NsS'nds-bannertitle-hn'
p966
NsS'tizen-dist2-key'
p967
NsS'brew-depends'
p968
NsS'ws81-custom-manifest'
p969
NsS'iphone-allow-launch-rotation'
p970
NsS'iphone-icon-ipad-search-ios7'
p971
NsS'brew-icon-medium'
p972
NsS'iphone-bundle-url-name'
p973
NsS'wp8-tile-fliptemplate-large-front-image'
p974
NsS'tizen-dist2-CA-root-path'
p975
NsS'ws81-description'
p976
NsS'uiq3-icon3-format'
p977
NsS'ws81-logo-image30x30'
p978
NsS'win8-phone-extra-res'
p979
(lp980
sS'iphone-signing-host'
p981
NsS'tizen-icon'
p982
NsS'osx-info-plist'
p983
NsS'symbian-icon1-format'
p984
NsS'ws81-distribution-pfx'
p985
NsS'blackberry-authorid'
p986
NsS'ws81-publisher-id'
p987
NsS'win8-store-extra-res'
p988
(lp989
sS'wp8-description'
p990
NsS'iphone-link-opts'
p991
(lp992
sS'ws81-ext-sdk-ref'
p993
(lp994
sS'roku-splash-min-time'
p995
NsS'wp8-tile-fliptemplate-medium-front-image'
p996
NsS'iphone-disable-launch-images'
p997
NsS'provider'
p998
NsS'playbook-keystore'
p999
NsS'tizen-appid'
p1000
NsS'wp8-extra-res'
p1001
(lp1002
sS'symbian-osexecsupport'
p1003
NsS'android-install-location'
p1004
NsS'nds-privatesavedatasize'
p1005
NsS'iphone-disable-testflight'
p1006
NsS'playbook-storepass'
p1007
NsS'android-icon-ldpi'
p1008
NsS'manufacturer'
p1009
NsS'itunes-artwork'
p1010
NsS'iphone-extra-sections'
p1011
NsS'ws81-product-name'
p1012
NsS'ws81-ext-native-dll'
p1013
(lp1014
sS'ws8-extra-pri'
p1015
(lp1016
sS'wp8-product-id'
p1017
NsS'ws8-logo-image30x30'
p1018
NsS'wp8-ext-managed-dll'
p1019
(lp1020
sS'iphone-splashscreen-landscape'
p1021
NsS'symbian-maxheapsize'
p1022
NsS'android-extra-packages'
p1023
(lp1024
sS'priv-sign-key'
p1025
NsS'networking'
p1026
NsS'android-icon'
p1027
NsS'iphone-icon-settings'
p1028
NsS'wp81-phone-product-id'
p1029
NsS'firefoxos-icon-60X60'
p1030
NsS'iphone-distribution-cert'
p1031
NsS'android_extra_strings'
p1032
NsS'nds-bannertitle-en'
p1033
NsS'wp8-tile-fliptemplate-title'
p1034
NsS'android-so'
p1035
(lp1036
sS'wp8-higher-mem'
p1037
NsS'wp8-ext-sdk-ref'
p1038
(lp1039
sS'wp8-fast-resume-mode'
p1040
NsS'roku-splash-screen-hd'
p1041
NsS'iphone-bundle-url-schemes'
p1042
NsS'roku-screensaver-private'
p1043
NsS'osx-extra-res'
p1044
(lp1045
sS'ws81-extra-res'
p1046
(lp1047
sS'playbook-icon'
p1048
NsS'uid'
p1049
NsS'pkguid-as-uid'
p1050
NsS'wp81-ext-native-dll'
p1051
(lp1052
sS'tizen-dist1-password'
p1053
NsS'roku-screensaver-title'
p1054
NsS'osx-minimum-osx-version'
p1055
NsS'symbian-cert'
p1056
NsS'iphone-icon'
p1057
NsS'ws81-ext-capabilities'
p1058
(lp1059
sS'ws8-distribution-cer'
p1060
NsS'playbook-access-shared'
p1061
NsS'iphone-icon-ipad-high-res-ios7'
p1062
NsS'iphone-link-libs'
p1063
(lp1064
sS'wp8-exclude-wvga'
p1065
NsS'assets'
p1066
NsS'wp8-tile-fliptemplate-large-back-image'
p1067
NsS'wp8-custom-manifest-fill'
p1068
NsS'pub-sign-key'
p1069
NsS'android-extra-strings'
p1070
NsS'tizen-author-CA-path'
p1071
Nssg355
g593
sbssS'platform'
p1072
S'S3E'
p1073
sg70
S'1.0'
p1074
sS'arcade_platform'
p1075
g4
sS'extensions'
p1076
(dp1077
sS'source_groups_tree'
p1078
(dp1079
S'(libpng)'
p1080
(dp1081
S'h'
p1082
(dp1083
S'c:/marmalade/7.5/modules/third_party/libpng/h/png.h'
p1084
(lp1085
I1
a(dp1086
asS'c:/marmalade/7.5/modules/third_party/libpng/h/pngconf.h'
p1087
(lp1088
I1
ag1086
assS'c:/marmalade/7.5/modules/third_party/libpng/libpng.mkf'
p1089
(lp1090
I1
a(dp1091
assS'(libjpeg)'
p1092
(dp1093
S'c:/marmalade/7.5/modules/third_party/libjpeg/libjpeg.mkf'
p1094
(lp1095
I1
a(dp1096
asg1082
(dp1097
S'c:/marmalade/7.5/modules/third_party/libjpeg/h/jerror.h'
p1098
(lp1099
I1
a(dp1100
asS'c:/marmalade/7.5/modules/third_party/libjpeg/h/jdhuff.h'
p1101
(lp1102
I1
ag1100
asS'c:/marmalade/7.5/modules/third_party/libjpeg/h/cderror.h'
p1103
(lp1104
I1
ag1100
asS'c:/marmalade/7.5/modules/third_party/libjpeg/h/transupp.h'
p1105
(lp1106
I1
ag1100
asS'c:/marmalade/7.5/modules/third_party/libjpeg/h/jinclude.h'
p1107
(lp1108
I1
ag1100
asS'c:/marmalade/7.5/modules/third_party/libjpeg/h/jmorecfg.h'
p1109
(lp1110
I1
ag1100
asS'c:/marmalade/7.5/modules/third_party/libjpeg/h/jdct.h'
p1111
(lp1112
I1
ag1100
asS'c:/marmalade/7.5/modules/third_party/libjpeg/h/jmemsys.h'
p1113
(lp1114
I1
ag1100
asS'c:/marmalade/7.5/modules/third_party/libjpeg/h/jpegint.h'
p1115
(lp1116
I1
ag1100
asS'c:/marmalade/7.5/modules/third_party/libjpeg/h/jchuff.h'
p1117
(lp1118
I1
ag1100
asS'c:/marmalade/7.5/modules/third_party/libjpeg/h/cdjpeg.h'
p1119
(lp1120
I1
ag1100
asS'c:/marmalade/7.5/modules/third_party/libjpeg/h/jversion.h'
p1121
(lp1122
I1
ag1100
asS'c:/marmalade/7.5/modules/third_party/libjpeg/h/jconfig.h'
p1123
(lp1124
I1
ag1100
asS'c:/marmalade/7.5/modules/third_party/libjpeg/h/jpeglib.h'
p1125
(lp1126
I1
ag1100
asssS'(tiniconv)'
p1127
(dp1128
S'c:/marmalade/7.5/modules/third_party/tiniconv/tiniconv.mkf'
p1129
(lp1130
I1
a(dp1131
asS'c:/marmalade/7.5/modules/third_party/tiniconv/source/tiniconv_int.h'
p1132
(lp1133
I1
a(dp1134
asS'c:/marmalade/7.5/modules/third_party/tiniconv/source/tiniconv.h'
p1135
(lp1136
I1
ag1134
assS'(SoundEngine)'
p1137
(dp1138
S'c:/marmalade/7.5/examples/gametutorial/cpp/modules/soundengine/source/IwSoundGroup.cpp'
p1139
(lp1140
I1
a(dp1141
asS'c:/marmalade/7.5/examples/gametutorial/cpp/modules/soundengine/h/IwSoundADPCM.h'
p1142
(lp1143
I1
ag1141
asS'c:/marmalade/7.5/examples/gametutorial/cpp/modules/soundengine/source/IwResHandlerWAV.cpp'
p1144
(lp1145
I1
ag1141
asS'c:/marmalade/7.5/examples/gametutorial/cpp/modules/soundengine/h/IwResHandlerWAV.h'
p1146
(lp1147
I1
ag1141
asS'Docs'
p1148
(dp1149
S'c:/marmalade/7.5/examples/gametutorial/cpp/modules/soundengine/docs/iwsound.config.txt'
p1150
(lp1151
I1
ag1141
assS'c:/marmalade/7.5/examples/gametutorial/cpp/modules/soundengine/h/IwSoundInst.h'
p1152
(lp1153
I1
ag1141
asS'c:/marmalade/7.5/examples/gametutorial/cpp/modules/soundengine/source/IwSoundManager.cpp'
p1154
(lp1155
I1
ag1141
asS'c:/marmalade/7.5/examples/gametutorial/cpp/modules/soundengine/h/IwSoundSpec.h'
p1156
(lp1157
I1
ag1141
asS'c:/marmalade/7.5/examples/gametutorial/cpp/modules/soundengine/source/IwSoundParams.cpp'
p1158
(lp1159
I1
ag1141
asS'c:/marmalade/7.5/examples/gametutorial/cpp/modules/soundengine/h/IwSoundManager.h'
p1160
(lp1161
I1
ag1141
asS'c:/marmalade/7.5/examples/gametutorial/cpp/modules/soundengine/source/IwSoundPCM.cpp'
p1162
(lp1163
I1
ag1141
asS'c:/marmalade/7.5/examples/gametutorial/cpp/modules/soundengine/source/IwSoundWAV.cpp'
p1164
(lp1165
I1
ag1141
asS'c:/marmalade/7.5/examples/gametutorial/cpp/modules/soundengine/source/IwSoundInst.cpp'
p1166
(lp1167
I1
ag1141
asS'c:/marmalade/7.5/examples/gametutorial/cpp/modules/soundengine/h/IwSoundWAV.h'
p1168
(lp1169
I1
ag1141
asS'c:/marmalade/7.5/examples/gametutorial/cpp/modules/soundengine/source/IwSoundSpec.cpp'
p1170
(lp1171
I1
ag1141
asS'c:/marmalade/7.5/examples/gametutorial/cpp/modules/soundengine/h/IwSoundParams.h'
p1172
(lp1173
I1
ag1141
asS'c:/marmalade/7.5/examples/gametutorial/cpp/modules/soundengine/source/IwSoundADPCM.cpp'
p1174
(lp1175
I1
ag1141
asS'c:/marmalade/7.5/examples/gametutorial/cpp/modules/soundengine/h/IwSound.h'
p1176
(lp1177
I1
ag1141
asS'c:/marmalade/7.5/examples/gametutorial/cpp/modules/soundengine/source/IwSoundData.cpp'
p1178
(lp1179
I1
ag1141
asS'c:/marmalade/7.5/examples/gametutorial/cpp/modules/soundengine/h/IwSoundData.h'
p1180
(lp1181
I1
ag1141
asS'c:/marmalade/7.5/examples/gametutorial/cpp/modules/soundengine/h/IwSoundPCM.h'
p1182
(lp1183
I1
ag1141
asS'c:/marmalade/7.5/examples/gametutorial/cpp/modules/soundengine/soundengine.mkf'
p1184
(lp1185
I1
a(dp1186
asS'c:/marmalade/7.5/examples/gametutorial/cpp/modules/soundengine/h/IwSoundGroup.h'
p1187
(lp1188
I1
ag1141
assS'(MarmaladeExampleResources)'
p1189
(dp1190
S'c:/marmalade/7.5/examples/marmaladeexampleresources/marmaladeexampleresources.mkf'
p1191
(lp1192
I1
a(dp1193
assS'source'
p1194
(dp1195
S'c:/Marmalade/7.5/examples/GameTutorial/CPP/marm1/source/Powerup.cpp'
p1196
(lp1197
I1
a(dp1198
asS'c:/Marmalade/7.5/examples/GameTutorial/CPP/marm1/source/Layer.cpp'
p1199
(lp1200
I1
ag1198
asS'c:/Marmalade/7.5/examples/GameTutorial/CPP/marm1/source/mainMenu.h'
p1201
(lp1202
I1
ag1198
asS'c:/Marmalade/7.5/examples/GameTutorial/CPP/marm1/source/main.h'
p1203
(lp1204
I1
ag1198
asS'c:/Marmalade/7.5/examples/GameTutorial/CPP/marm1/source/Entity.h'
p1205
(lp1206
I1
ag1198
asS'c:/Marmalade/7.5/examples/GameTutorial/CPP/marm1/source/hero.h'
p1207
(lp1208
I1
ag1198
asS'c:/Marmalade/7.5/examples/GameTutorial/CPP/marm1/source/scene.cpp'
p1209
(lp1210
I1
ag1198
asS'c:/Marmalade/7.5/examples/GameTutorial/CPP/marm1/source/Enemymanager.cpp'
p1211
(lp1212
I1
ag1198
asS'c:/Marmalade/7.5/examples/GameTutorial/CPP/marm1/source/Level.h'
p1213
(lp1214
I1
ag1198
asS'c:/Marmalade/7.5/examples/GameTutorial/CPP/marm1/source/input.h'
p1215
(lp1216
I1
ag1198
asS'c:/Marmalade/7.5/examples/GameTutorial/CPP/marm1/source/audio.h'
p1217
(lp1218
I1
ag1198
asS'c:/Marmalade/7.5/examples/GameTutorial/CPP/marm1/source/resources.h'
p1219
(lp1220
I1
ag1198
asS'c:/Marmalade/7.5/examples/GameTutorial/CPP/marm1/source/mainMenu.cpp'
p1221
(lp1222
I1
ag1198
asS'c:/Marmalade/7.5/examples/GameTutorial/CPP/marm1/source/input.cpp'
p1223
(lp1224
I1
ag1198
asS'c:/Marmalade/7.5/examples/GameTutorial/CPP/marm1/source/Shark.h'
p1225
(lp1226
I1
ag1198
asS'c:/Marmalade/7.5/examples/GameTutorial/CPP/marm1/source/main.cpp'
p1227
(lp1228
I1
ag1198
asS'c:/Marmalade/7.5/examples/GameTutorial/CPP/marm1/source/Shark.cpp'
p1229
(lp1230
I1
ag1198
asS'c:/Marmalade/7.5/examples/GameTutorial/CPP/marm1/source/resources.cpp'
p1231
(lp1232
I1
ag1198
asS'c:/Marmalade/7.5/examples/GameTutorial/CPP/marm1/source/Entity.cpp'
p1233
(lp1234
I1
ag1198
asS'c:/Marmalade/7.5/examples/GameTutorial/CPP/marm1/source/Levelmanager.h'
p1235
(lp1236
I1
ag1198
asS'c:/Marmalade/7.5/examples/GameTutorial/CPP/marm1/source/Enemymanager.h'
p1237
(lp1238
I1
ag1198
asS'c:/Marmalade/7.5/examples/GameTutorial/CPP/marm1/source/Levelmanager.cpp'
p1239
(lp1240
I1
ag1198
asS'c:/Marmalade/7.5/examples/GameTutorial/CPP/marm1/source/GameScene.cpp'
p1241
(lp1242
I1
ag1198
asS'c:/Marmalade/7.5/examples/GameTutorial/CPP/marm1/source/BackgroundEntity.h'
p1243
(lp1244
I1
ag1198
asS'c:/Marmalade/7.5/examples/GameTutorial/CPP/marm1/source/pauseMenu.h'
p1245
(lp1246
I1
ag1198
asS'c:/Marmalade/7.5/examples/GameTutorial/CPP/marm1/source/Powerup.h'
p1247
(lp1248
I1
ag1198
asS'c:/Marmalade/7.5/examples/GameTutorial/CPP/marm1/source/BackgroundEntity.cpp'
p1249
(lp1250
I1
ag1198
asS'c:/Marmalade/7.5/examples/GameTutorial/CPP/marm1/source/Layer.h'
p1251
(lp1252
I1
ag1198
asS'c:/Marmalade/7.5/examples/GameTutorial/CPP/marm1/source/pauseMenu.cpp'
p1253
(lp1254
I1
ag1198
asS'c:/Marmalade/7.5/examples/GameTutorial/CPP/marm1/source/scene.h'
p1255
(lp1256
I1
ag1198
asS'c:/Marmalade/7.5/examples/GameTutorial/CPP/marm1/source/audio.cpp'
p1257
(lp1258
I1
ag1198
asS'c:/Marmalade/7.5/examples/GameTutorial/CPP/marm1/source/hero.cpp'
p1259
(lp1260
I1
ag1198
asS'c:/Marmalade/7.5/examples/GameTutorial/CPP/marm1/source/GameScene.h'
p1261
(lp1262
I1
ag1198
assS'Extensions'
p1263
(dp1264
S'PVRTexTool'
p1265
(dp1266
S'interface'
p1267
(dp1268
S'c:/marmalade/7.5/extensions/pvrtextool/interface/PVRTexTool.defines.txt'
p1269
(lp1270
I1
a(dp1271
asS'c:/marmalade/7.5/extensions/pvrtextool/interface/PVRTexTool_interface.cpp'
p1272
(lp1273
I1
ag1271
assS'c:/marmalade/7.5/extensions/pvrtextool/h/PVRTexTool.h'
p1274
(lp1275
I1
ag1271
asS'c:/marmalade/7.5/extensions/pvrtextool/pvrtextool.mkf'
p1276
(lp1277
I1
a(dp1278
asssS"'Marmalade Studio'"
p1279
(dp1280
S'iw2dscenegraph'
p1281
(dp1282
S'c:/marmalade/7.5/modules/iw2dscenegraph/source/Iw2DSceneGraph.cpp'
p1283
(lp1284
I1
a(dp1285
asS'c:/marmalade/7.5/modules/iw2dscenegraph/docs/iw2dscenegraph.defines.txt'
p1286
(lp1287
I1
ag1285
asS'c:/marmalade/7.5/modules/iw2dscenegraph/h/Iw2DSceneGraph.h'
p1288
(lp1289
I1
ag1285
asS'c:/marmalade/7.5/modules/iw2dscenegraph/iw2dscenegraph.mkf'
p1290
(lp1291
I1
a(dp1292
assS'iwgl'
p1293
(dp1294
S'c:/marmalade/7.5/modules/iwgl/iwgl.mkf'
p1295
(lp1296
I1
a(dp1297
asS'c:/marmalade/7.5/modules/iwgl/h/IwGL.h'
p1298
(lp1299
I1
a(dp1300
asS'c:/marmalade/7.5/modules/iwgl/docs/iwgl.config.txt'
p1301
(lp1302
I1
ag1300
asS'c:/marmalade/7.5/modules/iwgl/h/IwGLExt.h'
p1303
(lp1304
I1
ag1300
assS'iw2d'
p1305
(dp1306
S'c:/marmalade/7.5/modules/iw2d/docs/iw2d_public.defines.txt'
p1307
(lp1308
I1
a(dp1309
asS'c:/marmalade/7.5/modules/iw2d/docs/iw2d.config.txt'
p1310
(lp1311
I1
ag1309
asS'c:/marmalade/7.5/modules/iw2d/h/Iw2D.h'
p1312
(lp1313
I1
ag1309
asS'c:/marmalade/7.5/modules/iw2d/iw2d.mkf'
p1314
(lp1315
I1
a(dp1316
assS'iwgxfont'
p1317
(dp1318
S'c:/marmalade/7.5/modules/iwgxfont/h/IwGxFontGlyph.h'
p1319
(lp1320
I1
a(dp1321
asS'c:/marmalade/7.5/modules/iwgxfont/h/IwGxFontTypes.h'
p1322
(lp1323
I1
ag1321
asS'c:/marmalade/7.5/modules/iwgxfont/docs/iwgxfont.config.txt'
p1324
(lp1325
I1
ag1321
asS'c:/marmalade/7.5/modules/iwgxfont/h/IwGxFontState.h'
p1326
(lp1327
I1
ag1321
asS'c:/marmalade/7.5/modules/iwgxfont/h/IwGxFontContainer.h'
p1328
(lp1329
I1
ag1321
asS'c:/marmalade/7.5/modules/iwgxfont/iwgxfont.mkf'
p1330
(lp1331
I1
a(dp1332
asS'c:/marmalade/7.5/modules/iwgxfont/h/IwGxFontPreparedData.h'
p1333
(lp1334
I1
ag1321
asS'c:/marmalade/7.5/modules/iwgxfont/h/IwGxFont.h'
p1335
(lp1336
I1
ag1321
asS'c:/marmalade/7.5/modules/iwgxfont/docs/iwgxfont_public.defines.txt'
p1337
(lp1338
I1
ag1321
assS'iwgeom'
p1339
(dp1340
S'c:/marmalade/7.5/modules/iwgeom/h/IwGeomSVec2.h'
p1341
(lp1342
I1
a(dp1343
asS'c:/marmalade/7.5/modules/iwgeom/h/IwGeomSphere.h'
p1344
(lp1345
I1
ag1343
asS'c:/marmalade/7.5/modules/iwgeom/h/IwGeomSVec3.h'
p1346
(lp1347
I1
ag1343
asS'c:/marmalade/7.5/modules/iwgeom/iwgeom.mkf'
p1348
(lp1349
I1
a(dp1350
asS'c:/marmalade/7.5/modules/iwgeom/h/IwGeomSqrt.h'
p1351
(lp1352
I1
ag1343
asS'c:/marmalade/7.5/modules/iwgeom/h/IwGeomFQuat.h'
p1353
(lp1354
I1
ag1343
asS'c:/marmalade/7.5/modules/iwgeom/h/IwGeomQuat.h.tpl'
p1355
(lp1356
I1
ag1343
asS'c:/marmalade/7.5/modules/iwgeom/h/IwGeomVec2.h'
p1357
(lp1358
I1
ag1343
asS'c:/marmalade/7.5/modules/iwgeom/h/IwGeomMat.h'
p1359
(lp1360
I1
ag1343
asS'c:/marmalade/7.5/modules/iwgeom/h/IwGeomVec3.h'
p1361
(lp1362
I1
ag1343
asS'c:/marmalade/7.5/modules/iwgeom/h/IwGeomLegacy.h'
p1363
(lp1364
I1
ag1343
asS'c:/marmalade/7.5/modules/iwgeom/h/IwGeom.h'
p1365
(lp1366
I1
ag1343
asS'c:/marmalade/7.5/modules/iwgeom/h/IwGeomSQuat.h'
p1367
(lp1368
I1
ag1343
asS'c:/marmalade/7.5/modules/iwgeom/h/IwGeomFBBox.h'
p1369
(lp1370
I1
ag1343
asS'c:/marmalade/7.5/modules/iwgeom/h/IwGeomFMat.h'
p1371
(lp1372
I1
ag1343
asS'c:/marmalade/7.5/modules/iwgeom/h/IwGeomPlane.h'
p1373
(lp1374
I1
ag1343
asS'c:/marmalade/7.5/modules/iwgeom/h/IwGeomMat2D.h'
p1375
(lp1376
I1
ag1343
asS'c:/marmalade/7.5/modules/iwgeom/h/IwGeomFVec2.h'
p1377
(lp1378
I1
ag1343
asS'c:/marmalade/7.5/modules/iwgeom/h/IwGeomSVec4.h'
p1379
(lp1380
I1
ag1343
asS'c:/marmalade/7.5/modules/iwgeom/h/IwGeomVec4.h'
p1381
(lp1382
I1
ag1343
asS'c:/marmalade/7.5/modules/iwgeom/h/IwGeomCore.h'
p1383
(lp1384
I1
ag1343
asS'c:/marmalade/7.5/modules/iwgeom/h/IwGeomVec.h.tpl'
p1385
(lp1386
I1
ag1343
asS'c:/marmalade/7.5/modules/iwgeom/h/IwGeomVec.h'
p1387
(lp1388
I1
ag1343
asS'c:/marmalade/7.5/modules/iwgeom/h/IwGeomIntersect.h'
p1389
(lp1390
I1
ag1343
asS'c:/marmalade/7.5/modules/iwgeom/h/IwGeomFVec4.h'
p1391
(lp1392
I1
ag1343
asS'c:/marmalade/7.5/modules/iwgeom/h/IwGeomMat.h.tpl'
p1393
(lp1394
I1
ag1343
asS'c:/marmalade/7.5/modules/iwgeom/h/IwGeomMat2D.h.tpl'
p1395
(lp1396
I1
ag1343
asS'c:/marmalade/7.5/modules/iwgeom/h/IwGeomFMat2D.h'
p1397
(lp1398
I1
ag1343
asS'c:/marmalade/7.5/modules/iwgeom/h/IwGeomMenu.h'
p1399
(lp1400
I1
ag1343
asS'c:/marmalade/7.5/modules/iwgeom/h/IwGeomBBox.h'
p1401
(lp1402
I1
ag1343
asS'c:/marmalade/7.5/modules/iwgeom/h/IwGeomFSphere.h'
p1403
(lp1404
I1
ag1343
asS'c:/marmalade/7.5/modules/iwgeom/h/IwGeomFVec3.h'
p1405
(lp1406
I1
ag1343
asS'c:/marmalade/7.5/modules/iwgeom/h/IwGeomFPlane.h'
p1407
(lp1408
I1
ag1343
asS'c:/marmalade/7.5/modules/iwgeom/docs/iwgeom.config.txt'
p1409
(lp1410
I1
ag1343
asS'c:/marmalade/7.5/modules/iwgeom/h/IwGeomQuat.h'
p1411
(lp1412
I1
ag1343
asS'c:/marmalade/7.5/modules/iwgeom/h/IwGeomFIntersect.h'
p1413
(lp1414
I1
ag1343
assS'iwresmanager'
p1415
(dp1416
S'c:/marmalade/7.5/modules/iwresmanager/h/IwResHandlerITX.h'
p1417
(lp1418
I1
a(dp1419
asS'c:/marmalade/7.5/modules/iwresmanager/h/IwResSerialise.h'
p1420
(lp1421
I1
ag1419
asS'c:/marmalade/7.5/modules/iwresmanager/h/IwResManagerClass.h'
p1422
(lp1423
I1
ag1419
asS'c:/marmalade/7.5/modules/iwresmanager/h/IwResHandlerGROUP.h'
p1424
(lp1425
I1
ag1419
asS'c:/marmalade/7.5/modules/iwresmanager/h/IwResManager.h'
p1426
(lp1427
I1
ag1419
asS'c:/marmalade/7.5/modules/iwresmanager/iwresmanager.mkf'
p1428
(lp1429
I1
a(dp1430
asS'c:/marmalade/7.5/modules/iwresmanager/docs/iwresmanager.config.txt'
p1431
(lp1432
I1
ag1419
asS'c:/marmalade/7.5/modules/iwresmanager/h/IwResGroup.h'
p1433
(lp1434
I1
ag1419
asS'c:/marmalade/7.5/modules/iwresmanager/h/IwResHandler.h'
p1435
(lp1436
I1
ag1419
asS'c:/marmalade/7.5/modules/iwresmanager/h/IwResHandlerImage.h'
p1437
(lp1438
I1
ag1419
assS'iwgx'
p1439
(dp1440
S'c:/marmalade/7.5/modules/iwgx/h/IwDebugPrim.h'
p1441
(lp1442
I1
a(dp1443
asS'c:/marmalade/7.5/modules/iwgx/h/IwMatAnim.h'
p1444
(lp1445
I1
ag1443
asS'c:/marmalade/7.5/modules/iwgx/h/IwTexture.h'
p1446
(lp1447
I1
ag1443
asS'c:/marmalade/7.5/modules/iwgx/h/IwGxFuncTable.h'
p1448
(lp1449
I1
ag1443
asS'c:/marmalade/7.5/modules/iwgx/h/IwResHandlerMTL.h'
p1450
(lp1451
I1
ag1443
asS'c:/marmalade/7.5/modules/iwgx/h/IwGxPrint.h'
p1452
(lp1453
I1
ag1443
asS'c:/marmalade/7.5/modules/iwgx/h/IwGxStream.h'
p1454
(lp1455
I1
ag1443
asS'c:/marmalade/7.5/modules/iwgx/h/IwClip.h'
p1456
(lp1457
I1
ag1443
asS'c:/marmalade/7.5/modules/iwgx/h/IwGxSurface.h'
p1458
(lp1459
I1
ag1443
asS'c:/marmalade/7.5/modules/iwgx/h/IwGxError.h'
p1460
(lp1461
I1
ag1443
asS'c:/marmalade/7.5/modules/iwgx/h/IwGx.h'
p1462
(lp1463
I1
ag1443
asS'c:/marmalade/7.5/modules/iwgx/docs/iwgx_public.defines.txt'
p1464
(lp1465
I1
ag1443
asS'c:/marmalade/7.5/modules/iwgx/h/IwGxDebug.h'
p1466
(lp1467
I1
ag1443
asS'c:/marmalade/7.5/modules/iwgx/h/IwGxShaderTechnique.h'
p1468
(lp1469
I1
ag1443
asS'c:/marmalade/7.5/modules/iwgx/h/IwGxTransformSW.h'
p1470
(lp1471
I1
ag1443
asS'c:/marmalade/7.5/modules/iwgx/h/IwMaterial.h'
p1472
(lp1473
I1
ag1443
asS'c:/marmalade/7.5/modules/iwgx/h/IwGxMetrics.h'
p1474
(lp1475
I1
ag1443
asS'c:/marmalade/7.5/modules/iwgx/h/IwClip.inl'
p1476
(lp1477
I1
ag1443
asS'c:/marmalade/7.5/modules/iwgx/h/IwFColour.h'
p1478
(lp1479
I1
ag1443
asS'c:/marmalade/7.5/modules/iwgx/h/IwGxTypes.h'
p1480
(lp1481
I1
ag1443
asS'c:/marmalade/7.5/modules/iwgx/iwgx.mkf'
p1482
(lp1483
I1
a(dp1484
asS'c:/marmalade/7.5/modules/iwgx/docs/iwgx.config.txt'
p1485
(lp1486
I1
ag1443
asS'c:/marmalade/7.5/modules/iwgx/h/IwColour.h'
p1487
(lp1488
I1
ag1443
asS'c:/marmalade/7.5/modules/iwgx/h/IwGxState.h'
p1489
(lp1490
I1
ag1443
asS'c:/marmalade/7.5/modules/iwgx/h/IwTPage.h'
p1491
(lp1492
I1
ag1443
assS'iw2dscenegraphcore'
p1493
(dp1494
S'c:/marmalade/7.5/modules/iw2dscenegraphcore/iw2dscenegraphcore.mkf'
p1495
(lp1496
I1
a(dp1497
asS'c:/marmalade/7.5/modules/iw2dscenegraphcore/h/Iw2DSceneGraphCore.h'
p1498
(lp1499
I1
a(dp1500
asS'c:/marmalade/7.5/modules/iw2dscenegraphcore/source/Iw2DSceneGraphCore.cpp'
p1501
(lp1502
I1
ag1500
assS'iwutil'
p1503
(dp1504
S'c:/marmalade/7.5/modules/iwutil/h/IwSingleton.h'
p1505
(lp1506
I1
a(dp1507
asS'c:/marmalade/7.5/modules/iwutil/h/IwMath.h'
p1508
(lp1509
I1
ag1507
asS'c:/marmalade/7.5/modules/iwutil/h/IwBuffer.h'
p1510
(lp1511
I1
ag1507
asS'c:/marmalade/7.5/modules/iwutil/h/IwCore.h'
p1512
(lp1513
I1
ag1507
asS'c:/marmalade/7.5/modules/iwutil/h/IwDivide.h'
p1514
(lp1515
I1
ag1507
asS'c:/marmalade/7.5/modules/iwutil/h/IwMemory.h'
p1516
(lp1517
I1
ag1507
asS'c:/marmalade/7.5/modules/iwutil/h/IwImageHelper.h'
p1518
(lp1519
I1
ag1507
asS'c:/marmalade/7.5/modules/iwutil/h/IwManagedList.h'
p1520
(lp1521
I1
ag1507
asS'c:/marmalade/7.5/modules/iwutil/h/IwProfileMenu.h'
p1522
(lp1523
I1
ag1507
asS'c:/marmalade/7.5/modules/iwutil/h/IwClassFactory.h'
p1524
(lp1525
I1
ag1507
asS'c:/marmalade/7.5/modules/iwutil/h/IwDivTable.h'
p1526
(lp1527
I1
ag1507
asS'c:/marmalade/7.5/modules/iwutil/h/IwManaged.h'
p1528
(lp1529
I1
ag1507
asS'c:/marmalade/7.5/modules/iwutil/h/IwTextParseable.h'
p1530
(lp1531
I1
ag1507
asS'c:/marmalade/7.5/modules/iwutil/h/IwChar.h'
p1532
(lp1533
I1
ag1507
asS'c:/marmalade/7.5/modules/iwutil/h/IwRandom.h'
p1534
(lp1535
I1
ag1507
asS'c:/marmalade/7.5/modules/iwutil/h/IwDebug.h'
p1536
(lp1537
I1
ag1507
asS'c:/marmalade/7.5/modules/iwutil/h/IwUTF8.h'
p1538
(lp1539
I1
ag1507
asS'c:/marmalade/7.5/modules/iwutil/docs/iwutil.config.txt'
p1540
(lp1541
I1
ag1507
asS'c:/marmalade/7.5/modules/iwutil/h/IwAllocator.h'
p1542
(lp1543
I1
ag1507
asS'c:/marmalade/7.5/modules/iwutil/h/IwMemBucketHelpers.h'
p1544
(lp1545
I1
ag1507
asS'c:/marmalade/7.5/modules/iwutil/h/IwTextParserITX.h'
p1546
(lp1547
I1
ag1507
asS'c:/marmalade/7.5/modules/iwutil/h/IwKeymap.h'
p1548
(lp1549
I1
ag1507
asS'c:/marmalade/7.5/modules/iwutil/h/IwImage.h'
p1550
(lp1551
I1
ag1507
asS'c:/marmalade/7.5/modules/iwutil/h/IwOptimiseARM.h'
p1552
(lp1553
I1
ag1507
asS'c:/marmalade/7.5/modules/iwutil/h/IwMemBucket.h'
p1554
(lp1555
I1
ag1507
asS'c:/marmalade/7.5/modules/iwutil/h/IwOptimiseSize.h'
p1556
(lp1557
I1
ag1507
asS'c:/marmalade/7.5/modules/iwutil/h/IwRuntime.h'
p1558
(lp1559
I1
ag1507
asS'c:/marmalade/7.5/modules/iwutil/h/IwMemManagerDL.h'
p1560
(lp1561
I1
ag1507
asS'c:/marmalade/7.5/modules/iwutil/h/IwPath.h'
p1562
(lp1563
I1
ag1507
asS'c:/marmalade/7.5/modules/iwutil/h/IwOptimiseSpeed.h'
p1564
(lp1565
I1
ag1507
asS'c:/marmalade/7.5/modules/iwutil/h/IwList.h'
p1566
(lp1567
I1
ag1507
asS'c:/marmalade/7.5/modules/iwutil/h/IwAutoFile.h'
p1568
(lp1569
I1
ag1507
asS'c:/marmalade/7.5/modules/iwutil/h/IwVariableBitField.h'
p1570
(lp1571
I1
ag1507
asS'c:/marmalade/7.5/modules/iwutil/h/IwHashString.h'
p1572
(lp1573
I1
ag1507
asS'c:/marmalade/7.5/modules/iwutil/h/IwOptimiseThumb.h'
p1574
(lp1575
I1
ag1507
asS'c:/marmalade/7.5/modules/iwutil/iwutil.mkf'
p1576
(lp1577
I1
a(dp1578
asS'c:/marmalade/7.5/modules/iwutil/h/IwUtil.h'
p1579
(lp1580
I1
ag1507
asS'c:/marmalade/7.5/modules/iwutil/h/IwString.h'
p1581
(lp1582
I1
ag1507
asS'c:/marmalade/7.5/modules/iwutil/h/IwFile.h'
p1583
(lp1584
I1
ag1507
asS'c:/marmalade/7.5/modules/iwutil/h/IwUncopyable.h'
p1585
(lp1586
I1
ag1507
asS'c:/marmalade/7.5/modules/iwutil/h/IwTextParser.h'
p1587
(lp1588
I1
ag1507
asS'c:/marmalade/7.5/modules/iwutil/h/IwCopyingPtr.h'
p1589
(lp1590
I1
ag1507
asS'c:/marmalade/7.5/modules/iwutil/h/IwEvent.h'
p1591
(lp1592
I1
ag1507
asS'c:/marmalade/7.5/modules/iwutil/h/IwFibre.h'
p1593
(lp1594
I1
ag1507
asS'c:/marmalade/7.5/modules/iwutil/h/IwArray.h'
p1595
(lp1596
I1
ag1507
asS'c:/marmalade/7.5/modules/iwutil/h/IwMenu.h'
p1597
(lp1598
I1
ag1507
asS'c:/marmalade/7.5/modules/iwutil/h/IwTypes.h'
p1599
(lp1600
I1
ag1507
asS'c:/marmalade/7.5/modules/iwutil/h/IwUtilInitTerm.h'
p1601
(lp1602
I1
ag1507
asS'c:/marmalade/7.5/modules/iwutil/h/IwResource.h'
p1603
(lp1604
I1
ag1507
asS'c:/marmalade/7.5/modules/iwutil/h/IwSerialise.h'
p1605
(lp1606
I1
ag1507
asssS'(zlib)'
p1607
(dp1608
g1082
(dp1609
S'c:/marmalade/7.5/modules/third_party/zlib/h/zconf.h'
p1610
(lp1611
I1
a(dp1612
asS'c:/marmalade/7.5/modules/third_party/zlib/h/zlib.h'
p1613
(lp1614
I1
ag1612
assS'c:/marmalade/7.5/modules/third_party/zlib/zlib.mkf'
p1615
(lp1616
I1
a(dp1617
assS'(iwtween)'
p1618
(dp1619
S'c:/marmalade/7.5/modules/iwtween/h/IwTween.h'
p1620
(lp1621
I1
a(dp1622
asS'c:/marmalade/7.5/modules/iwtween/source/IwTween.cpp'
p1623
(lp1624
I1
ag1622
asS'c:/marmalade/7.5/modules/iwtween/iwtween.mkf'
p1625
(lp1626
I1
a(dp1627
assS'(s3e-default)'
p1628
(dp1629
S'c:/marmalade/7.5/s3e/s3e-default.mkf'
p1630
(lp1631
I1
a(dp1632
asssS'files'
p1633
(dp1634
S'IwGxFontPreparedData.h'
p1635
g329
(cmkb_main
File
p1636
g331
Ntp1637
Rp1638
(dp1639
S'flags'
p1640
g1321
sS'group'
p1641
(lp1642
S"'Marmalade Studio'"
p1643
ag1317
asg355
g1333
sbsS'iterator'
p1644
g329
(g1636
g331
Ntp1645
Rp1646
(dp1647
g1640
(dp1648
sg1641
(lp1649
S"'Marmalade System (S3E)'"
p1650
aS'stdc headers'
p1651
aS'c++'
p1652
asg355
S'c:/marmalade/7.5/s3e/h/std/c++/iterator'
p1653
sbsS'IwGL.h'
p1654
g329
(g1636
g331
Ntp1655
Rp1656
(dp1657
g1640
g1300
sg1641
(lp1658
S"'Marmalade Studio'"
p1659
ag1293
asg355
g1298
sbsS's3e.h'
p1660
g329
(g1636
g331
Ntp1661
Rp1662
(dp1663
g1640
g1648
sg1641
(lp1664
g1650
asg355
S'c:/marmalade/7.5/s3e/h/s3e.h'
p1665
sbsS'errno.h'
p1666
g329
(g1636
g331
Ntp1667
Rp1668
(dp1669
g1640
g1648
sg1641
(lp1670
g1650
aS'stdc headers'
p1671
asg355
S'c:/marmalade/7.5/s3e/h/std/errno.h'
p1672
sbsS'IwSingleton.h'
p1673
g329
(g1636
g331
Ntp1674
Rp1675
(dp1676
g1640
g1507
sg1641
(lp1677
S"'Marmalade Studio'"
p1678
ag1503
asg355
g1505
sbsS'dlfcn.h'
p1679
g329
(g1636
g331
Ntp1680
Rp1681
(dp1682
g1640
g1648
sg1641
g1670
sg355
S'c:/marmalade/7.5/s3e/h/std/dlfcn.h'
p1683
sbsS'IwSoundWAV.cpp'
p1684
g329
(g1636
g331
Ntp1685
Rp1686
(dp1687
g1640
g1141
sg1641
(lp1688
g1137
asg355
g1164
sbsS'sched.h'
p1689
g329
(g1636
g331
Ntp1690
Rp1691
(dp1692
g1640
g1648
sg1641
g1670
sg355
S'c:/marmalade/7.5/s3e/h/std/sched.h'
p1693
sbsS'IwSoundPCM.h'
p1694
g329
(g1636
g331
Ntp1695
Rp1696
(dp1697
g1640
g1141
sg1641
g1688
sg355
g1182
sbsS'IwGeomFMat2D.h'
p1698
g329
(g1636
g331
Ntp1699
Rp1700
(dp1701
g1640
g1343
sg1641
(lp1702
S"'Marmalade Studio'"
p1703
ag1339
asg355
g1397
sbsS'cassert'
p1704
g329
(g1636
g331
Ntp1705
Rp1706
(dp1707
g1640
g1648
sg1641
g1649
sg355
S'c:/marmalade/7.5/s3e/h/std/c++/cassert'
p1708
sbsS'grp.h'
p1709
g329
(g1636
g331
Ntp1710
Rp1711
(dp1712
g1640
g1648
sg1641
g1670
sg355
S'c:/marmalade/7.5/s3e/h/std/grp.h'
p1713
sbsS'list'
p1714
g329
(g1636
g331
Ntp1715
Rp1716
(dp1717
g1640
g1648
sg1641
g1649
sg355
S'c:/marmalade/7.5/s3e/h/std/c++/list'
p1718
sbsS'IwSoundSpec.cpp'
p1719
g329
(g1636
g331
Ntp1720
Rp1721
(dp1722
g1640
g1141
sg1641
g1688
sg355
g1170
sbsS'IwGeomMat.h.tpl'
p1723
g329
(g1636
g331
Ntp1724
Rp1725
(dp1726
g1640
g1343
sg1641
g1702
sg355
g1393
sbsS'istream'
p1727
g329
(g1636
g331
Ntp1728
Rp1729
(dp1730
g1640
g1648
sg1641
g1649
sg355
S'c:/marmalade/7.5/s3e/h/std/c++/istream'
p1731
sbsS'jpeglib.h'
p1732
g329
(g1636
g331
Ntp1733
Rp1734
(dp1735
g1640
g1100
sg1641
(lp1736
g1092
ag1082
asg355
g1125
sbsS'iw2d_public.defines.txt'
p1737
g329
(g1636
g331
Ntp1738
Rp1739
(dp1740
g1640
g1309
sg1641
(lp1741
S"'Marmalade Studio'"
p1742
ag1305
asg355
g1307
sbsS'iostream.h'
p1743
g329
(g1636
g331
Ntp1744
Rp1745
(dp1746
g1640
g1648
sg1641
g1649
sg355
S'c:/marmalade/7.5/s3e/h/std/c++/iostream.h'
p1747
sbsS'IwSoundADPCM.h'
p1748
g329
(g1636
g331
Ntp1749
Rp1750
(dp1751
g1640
g1141
sg1641
g1688
sg355
g1142
sbsS'string'
p1752
g329
(g1636
g331
Ntp1753
Rp1754
(dp1755
g1640
g1648
sg1641
g1649
sg355
S'c:/marmalade/7.5/s3e/h/std/c++/string'
p1756
sbsS'IwMemory.h'
p1757
g329
(g1636
g331
Ntp1758
Rp1759
(dp1760
g1640
g1507
sg1641
g1677
sg355
g1516
sbsS'IwGeomPlane.h'
p1761
g329
(g1636
g331
Ntp1762
Rp1763
(dp1764
g1640
g1343
sg1641
g1702
sg355
g1373
sbsS'iw2d.config.txt'
p1765
g329
(g1636
g331
Ntp1766
Rp1767
(dp1768
g1640
g1309
sg1641
g1741
sg355
g1310
sbsS'iomanip'
p1769
g329
(g1636
g331
Ntp1770
Rp1771
(dp1772
g1640
g1648
sg1641
g1649
sg355
S'c:/marmalade/7.5/s3e/h/std/c++/iomanip'
p1773
sbsS'iwgeom.mkf'
p1774
g329
(g1636
g331
Ntp1775
Rp1776
(dp1777
g1640
g1350
sg1641
g1702
sg355
g1348
sbsS'IwGxError.h'
p1778
g329
(g1636
g331
Ntp1779
Rp1780
(dp1781
g1640
g1443
sg1641
(lp1782
S"'Marmalade Studio'"
p1783
ag1439
asg355
g1460
sbsS'IwGeom.h'
p1784
g329
(g1636
g331
Ntp1785
Rp1786
(dp1787
g1640
g1343
sg1641
g1702
sg355
g1365
sbsS'scene.cpp'
p1788
g329
(g1636
g331
Ntp1789
Rp1790
(dp1791
g1640
g1198
sg1641
(lp1792
g1194
asg355
g1209
sbsS'IwGeomVec4.h'
p1793
g329
(g1636
g331
Ntp1794
Rp1795
(dp1796
g1640
g1343
sg1641
g1702
sg355
g1381
sbsS'dir.h'
p1797
g329
(g1636
g331
Ntp1798
Rp1799
(dp1800
g1640
g1648
sg1641
(lp1801
g1650
aS'stdc headers'
p1802
aS'sys'
p1803
asg355
S'c:/marmalade/7.5/s3e/h/std/sys/dir.h'
p1804
sbsS'locale.h'
p1805
g329
(g1636
g331
Ntp1806
Rp1807
(dp1808
g1640
g1648
sg1641
g1670
sg355
S'c:/marmalade/7.5/s3e/h/std/locale.h'
p1809
sbsS'vector'
p1810
g329
(g1636
g331
Ntp1811
Rp1812
(dp1813
g1640
g1648
sg1641
g1649
sg355
S'c:/marmalade/7.5/s3e/h/std/c++/vector'
p1814
sbsS'IwManaged.h'
p1815
g329
(g1636
g331
Ntp1816
Rp1817
(dp1818
g1640
g1507
sg1641
g1677
sg355
g1528
sbsS's3eCompass.h'
p1819
g329
(g1636
g331
Ntp1820
Rp1821
(dp1822
g1640
g1648
sg1641
g1664
sg355
S'c:/marmalade/7.5/s3e/h/s3eCompass.h'
p1823
sbsS'cderror.h'
p1824
g329
(g1636
g331
Ntp1825
Rp1826
(dp1827
g1640
g1100
sg1641
g1736
sg355
g1103
sbsS'climits'
p1828
g329
(g1636
g331
Ntp1829
Rp1830
(dp1831
g1640
g1648
sg1641
g1649
sg355
S'c:/marmalade/7.5/s3e/h/std/c++/climits'
p1832
sbsS's3eVibra.h'
p1833
g329
(g1636
g331
Ntp1834
Rp1835
(dp1836
g1640
g1648
sg1641
g1664
sg355
S'c:/marmalade/7.5/s3e/h/s3eVibra.h'
p1837
sbsS'jversion.h'
p1838
g329
(g1636
g331
Ntp1839
Rp1840
(dp1841
g1640
g1100
sg1641
g1736
sg355
g1121
sbsS'fnmatch.h'
p1842
g329
(g1636
g331
Ntp1843
Rp1844
(dp1845
g1640
g1648
sg1641
g1670
sg355
S'c:/marmalade/7.5/s3e/h/std/fnmatch.h'
p1846
sbsS'IwGxState.h'
p1847
g329
(g1636
g331
Ntp1848
Rp1849
(dp1850
g1640
g1443
sg1641
g1782
sg355
g1489
sbsS'rope'
p1851
g329
(g1636
g331
Ntp1852
Rp1853
(dp1854
g1640
g1648
sg1641
g1649
sg355
S'c:/marmalade/7.5/s3e/h/std/c++/rope'
p1855
sbsS's3eAudio.h'
p1856
g329
(g1636
g331
Ntp1857
Rp1858
(dp1859
g1640
g1648
sg1641
g1664
sg355
S'c:/marmalade/7.5/s3e/h/s3eAudio.h'
p1860
sbsS's3eSurface.h'
p1861
g329
(g1636
g331
Ntp1862
Rp1863
(dp1864
g1640
g1648
sg1641
g1664
sg355
S'c:/marmalade/7.5/s3e/h/s3eSurface.h'
p1865
sbsS'new'
p1866
g329
(g1636
g331
Ntp1867
Rp1868
(dp1869
g1640
g1648
sg1641
g1649
sg355
S'c:/marmalade/7.5/s3e/h/std/c++/new'
p1870
sbsS's3eWindow.h'
p1871
g329
(g1636
g331
Ntp1872
Rp1873
(dp1874
g1640
g1648
sg1641
(lp1875
g1650
aS'Extensions'
p1876
asg355
S'c:/marmalade/7.5/s3e/h/ext/s3eWindow.h'
p1877
sbsS'IwBuffer.h'
p1878
g329
(g1636
g331
Ntp1879
Rp1880
(dp1881
g1640
g1507
sg1641
g1677
sg355
g1510
sbsS'stdio_streambuf'
p1882
g329
(g1636
g331
Ntp1883
Rp1884
(dp1885
g1640
g1648
sg1641
g1649
sg355
S'c:/marmalade/7.5/s3e/h/std/c++/stdio_streambuf'
p1886
sbsS'IwGeomQuat.h.tpl'
p1887
g329
(g1636
g331
Ntp1888
Rp1889
(dp1890
g1640
g1343
sg1641
g1702
sg355
g1355
sbsS's3eOSExec.h'
p1891
g329
(g1636
g331
Ntp1892
Rp1893
(dp1894
g1640
g1648
sg1641
g1875
sg355
S'c:/marmalade/7.5/s3e/h/ext/s3eOSExec.h'
p1895
sbsS'IwGxTransformSW.h'
p1896
g329
(g1636
g331
Ntp1897
Rp1898
(dp1899
g1640
g1443
sg1641
g1782
sg355
g1470
sbsS'unistd.h'
p1900
g329
(g1636
g331
Ntp1901
Rp1902
(dp1903
g1640
g1648
sg1641
g1670
sg355
S'c:/marmalade/7.5/s3e/h/std/unistd.h'
p1904
sbsS'iwgxfont.config.txt'
p1905
g329
(g1636
g331
Ntp1906
Rp1907
(dp1908
g1640
g1321
sg1641
g1642
sg355
g1324
sbsS'gl2platform.h'
p1909
g329
(g1636
g331
Ntp1910
Rp1911
(dp1912
g1640
g1648
sg1641
(lp1913
g1650
aS'GL'
p1914
aS'GLES 2.0'
p1915
asg355
S'c:/marmalade/7.5/s3e/h/GLES2/gl2platform.h'
p1916
sbsS'IwResManagerClass.h'
p1917
g329
(g1636
g331
Ntp1918
Rp1919
(dp1920
g1640
g1419
sg1641
(lp1921
g1279
ag1415
asg355
g1422
sbsS'queue'
p1922
g329
(g1636
g331
Ntp1923
Rp1924
(dp1925
g1640
g1648
sg1641
g1649
sg355
S'c:/marmalade/7.5/s3e/h/std/c++/queue'
p1926
sbsS'time_1.h'
p1927
g329
(g1636
g331
Ntp1928
Rp1929
(dp1930
g1640
g1648
sg1641
g1801
sg355
S'c:/marmalade/7.5/s3e/h/std/sys/time.h'
p1931
sbsS'Iw2D.h'
p1932
g329
(g1636
g331
Ntp1933
Rp1934
(dp1935
g1640
g1309
sg1641
g1741
sg355
g1312
sbsS'IwGeomVec2.h'
p1936
g329
(g1636
g331
Ntp1937
Rp1938
(dp1939
g1640
g1343
sg1641
g1702
sg355
g1357
sbsS'sendfile.h'
p1940
g329
(g1636
g331
Ntp1941
Rp1942
(dp1943
g1640
g1648
sg1641
g1801
sg355
S'c:/marmalade/7.5/s3e/h/std/sys/sendfile.h'
p1944
sbsS'malloc.h'
p1945
g329
(g1636
g331
Ntp1946
Rp1947
(dp1948
g1640
g1648
sg1641
g1670
sg355
S'c:/marmalade/7.5/s3e/h/std/malloc.h'
p1949
sbsS'stdarg.h'
p1950
g329
(g1636
g331
Ntp1951
Rp1952
(dp1953
g1640
g1648
sg1641
g1670
sg355
S'c:/marmalade/7.5/s3e/h/std/stdarg.h'
p1954
sbsS'IwGeomCore.h'
p1955
g329
(g1636
g331
Ntp1956
Rp1957
(dp1958
g1640
g1343
sg1641
g1702
sg355
g1383
sbsS'Iw2DSceneGraph.h'
p1959
g329
(g1636
g331
Ntp1960
Rp1961
(dp1962
g1640
g1285
sg1641
(lp1963
S"'Marmalade Studio'"
p1964
ag1281
asg355
g1288
sbsS'endian.h'
p1965
g329
(g1636
g331
Ntp1966
Rp1967
(dp1968
g1640
g1648
sg1641
g1670
sg355
S'c:/marmalade/7.5/s3e/h/std/endian.h'
p1969
sbsS'gl3ext.h'
p1970
g329
(g1636
g331
Ntp1971
Rp1972
(dp1973
g1640
g1648
sg1641
(lp1974
g1650
aS'GL'
p1975
aS'GLES 3.0'
p1976
asg355
S'c:/marmalade/7.5/s3e/h/GLES3/gl3ext.h'
p1977
sbsS'glob.h'
p1978
g329
(g1636
g331
Ntp1979
Rp1980
(dp1981
g1640
g1648
sg1641
g1670
sg355
S'c:/marmalade/7.5/s3e/h/std/glob.h'
p1982
sbsS'fstream'
p1983
g329
(g1636
g331
Ntp1984
Rp1985
(dp1986
g1640
g1648
sg1641
g1649
sg355
S'c:/marmalade/7.5/s3e/h/std/c++/fstream'
p1987
sbsS's3eCamera.h'
p1988
g329
(g1636
g331
Ntp1989
Rp1990
(dp1991
g1640
g1648
sg1641
g1664
sg355
S'c:/marmalade/7.5/s3e/h/s3eCamera.h'
p1992
sbsS'jconfig.h'
p1993
g329
(g1636
g331
Ntp1994
Rp1995
(dp1996
g1640
g1100
sg1641
g1736
sg355
g1123
sbsS'memory'
p1997
g329
(g1636
g331
Ntp1998
Rp1999
(dp2000
g1640
g1648
sg1641
g1649
sg355
S'c:/marmalade/7.5/s3e/h/std/c++/memory'
p2001
sbsS'egl.h'
p2002
g329
(g1636
g331
Ntp2003
Rp2004
(dp2005
g1640
g1648
sg1641
(lp2006
g1650
aS'GL'
p2007
aS'EGL'
p2008
asg355
S'c:/marmalade/7.5/s3e/h/EGL/egl.h'
p2009
sbsS'egl_1.h'
p2010
g329
(g1636
g331
Ntp2011
Rp2012
(dp2013
g1640
g1648
sg1641
(lp2014
g1650
aS'GL'
p2015
aS'GLES 1.x'
p2016
asg355
S'c:/marmalade/7.5/s3e/h/GLES/egl.h'
p2017
sbsS'IwMemManagerDL.h'
p2018
g329
(g1636
g331
Ntp2019
Rp2020
(dp2021
g1640
g1507
sg1641
g1677
sg355
g1560
sbsS'deque'
p2022
g329
(g1636
g331
Ntp2023
Rp2024
(dp2025
g1640
g1648
sg1641
g1649
sg355
S'c:/marmalade/7.5/s3e/h/std/c++/deque'
p2026
sbsS'IwString.h'
p2027
g329
(g1636
g331
Ntp2028
Rp2029
(dp2030
g1640
g1507
sg1641
g1677
sg355
g1581
sbsS'GameScene.h'
p2031
g329
(g1636
g331
Ntp2032
Rp2033
(dp2034
g1640
g1198
sg1641
g1792
sg355
g1261
sbsS'cwchar'
p2035
g329
(g1636
g331
Ntp2036
Rp2037
(dp2038
g1640
g1648
sg1641
g1649
sg355
S'c:/marmalade/7.5/s3e/h/std/c++/cwchar'
p2039
sbsS'iwutil.mkf'
p2040
g329
(g1636
g331
Ntp2041
Rp2042
(dp2043
g1640
g1578
sg1641
g1677
sg355
g1576
sbsS'csignal'
p2044
g329
(g1636
g331
Ntp2045
Rp2046
(dp2047
g1640
g1648
sg1641
g1649
sg355
S'c:/marmalade/7.5/s3e/h/std/c++/csignal'
p2048
sbsS'pthread_types.h'
p2049
g329
(g1636
g331
Ntp2050
Rp2051
(dp2052
g1640
g1648
sg1641
g1670
sg355
S'c:/marmalade/7.5/s3e/h/std/pthread_types.h'
p2053
sbsS'Entity.cpp'
p2054
g329
(g1636
g331
Ntp2055
Rp2056
(dp2057
g1640
g1198
sg1641
g1792
sg355
g1233
sbsS'pthread_alloc'
p2058
g329
(g1636
g331
Ntp2059
Rp2060
(dp2061
g1640
g1648
sg1641
g1649
sg355
S'c:/marmalade/7.5/s3e/h/std/c++/pthread_alloc'
p2062
sbsS'getopt.h'
p2063
g329
(g1636
g331
Ntp2064
Rp2065
(dp2066
g1640
g1648
sg1641
g1670
sg355
S'c:/marmalade/7.5/s3e/h/std/getopt.h'
p2067
sbsS'IwOptimiseARM.h'
p2068
g329
(g1636
g331
Ntp2069
Rp2070
(dp2071
g1640
g1507
sg1641
g1677
sg355
g1552
sbsS'times.h'
p2072
g329
(g1636
g331
Ntp2073
Rp2074
(dp2075
g1640
g1648
sg1641
g1801
sg355
S'c:/marmalade/7.5/s3e/h/std/sys/times.h'
p2076
sbsS'IwGeomFSphere.h'
p2077
g329
(g1636
g331
Ntp2078
Rp2079
(dp2080
g1640
g1343
sg1641
g1702
sg355
g1403
sbsS'functional'
p2081
g329
(g1636
g331
Ntp2082
Rp2083
(dp2084
g1640
g1648
sg1641
g1649
sg355
S'c:/marmalade/7.5/s3e/h/std/c++/functional'
p2085
sbsS'IwTypes.h'
p2086
g329
(g1636
g331
Ntp2087
Rp2088
(dp2089
g1640
g1507
sg1641
g1677
sg355
g1599
sbsS'IwGxMetrics.h'
p2090
g329
(g1636
g331
Ntp2091
Rp2092
(dp2093
g1640
g1443
sg1641
g1782
sg355
g1474
sbsS'audio.cpp'
p2094
g329
(g1636
g331
Ntp2095
Rp2096
(dp2097
g1640
g1198
sg1641
g1792
sg355
g1257
sbsS's3eCompression.h'
p2098
g329
(g1636
g331
Ntp2099
Rp2100
(dp2101
g1640
g1648
sg1641
g1664
sg355
S'c:/marmalade/7.5/s3e/h/s3eCompression.h'
p2102
sbsS'langinfo.h'
p2103
g329
(g1636
g331
Ntp2104
Rp2105
(dp2106
g1640
g1648
sg1641
g1670
sg355
S'c:/marmalade/7.5/s3e/h/std/langinfo.h'
p2107
sbsS's3edebugHeap.h'
p2108
g329
(g1636
g331
Ntp2109
Rp2110
(dp2111
g1640
g1648
sg1641
g1875
sg355
S'c:/marmalade/7.5/s3e/h/ext/s3edebugHeap.h'
p2112
sbsS'AirplayVersion.h'
p2113
g329
(g1636
g331
Ntp2114
Rp2115
(dp2116
g1640
g1648
sg1641
g1664
sg355
S'c:/marmalade/7.5/s3e/h/AirplayVersion.h'
p2117
sbsS'gl2extimg.h'
p2118
g329
(g1636
g331
Ntp2119
Rp2120
(dp2121
g1640
g1648
sg1641
g1913
sg355
S'c:/marmalade/7.5/s3e/h/GLES2/gl2extimg.h'
p2122
sbsS'IwGeomSqrt.h'
p2123
g329
(g1636
g331
Ntp2124
Rp2125
(dp2126
g1640
g1343
sg1641
g1702
sg355
g1351
sbsS'tiniconv_int.h'
p2127
g329
(g1636
g331
Ntp2128
Rp2129
(dp2130
g1640
g1134
sg1641
(lp2131
g1127
asg355
g1132
sbsS'syslog.h'
p2132
g329
(g1636
g331
Ntp2133
Rp2134
(dp2135
g1640
g1648
sg1641
g1670
sg355
S'c:/marmalade/7.5/s3e/h/std/syslog.h'
p2136
sbsS'IwGxFontTypes.h'
p2137
g329
(g1636
g331
Ntp2138
Rp2139
(dp2140
g1640
g1321
sg1641
g1642
sg355
g1322
sbsS'IwGeomFIntersect.h'
p2141
g329
(g1636
g331
Ntp2142
Rp2143
(dp2144
g1640
g1343
sg1641
g1702
sg355
g1413
sbsS'hash_map'
p2145
g329
(g1636
g331
Ntp2146
Rp2147
(dp2148
g1640
g1648
sg1641
g1649
sg355
S'c:/marmalade/7.5/s3e/h/std/c++/hash_map'
p2149
sbsS's3e.mkf'
p2150
g329
(g1636
g331
Ntp2151
Rp2152
(dp2153
g1640
(dp2154
sg1641
g1664
sg355
S'c:/marmalade/7.5/s3e/s3e.mkf'
p2155
sbsS'IwGeomMat2D.h.tpl'
p2156
g329
(g1636
g331
Ntp2157
Rp2158
(dp2159
g1640
g1343
sg1641
g1702
sg355
g1395
sbsS's3eOSReadString.h'
p2160
g329
(g1636
g331
Ntp2161
Rp2162
(dp2163
g1640
g1648
sg1641
g1875
sg355
S'c:/marmalade/7.5/s3e/h/ext/s3eOSReadString.h'
p2164
sbsS'IwSound.h'
p2165
g329
(g1636
g331
Ntp2166
Rp2167
(dp2168
g1640
g1141
sg1641
g1688
sg355
g1176
sbsS'map'
p2169
g329
(g1636
g331
Ntp2170
Rp2171
(dp2172
g1640
g1648
sg1641
g1649
sg355
S'c:/marmalade/7.5/s3e/h/std/c++/map'
p2173
sbsS'iwtween.mkf'
p2174
g329
(g1636
g331
Ntp2175
Rp2176
(dp2177
g1640
g1627
sg1641
(lp2178
g1618
asg355
g1625
sbsS'IwOptimiseSpeed.h'
p2179
g329
(g1636
g331
Ntp2180
Rp2181
(dp2182
g1640
g1507
sg1641
g1677
sg355
g1564
sbsS'ostream'
p2183
g329
(g1636
g331
Ntp2184
Rp2185
(dp2186
g1640
g1648
sg1641
g1649
sg355
S'c:/marmalade/7.5/s3e/h/std/c++/ostream'
p2187
sbsS'msl_string.h'
p2188
g329
(g1636
g331
Ntp2189
Rp2190
(dp2191
g1640
g1648
sg1641
g1649
sg355
S'c:/marmalade/7.5/s3e/h/std/c++/msl_string.h'
p2192
sbsS'select.h'
p2193
g329
(g1636
g331
Ntp2194
Rp2195
(dp2196
g1640
g1648
sg1641
g1801
sg355
S'c:/marmalade/7.5/s3e/h/std/sys/select.h'
p2197
sbsS'hero.cpp'
p2198
g329
(g1636
g331
Ntp2199
Rp2200
(dp2201
g1640
g1198
sg1641
g1792
sg355
g1259
sbsS'zlib.mkf'
p2202
g329
(g1636
g331
Ntp2203
Rp2204
(dp2205
g1640
g1617
sg1641
(lp2206
g1607
asg355
g1615
sbsS'signal.h'
p2207
g329
(g1636
g331
Ntp2208
Rp2209
(dp2210
g1640
g1648
sg1641
g1670
sg355
S'c:/marmalade/7.5/s3e/h/std/signal.h'
p2211
sbsS'sigcontext.h'
p2212
g329
(g1636
g331
Ntp2213
Rp2214
(dp2215
g1640
g1648
sg1641
g1670
sg355
S'c:/marmalade/7.5/s3e/h/std/sigcontext.h'
p2216
sbsS'libpng.mkf'
p2217
g329
(g1636
g331
Ntp2218
Rp2219
(dp2220
g1640
g1091
sg1641
(lp2221
g1080
asg355
g1089
sbsS's3eClipboard.h'
p2222
g329
(g1636
g331
Ntp2223
Rp2224
(dp2225
g1640
g1648
sg1641
g1664
sg355
S'c:/marmalade/7.5/s3e/h/s3eClipboard.h'
p2226
sbsS'IwGxFuncTable.h'
p2227
g329
(g1636
g331
Ntp2228
Rp2229
(dp2230
g1640
g1443
sg1641
g1782
sg355
g1448
sbsS'IwResHandlerGROUP.h'
p2231
g329
(g1636
g331
Ntp2232
Rp2233
(dp2234
g1640
g1419
sg1641
g1921
sg355
g1424
sbsS's3eDebug.h'
p2235
g329
(g1636
g331
Ntp2236
Rp2237
(dp2238
g1640
g1648
sg1641
g1664
sg355
S'c:/marmalade/7.5/s3e/h/s3eDebug.h'
p2239
sbsS'socket.h'
p2240
g329
(g1636
g331
Ntp2241
Rp2242
(dp2243
g1640
g1648
sg1641
g1801
sg355
S'c:/marmalade/7.5/s3e/h/std/sys/socket.h'
p2244
sbsS'glext.h'
p2245
g329
(g1636
g331
Ntp2246
Rp2247
(dp2248
g1640
g1648
sg1641
g2014
sg355
S'c:/marmalade/7.5/s3e/h/GLES/glext.h'
p2249
sbsS'typeinfo.h'
p2250
g329
(g1636
g331
Ntp2251
Rp2252
(dp2253
g1640
g1648
sg1641
g1649
sg355
S'c:/marmalade/7.5/s3e/h/std/c++/typeinfo.h'
p2254
sbsS'typeinfo'
p2255
g329
(g1636
g331
Ntp2256
Rp2257
(dp2258
g1640
g1648
sg1641
g1649
sg355
S'c:/marmalade/7.5/s3e/h/std/c++/typeinfo'
p2259
sbsS'iwsound.config.txt'
p2260
g329
(g1636
g331
Ntp2261
Rp2262
(dp2263
g1640
g1141
sg1641
(lp2264
g1137
ag1148
asg355
g1150
sbsS'fstream.h'
p2265
g329
(g1636
g331
Ntp2266
Rp2267
(dp2268
g1640
g1648
sg1641
g1649
sg355
S'c:/marmalade/7.5/s3e/h/std/c++/fstream.h'
p2269
sbsS'IwGeomMat.h'
p2270
g329
(g1636
g331
Ntp2271
Rp2272
(dp2273
g1640
g1343
sg1641
g1702
sg355
g1359
sbsS's3ePointer.h'
p2274
g329
(g1636
g331
Ntp2275
Rp2276
(dp2277
g1640
g1648
sg1641
g1664
sg355
S'c:/marmalade/7.5/s3e/h/s3ePointer.h'
p2278
sbsS'IwMemBucket.h'
p2279
g329
(g1636
g331
Ntp2280
Rp2281
(dp2282
g1640
g1507
sg1641
g1677
sg355
g1554
sbsS'PVRTexTool.h'
p2283
g329
(g1636
g331
Ntp2284
Rp2285
(dp2286
g1640
g1271
sg1641
(lp2287
g1263
ag1265
asg355
g1274
sbsS's3eGL.h'
p2288
g329
(g1636
g331
Ntp2289
Rp2290
(dp2291
g1640
g1648
sg1641
g1664
sg355
S'c:/marmalade/7.5/s3e/h/s3eGL.h'
p2292
sbsS'IwGeomFVec2.h'
p2293
g329
(g1636
g331
Ntp2294
Rp2295
(dp2296
g1640
g1343
sg1641
g1702
sg355
g1377
sbsS'IwGeomSVec4.h'
p2297
g329
(g1636
g331
Ntp2298
Rp2299
(dp2300
g1640
g1343
sg1641
g1702
sg355
g1379
sbsS'BackgroundEntity.cpp'
p2301
g329
(g1636
g331
Ntp2302
Rp2303
(dp2304
g1640
g1198
sg1641
g1792
sg355
g1249
sbsS'poll.h'
p2305
g329
(g1636
g331
Ntp2306
Rp2307
(dp2308
g1640
g1648
sg1641
g1670
sg355
S'c:/marmalade/7.5/s3e/h/std/poll.h'
p2309
sbsS'IwMatAnim.h'
p2310
g329
(g1636
g331
Ntp2311
Rp2312
(dp2313
g1640
g1443
sg1641
g1782
sg355
g1444
sbsS'IwGeomFVec4.h'
p2314
g329
(g1636
g331
Ntp2315
Rp2316
(dp2317
g1640
g1343
sg1641
g1702
sg355
g1391
sbsS'IwGx.h'
p2318
g329
(g1636
g331
Ntp2319
Rp2320
(dp2321
g1640
g1443
sg1641
g1782
sg355
g1462
sbsS'valarray'
p2322
g329
(g1636
g331
Ntp2323
Rp2324
(dp2325
g1640
g1648
sg1641
g1649
sg355
S'c:/marmalade/7.5/s3e/h/std/c++/valarray'
p2326
sbsS'iosfwd'
p2327
g329
(g1636
g331
Ntp2328
Rp2329
(dp2330
g1640
g1648
sg1641
g1649
sg355
S'c:/marmalade/7.5/s3e/h/std/c++/iosfwd'
p2331
sbsS'gl2.h'
p2332
g329
(g1636
g331
Ntp2333
Rp2334
(dp2335
g1640
g1648
sg1641
g1913
sg355
S'c:/marmalade/7.5/s3e/h/GLES2/gl2.h'
p2336
sbsS'jpegint.h'
p2337
g329
(g1636
g331
Ntp2338
Rp2339
(dp2340
g1640
g1100
sg1641
g1736
sg355
g1115
sbsS'stdiostream.h'
p2341
g329
(g1636
g331
Ntp2342
Rp2343
(dp2344
g1640
g1648
sg1641
g1649
sg355
S'c:/marmalade/7.5/s3e/h/std/c++/stdiostream.h'
p2345
sbsS'mem.h'
p2346
g329
(g1636
g331
Ntp2347
Rp2348
(dp2349
g1640
g1648
sg1641
g1649
sg355
S'c:/marmalade/7.5/s3e/h/std/c++/mem.h'
p2350
sbsS'jerror.h'
p2351
g329
(g1636
g331
Ntp2352
Rp2353
(dp2354
g1640
g1100
sg1641
g1736
sg355
g1098
sbsS'zconf.h'
p2355
g329
(g1636
g331
Ntp2356
Rp2357
(dp2358
g1640
g1612
sg1641
(lp2359
g1607
ag1082
asg355
g1610
sbsS's3e.config.txt'
p2360
g329
(g1636
g331
Ntp2361
Rp2362
(dp2363
g1640
g1648
sg1641
g1664
sg355
S'c:/marmalade/7.5/s3e/s3e.config.txt'
p2364
sbsS'numeric'
p2365
g329
(g1636
g331
Ntp2366
Rp2367
(dp2368
g1640
g1648
sg1641
g1649
sg355
S'c:/marmalade/7.5/s3e/h/std/c++/numeric'
p2369
sbsS'utime.h'
p2370
g329
(g1636
g331
Ntp2371
Rp2372
(dp2373
g1640
g1648
sg1641
g1670
sg355
S'c:/marmalade/7.5/s3e/h/std/utime.h'
p2374
sbsS'jdhuff.h'
p2375
g329
(g1636
g331
Ntp2376
Rp2377
(dp2378
g1640
g1100
sg1641
g1736
sg355
g1101
sbsS'IwResHandlerWAV.cpp'
p2379
g329
(g1636
g331
Ntp2380
Rp2381
(dp2382
g1640
g1141
sg1641
g1688
sg355
g1144
sbsS'un.h'
p2383
g329
(g1636
g331
Ntp2384
Rp2385
(dp2386
g1640
g1648
sg1641
g1801
sg355
S'c:/marmalade/7.5/s3e/h/std/sys/un.h'
p2387
sbsS'IwImage.h'
p2388
g329
(g1636
g331
Ntp2389
Rp2390
(dp2391
g1640
g1507
sg1641
g1677
sg355
g1550
sbsS's3eImagePicker.h'
p2392
g329
(g1636
g331
Ntp2393
Rp2394
(dp2395
g1640
g1648
sg1641
g1875
sg355
S'c:/marmalade/7.5/s3e/h/ext/s3eImagePicker.h'
p2396
sbsS'stdlib.h'
p2397
g329
(g1636
g331
Ntp2398
Rp2399
(dp2400
g1640
g1648
sg1641
g1670
sg355
S'c:/marmalade/7.5/s3e/h/std/stdlib.h'
p2401
sbsS'IwCopyingPtr.h'
p2402
g329
(g1636
g331
Ntp2403
Rp2404
(dp2405
g1640
g1507
sg1641
g1677
sg355
g1589
sbsS'iostream'
p2406
g329
(g1636
g331
Ntp2407
Rp2408
(dp2409
g1640
g1648
sg1641
g1649
sg355
S'c:/marmalade/7.5/s3e/h/std/c++/iostream'
p2410
sbsS'png.h'
p2411
g329
(g1636
g331
Ntp2412
Rp2413
(dp2414
g1640
g1086
sg1641
(lp2415
g1080
ag1082
asg355
g1084
sbsS'stddef.h'
p2416
g329
(g1636
g331
Ntp2417
Rp2418
(dp2419
g1640
g1648
sg1641
g1670
sg355
S'c:/marmalade/7.5/s3e/h/std/stddef.h'
p2420
sbsS'Layer.cpp'
p2421
g329
(g1636
g331
Ntp2422
Rp2423
(dp2424
g1640
g1198
sg1641
g1792
sg355
g1199
sbsS'setjmp_win32.h'
p2425
g329
(g1636
g331
Ntp2426
Rp2427
(dp2428
g1640
g1648
sg1641
g1670
sg355
S'c:/marmalade/7.5/s3e/h/std/setjmp_win32.h'
p2429
sbsS'pauseMenu.h'
p2430
g329
(g1636
g331
Ntp2431
Rp2432
(dp2433
g1640
g1198
sg1641
g1792
sg355
g1245
sbsS'Layer.h'
p2434
g329
(g1636
g331
Ntp2435
Rp2436
(dp2437
g1640
g1198
sg1641
g1792
sg355
g1251
sbsS'IwGxPrint.h'
p2438
g329
(g1636
g331
Ntp2439
Rp2440
(dp2441
g1640
g1443
sg1641
g1782
sg355
g1452
sbsS'iwgx_public.defines.txt'
p2442
g329
(g1636
g331
Ntp2443
Rp2444
(dp2445
g1640
g1443
sg1641
g1782
sg355
g1464
sbsS'streambuf.h'
p2446
g329
(g1636
g331
Ntp2447
Rp2448
(dp2449
g1640
g1648
sg1641
g1649
sg355
S'c:/marmalade/7.5/s3e/h/std/c++/streambuf.h'
p2450
sbsS'resources.cpp'
p2451
g329
(g1636
g331
Ntp2452
Rp2453
(dp2454
g1640
g1198
sg1641
g1792
sg355
g1231
sbsS'IwGeomFPlane.h'
p2455
g329
(g1636
g331
Ntp2456
Rp2457
(dp2458
g1640
g1343
sg1641
g1702
sg355
g1407
sbsS'wchar.h'
p2459
g329
(g1636
g331
Ntp2460
Rp2461
(dp2462
g1640
g1648
sg1641
g1670
sg355
S'c:/marmalade/7.5/s3e/h/std/wchar.h'
p2463
sbsS's3eCameraCapture.h'
p2464
g329
(g1636
g331
Ntp2465
Rp2466
(dp2467
g1640
g1648
sg1641
g1875
sg355
S'c:/marmalade/7.5/s3e/h/ext/s3eCameraCapture.h'
p2468
sbsS'eglext.h'
p2469
g329
(g1636
g331
Ntp2470
Rp2471
(dp2472
g1640
g1648
sg1641
g2006
sg355
S'c:/marmalade/7.5/s3e/h/EGL/eglext.h'
p2473
sbsS'IwResHandlerImage.h'
p2474
g329
(g1636
g331
Ntp2475
Rp2476
(dp2477
g1640
g1419
sg1641
g1921
sg355
g1437
sbsS'strstream.h'
p2478
g329
(g1636
g331
Ntp2479
Rp2480
(dp2481
g1640
g1648
sg1641
g1649
sg355
S'c:/marmalade/7.5/s3e/h/std/c++/strstream.h'
p2482
sbsS'tiniconv.h'
p2483
g329
(g1636
g331
Ntp2484
Rp2485
(dp2486
g1640
g1134
sg1641
g2131
sg355
g1135
sbsS'IwGLExt.h'
p2487
g329
(g1636
g331
Ntp2488
Rp2489
(dp2490
g1640
g1300
sg1641
g1658
sg355
g1303
sbsS'app.icf'
p2491
g329
(g1636
g331
Ntp2492
Rp2493
(dp2494
g1640
(dp2495
sg1641
g4
sg355
S'c:/Marmalade/7.5/examples/GameTutorial/CPP/marm1/data/app.icf'
p2496
sbsS'IwClassFactory.h'
p2497
g329
(g1636
g331
Ntp2498
Rp2499
(dp2500
g1640
g1507
sg1641
g1677
sg355
g1524
sbsS'file.h'
p2501
g329
(g1636
g331
Ntp2502
Rp2503
(dp2504
g1640
g1648
sg1641
g1801
sg355
S'c:/marmalade/7.5/s3e/h/std/sys/file.h'
p2505
sbsS'cstring'
p2506
g329
(g1636
g331
Ntp2507
Rp2508
(dp2509
g1640
g1648
sg1641
g1649
sg355
S'c:/marmalade/7.5/s3e/h/std/c++/cstring'
p2510
sbsS'IwSoundInst.cpp'
p2511
g329
(g1636
g331
Ntp2512
Rp2513
(dp2514
g1640
g1141
sg1641
g1688
sg355
g1166
sbsS'iwutil.config.txt'
p2515
g329
(g1636
g331
Ntp2516
Rp2517
(dp2518
g1640
g1507
sg1641
g1677
sg355
g1540
sbsS's3eSMS.h'
p2519
g329
(g1636
g331
Ntp2520
Rp2521
(dp2522
g1640
g1648
sg1641
g1875
sg355
S'c:/marmalade/7.5/s3e/h/ext/s3eSMS.h'
p2523
sbsS'limits.h'
p2524
g329
(g1636
g331
Ntp2525
Rp2526
(dp2527
g1640
g1648
sg1641
g1670
sg355
S'c:/marmalade/7.5/s3e/h/std/limits.h'
p2528
sbsS'scene.h'
p2529
g329
(g1636
g331
Ntp2530
Rp2531
(dp2532
g1640
g1198
sg1641
g1792
sg355
g1255
sbsS'IwMaterial.h'
p2533
g329
(g1636
g331
Ntp2534
Rp2535
(dp2536
g1640
g1443
sg1641
g1782
sg355
g1472
sbsS'Powerup.h'
p2537
g329
(g1636
g331
Ntp2538
Rp2539
(dp2540
g1640
g1198
sg1641
g1792
sg355
g1247
sbsS'PVRTexTool_interface.cpp'
p2541
g329
(g1636
g331
Ntp2542
Rp2543
(dp2544
g1640
g1271
sg1641
(lp2545
g1263
ag1265
ag1267
asg355
g1272
sbsS'IwGxSurface.h'
p2546
g329
(g1636
g331
Ntp2547
Rp2548
(dp2549
g1640
g1443
sg1641
g1782
sg355
g1458
sbsS's3eSocket.h'
p2550
g329
(g1636
g331
Ntp2551
Rp2552
(dp2553
g1640
g1648
sg1641
g1664
sg355
S'c:/marmalade/7.5/s3e/h/s3eSocket.h'
p2554
sbsS'IwAutoFile.h'
p2555
g329
(g1636
g331
Ntp2556
Rp2557
(dp2558
g1640
g1507
sg1641
g1677
sg355
g1568
sbsS'ipc.h'
p2559
g329
(g1636
g331
Ntp2560
Rp2561
(dp2562
g1640
g1648
sg1641
g1801
sg355
S'c:/marmalade/7.5/s3e/h/std/sys/ipc.h'
p2563
sbsS'poll_1.h'
p2564
g329
(g1636
g331
Ntp2565
Rp2566
(dp2567
g1640
g1648
sg1641
g1801
sg355
S'c:/marmalade/7.5/s3e/h/std/sys/poll.h'
p2568
sbsS's3eThread.h'
p2569
g329
(g1636
g331
Ntp2570
Rp2571
(dp2572
g1640
g1648
sg1641
g1664
sg355
S'c:/marmalade/7.5/s3e/h/s3eThread.h'
p2573
sbsS'ucontext.h'
p2574
g329
(g1636
g331
Ntp2575
Rp2576
(dp2577
g1640
g1648
sg1641
g1670
sg355
S'c:/marmalade/7.5/s3e/h/std/ucontext.h'
p2578
sbsS'time.h'
p2579
g329
(g1636
g331
Ntp2580
Rp2581
(dp2582
g1640
g1648
sg1641
g1670
sg355
S'c:/marmalade/7.5/s3e/h/std/time.h'
p2583
sbsS'jchuff.h'
p2584
g329
(g1636
g331
Ntp2585
Rp2586
(dp2587
g1640
g1100
sg1641
g1736
sg355
g1117
sbsS'IwSoundPCM.cpp'
p2588
g329
(g1636
g331
Ntp2589
Rp2590
(dp2591
g1640
g1141
sg1641
g1688
sg355
g1162
sbsS's3eSoundRecord.h'
p2592
g329
(g1636
g331
Ntp2593
Rp2594
(dp2595
g1640
g1648
sg1641
g1664
sg355
S'c:/marmalade/7.5/s3e/h/s3eSoundRecord.h'
p2596
sbsS'IwFibre.h'
p2597
g329
(g1636
g331
Ntp2598
Rp2599
(dp2600
g1640
g1507
sg1641
g1677
sg355
g1593
sbsS's3eVersion.h'
p2601
g329
(g1636
g331
Ntp2602
Rp2603
(dp2604
g1640
g1648
sg1641
g1664
sg355
S'c:/marmalade/7.5/s3e/h/s3eVersion.h'
p2605
sbsS'input.cpp'
p2606
g329
(g1636
g331
Ntp2607
Rp2608
(dp2609
g1640
g1198
sg1641
g1792
sg355
g1223
sbsS'IwSoundGroup.h'
p2610
g329
(g1636
g331
Ntp2611
Rp2612
(dp2613
g1640
g1141
sg1641
g1688
sg355
g1187
sbsS'IwSoundWAV.h'
p2614
g329
(g1636
g331
Ntp2615
Rp2616
(dp2617
g1640
g1141
sg1641
g1688
sg355
g1168
sbsS'IwGxFontGlyph.h'
p2618
g329
(g1636
g331
Ntp2619
Rp2620
(dp2621
g1640
g1321
sg1641
g1642
sg355
g1319
sbsS's3eTypes.h'
p2622
g329
(g1636
g331
Ntp2623
Rp2624
(dp2625
g1640
g1648
sg1641
g1664
sg355
S'c:/marmalade/7.5/s3e/h/s3eTypes.h'
p2626
sbsS'IwSoundSpec.h'
p2627
g329
(g1636
g331
Ntp2628
Rp2629
(dp2630
g1640
g1141
sg1641
g1688
sg355
g1156
sbsS'signal_2.h'
p2631
g329
(g1636
g331
Ntp2632
Rp2633
(dp2634
g1640
g1648
sg1641
g1649
sg355
S'c:/marmalade/7.5/s3e/h/std/c++/signal.h'
p2635
sbsS'termios.h'
p2636
g329
(g1636
g331
Ntp2637
Rp2638
(dp2639
g1640
g1648
sg1641
g1670
sg355
S'c:/marmalade/7.5/s3e/h/std/termios.h'
p2640
sbsS'iw2dscenegraph.mkf'
p2641
g329
(g1636
g331
Ntp2642
Rp2643
(dp2644
g1640
g1292
sg1641
g1963
sg355
g1290
sbsS'slist'
p2645
g329
(g1636
g331
Ntp2646
Rp2647
(dp2648
g1640
g1648
sg1641
g1649
sg355
S'c:/marmalade/7.5/s3e/h/std/c++/slist'
p2649
sbsS'cstdlib'
p2650
g329
(g1636
g331
Ntp2651
Rp2652
(dp2653
g1640
g1648
sg1641
g1649
sg355
S'c:/marmalade/7.5/s3e/h/std/c++/cstdlib'
p2654
sbsS's3eLocation.h'
p2655
g329
(g1636
g331
Ntp2656
Rp2657
(dp2658
g1640
g1648
sg1641
g1664
sg355
S'c:/marmalade/7.5/s3e/h/s3eLocation.h'
p2659
sbsS'IwMemBucketHelpers.h'
p2660
g329
(g1636
g331
Ntp2661
Rp2662
(dp2663
g1640
g1507
sg1641
g1677
sg355
g1544
sbsS's3eHash.h'
p2664
g329
(g1636
g331
Ntp2665
Rp2666
(dp2667
g1640
g1648
sg1641
g1664
sg355
S'c:/marmalade/7.5/s3e/h/s3eHash.h'
p2668
sbsS'IwSoundGroup.cpp'
p2669
g329
(g1636
g331
Ntp2670
Rp2671
(dp2672
g1640
g1141
sg1641
g1688
sg355
g1139
sbsS'Enemymanager.h'
p2673
g329
(g1636
g331
Ntp2674
Rp2675
(dp2676
g1640
g1198
sg1641
g1792
sg355
g1237
sbsS'IwGeomFMat.h'
p2677
g329
(g1636
g331
Ntp2678
Rp2679
(dp2680
g1640
g1343
sg1641
g1702
sg355
g1371
sbsS'type_traits.h'
p2681
g329
(g1636
g331
Ntp2682
Rp2683
(dp2684
g1640
g1648
sg1641
g1649
sg355
S'c:/marmalade/7.5/s3e/h/std/c++/type_traits.h'
p2685
sbsS's3eAtomic.h'
p2686
g329
(g1636
g331
Ntp2687
Rp2688
(dp2689
g1640
g1648
sg1641
g1664
sg355
S'c:/marmalade/7.5/s3e/h/s3eAtomic.h'
p2690
sbsS'IwMenu.h'
p2691
g329
(g1636
g331
Ntp2692
Rp2693
(dp2694
g1640
g1507
sg1641
g1677
sg355
g1597
sbsS'IwResHandlerITX.h'
p2695
g329
(g1636
g331
Ntp2696
Rp2697
(dp2698
g1640
g1419
sg1641
g1921
sg355
g1417
sbsS'IwSoundData.h'
p2699
g329
(g1636
g331
Ntp2700
Rp2701
(dp2702
g1640
g1141
sg1641
g1688
sg355
g1180
sbsS'IwArray.h'
p2703
g329
(g1636
g331
Ntp2704
Rp2705
(dp2706
g1640
g1507
sg1641
g1677
sg355
g1595
sbsS'IwUTF8.h'
p2707
g329
(g1636
g331
Ntp2708
Rp2709
(dp2710
g1640
g1507
sg1641
g1677
sg355
g1538
sbsS'math_rvct.h'
p2711
g329
(g1636
g331
Ntp2712
Rp2713
(dp2714
g1640
g1648
sg1641
g1670
sg355
S'c:/marmalade/7.5/s3e/h/std/math_rvct.h'
p2715
sbsS'IwUtil.h'
p2716
g329
(g1636
g331
Ntp2717
Rp2718
(dp2719
g1640
g1507
sg1641
g1677
sg355
g1579
sbsS'IwFColour.h'
p2720
g329
(g1636
g331
Ntp2721
Rp2722
(dp2723
g1640
g1443
sg1641
g1782
sg355
g1478
sbsS'wctype.h'
p2724
g329
(g1636
g331
Ntp2725
Rp2726
(dp2727
g1640
g1648
sg1641
g1670
sg355
S'c:/marmalade/7.5/s3e/h/std/wctype.h'
p2728
sbsS'mainMenu.h'
p2729
g329
(g1636
g331
Ntp2730
Rp2731
(dp2732
g1640
g1198
sg1641
g1792
sg355
g1201
sbsS'cstddef'
p2733
g329
(g1636
g331
Ntp2734
Rp2735
(dp2736
g1640
g1648
sg1641
g1649
sg355
S'c:/marmalade/7.5/s3e/h/std/c++/cstddef'
p2737
sbsS'assert.h'
p2738
g329
(g1636
g331
Ntp2739
Rp2740
(dp2741
g1640
g1648
sg1641
g1670
sg355
S'c:/marmalade/7.5/s3e/h/std/assert.h'
p2742
sbsS'mman.h'
p2743
g329
(g1636
g331
Ntp2744
Rp2745
(dp2746
g1640
g1648
sg1641
g1801
sg355
S'c:/marmalade/7.5/s3e/h/std/sys/mman.h'
p2747
sbsS'IwRandom.h'
p2748
g329
(g1636
g331
Ntp2749
Rp2750
(dp2751
g1640
g1507
sg1641
g1677
sg355
g1534
sbsS'libgen.h'
p2752
g329
(g1636
g331
Ntp2753
Rp2754
(dp2755
g1640
g1648
sg1641
g1670
sg355
S'c:/marmalade/7.5/s3e/h/std/libgen.h'
p2756
sbsS'utsname.h'
p2757
g329
(g1636
g331
Ntp2758
Rp2759
(dp2760
g1640
g1648
sg1641
g1801
sg355
S'c:/marmalade/7.5/s3e/h/std/sys/utsname.h'
p2761
sbsS'wait.h'
p2762
g329
(g1636
g331
Ntp2763
Rp2764
(dp2765
g1640
g1648
sg1641
g1801
sg355
S'c:/marmalade/7.5/s3e/h/std/sys/wait.h'
p2766
sbsS'param.h'
p2767
g329
(g1636
g331
Ntp2768
Rp2769
(dp2770
g1640
g1648
sg1641
g1801
sg355
S'c:/marmalade/7.5/s3e/h/std/sys/param.h'
p2771
sbsS'IwDivide.h'
p2772
g329
(g1636
g331
Ntp2773
Rp2774
(dp2775
g1640
g1507
sg1641
g1677
sg355
g1514
sbsS'Iw2DSceneGraphCore.cpp'
p2776
g329
(g1636
g331
Ntp2777
Rp2778
(dp2779
g1640
g1500
sg1641
(lp2780
S"'Marmalade Studio'"
p2781
ag1493
asg355
g1501
sbsS'IwResManager.h'
p2782
g329
(g1636
g331
Ntp2783
Rp2784
(dp2785
g1640
g1419
sg1641
g1921
sg355
g1426
sbsS'IwSoundManager.h'
p2786
g329
(g1636
g331
Ntp2787
Rp2788
(dp2789
g1640
g1141
sg1641
g1688
sg355
g1160
sbsS'cwctype'
p2790
g329
(g1636
g331
Ntp2791
Rp2792
(dp2793
g1640
g1648
sg1641
g1649
sg355
S'c:/marmalade/7.5/s3e/h/std/c++/cwctype'
p2794
sbsS'set'
p2795
g329
(g1636
g331
Ntp2796
Rp2797
(dp2798
g1640
g1648
sg1641
g1649
sg355
S'c:/marmalade/7.5/s3e/h/std/c++/set'
p2799
sbsS'IwGeomSQuat.h'
p2800
g329
(g1636
g331
Ntp2801
Rp2802
(dp2803
g1640
g1343
sg1641
g1702
sg355
g1367
sbsS'locale'
p2804
g329
(g1636
g331
Ntp2805
Rp2806
(dp2807
g1640
g1648
sg1641
g1649
sg355
S'c:/marmalade/7.5/s3e/h/std/c++/locale'
p2808
sbsS'cstdio'
p2809
g329
(g1636
g331
Ntp2810
Rp2811
(dp2812
g1640
g1648
sg1641
g1649
sg355
S'c:/marmalade/7.5/s3e/h/std/c++/cstdio'
p2813
sbsS'cdjpeg.h'
p2814
g329
(g1636
g331
Ntp2815
Rp2816
(dp2817
g1640
g1100
sg1641
g1736
sg355
g1119
sbsS'audio.h'
p2818
g329
(g1636
g331
Ntp2819
Rp2820
(dp2821
g1640
g1198
sg1641
g1792
sg355
g1217
sbsS'IwList.h'
p2822
g329
(g1636
g331
Ntp2823
Rp2824
(dp2825
g1640
g1507
sg1641
g1677
sg355
g1566
sbsS'pauseMenu.cpp'
p2826
g329
(g1636
g331
Ntp2827
Rp2828
(dp2829
g1640
g1198
sg1641
g1792
sg355
g1253
sbsS'inttypes.h'
p2830
g329
(g1636
g331
Ntp2831
Rp2832
(dp2833
g1640
g1648
sg1641
g1670
sg355
S'c:/marmalade/7.5/s3e/h/std/inttypes.h'
p2834
sbsS'dirent.h'
p2835
g329
(g1636
g331
Ntp2836
Rp2837
(dp2838
g1640
g1648
sg1641
g1670
sg355
S'c:/marmalade/7.5/s3e/h/std/dirent.h'
p2839
sbsS'IwGeomVec3.h'
p2840
g329
(g1636
g331
Ntp2841
Rp2842
(dp2843
g1640
g1343
sg1641
g1702
sg355
g1361
sbsS'transupp.h'
p2844
g329
(g1636
g331
Ntp2845
Rp2846
(dp2847
g1640
g1100
sg1641
g1736
sg355
g1105
sbsS'IwMath.h'
p2848
g329
(g1636
g331
Ntp2849
Rp2850
(dp2851
g1640
g1507
sg1641
g1677
sg355
g1508
sbsS'IwGeomQuat.h'
p2852
g329
(g1636
g331
Ntp2853
Rp2854
(dp2855
g1640
g1343
sg1641
g1702
sg355
g1411
sbsS'glplatform.h'
p2856
g329
(g1636
g331
Ntp2857
Rp2858
(dp2859
g1640
g1648
sg1641
g2014
sg355
S'c:/marmalade/7.5/s3e/h/GLES/glplatform.h'
p2860
sbsS's3e-default.mkf'
p2861
g329
(g1636
g331
Ntp2862
Rp2863
(dp2864
g1640
g1632
sg1641
(lp2865
g1628
asg355
g1630
sbsS'iwgl.config.txt'
p2866
g329
(g1636
g331
Ntp2867
Rp2868
(dp2869
g1640
g1300
sg1641
g1658
sg355
g1301
sbsS'bitset'
p2870
g329
(g1636
g331
Ntp2871
Rp2872
(dp2873
g1640
g1648
sg1641
g1649
sg355
S'c:/marmalade/7.5/s3e/h/std/c++/bitset'
p2874
sbsS'alloca.h'
p2875
g329
(g1636
g331
Ntp2876
Rp2877
(dp2878
g1640
g1648
sg1641
g1670
sg355
S'c:/marmalade/7.5/s3e/h/std/alloca.h'
p2879
sbsS'IwResHandler.h'
p2880
g329
(g1636
g331
Ntp2881
Rp2882
(dp2883
g1640
g1419
sg1641
g1921
sg355
g1435
sbsS'IwResHandlerMTL.h'
p2884
g329
(g1636
g331
Ntp2885
Rp2886
(dp2887
g1640
g1443
sg1641
g1782
sg355
g1450
sbsS'IwRuntime.h'
p2888
g329
(g1636
g331
Ntp2889
Rp2890
(dp2891
g1640
g1507
sg1641
g1677
sg355
g1558
sbsS'limits'
p2892
g329
(g1636
g331
Ntp2893
Rp2894
(dp2895
g1640
g1648
sg1641
g1649
sg355
S'c:/marmalade/7.5/s3e/h/std/c++/limits'
p2896
sbsS'IwGeomBBox.h'
p2897
g329
(g1636
g331
Ntp2898
Rp2899
(dp2900
g1640
g1343
sg1641
g1702
sg355
g1401
sbsS's3eContacts.h'
p2901
g329
(g1636
g331
Ntp2902
Rp2903
(dp2904
g1640
g1648
sg1641
g1664
sg355
S'c:/marmalade/7.5/s3e/h/s3eContacts.h'
p2905
sbsS's3eLicense.h'
p2906
g329
(g1636
g331
Ntp2907
Rp2908
(dp2909
g1640
g1648
sg1641
g1664
sg355
S'c:/marmalade/7.5/s3e/h/s3eLicense.h'
p2910
sbsS'iwgx.config.txt'
p2911
g329
(g1636
g331
Ntp2912
Rp2913
(dp2914
g1640
g1443
sg1641
g1782
sg355
g1485
sbsS'IwTextParser.h'
p2915
g329
(g1636
g331
Ntp2916
Rp2917
(dp2918
g1640
g1507
sg1641
g1677
sg355
g1587
sbsS's3eTimer.h'
p2919
g329
(g1636
g331
Ntp2920
Rp2921
(dp2922
g1640
g1648
sg1641
g1664
sg355
S'c:/marmalade/7.5/s3e/h/s3eTimer.h'
p2923
sbsS'IwGeomVec.h'
p2924
g329
(g1636
g331
Ntp2925
Rp2926
(dp2927
g1640
g1343
sg1641
g1702
sg355
g1387
sbsS'IwSerialise.h'
p2928
g329
(g1636
g331
Ntp2929
Rp2930
(dp2931
g1640
g1507
sg1641
g1677
sg355
g1605
sbsS'cstdarg'
p2932
g329
(g1636
g331
Ntp2933
Rp2934
(dp2935
g1640
g1648
sg1641
g1649
sg355
S'c:/marmalade/7.5/s3e/h/std/c++/cstdarg'
p2936
sbsS'gl2ext.h'
p2937
g329
(g1636
g331
Ntp2938
Rp2939
(dp2940
g1640
g1648
sg1641
g1913
sg355
S'c:/marmalade/7.5/s3e/h/GLES2/gl2ext.h'
p2941
sbsS'BackgroundEntity.h'
p2942
g329
(g1636
g331
Ntp2943
Rp2944
(dp2945
g1640
g1198
sg1641
g1792
sg355
g1243
sbsS'IwChar.h'
p2946
g329
(g1636
g331
Ntp2947
Rp2948
(dp2949
g1640
g1507
sg1641
g1677
sg355
g1532
sbsS's3eSound.h'
p2950
g329
(g1636
g331
Ntp2951
Rp2952
(dp2953
g1640
g1648
sg1641
g1664
sg355
S'c:/marmalade/7.5/s3e/h/s3eSound.h'
p2954
sbsS's3eIOSBackgroundAudio.h'
p2955
g329
(g1636
g331
Ntp2956
Rp2957
(dp2958
g1640
g1648
sg1641
g1875
sg355
S'c:/marmalade/7.5/s3e/h/ext/s3eIOSBackgroundAudio.h'
p2959
sbsS'exception.h'
p2960
g329
(g1636
g331
Ntp2961
Rp2962
(dp2963
g1640
g1648
sg1641
g1649
sg355
S'c:/marmalade/7.5/s3e/h/std/c++/exception.h'
p2964
sbsS'iwgeom.config.txt'
p2965
g329
(g1636
g331
Ntp2966
Rp2967
(dp2968
g1640
g1343
sg1641
g1702
sg355
g1409
sbsS'Shark.h'
p2969
g329
(g1636
g331
Ntp2970
Rp2971
(dp2972
g1640
g1198
sg1641
g1792
sg355
g1225
sbsS'iwgx.mkf'
p2973
g329
(g1636
g331
Ntp2974
Rp2975
(dp2976
g1640
g1484
sg1641
g1782
sg355
g1482
sbsS'gl.h'
p2977
g329
(g1636
g331
Ntp2978
Rp2979
(dp2980
g1640
g1648
sg1641
g2014
sg355
S'c:/marmalade/7.5/s3e/h/GLES/gl.h'
p2981
sbsS'zlib.h'
p2982
g329
(g1636
g331
Ntp2983
Rp2984
(dp2985
g1640
g1612
sg1641
g2359
sg355
g1613
sbsS'temp_defines_release.h'
p2986
g329
(g1636
g331
Ntp2987
Rp2988
(dp2989
g1640
(lp2990
sg1641
(lp2991
S"'generated files'"
p2992
asg355
S'c:/Marmalade/7.5/examples/GameTutorial/CPP/marm1/build_stage4_vc12/temp_defines_release.h'
p2993
sbsS'iwgl.mkf'
p2994
g329
(g1636
g331
Ntp2995
Rp2996
(dp2997
g1640
g1297
sg1641
g1658
sg355
g1295
sbsS'IwColour.h'
p2998
g329
(g1636
g331
Ntp2999
Rp3000
(dp3001
g1640
g1443
sg1641
g1782
sg355
g1487
sbsS's3eLibrary.h'
p3002
g329
(g1636
g331
Ntp3003
Rp3004
(dp3005
g1640
g1648
sg1641
g1875
sg355
S'c:/marmalade/7.5/s3e/h/ext/s3eLibrary.h'
p3006
sbsS'types.h'
p3007
g329
(g1636
g331
Ntp3008
Rp3009
(dp3010
g1640
g1648
sg1641
g1801
sg355
S'c:/marmalade/7.5/s3e/h/std/sys/types.h'
p3011
sbsS'ifaddrs.h'
p3012
g329
(g1636
g331
Ntp3013
Rp3014
(dp3015
g1640
g1648
sg1641
g1670
sg355
S'c:/marmalade/7.5/s3e/h/std/ifaddrs.h'
p3016
sbsS'strstream'
p3017
g329
(g1636
g331
Ntp3018
Rp3019
(dp3020
g1640
g1648
sg1641
g1649
sg355
S'c:/marmalade/7.5/s3e/h/std/c++/strstream'
p3021
sbsS'IwTween.cpp'
p3022
g329
(g1636
g331
Ntp3023
Rp3024
(dp3025
g1640
g1622
sg1641
g2178
sg355
g1623
sbsS'exception'
p3026
g329
(g1636
g331
Ntp3027
Rp3028
(dp3029
g1640
g1648
sg1641
g1649
sg355
S'c:/marmalade/7.5/s3e/h/std/c++/exception'
p3030
sbsS'Enemymanager.cpp'
p3031
g329
(g1636
g331
Ntp3032
Rp3033
(dp3034
g1640
g1198
sg1641
g1792
sg355
g1211
sbsS'Powerup.cpp'
p3035
g329
(g1636
g331
Ntp3036
Rp3037
(dp3038
g1640
g1198
sg1641
g1792
sg355
g1196
sbsS'rlocks.h'
p3039
g329
(g1636
g331
Ntp3040
Rp3041
(dp3042
g1640
g1648
sg1641
g1649
sg355
S'c:/marmalade/7.5/s3e/h/std/c++/rlocks.h'
p3043
sbsS'ioctl.h'
p3044
g329
(g1636
g331
Ntp3045
Rp3046
(dp3047
g1640
g1648
sg1641
g1801
sg355
S'c:/marmalade/7.5/s3e/h/std/sys/ioctl.h'
p3048
sbsS'sem.h'
p3049
g329
(g1636
g331
Ntp3050
Rp3051
(dp3052
g1640
g1648
sg1641
g1801
sg355
S'c:/marmalade/7.5/s3e/h/std/sys/sem.h'
p3053
sbsS'jinclude.h'
p3054
g329
(g1636
g331
Ntp3055
Rp3056
(dp3057
g1640
g1100
sg1641
g1736
sg355
g1107
sbsS'IwEvent.h'
p3058
g329
(g1636
g331
Ntp3059
Rp3060
(dp3061
g1640
g1507
sg1641
g1677
sg355
g1591
sbsS'IwOptimiseSize.h'
p3062
g329
(g1636
g331
Ntp3063
Rp3064
(dp3065
g1640
g1507
sg1641
g1677
sg355
g1556
sbsS'iwgxfont_public.defines.txt'
p3066
g329
(g1636
g331
Ntp3067
Rp3068
(dp3069
g1640
g1321
sg1641
g1642
sg355
g1337
sbsS'iconv.h'
p3070
g329
(g1636
g331
Ntp3071
Rp3072
(dp3073
g1640
g1648
sg1641
g1670
sg355
S'c:/marmalade/7.5/s3e/h/std/iconv.h'
p3074
sbsS's3eDevice.h'
p3075
g329
(g1636
g331
Ntp3076
Rp3077
(dp3078
g1640
g1648
sg1641
g1664
sg355
S'c:/marmalade/7.5/s3e/h/s3eDevice.h'
p3079
sbsS'IwGeomSphere.h'
p3080
g329
(g1636
g331
Ntp3081
Rp3082
(dp3083
g1640
g1343
sg1641
g1702
sg355
g1344
sbsS'tiniconv.mkf'
p3084
g329
(g1636
g331
Ntp3085
Rp3086
(dp3087
g1640
g1131
sg1641
g2131
sg355
g1129
sbsS'iw2dscenegraph.defines.txt'
p3088
g329
(g1636
g331
Ntp3089
Rp3090
(dp3091
g1640
g1285
sg1641
g1963
sg355
g1286
sbsS'jdct.h'
p3092
g329
(g1636
g331
Ntp3093
Rp3094
(dp3095
g1640
g1100
sg1641
g1736
sg355
g1111
sbsS'cctype'
p3096
g329
(g1636
g331
Ntp3097
Rp3098
(dp3099
g1640
g1648
sg1641
g1649
sg355
S'c:/marmalade/7.5/s3e/h/std/c++/cctype'
p3100
sbsS'IwSoundADPCM.cpp'
p3101
g329
(g1636
g331
Ntp3102
Rp3103
(dp3104
g1640
g1141
sg1641
g1688
sg355
g1174
sbsS's3eConfig.h'
p3105
g329
(g1636
g331
Ntp3106
Rp3107
(dp3108
g1640
g1648
sg1641
g1664
sg355
S'c:/marmalade/7.5/s3e/h/s3eConfig.h'
p3109
sbsS'IwHashString.h'
p3110
g329
(g1636
g331
Ntp3111
Rp3112
(dp3113
g1640
g1507
sg1641
g1677
sg355
g1572
sbsS'stat.h'
p3114
g329
(g1636
g331
Ntp3115
Rp3116
(dp3117
g1640
g1648
sg1641
g1801
sg355
S'c:/marmalade/7.5/s3e/h/std/sys/stat.h'
p3118
sbsS'byteswap.h'
p3119
g329
(g1636
g331
Ntp3120
Rp3121
(dp3122
g1640
g1648
sg1641
g1670
sg355
S'c:/marmalade/7.5/s3e/h/std/byteswap.h'
p3123
sbsS'iwresmanager.mkf'
p3124
g329
(g1636
g331
Ntp3125
Rp3126
(dp3127
g1640
g1430
sg1641
g1921
sg355
g1428
sbsS'IwUtilInitTerm.h'
p3128
g329
(g1636
g331
Ntp3129
Rp3130
(dp3131
g1640
g1507
sg1641
g1677
sg355
g1601
sbsS'pthread_1.h'
p3132
g329
(g1636
g331
Ntp3133
Rp3134
(dp3135
g1640
g1648
sg1641
g1649
sg355
S'c:/marmalade/7.5/s3e/h/std/c++/pthread.h'
p3136
sbsS'iw2d.mkf'
p3137
g329
(g1636
g331
Ntp3138
Rp3139
(dp3140
g1640
g1316
sg1641
g1741
sg355
g1314
sbsS'complex'
p3141
g329
(g1636
g331
Ntp3142
Rp3143
(dp3144
g1640
g1648
sg1641
g1649
sg355
S'c:/marmalade/7.5/s3e/h/std/c++/complex'
p3145
sbsS'algorithm'
p3146
g329
(g1636
g331
Ntp3147
Rp3148
(dp3149
g1640
g1648
sg1641
g1649
sg355
S'c:/marmalade/7.5/s3e/h/std/c++/algorithm'
p3150
sbsS's3e.icf'
p3151
g329
(g1636
g331
Ntp3152
Rp3153
(dp3154
g1640
g1648
sg1641
g1664
sg355
S'c:/marmalade/7.5/s3e/s3e.icf'
p3155
sbsS'resources.h'
p3156
g329
(g1636
g331
Ntp3157
Rp3158
(dp3159
g1640
g1198
sg1641
g1792
sg355
g1219
sbsS'IwGxFontState.h'
p3160
g329
(g1636
g331
Ntp3161
Rp3162
(dp3163
g1640
g1321
sg1641
g1642
sg355
g1326
sbsS'marmaladeexampleresources.mkf'
p3164
g329
(g1636
g331
Ntp3165
Rp3166
(dp3167
g1640
g1193
sg1641
(lp3168
g1189
asg355
g1191
sbsS'stdio.h'
p3169
g329
(g1636
g331
Ntp3170
Rp3171
(dp3172
g1640
g1648
sg1641
g1670
sg355
S'c:/marmalade/7.5/s3e/h/std/stdio.h'
p3173
sbsS'jmemsys.h'
p3174
g329
(g1636
g331
Ntp3175
Rp3176
(dp3177
g1640
g1100
sg1641
g1736
sg355
g1113
sbsS'ios'
p3178
g329
(g1636
g331
Ntp3179
Rp3180
(dp3181
g1640
g1648
sg1641
g1649
sg355
S'c:/marmalade/7.5/s3e/h/std/c++/ios'
p3182
sbsS'IwTween.h'
p3183
g329
(g1636
g331
Ntp3184
Rp3185
(dp3186
g1640
g1622
sg1641
g2178
sg355
g1620
sbsS'PVRTexTool.defines.txt'
p3187
g329
(g1636
g331
Ntp3188
Rp3189
(dp3190
g1640
g1271
sg1641
g2545
sg355
g1269
sbsS'stack'
p3191
g329
(g1636
g331
Ntp3192
Rp3193
(dp3194
g1640
g1648
sg1641
g1649
sg355
S'c:/marmalade/7.5/s3e/h/std/c++/stack'
p3195
sbsS'IwSoundParams.h'
p3196
g329
(g1636
g331
Ntp3197
Rp3198
(dp3199
g1640
g1141
sg1641
g1688
sg355
g1172
sbsS'new.h'
p3200
g329
(g1636
g331
Ntp3201
Rp3202
(dp3203
g1640
g1648
sg1641
g1649
sg355
S'c:/marmalade/7.5/s3e/h/std/c++/new.h'
p3204
sbsS's3eEMail.h'
p3205
g329
(g1636
g331
Ntp3206
Rp3207
(dp3208
g1640
g1648
sg1641
g1875
sg355
S'c:/marmalade/7.5/s3e/h/ext/s3eEMail.h'
p3209
sbsS's3eVideo.h'
p3210
g329
(g1636
g331
Ntp3211
Rp3212
(dp3213
g1640
g1648
sg1641
g1664
sg355
S'c:/marmalade/7.5/s3e/h/s3eVideo.h'
p3214
sbsS'pngconf.h'
p3215
g329
(g1636
g331
Ntp3216
Rp3217
(dp3218
g1640
g1086
sg1641
g2415
sg355
g1087
sbsS'pwd.h'
p3219
g329
(g1636
g331
Ntp3220
Rp3221
(dp3222
g1640
g1648
sg1641
g1670
sg355
S'c:/marmalade/7.5/s3e/h/std/pwd.h'
p3223
sbsS'IwOptimiseThumb.h'
p3224
g329
(g1636
g331
Ntp3225
Rp3226
(dp3227
g1640
g1507
sg1641
g1677
sg355
g1574
sbsS'gl3.h'
p3228
g329
(g1636
g331
Ntp3229
Rp3230
(dp3231
g1640
g1648
sg1641
g1974
sg355
S'c:/marmalade/7.5/s3e/h/GLES3/gl3.h'
p3232
sbsS'IwClip.h'
p3233
g329
(g1636
g331
Ntp3234
Rp3235
(dp3236
g1640
g1443
sg1641
g1782
sg355
g1456
sbsS'IwSoundInst.h'
p3237
g329
(g1636
g331
Ntp3238
Rp3239
(dp3240
g1640
g1141
sg1641
g1688
sg355
g1152
sbsS'iwresmanager.config.txt'
p3241
g329
(g1636
g331
Ntp3242
Rp3243
(dp3244
g1640
g1419
sg1641
g1921
sg355
g1431
sbsS'IwGxShaderTechnique.h'
p3245
g329
(g1636
g331
Ntp3246
Rp3247
(dp3248
g1640
g1443
sg1641
g1782
sg355
g1468
sbsS'IwCore.h'
p3249
g329
(g1636
g331
Ntp3250
Rp3251
(dp3252
g1640
g1507
sg1641
g1677
sg355
g1512
sbsS'cfloat'
p3253
g329
(g1636
g331
Ntp3254
Rp3255
(dp3256
g1640
g1648
sg1641
g1649
sg355
S'c:/marmalade/7.5/s3e/h/std/c++/cfloat'
p3257
sbsS'IwGeomMat2D.h'
p3258
g329
(g1636
g331
Ntp3259
Rp3260
(dp3261
g1640
g1343
sg1641
g1702
sg355
g1375
sbsS'IwAllocator.h'
p3262
g329
(g1636
g331
Ntp3263
Rp3264
(dp3265
g1640
g1507
sg1641
g1677
sg355
g1542
sbsS'Levelmanager.cpp'
p3266
g329
(g1636
g331
Ntp3267
Rp3268
(dp3269
g1640
g1198
sg1641
g1792
sg355
g1239
sbsS'IwPath.h'
p3270
g329
(g1636
g331
Ntp3271
Rp3272
(dp3273
g1640
g1507
sg1641
g1677
sg355
g1562
sbsS'iwgxfont.mkf'
p3274
g329
(g1636
g331
Ntp3275
Rp3276
(dp3277
g1640
g1332
sg1641
g1642
sg355
g1330
sbsS'IwTexture.h'
p3278
g329
(g1636
g331
Ntp3279
Rp3280
(dp3281
g1640
g1443
sg1641
g1782
sg355
g1446
sbsS'IwGeomVec.h.tpl'
p3282
g329
(g1636
g331
Ntp3283
Rp3284
(dp3285
g1640
g1343
sg1641
g1702
sg355
g1385
sbsS's3eAccelerometer.h'
p3286
g329
(g1636
g331
Ntp3287
Rp3288
(dp3289
g1640
g1648
sg1641
g1664
sg355
S'c:/marmalade/7.5/s3e/h/s3eAccelerometer.h'
p3290
sbsS'setjmp.h'
p3291
g329
(g1636
g331
Ntp3292
Rp3293
(dp3294
g1640
g1648
sg1641
g1670
sg355
S'c:/marmalade/7.5/s3e/h/std/setjmp.h'
p3295
sbsS'IwSoundParams.cpp'
p3296
g329
(g1636
g331
Ntp3297
Rp3298
(dp3299
g1640
g1141
sg1641
g1688
sg355
g1158
sbsS'IwFile.h'
p3300
g329
(g1636
g331
Ntp3301
Rp3302
(dp3303
g1640
g1507
sg1641
g1677
sg355
g1583
sbsS'IwTextParseable.h'
p3304
g329
(g1636
g331
Ntp3305
Rp3306
(dp3307
g1640
g1507
sg1641
g1677
sg355
g1530
sbsS'istream.h'
p3308
g329
(g1636
g331
Ntp3309
Rp3310
(dp3311
g1640
g1648
sg1641
g1649
sg355
S'c:/marmalade/7.5/s3e/h/std/c++/istream.h'
p3312
sbsS'Level.h'
p3313
g329
(g1636
g331
Ntp3314
Rp3315
(dp3316
g1640
g1198
sg1641
g1792
sg355
g1213
sbsS'stdint.h'
p3317
g329
(g1636
g331
Ntp3318
Rp3319
(dp3320
g1640
g1648
sg1641
g1670
sg355
S'c:/marmalade/7.5/s3e/h/std/stdint.h'
p3321
sbsS'semaphore.h'
p3322
g329
(g1636
g331
Ntp3323
Rp3324
(dp3325
g1640
g1648
sg1641
g1670
sg355
S'c:/marmalade/7.5/s3e/h/std/semaphore.h'
p3326
sbsS'ctime'
p3327
g329
(g1636
g331
Ntp3328
Rp3329
(dp3330
g1640
g1648
sg1641
g1649
sg355
S'c:/marmalade/7.5/s3e/h/std/c++/ctime'
p3331
sbsS'sstream'
p3332
g329
(g1636
g331
Ntp3333
Rp3334
(dp3335
g1640
g1648
sg1641
g1649
sg355
S'c:/marmalade/7.5/s3e/h/std/c++/sstream'
p3336
sbsS'IwGeomFBBox.h'
p3337
g329
(g1636
g331
Ntp3338
Rp3339
(dp3340
g1640
g1343
sg1641
g1702
sg355
g1369
sbsS'IwDebugPrim.h'
p3341
g329
(g1636
g331
Ntp3342
Rp3343
(dp3344
g1640
g1443
sg1641
g1782
sg355
g1441
sbsS'GameScene.cpp'
p3345
g329
(g1636
g331
Ntp3346
Rp3347
(dp3348
g1640
g1198
sg1641
g1792
sg355
g1241
sbsS'IwGxFontContainer.h'
p3349
g329
(g1636
g331
Ntp3350
Rp3351
(dp3352
g1640
g1321
sg1641
g1642
sg355
g1328
sbsS'IwGeomSVec3.h'
p3353
g329
(g1636
g331
Ntp3354
Rp3355
(dp3356
g1640
g1343
sg1641
g1702
sg355
g1346
sbsS'hero.h'
p3357
g329
(g1636
g331
Ntp3358
Rp3359
(dp3360
g1640
g1198
sg1641
g1792
sg355
g1207
sbsS'iw2dscenegraphcore.mkf'
p3361
g329
(g1636
g331
Ntp3362
Rp3363
(dp3364
g1640
g1497
sg1641
g2780
sg355
g1495
sbsS's3eExt.h'
p3365
g329
(g1636
g331
Ntp3366
Rp3367
(dp3368
g1640
g1648
sg1641
g1664
sg355
S'c:/marmalade/7.5/s3e/h/s3eExt.h'
p3369
sbsS'IwGeomFVec3.h'
p3370
g329
(g1636
g331
Ntp3371
Rp3372
(dp3373
g1640
g1343
sg1641
g1702
sg355
g1405
sbsS'streambuf'
p3374
g329
(g1636
g331
Ntp3375
Rp3376
(dp3377
g1640
g1648
sg1641
g1649
sg355
S'c:/marmalade/7.5/s3e/h/std/c++/streambuf'
p3378
sbsS's3eMetrics.h'
p3379
g329
(g1636
g331
Ntp3380
Rp3381
(dp3382
g1640
g1648
sg1641
g1875
sg355
S'c:/marmalade/7.5/s3e/h/ext/s3eMetrics.h'
p3383
sbsS'Shark.cpp'
p3384
g329
(g1636
g331
Ntp3385
Rp3386
(dp3387
g1640
g1198
sg1641
g1792
sg355
g1229
sbsS'IwGxFont.h'
p3388
g329
(g1636
g331
Ntp3389
Rp3390
(dp3391
g1640
g1321
sg1641
g1642
sg355
g1335
sbsS's3eSecureStorage.h'
p3392
g329
(g1636
g331
Ntp3393
Rp3394
(dp3395
g1640
g1648
sg1641
g1664
sg355
S'c:/marmalade/7.5/s3e/h/s3eSecureStorage.h'
p3396
sbsS'string.h'
p3397
g329
(g1636
g331
Ntp3398
Rp3399
(dp3400
g1640
g1648
sg1641
g1670
sg355
S'c:/marmalade/7.5/s3e/h/std/string.h'
p3401
sbsS'IwResource.h'
p3402
g329
(g1636
g331
Ntp3403
Rp3404
(dp3405
g1640
g1507
sg1641
g1677
sg355
g1603
sbsS'IwGeomSVec2.h'
p3406
g329
(g1636
g331
Ntp3407
Rp3408
(dp3409
g1640
g1343
sg1641
g1702
sg355
g1341
sbsS'libjpeg.mkf'
p3410
g329
(g1636
g331
Ntp3411
Rp3412
(dp3413
g1640
g1096
sg1641
(lp3414
g1092
asg355
g1094
sbsS'IwGxDebug.h'
p3415
g329
(g1636
g331
Ntp3416
Rp3417
(dp3418
g1640
g1443
sg1641
g1782
sg355
g1466
sbsS'float.h'
p3419
g329
(g1636
g331
Ntp3420
Rp3421
(dp3422
g1640
g1648
sg1641
g1670
sg355
S'c:/marmalade/7.5/s3e/h/std/float.h'
p3423
sbsS'iomanip.h'
p3424
g329
(g1636
g331
Ntp3425
Rp3426
(dp3427
g1640
g1648
sg1641
g1649
sg355
S'c:/marmalade/7.5/s3e/h/std/c++/iomanip.h'
p3428
sbsS'IwKeymap.h'
p3429
g329
(g1636
g331
Ntp3430
Rp3431
(dp3432
g1640
g1507
sg1641
g1677
sg355
g1548
sbsS'IwDebug.h'
p3433
g329
(g1636
g331
Ntp3434
Rp3435
(dp3436
g1640
g1507
sg1641
g1677
sg355
g1536
sbsS'IwVariableBitField.h'
p3437
g329
(g1636
g331
Ntp3438
Rp3439
(dp3440
g1640
g1507
sg1641
g1677
sg355
g1570
sbsS'IwGeomMenu.h'
p3441
g329
(g1636
g331
Ntp3442
Rp3443
(dp3444
g1640
g1343
sg1641
g1702
sg355
g1399
sbsS'IwDivTable.h'
p3445
g329
(g1636
g331
Ntp3446
Rp3447
(dp3448
g1640
g1507
sg1641
g1677
sg355
g1526
sbsS'ctype.h'
p3449
g329
(g1636
g331
Ntp3450
Rp3451
(dp3452
g1640
g1648
sg1641
g1670
sg355
S'c:/marmalade/7.5/s3e/h/std/ctype.h'
p3453
sbsS'mainMenu.cpp'
p3454
g329
(g1636
g331
Ntp3455
Rp3456
(dp3457
g1640
g1198
sg1641
g1792
sg355
g1221
sbsS'IwResGroup.h'
p3458
g329
(g1636
g331
Ntp3459
Rp3460
(dp3461
g1640
g1419
sg1641
g1921
sg355
g1433
sbsS'signal_1.h'
p3462
g329
(g1636
g331
Ntp3463
Rp3464
(dp3465
g1640
g1648
sg1641
g1801
sg355
S'c:/marmalade/7.5/s3e/h/std/sys/signal.h'
p3466
sbsS'IwSoundData.cpp'
p3467
g329
(g1636
g331
Ntp3468
Rp3469
(dp3470
g1640
g1141
sg1641
g1688
sg355
g1178
sbsS'main.cpp'
p3471
g329
(g1636
g331
Ntp3472
Rp3473
(dp3474
g1640
g1198
sg1641
g1792
sg355
g1227
sbsS'shm.h'
p3475
g329
(g1636
g331
Ntp3476
Rp3477
(dp3478
g1640
g1648
sg1641
g1801
sg355
S'c:/marmalade/7.5/s3e/h/std/sys/shm.h'
p3479
sbsS'IwManagedList.h'
p3480
g329
(g1636
g331
Ntp3481
Rp3482
(dp3483
g1640
g1507
sg1641
g1677
sg355
g1520
sbsS'prctl.h'
p3484
g329
(g1636
g331
Ntp3485
Rp3486
(dp3487
g1640
g1648
sg1641
g1801
sg355
S'c:/marmalade/7.5/s3e/h/std/sys/prctl.h'
p3488
sbsS'IwGxStream.h'
p3489
g329
(g1636
g331
Ntp3490
Rp3491
(dp3492
g1640
g1443
sg1641
g1782
sg355
g1454
sbsS'temp_defines_debug.h'
p3493
g329
(g1636
g331
Ntp3494
Rp3495
(dp3496
g1640
(lp3497
sg1641
(lp3498
g2992
asg355
S'c:/Marmalade/7.5/examples/GameTutorial/CPP/marm1/build_stage4_vc12/temp_defines_debug.h'
p3499
sbsS'utility'
p3500
g329
(g1636
g331
Ntp3501
Rp3502
(dp3503
g1640
g1648
sg1641
g1649
sg355
S'c:/marmalade/7.5/s3e/h/std/c++/utility'
p3504
sbsS'input.h'
p3505
g329
(g1636
g331
Ntp3506
Rp3507
(dp3508
g1640
g1198
sg1641
g1792
sg355
g1215
sbsS'Levelmanager.h'
p3509
g329
(g1636
g331
Ntp3510
Rp3511
(dp3512
g1640
g1198
sg1641
g1792
sg355
g1235
sbsS'IwGeomLegacy.h'
p3513
g329
(g1636
g331
Ntp3514
Rp3515
(dp3516
g1640
g1343
sg1641
g1702
sg355
g1363
sbsS'IwTPage.h'
p3517
g329
(g1636
g331
Ntp3518
Rp3519
(dp3520
g1640
g1443
sg1641
g1782
sg355
g1491
sbsS'IwResSerialise.h'
p3521
g329
(g1636
g331
Ntp3522
Rp3523
(dp3524
g1640
g1419
sg1641
g1921
sg355
g1420
sbsS's3eCrypto.h'
p3525
g329
(g1636
g331
Ntp3526
Rp3527
(dp3528
g1640
g1648
sg1641
g1664
sg355
S'c:/marmalade/7.5/s3e/h/s3eCrypto.h'
p3529
sbsS's3eKeyboard.h'
p3530
g329
(g1636
g331
Ntp3531
Rp3532
(dp3533
g1640
g1648
sg1641
g1664
sg355
S'c:/marmalade/7.5/s3e/h/s3eKeyboard.h'
p3534
sbsS'fcntl.h'
p3535
g329
(g1636
g331
Ntp3536
Rp3537
(dp3538
g1640
g1648
sg1641
g1670
sg355
S'c:/marmalade/7.5/s3e/h/std/fcntl.h'
p3539
sbsS'Iw2DSceneGraphCore.h'
p3540
g329
(g1636
g331
Ntp3541
Rp3542
(dp3543
g1640
g1500
sg1641
g2780
sg355
g1498
sbsS'memory.h'
p3544
g329
(g1636
g331
Ntp3545
Rp3546
(dp3547
g1640
g1648
sg1641
g1670
sg355
S'c:/marmalade/7.5/s3e/h/std/memory.h'
p3548
sbsS'Entity.h'
p3549
g329
(g1636
g331
Ntp3550
Rp3551
(dp3552
g1640
g1198
sg1641
g1792
sg355
g1205
sbsS'pthread.h'
p3553
g329
(g1636
g331
Ntp3554
Rp3555
(dp3556
g1640
g1648
sg1641
g1670
sg355
S'c:/marmalade/7.5/s3e/h/std/pthread.h'
p3557
sbsS'IwGeomIntersect.h'
p3558
g329
(g1636
g331
Ntp3559
Rp3560
(dp3561
g1640
g1343
sg1641
g1702
sg355
g1389
sbsS'IwTextParserITX.h'
p3562
g329
(g1636
g331
Ntp3563
Rp3564
(dp3565
g1640
g1507
sg1641
g1677
sg355
g1546
sbsS'IwClip.inl'
p3566
g329
(g1636
g331
Ntp3567
Rp3568
(dp3569
g1640
g1443
sg1641
g1782
sg355
g1476
sbsS'Iw2DSceneGraph.cpp'
p3570
g329
(g1636
g331
Ntp3571
Rp3572
(dp3573
g1640
g1285
sg1641
g1963
sg355
g1283
sbsS'ostream.h'
p3574
g329
(g1636
g331
Ntp3575
Rp3576
(dp3577
g1640
g1648
sg1641
g1649
sg355
S'c:/marmalade/7.5/s3e/h/std/c++/ostream.h'
p3578
sbsS'stl_user_config.h'
p3579
g329
(g1636
g331
Ntp3580
Rp3581
(dp3582
g1640
g1648
sg1641
g1649
sg355
S'c:/marmalade/7.5/s3e/h/std/c++/stl_user_config.h'
p3583
sbsS'IwProfileMenu.h'
p3584
g329
(g1636
g331
Ntp3585
Rp3586
(dp3587
g1640
g1507
sg1641
g1677
sg355
g1522
sbsS'MarmaladeVersion.h'
p3588
g329
(g1636
g331
Ntp3589
Rp3590
(dp3591
g1640
g1648
sg1641
g1664
sg355
S'c:/marmalade/7.5/s3e/h/MarmaladeVersion.h'
p3592
sbsS'IwResHandlerWAV.h'
p3593
g329
(g1636
g331
Ntp3594
Rp3595
(dp3596
g1640
g1141
sg1641
g1688
sg355
g1146
sbsS'gl3platform.h'
p3597
g329
(g1636
g331
Ntp3598
Rp3599
(dp3600
g1640
g1648
sg1641
g1974
sg355
S'c:/marmalade/7.5/s3e/h/GLES3/gl3platform.h'
p3601
sbsS'ios.h'
p3602
g329
(g1636
g331
Ntp3603
Rp3604
(dp3605
g1640
g1648
sg1641
g1649
sg355
S'c:/marmalade/7.5/s3e/h/std/c++/ios.h'
p3606
sbsS'IwImageHelper.h'
p3607
g329
(g1636
g331
Ntp3608
Rp3609
(dp3610
g1640
g1507
sg1641
g1677
sg355
g1518
sbsS'hash_set'
p3611
g329
(g1636
g331
Ntp3612
Rp3613
(dp3614
g1640
g1648
sg1641
g1649
sg355
S'c:/marmalade/7.5/s3e/h/std/c++/hash_set'
p3615
sbsS'IwGeomFQuat.h'
p3616
g329
(g1636
g331
Ntp3617
Rp3618
(dp3619
g1640
g1343
sg1641
g1702
sg355
g1353
sbsS'jmorecfg.h'
p3620
g329
(g1636
g331
Ntp3621
Rp3622
(dp3623
g1640
g1100
sg1641
g1736
sg355
g1109
sbsS'eglplatform.h'
p3624
g329
(g1636
g331
Ntp3625
Rp3626
(dp3627
g1640
g1648
sg1641
g2006
sg355
S'c:/marmalade/7.5/s3e/h/EGL/eglplatform.h'
p3628
sbsS'cmath'
p3629
g329
(g1636
g331
Ntp3630
Rp3631
(dp3632
g1640
g1648
sg1641
g1649
sg355
S'c:/marmalade/7.5/s3e/h/std/c++/cmath'
p3633
sbsS'math_gcc.h'
p3634
g329
(g1636
g331
Ntp3635
Rp3636
(dp3637
g1640
g1648
sg1641
g1670
sg355
S'c:/marmalade/7.5/s3e/h/std/math_gcc.h'
p3638
sbsS's3eMemory.h'
p3639
g329
(g1636
g331
Ntp3640
Rp3641
(dp3642
g1640
g1648
sg1641
g1664
sg355
S'c:/marmalade/7.5/s3e/h/s3eMemory.h'
p3643
sbsS'strings.h'
p3644
g329
(g1636
g331
Ntp3645
Rp3646
(dp3647
g1640
g1648
sg1641
g1670
sg355
S'c:/marmalade/7.5/s3e/h/std/strings.h'
p3648
sbsS's3eFile.h'
p3649
g329
(g1636
g331
Ntp3650
Rp3651
(dp3652
g1640
g1648
sg1641
g1664
sg355
S'c:/marmalade/7.5/s3e/h/s3eFile.h'
p3653
sbsS'IwGxTypes.h'
p3654
g329
(g1636
g331
Ntp3655
Rp3656
(dp3657
g1640
g1443
sg1641
g1782
sg355
g1480
sbsS'cerrno'
p3658
g329
(g1636
g331
Ntp3659
Rp3660
(dp3661
g1640
g1648
sg1641
g1649
sg355
S'c:/marmalade/7.5/s3e/h/std/c++/cerrno'
p3662
sbsS'IwSoundManager.cpp'
p3663
g329
(g1636
g331
Ntp3664
Rp3665
(dp3666
g1640
g1141
sg1641
g1688
sg355
g1154
sbsS'main.h'
p3667
g329
(g1636
g331
Ntp3668
Rp3669
(dp3670
g1640
g1198
sg1641
g1792
sg355
g1203
sbsS'soundengine.mkf'
p3671
g329
(g1636
g331
Ntp3672
Rp3673
(dp3674
g1640
g1186
sg1641
g1688
sg355
g1184
sbsS'resource.h'
p3675
g329
(g1636
g331
Ntp3676
Rp3677
(dp3678
g1640
g1648
sg1641
g1801
sg355
S'c:/marmalade/7.5/s3e/h/std/sys/resource.h'
p3679
sbsS'clocale'
p3680
g329
(g1636
g331
Ntp3681
Rp3682
(dp3683
g1640
g1648
sg1641
g1649
sg355
S'c:/marmalade/7.5/s3e/h/std/c++/clocale'
p3684
sbsS'pvrtextool.mkf'
p3685
g329
(g1636
g331
Ntp3686
Rp3687
(dp3688
g1640
g1278
sg1641
g2287
sg355
g1276
sbsS'csetjmp'
p3689
g329
(g1636
g331
Ntp3690
Rp3691
(dp3692
g1640
g1648
sg1641
g1649
sg355
S'c:/marmalade/7.5/s3e/h/std/c++/csetjmp'
p3693
sbsS'netdb.h'
p3694
g329
(g1636
g331
Ntp3695
Rp3696
(dp3697
g1640
g1648
sg1641
g1670
sg355
S'c:/marmalade/7.5/s3e/h/std/netdb.h'
p3698
sbsS's3eAndroidJNI.h'
p3699
g329
(g1636
g331
Ntp3700
Rp3701
(dp3702
g1640
g1648
sg1641
g1875
sg355
S'c:/marmalade/7.5/s3e/h/ext/s3eAndroidJNI.h'
p3703
sbsS'stdexcept'
p3704
g329
(g1636
g331
Ntp3705
Rp3706
(dp3707
g1640
g1648
sg1641
g1649
sg355
S'c:/marmalade/7.5/s3e/h/std/c++/stdexcept'
p3708
sbsS'math.h'
p3709
g329
(g1636
g331
Ntp3710
Rp3711
(dp3712
g1640
g1648
sg1641
g1670
sg355
S'c:/marmalade/7.5/s3e/h/std/math.h'
p3713
sbsS'stdbool.h'
p3714
g329
(g1636
g331
Ntp3715
Rp3716
(dp3717
g1640
g1648
sg1641
g1670
sg355
S'c:/marmalade/7.5/s3e/h/std/stdbool.h'
p3718
sbsS'uio.h'
p3719
g329
(g1636
g331
Ntp3720
Rp3721
(dp3722
g1640
g1648
sg1641
g1801
sg355
S'c:/marmalade/7.5/s3e/h/std/sys/uio.h'
p3723
sbsS'IwUncopyable.h'
p3724
g329
(g1636
g331
Ntp3725
Rp3726
(dp3727
g1640
g1507
sg1641
g1677
sg355
g1585
sbssS'juice_build_type'
p3728
g4
sS'tests'
p3729
(lp3730
sS'project_name'
p3731
g337
sS'root_file'
p3732
g135
sS'current_root'
p3733
S'c:/Marmalade/7.5/examples/GameTutorial/CPP/marm1'
p3734
sS'dependencies'
p3735
(lp3736
sS'include_paths'
p3737
(lp3738
S'c:/marmalade/7.5/modules/iw2d/h'
p3739
aS'c:/marmalade/7.5/modules/iwgx/h'
p3740
aS'c:/marmalade/7.5/modules/iwgl/h'
p3741
aS'c:/marmalade/7.5/modules/iwutil/h'
p3742
aS'c:/marmalade/7.5/modules/third_party/libjpeg/h'
p3743
aS'c:/marmalade/7.5/modules/third_party/zlib/h'
p3744
aS'c:/marmalade/7.5/modules/third_party/libpng/h'
p3745
aS'c:/marmalade/7.5/modules/iwgeom/h'
p3746
aS'c:/marmalade/7.5/modules/iwresmanager/h'
p3747
aS'c:/marmalade/7.5/extensions/pvrtextool/h'
p3748
aS'c:/marmalade/7.5/modules/iwgxfont/h'
p3749
aS'c:/marmalade/7.5/modules/third_party/tiniconv/source'
p3750
aS'c:/marmalade/7.5/modules/iw2dscenegraph/h'
p3751
aS'c:/marmalade/7.5/modules/iw2dscenegraphcore/h'
p3752
aS'c:/marmalade/7.5/modules/iwtween/h'
p3753
aS'c:/marmalade/7.5/examples/gametutorial/cpp/modules/soundengine/h'
p3754
aS'c:/marmalade/7.5/examples/gametutorial/cpp/modules/soundengine/source'
p3755
aS'c:/marmalade/7.5/s3e/h'
p3756
aS'c:/marmalade/7.5/s3e/h/ext'
p3757
aS'c:/marmalade/7.5/s3e/h/std'
p3758
aS'c:/marmalade/7.5/s3e/h/std/c++'
p3759
aS'c:/marmalade/7.5/s3e/h/ext_legacy'
p3760
aS'c:/marmalade/7.5/s3e/h/legacy'
p3761
asS'weak_frameworks'
p3762
(lp3763
sS'extprojects'
p3764
(dp3765
sg599
(dp3766
g593
(lp3767
(S'c:/Marmalade/7.5/examples/GameTutorial/CPP/marm1/data/audio'
p3768
S'audio'
p3769
I0
tp3770
a(S'c:/Marmalade/7.5/examples/GameTutorial/CPP/marm1/data/textures'
p3771
S'textures'
p3772
I0
tp3773
a(S'c:/Marmalade/7.5/examples/GameTutorial/CPP/marm1/data/fonts'
p3774
S'fonts'
p3775
I0
tp3776
a(S'c:/Marmalade/7.5/examples/GameTutorial/CPP/marm1/data-ram/data-gles1,c:/Marmalade/7.5/examples/GameTutorial/CPP/marm1/data'
p3777
S'.'
p3778
I0
tp3779
assS'macro_types'
p3780
(dp3781
g528
I1
sg529
I0
sg530
I0
sg531
I0
sg533
I0
sg534
I0
sg535
I0
sg536
I0
sg537
I0
sg539
I0
sg540
I0
sg541
I0
sg542
I0
sg543
I0
sg545
I0
sg547
I0
sg548
I0
sg549
I0
sg550
I0
sg551
I0
sg552
I0
sg553
I0
sg554
I0
sg555
I1
sg556
I0
sg557
I0
sg558
I0
sg559
I0
sg560
I01
sg561
I1
sg562
I0
sg563
I0
sg564
I0
sg565
I0
sg566
I0
sg567
I0
sg568
I0
ssS'commands'
p3782
(lp3783
sg601
(g1073
S'VC12'
p3784
S'X86ARMAARCH64'
p3785
tp3786
sS'build_libs'
p3787
(dp3788
sg603
g0
sS'frameworks'
p3789
(lp3790
sS'environ'
p3791
(dp3792
sS'target_name_debug'
p3793
g337
sS'builders'
p3794
(dp3795
g593
(dp3796
S'.S'
p3797
(dp3798
S'gcc_aarch64'
p3799
(lp3800
S'.obj'
p3801
aS'echo AARCH64 Assembling(GCC) ${SOURCE}...'
p3802
aS'c:/marmalade/7.5/s3e\\gcc\\win32\\aarch64\\bin\\aarch64-none-elf-gcc -c -o ${TARGET} ${SOURCE}'
p3803
asS'rvct'
p3804
(lp3805
g3801
aS'echo ARM Assembling(RVCT) ${SOURCE}...'
p3806
aS'c:/marmalade/7.5/s3e\\rvct\\bin\\armasm -o ${TARGET} ${SOURCE}'
p3807
asg451
(lp3808
g3801
aS'echo ARM Assembling(GCC) ${SOURCE}...'
p3809
aS'c:/marmalade/7.5/s3e\\gcc\\win32\\arm\\bin\\arm-none-eabi-gcc -c -o ${TARGET} ${SOURCE}'
p3810
asS'ppu'
p3811
(lp3812
S'.a'
p3813
aS'echo PPU Assembling(SNC) ${SOURCE}...'
p3814
aS'c:/marmalade/7.5/s3e\\rvct\\bin\\armasm -o ${TARGET} ${SOURCE}'
p3815
assS'.s'
p3816
g3798
sS'.vp'
p3817
(lp3818
NaS'"C:/Marmalade/7.5/s3e/python/python.exe" "c:/marmalade/7.5/modules/iwgx/tools/compile_shaders.py" ${SOURCE}'
p3819
asssS'extproject_names'
p3820
(lp3821
sbtp3822
.