((dp0
S'arm_dbg_args'
p1
S'-via:"c:\\Marmalade\\7.6\\examples\\GameTutorial\\CPP\\marm1\\build_stage4_vc12\\Stage4_vc12_arm_debug.via" -qemu'
p2
sS'game-icf'
p3
S''
p4
sS'dist'
p5
NsS'csproj'
p6
g4
sS'module_path_append'
p7
NsS'global_path'
p8
S'c:\\marmalade\\7.6\\examples\\gametutorial\\cpp'
p9
sS'system_path'
p10
S'c:\\marmalade\\7.6\\s3e\\makefile_builder'
p11
sS'android_x86_dbg_args'
p12
S'../../tools/DeployTool/DeployTool.exe --dir "c:\\Marmalade\\7.6\\examples\\GameTutorial\\CPP\\marm1\\build_stage4_vc12"'
p13
sS'aarch64-arch-mod'
p14
g4
sS'no-emit'
p15
NsS'arm-float-abi'
p16
g4
sS'arm_rel_rtsm_args'
p17
S'-via:"c:\\Marmalade\\7.6\\examples\\GameTutorial\\CPP\\marm1\\build_stage4_vc12\\Stage4_vc12_arm_release.via" -qemu'
p18
sS'amd64'
p19
NsS'line-width'
p20
I80
sS'gcc_dbg_args'
p21
S'-via:"c:\\Marmalade\\7.6\\examples\\GameTutorial\\CPP\\marm1\\build_stage4_vc12\\Stage4_vc12_gcc_debug.via" -qemu'
p22
sS'android-x86'
p23
NsS'x86_dbg_exe'
p24
S'c:/marmalade/7.6/s3e\\win32\\s3e_simulator_debug.exe'
p25
sS'disable-runtime-checks'
p26
NsS'release'
p27
NsS'no-make'
p28
NsS'xcode-x86-build-settings'
p29
g4
sS'optimise-size'
p30
NsS'fat'
p31
NsS'output-name-debug'
p32
g4
sS'arm-fpu'
p33
g4
sS'proj_name'
p34
S'Stage4_vc12'
p35
sS'rvct-version'
p36
S'none'
p37
sS'compiler'
p38
g4
sS'execute'
p39
NsS'compile-static'
p40
NsS'msvc-project'
p41
I01
sS'buildenv'
p42
S'VC12'
p43
sS'quick'
p44
NsS'module_path'
p45
(lp46
S'c:/Marmalade/7.6/examples/GameTutorial/CPP/modules'
p47
asS'mkf_default'
p48
S's3e-default.mkf'
p49
sS'use-release-std-libs'
p50
NsS'using_perforce'
p51
I00
sS'tizen-x86'
p52
NsS'mips-s3e'
p53
NsS's3e-api-lib-name'
p54
S's3e_api_iwgl'
p55
sS'ios-no-pic'
p56
NsS'shared-arm-lib'
p57
NsS'arm-cpu'
p58
g4
sS'compile-thumb'
p59
NsS'no-ide'
p60
NsS'msvc-version'
p61
S'6.0'
p62
sS'arm'
p63
NsS'builddir'
p64
g4
sS'compile-debug-as-release'
p65
I0
sS'arm-arch'
p66
g4
sS'brief'
p67
NsS'dll'
p68
NsS'buildenv-toolset'
p69
g4
sS'version'
p70
NsS'aarch64-arch'
p71
g4
sS'ccache'
p72
I0
sS'offline'
p73
NsS'ios-version'
p74
g4
sS'hub_data'
p75
g4
sS'fake_vc_call'
p76
I01
sS'jobs'
p77
I0
sS'linkflags'
p78
NsS'gcc_aarch64_dbg_args'
p79
g13
sS'debug'
p80
NsS'xcode-build-order'
p81
g4
sS'gcc_aarch64_rel_rtsm_args'
p82
S'-via:"c:\\Marmalade\\7.6\\examples\\GameTutorial\\CPP\\marm1\\build_stage4_vc12\\Stage4_vc12_gcc_aarch64_release.via" -qemu'
p83
sS'gcc_rel_rtsm_args'
p84
S'-via:"c:\\Marmalade\\7.6\\examples\\GameTutorial\\CPP\\marm1\\build_stage4_vc12\\Stage4_vc12_gcc_release.via" -qemu'
p85
sS'done_defaults'
p86
I1
sS'path'
p87
NsS's3e-data-dir'
p88
S'c:/Marmalade/7.6/examples/GameTutorial/CPP/marm1\\data'
p89
sS'enable-exceptions'
p90
NsS'osx-dll'
p91
NsS'extension'
p92
g4
sS'no-vc6'
p93
NsS'aarch64'
p94
NsS'win32-console'
p95
NsS'dist-format'
p96
g4
sS's3e-force-arch'
p97
NsS'dump_defines'
p98
NsS'use-shared-std-libs'
p99
NsS'gcc-version'
p100
g4
sS'x86_dbg_args'
p101
S'-via:"c:\\Marmalade\\7.6\\examples\\GameTutorial\\CPP\\marm1\\build_stage4_vc12\\Stage4_vc12_debug.via"'
p102
sS'tizen_x86_dbg_args'
p103
g13
sS'arm-debugger'
p104
g4
sS'use_temp_extension'
p105
NsS'verbose'
p106
I0
sS'log'
p107
NsS'no-strip'
p108
NsS'rebuild'
p109
NsS'mips_dbg_args'
p110
g13
sS'win32-simulator-dll'
p111
NsS'strict'
p112
NsS'xcode-aarch64-build-settings'
p113
g4
sS'enable-global-path'
p114
NsS'gcc_aarch64_rel_args'
p115
g13
sS'cflags'
p116
(lp117
S'-std=gnu++0x'
p118
asS'dist-dir'
p119
g4
sS'xcode-arm-build-settings'
p120
g4
sS'jflags'
p121
NsS'csprojSDKRefs'
p122
g4
sS'tizen_x86_rel_exe'
p123
S'c:\\marmalade\\7.6\\s3e\\makefile_builder\\tool_launcher.exe'
p124
sS'test-assets'
p125
g4
sS'distcc'
p126
NsS'external-compiler'
p127
NsS'no-distcc'
p128
NsS'preinclude'
p129
NsS'using_sdk'
p130
I01
sS'nologo'
p131
NsS'warn-level'
p132
I2
sS'mips_dbg_exe'
p133
g124
sS'mkb_in'
p134
S'c:/Marmalade/7.6/examples/GameTutorial/CPP/marm1/Stage4.mkb'
p135
sS'tizen_x86_dbg_exe'
p136
g124
sS'arm_dbg_exe'
p137
S'c:/marmalade/7.6/s3e\\bin\\armdebug.exe'
p138
sS'mdev-first'
p139
NsS'csprojDLLRef'
p140
NsS'tizen_x86_rel_args'
p141
g13
sS'android_x86_dbg_exe'
p142
g124
sS'test-config'
p143
g4
sS'list-targets'
p144
NsS'arm_rel_exe'
p145
g124
sS'arm_rel_args'
p146
g13
sS'makedeps'
p147
NsS'android_x86_rel_exe'
p148
g124
sS'default-buildenv'
p149
S'vc12'
p150
sS'x86_rel_exe'
p151
g25
sS'preprocess-java'
p152
NsS'mips_rel_args'
p153
g13
sS'defines'
p154
NsS'lib'
p155
NsS'non-interactive'
p156
NsS'global_argv'
p157
(lp158
S'C:\\Marmalade\\7.6\\s3e\\makefile_builder\\mkb.py'
p159
aS'c:/Marmalade/7.6/examples/GameTutorial/CPP/marm1/Stage4.mkb'
p160
aS'--buildenv=VC12'
p161
aS'--fake-vc-call'
p162
aS'--default-buildenv=vc12'
p163
aS'--msvc-project'
p164
asS'make'
p165
NsS'optimise-speed'
p166
NsS'internal'
p167
NsS'enable-stdinc'
p168
NsS'deploy-only'
p169
NsS'x86'
p170
NsS'deploy'
p171
g4
sS'x86_run_exe'
p172
S'c:/marmalade/7.6/s3e\\win32\\s3e_console.exe'
p173
sS'cxxflags'
p174
NsS'x86_rel_args'
p175
S'-via:"c:\\Marmalade\\7.6\\examples\\GameTutorial\\CPP\\marm1\\build_stage4_vc12\\Stage4_vc12_release.via"'
p176
sS'gcc_rel_args'
p177
g13
sS'mips'
p178
NsS'xcode-build-settings'
p179
g4
sS'incredibuild'
p180
NsS'strict-compile'
p181
NsS'use-auto-subdirs'
p182
NsS'mips_rel_exe'
p183
g124
sS'android_x86_rel_args'
p184
g13
sS'app-icf'
p185
g4
sS'deployargs'
p186
NsS'iosnativedebug'
p187
NsS'use_prebuilt'
p188
NsS'mkf_in'
p189
(lp190
S'c:\\marmalade\\7.6\\s3e\\s3e-default.mkf'
p191
aS'c:\\marmalade\\7.6\\modules\\iw2d\\iw2d.mkf'
p192
aS'c:\\marmalade\\7.6\\modules\\iwgx\\iwgx.mkf'
p193
aS'c:\\marmalade\\7.6\\modules\\iwgl\\iwgl.mkf'
p194
aS'c:\\marmalade\\7.6\\modules\\iwutil\\iwutil.mkf'
p195
aS'c:\\marmalade\\7.6\\modules\\third_party\\libjpeg\\libjpeg.mkf'
p196
aS'c:\\marmalade\\7.6\\modules\\third_party\\libpng\\libpng.mkf'
p197
aS'c:\\marmalade\\7.6\\modules\\third_party\\zlib\\zlib.mkf'
p198
aS'c:\\marmalade\\7.6\\modules\\iwgeom\\iwgeom.mkf'
p199
aS'c:\\marmalade\\7.6\\modules\\iwresmanager\\iwresmanager.mkf'
p200
aS'c:\\marmalade\\7.6\\extensions\\pvrtextool\\pvrtextool.mkf'
p201
aS'c:\\marmalade\\7.6\\modules\\iwgxfont\\iwgxfont.mkf'
p202
aS'c:\\marmalade\\7.6\\modules\\third_party\\tiniconv\\tiniconv.mkf'
p203
aS'c:\\marmalade\\7.6\\modules\\iw2dscenegraph\\iw2dscenegraph.mkf'
p204
aS'c:\\marmalade\\7.6\\modules\\iw2dscenegraphcore\\iw2dscenegraphcore.mkf'
p205
aS'c:\\marmalade\\7.6\\modules\\iwtween\\iwtween.mkf'
p206
aS'c:\\marmalade\\7.6\\examples\\gametutorial\\cpp\\modules\\soundengine\\soundengine.mkf'
p207
aS'c:\\marmalade\\7.6\\examples\\marmaladeexampleresources\\marmaladeexampleresources.mkf'
p208
asS'strict-mkb'
p209
NsS'executeargs'
p210
NsS'clean'
p211
NsS'no-asm'
p212
NsS'output-name'
p213
g4
sS'no-modules'
p214
NsS'find_define'
p215
g4
s(dp216
S'c:\\marmalade\\7.6\\s3e\\makefile_builder\\templates\\win32_sln.pyc'
p217
F1426254158.0
sS'c:\\marmalade\\7.6\\s3e\\makefile_builder\\templates\\ws81_sln.pyc'
p218
F1426254158.0
sS'c:\\marmalade\\7.6\\s3e\\makefile_builder\\templates\\qmake.py'
p219
F1426247824.0
sS'c:\\marmalade\\7.6\\s3e\\makefile_builder\\templates\\xcode_pbxuser.py'
p220
F1426247824.0
sS'c:\\marmalade\\7.6\\s3e\\makefile_builder\\docs\\deprecated.defines.txt'
p221
F1426247822.0
sS'c:\\marmalade\\7.6\\s3e\\makefile_builder\\plugins\\ws81_ws81.pyc'
p222
F1426254156.0
sS'c:\\marmalade\\7.6\\s3e\\makefile_builder\\plugins\\xcode4_schememanagement.pyc'
p223
F1426761766.5207865
sS'c:\\marmalade\\7.6\\s3e\\makefile_builder\\plugins\\deploy.pyc'
p224
F1426254156.0
sS'c:\\marmalade\\7.6\\s3e\\makefile_builder\\templates'
p225
F1426760287.369184
sS'c:\\marmalade\\7.6\\s3e\\makefile_builder\\templates\\ws81_csproj.pyc'
p226
F1426254158.0
sS'c:\\marmalade\\7.6\\s3e\\makefile_builder\\plugins\\ws8_ws8.pyc'
p227
F1426254156.0
sS'c:\\marmalade\\7.6\\s3e\\makefile_builder\\templates\\gdb_start.txt'
p228
F1426247824.0
sS'c:\\marmalade\\7.6\\s3e\\makefile_builder\\templates\\vc6_opt.pyc'
p229
F1426254158.0
sS'c:\\marmalade\\7.6\\s3e\\makefile_builder\\plugins\\wp8_wp8.pyc'
p230
F1426254156.0
sS'c:\\marmalade\\7.6\\s3e\\makefile_builder\\templates\\ws8_csproj_user.pyc'
p231
F1426254158.0
sS'c:\\marmalade\\7.6\\s3e\\makefile_builder\\templates\\wp8_csproj_user.pyc'
p232
F1426254158.0
sS'c:\\marmalade\\7.6\\s3e\\makefile_builder\\plugins\\s3e_win8.pyc'
p233
F1426254156.0
sS'c:\\marmalade\\7.6\\s3e\\makefile_builder\\mkb_upstream.pyc'
p234
F1426254156.0
sS'c:\\marmalade\\7.6\\s3e\\makefile_builder\\mkb_parser.pyc'
p235
F1426254156.0
sS'c:\\marmalade\\7.6\\s3e\\makefile_builder\\templates\\xcode.py'
p236
F1426247824.0
sS'c:\\marmalade\\7.6\\s3e\\makefile_builder\\plugins\\s3e_qmake.py'
p237
F1426247824.0
sS'c:\\marmalade\\7.6\\s3e\\makefile_builder\\templates\\ws81_vcxproj.pyc'
p238
F1426254158.0
sS'c:\\marmalade\\7.6\\s3e\\makefile_builder\\plugins\\Emitter.pyc'
p239
F1426254156.0
sS'c:\\marmalade\\7.6\\s3e\\makefile_builder\\templates\\win8_csproj_user.pyc'
p240
F1426254158.0
sS'c:\\marmalade\\7.6\\s3e\\makefile_builder\\templates\\xcode4_arm.xcscheme'
p241
F1426247824.0
sS'c:\\marmalade\\7.6\\s3e\\makefile_builder\\plugins\\s3e_xcode.py'
p242
F1426247824.0
sS'c:\\marmalade\\7.6\\s3e\\makefile_builder\\templates\\win32_dsp.pyc'
p243
F1426254158.0
sS'c:\\marmalade\\7.6\\s3e\\makefile_builder\\plugins\\osx_scons.pyc'
p244
F1426254156.0
sS'c:\\marmalade\\7.6\\s3e\\makefile_builder\\templates\\vc8_user.pyc'
p245
F1426254158.0
sS'c:\\marmalade\\7.6\\s3e\\makefile_builder\\templates\\wp81_vcxproj.pyc'
p246
F1426254158.0
sS'c:\\marmalade\\7.6\\s3e\\makefile_builder\\plugins\\osx_xcode.pyc'
p247
F1426254156.0
sS'c:\\marmalade\\7.6\\s3e\\makefile_builder\\plugins\\MakeEmitter.pyc'
p248
F1426254156.0
sS'c:\\marmalade\\7.6\\s3e\\makefile_builder\\plugins\\xcode4_schememanagement.py'
p249
F1426247824.0
sS'c:\\marmalade\\7.6\\s3e\\makefile_builder\\templates\\ws8_sln.pyc'
p250
F1426254158.0
sS'c:\\marmalade\\7.6\\s3e\\makefile_builder\\plugins\\null.pyc'
p251
F1426254156.0
sS'c:\\marmalade\\7.6\\s3e\\makefile_builder\\docs\\parse_options.pyc'
p252
F1426254158.0
sS'c:\\marmalade\\7.6\\s3e\\makefile_builder\\plugins\\s3e_wp8.pyc'
p253
F1426254156.0
sS'c:\\marmalade\\7.6\\s3e\\makefile_builder\\templates\\wp81_ext_sln.pyc'
p254
F1426254158.0
sS'c:\\marmalade\\7.6\\s3e\\makefile_builder\\mkb_launcher.exe'
p255
F1426248470.0
sS'c:\\marmalade\\7.6\\s3e\\makefile_builder\\mkb.py'
p256
F1426247822.0
sS'c:\\marmalade\\7.6\\s3e\\makefile_builder\\plugins\\iphone.pyc'
p257
F1426254156.0
sS'c:\\marmalade\\7.6\\s3e\\makefile_builder\\tool_launcher.exe'
p258
F1426248470.0
sS'c:\\marmalade\\7.6\\s3e\\makefile_builder\\plugins\\vc7_utils.pyc'
p259
F1426254156.0
sS'c:\\marmalade\\7.6\\s3e\\makefile_builder\\plugins\\s3e_scons.pyc'
p260
F1426254156.0
sS'c:\\marmalade\\7.6\\s3e\\makefile_builder\\templates\\wp81_csproj_user.pyc'
p261
F1426254158.0
sS'c:\\marmalade\\7.6\\s3e\\makefile_builder\\templates\\win32_dsw.pyc'
p262
F1426254158.0
sS'c:\\marmalade\\7.6\\s3e\\makefile_builder\\plugins\\win8_utils.pyc'
p263
F1426254156.0
sS'c:\\marmalade\\7.6\\s3e\\makefile_builder\\templates\\ws81_csproj_user.pyc'
p264
F1426254158.0
sS'c:\\marmalade\\7.6\\s3e\\makefile_builder\\plugins\\s3e_web.pyc'
p265
F1426254156.0
sS'c:\\marmalade\\7.6\\s3e\\makefile_builder\\templates\\win32_vcproj.pyc'
p266
F1426254158.0
sS'c:\\marmalade\\7.6\\s3e\\makefile_builder\\docs\\deprecated.options.txt'
p267
F1426247822.0
sS'c:\\marmalade\\7.6\\s3e\\makefile_builder\\plugins\\s3e_ws8.pyc'
p268
F1426254156.0
sS'c:\\marmalade\\7.6\\s3e\\makefile_builder\\templates\\vc7_suo.pyc'
p269
F1426254158.0
sS'c:\\marmalade\\7.6\\s3e\\makefile_builder\\plugins\\vc6_utils.pyc'
p270
F1426254156.0
sS'c:\\marmalade\\7.6\\s3e\\makefile_builder\\docs\\options.txt'
p271
F1426247822.0
sS'c:\\marmalade\\7.6\\s3e\\makefile_builder\\templates\\win8_csproj.pyc'
p272
F1426254158.0
sS'c:\\marmalade\\7.6\\s3e\\makefile_builder\\templates\\wp8_ext_csproj.pyc'
p273
F1426254158.0
sS'c:\\marmalade\\7.6\\s3e\\makefile_builder\\plugins\\VisualStudioEmitter.pyc'
p274
F1426254156.0
sS'c:\\marmalade\\7.6\\s3e\\makefile_builder\\deployment.pyc'
p275
F1426254156.0
sS'c:\\marmalade\\7.6\\s3e\\makefile_builder\\templates\\wp8_vcxproj.pyc'
p276
F1426254158.0
sS'c:\\marmalade\\7.6\\s3e\\makefile_builder\\templates\\win8_vcxproj.pyc'
p277
F1426254158.0
sS'c:\\marmalade\\7.6\\s3e\\makefile_builder\\plugins\\s3e_xcode.pyc'
p278
F1426761766.8488052
sS'c:\\marmalade\\7.6\\s3e\\makefile_builder\\templates\\xcode4_DeployTool.xcscheme'
p279
F1426247824.0
sS'c:\\marmalade\\7.6\\s3e\\makefile_builder\\templates\\wp8_csproj.pyc'
p280
F1426254158.0
sS'c:\\marmalade\\7.6\\s3e\\makefile_builder\\mkb_globals.pyc'
p281
F1426254156.0
sS'c:\\marmalade\\7.6\\s3e\\makefile_builder\\templates\\ws8_csproj.pyc'
p282
F1426254158.0
sS'c:\\marmalade\\7.6\\s3e\\makefile_builder\\templates\\wp81_sln.pyc'
p283
F1426254158.0
sS'c:\\marmalade\\7.6\\s3e\\makefile_builder\\templates\\template.opt'
p284
F1426247824.0
sS'c:\\marmalade\\7.6\\s3e\\makefile_builder\\mkb_main.pyc'
p285
F1426254156.0
sS'c:\\marmalade\\7.6\\s3e\\makefile_builder\\templates\\xcode4.xcscheme'
p286
F1426247824.0
sS'c:\\marmalade\\7.6\\s3e\\makefile_builder\\templates\\wp81_ext_csproj.pyc'
p287
F1426254158.0
sS'c:\\marmalade\\7.6\\s3e\\makefile_builder\\templates\\wp8_sln.pyc'
p288
F1426254158.0
sS'c:\\marmalade\\7.6\\s3e\\makefile_builder\\plugins\\s3e_ws81.pyc'
p289
F1426254156.0
sS'c:\\marmalade\\7.6\\s3e\\makefile_builder\\plugins\\S3EEmitter.pyc'
p290
F1426254156.0
sS'c:\\marmalade\\7.6\\s3e\\makefile_builder\\templates\\win32_vcxproj_filters.pyc'
p291
F1426254158.0
sS'c:\\marmalade\\7.6\\s3e\\makefile_builder\\mkb_option.pyc'
p292
F1426254156.0
sS'c:\\marmalade\\7.6\\s3e\\makefile_builder\\plugins\\s3e_make.pyc'
p293
F1426254156.0
sS'c:\\marmalade\\7.6\\s3e\\makefile_builder\\plugins\\XcodeEmitter.pyc'
p294
F1426761766.4687836
sS'c:\\marmalade\\7.6\\s3e\\makefile_builder\\plugins\\s3e_wp81.pyc'
p295
F1426254156.0
sS'c:\\marmalade\\7.6\\s3e\\makefile_builder\\plugins\\SConsEmitter.pyc'
p296
F1426254156.0
sS'c:\\marmalade\\7.6\\s3e\\makefile_builder\\templates\\scons.pyc'
p297
F1426254158.0
sS'c:\\marmalade\\7.6\\s3e\\makefile_builder\\plugins'
p298
F1426761766.8478053
sS'c:\\marmalade\\7.6\\s3e\\makefile_builder\\plugins\\s3e_vc6.pyc'
p299
F1426254156.0
sS'c:\\marmalade\\7.6\\s3e\\makefile_builder\\templates\\vc10_user.pyc'
p300
F1426254158.0
sS'c:\\marmalade\\7.6\\s3e\\makefile_builder\\templates\\MainWindow.xib'
p301
F1426247824.0
sS'c:\\marmalade\\7.6\\s3e\\makefile_builder\\plugins\\XcodeEmitter.py'
p302
F1426247822.0
sS'c:\\marmalade\\7.6\\s3e\\makefile_builder\\templates\\win8_ext_csproj.pyc'
p303
F1426254158.0
sS'c:\\marmalade\\7.6\\s3e\\makefile_builder\\templates\\make.py'
p304
F1426247824.0
sS'c:\\marmalade\\7.6\\s3e\\makefile_builder\\plugins\\linux_scons.pyc'
p305
F1426254156.0
sS'c:\\marmalade\\7.6\\s3e\\makefile_builder\\templates\\wp81_csproj.pyc'
p306
F1426254158.0
sS'c:\\marmalade\\7.6\\s3e\\makefile_builder\\templates\\ws8_vcxproj.pyc'
p307
F1426254158.0
sS'c:\\marmalade\\7.6\\s3e\\makefile_builder\\plugins\\Win8Emitter.pyc'
p308
F1426254156.0
sS'c:\\marmalade\\7.6\\s3e\\makefile_builder\\templates\\win32_vcxproj.pyc'
p309
F1426254158.0
sS'c:\\marmalade\\7.6\\s3e\\makefile_builder\\templates\\ws8_ext_csproj.pyc'
p310
F1426254158.0
sS'c:\\marmalade\\7.6\\s3e\\makefile_builder\\mkb_util.pyc'
p311
F1426254156.0
sS'c:\\marmalade\\7.6\\s3e\\makefile_builder\\templates\\Info.plist'
p312
F1426247824.0
sS'c:\\marmalade\\7.6\\s3e\\makefile_builder\\templates\\template.suo'
p313
F1426247824.0
sS'c:\\marmalade\\7.6\\s3e\\makefile_builder\\templates\\aarch64_linker_script'
p314
F1426247824.0
sS'c:\\marmalade\\7.6\\s3e\\makefile_builder\\templates\\mips_linker_script'
p315
F1426247824.0
sS'c:\\marmalade\\7.6\\s3e\\makefile_builder\\plugins\\java.pyc'
p316
F1426254156.0
sS'c:\\marmalade\\7.6\\s3e\\makefile_builder\\templates\\ws81_ext_csproj.pyc'
p317
F1426254158.0
sS'c:\\marmalade\\7.6\\s3e\\makefile_builder\\templates\\ws8_ext_sln.pyc'
p318
F1426254158.0
sS'c:\\marmalade\\7.6\\s3e\\makefile_builder\\templates\\qmake_user.py'
p319
F1426247824.0
sS'c:\\marmalade\\7.6\\s3e\\makefile_builder\\templates\\rvct_linker_script'
p320
F1426247824.0
sS'c:\\marmalade\\7.6\\s3e\\makefile_builder\\docs'
p321
F1426760287.3801844
sS'c:\\marmalade\\7.6\\s3e\\makefile_builder\\docs\\deployment_options.txt'
p322
F1426247822.0
sS'c:\\marmalade\\7.6\\s3e\\makefile_builder\\docs\\mkb.defines.txt'
p323
F1426247822.0
sS'c:\\marmalade\\7.6\\s3e\\makefile_builder\\templates\\win8_sln.pyc'
p324
F1426254158.0
sS'c:\\marmalade\\7.6\\s3e\\makefile_builder\\templates\\ws81_ext_sln.pyc'
p325
F1426254158.0
sS'c:\\marmalade\\7.6\\s3e\\makefile_builder\\plugins\\wp81_wp81.pyc'
p326
F1426254156.0
sS'c:\\marmalade\\7.6\\s3e\\makefile_builder\\templates\\linker_script'
p327
F1426247824.0
sS'c:\\marmalade\\7.6\\s3e\\makefile_builder\\plugins\\s3e_qmake.pyc'
p328
F1426761766.7157977
sS'c:\\marmalade\\7.6\\s3e\\makefile_builder\\plugins\\win32_vc6.pyc'
p329
F1426254156.0
sccopy_reg
_reconstructor
p330
(cmkb_main
MkbFile
p331
c__builtin__
object
p332
Ntp333
Rp334
(dp335
g5
(lp336
sS'target_name'
p337
S'Stage4'
p338
sS'current_file'
p339
g135
sS'package_path'
p340
(lp341
sS'post_build'
p342
(lp343
(lp344
S'c:/marmalade/7.6/s3e/tools'
p345
aS'C:\\Marmalade\\7.6\\s3e\\python\\python.exe .\\process_map.py "$(TargetPath)"'
p346
aa(S'c:\\marmalade\\7.6\\s3e\\bin'
p347
S'"s3e_plink" -l "$(TargetPath)" '
p348
g170
tp349
asS'librarys'
p350
(lp351
g330
(cmkb_main
Library
p352
g332
Ntp353
Rp354
(dp355
S'name'
p356
S'vc6_compat.lib'
p357
sS'expand_name'
p358
I00
sS'include_spec_rvct_objs'
p359
(lp360
sS'include_all_objs'
p361
I00
sS'share_arm'
p362
I00
sS'arch'
p363
S'x86'
p364
sS'nodebug'
p365
I00
sg38
Nsbag330
(g352
g332
Ntp366
Rp367
(dp368
g356
S'iw2d'
p369
sg358
I01
sg359
(lp370
sg361
Nsg362
Nsg363
Nsg365
I00
sg38
Nsbag330
(g352
g332
Ntp371
Rp372
(dp373
g356
S'ATI_Compress_MT_VC7.lib'
p374
sg358
I00
sg359
g370
sg361
Nsg362
Nsg363
S'x86'
p375
sg365
I00
sg38
Nsbag330
(g352
g332
Ntp376
Rp377
(dp378
g356
S'iwgx'
p379
sg358
I01
sg359
g370
sg361
Nsg362
Nsg363
Nsg365
I00
sg38
Nsbag330
(g352
g332
Ntp380
Rp381
(dp382
g356
S'iwgl'
p383
sg358
I01
sg359
g370
sg361
Nsg362
Nsg363
Nsg365
I00
sg38
Nsbag330
(g352
g332
Ntp384
Rp385
(dp386
g356
S'iwutil'
p387
sg358
I01
sg359
g370
sg361
Nsg362
Nsg363
Nsg365
I00
sg38
Nsbag330
(g352
g332
Ntp388
Rp389
(dp390
g356
S'jpeg'
p391
sg358
I01
sg359
g370
sg361
Nsg362
Nsg363
Nsg365
I00
sg38
Nsbag330
(g352
g332
Ntp392
Rp393
(dp394
g356
S'z'
p395
sg358
I01
sg359
g370
sg361
Nsg362
Nsg363
Nsg365
I00
sg38
Nsbag330
(g352
g332
Ntp396
Rp397
(dp398
g356
S'png'
p399
sg358
I01
sg359
g370
sg361
Nsg362
Nsg363
Nsg365
I00
sg38
Nsbag330
(g352
g332
Ntp400
Rp401
(dp402
g356
S'iwgeom'
p403
sg358
I01
sg359
g370
sg361
Nsg362
Nsg363
Nsg365
I00
sg38
Nsbag330
(g352
g332
Ntp404
Rp405
(dp406
g356
S'iwresmanager'
p407
sg358
I01
sg359
g370
sg361
Nsg362
Nsg363
Nsg365
I00
sg38
Nsbag330
(g352
g332
Ntp408
Rp409
(dp410
g356
S'iwgxfont'
p411
sg358
I01
sg359
g370
sg361
Nsg362
Nsg363
Nsg365
I00
sg38
Nsbag330
(g352
g332
Ntp412
Rp413
(dp414
g356
S'tiniconv'
p415
sg358
I01
sg359
g370
sg361
Nsg362
Nsg363
Nsg365
I00
sg38
Nsbag330
(g352
g332
Ntp416
Rp417
(dp418
g356
S's3e_cpp'
p419
sg358
I01
sg359
g360
sg361
I00
sg362
I00
sg363
Nsg365
I00
sg38
Nsbag330
(g352
g332
Ntp420
Rp421
(dp422
g356
S's3e'
p423
sg358
I01
sg359
(lp424
S'iwcrt.o'
p425
asg361
I00
sg362
I00
sg363
Nsg365
I00
sg38
Nsbag330
(g352
g332
Ntp426
Rp427
(dp428
g356
g55
sg358
I01
sg359
g360
sg361
I00
sg362
I00
sg363
S'x86'
p429
sg365
I01
sg38
Nsbag330
(g352
g332
Ntp430
Rp431
(dp432
g356
g55
sg358
I01
sg359
g360
sg361
I00
sg362
I00
sg363
S'!x86'
p433
sg365
I01
sg38
Nsbag330
(g352
g332
Ntp434
Rp435
(dp436
g356
S'stdc++'
p437
sg358
I00
sg359
g360
sg361
I00
sg362
I00
sg363
S'mips'
p438
sg365
I00
sg38
Nsbag330
(g352
g332
Ntp439
Rp440
(dp441
g356
S'c'
p442
sg358
I00
sg359
g360
sg361
I00
sg362
I00
sg363
S'mips'
p443
sg365
I00
sg38
Nsbag330
(g352
g332
Ntp444
Rp445
(dp446
g356
S'm'
p447
sg358
I00
sg359
g360
sg361
I00
sg362
I00
sg363
S'mips'
p448
sg365
I00
sg38
Nsbag330
(g352
g332
Ntp449
Rp450
(dp451
g356
S'gcc'
p452
sg358
I00
sg359
g360
sg361
I00
sg362
I00
sg363
S'mips'
p453
sg365
I00
sg38
Nsbag330
(g352
g332
Ntp454
Rp455
(dp456
g356
S'supc++'
p457
sg358
I00
sg359
g360
sg361
I00
sg362
I00
sg363
S'gcc_x86_android'
p458
sg365
I00
sg38
Nsbag330
(g352
g332
Ntp459
Rp460
(dp461
g356
g442
sg358
I00
sg359
g360
sg361
I00
sg362
I00
sg363
S'gcc_x86_android'
p462
sg365
I00
sg38
Nsbag330
(g352
g332
Ntp463
Rp464
(dp465
g356
g447
sg358
I00
sg359
g360
sg361
I00
sg362
I00
sg363
S'gcc_x86_android'
p466
sg365
I00
sg38
Nsbag330
(g352
g332
Ntp467
Rp468
(dp469
g356
g452
sg358
I00
sg359
g360
sg361
I00
sg362
I00
sg363
S'gcc_x86_android'
p470
sg365
I00
sg38
Nsbag330
(g352
g332
Ntp471
Rp472
(dp473
g356
S'dl'
p474
sg358
I00
sg359
g360
sg361
I00
sg362
I00
sg363
S'gcc_x86_android'
p475
sg365
I00
sg38
NsbasS'library_paths'
p476
(lp477
g330
(cmkb_main
LibraryPath
p478
g332
Ntp479
Rp480
(dp481
S'expand_path'
p482
I01
sg356
S'c:/marmalade/7.6/modules/iw2d'
p483
sbag330
(g478
g332
Ntp484
Rp485
(dp486
g482
I00
sg356
S'c:/marmalade/7.6/modules/iwgx/atitools'
p487
sbag330
(g478
g332
Ntp488
Rp489
(dp490
g482
I01
sg356
S'c:/marmalade/7.6/modules/iwgx'
p491
sbag330
(g478
g332
Ntp492
Rp493
(dp494
g482
I01
sg356
S'c:/marmalade/7.6/modules/iwgl'
p495
sbag330
(g478
g332
Ntp496
Rp497
(dp498
g482
I01
sg356
S'c:/marmalade/7.6/modules/iwutil'
p499
sbag330
(g478
g332
Ntp500
Rp501
(dp502
g482
I01
sg356
S'c:/marmalade/7.6/modules/third_party/libjpeg'
p503
sbag330
(g478
g332
Ntp504
Rp505
(dp506
g482
I01
sg356
S'c:/marmalade/7.6/modules/third_party/zlib'
p507
sbag330
(g478
g332
Ntp508
Rp509
(dp510
g482
I01
sg356
S'c:/marmalade/7.6/modules/third_party/libpng'
p511
sbag330
(g478
g332
Ntp512
Rp513
(dp514
g482
I01
sg356
S'c:/marmalade/7.6/modules/iwgeom'
p515
sbag330
(g478
g332
Ntp516
Rp517
(dp518
g482
I01
sg356
S'c:/marmalade/7.6/modules/iwresmanager'
p519
sbag330
(g478
g332
Ntp520
Rp521
(dp522
g482
I01
sg356
S'c:/marmalade/7.6/modules/iwgxfont'
p523
sbag330
(g478
g332
Ntp524
Rp525
(dp526
g482
I01
sg356
S'c:/marmalade/7.6/modules/third_party/tiniconv'
p527
sbag330
(g478
g332
Ntp528
Rp529
(dp530
g482
I01
sg356
S'c:/marmalade/7.6/s3e'
p531
sbasS'macros'
p532
(dp533
S'IW_USE_CALLSTACK'
p534
NsS'IW_MKF_IWGEOM'
p535
NsS'I3D_PLATFORM_S3E'
p536
NsS'IW_TRACE_CHANNEL_PVRTEXTOOL_VERBOSE'
p537
S'2'
p538
sS'IW_MKF_LIBJPEG'
p539
NsS'I3D_OS_S3E'
p540
NsS'IW_MKF_PVRTEXTOOL'
p541
NsS'IW_MKF_TINICONV'
p542
NsS'IW_APP_VERSION'
p543
S'"1.0"'
p544
sS'__S3E__'
p545
NsS'IW_MKF_IWRESMANAGER'
p546
NsS'IW_MKF_IWUTIL'
p547
NsS'IW_PLATFORM_S3E'
p548
NsS'IW_ASSERTION_CHANNEL_2D'
p549
S'1'
p550
sS'IW_APP_NAME'
p551
S'"Stage4"'
p552
sS'IW_MKF_MARMALADEEXAMPLERESOURCES'
p553
NsS'IW_MKF_IWGXFONT'
p554
NsS'IW_MKF_IWTWEEN'
p555
NsS'IW_MKF_ZLIB'
p556
NsS'IW_MKF_S3E_DEFAULT'
p557
NsS'IW_MKF_IWGX'
p558
NsS'IW_MKF_IW2DSCENEGRAPH'
p559
NsS'IW_MKF_SOUNDENGINE'
p560
NsS'IW_USE_ASSERTIONS'
p561
NsS'_CRT_SECURE_NO_DEPRECATE'
p562
NsS'IW_MKF_IWGL'
p563
NsS'IW_MKF_LIBPNG'
p564
NsS'IW_TRACE_CHANNEL_IW_2DSCENEGRAPH'
p565
g550
sS'IW_DEBUG'
p566
NsS'IW_USE_TRACING'
p567
NsS'IW_ASSERTION_CHANNEL_IW_2DSCENEGRAPH'
p568
g550
sS'IW_TRACE_CHANNEL_PVRTEXTOOL'
p569
g550
sS'IW_SDK'
p570
NsS'S3E_INCLUDE_LEGACY'
p571
NsS'IW_MKF_IW2DSCENEGRAPHCORE'
p572
NsS'IW_MKF_IW2D'
p573
NsS'IW_ASSERTION_CHANNEL_PVRTEXTOOL'
p574
g550
ssS'done_warnings'
p575
(dp576
sS'subprojects'
p577
(dp578
g194
S'iwgl'
p579
sg193
S'iwgx'
p580
sg205
S'../iw2dscenegraphcore'
p581
sg208
S'../../../MarmaladeExampleResources'
p582
sg199
S'iwgeom'
p583
sg202
S'iwgxfont'
p584
sg195
S'iwutil'
p585
sg203
S'tiniconv'
p586
sg196
S'libjpeg'
p587
sg200
S'iwresmanager'
p588
sg204
S'iw2dscenegraph'
p589
sg192
S'iw2d'
p590
sg207
S'SoundEngine'
p591
sg206
S'iwtween'
p592
sg201
S'PVRTexTool'
p593
sg197
S'libpng'
p594
sg191
S's3e-default.mkf'
p595
sg198
S'zlib'
p596
ssS'deployments'
p597
(dp598
S'Default'
p599
g330
(cdeployment
Deployment
p600
g332
Ntp601
Rp602
(dp603
S'got_version'
p604
I0
sS'assets'
p605
g599
sS'mkb'
p606
g334
sS'target'
p607
Nsg363
(lp608
sS'options'
p609
(dp610
S'iphone-link-lib'
p611
(lp612
sS'game-icf'
p613
NsS'android-tm'
p614
NsS'winmobile-icon32'
p615
NsS'ws8-logo-image150x150'
p616
NsS'wp81-logo-image150x150'
p617
NsS'android-keystore'
p618
NsS'osx-ext-dll'
p619
(lp620
S'c:/marmalade/7.6/extensions/pvrtextool/lib/osx/libPVRTexTool.dylib'
p621
asS'iphone-provisioning-profile'
p622
NsS'ws8-splash-screen-image620x300'
p623
NsS'wp81-extra-pri'
p624
(lp625
sS'ws8-ext-capabilities'
p626
(lp627
sS'android-icon-hdpi'
p628
NsS'iphone-ipad-only'
p629
NsS'iphone-splash-full-orient'
p630
NsS'wp8-tile-fliptemplate-supports-large'
p631
NsS'iphone-show-status-bar'
p632
NsS'roku-requires-mkv'
p633
NsS'long-caption'
p634
NsS'android-pkgname'
p635
NsS'wp81-publisher-display-name'
p636
NsS'blackberry-permissions-read-device-identifying-information'
p637
NsS'ws81-certificate-end-date'
p638
NsS'psp-dlgcontentid'
p639
NsS'iphone-minimum-ios-version'
p640
NsS'target-folder'
p641
NsS'tizen-dist1-CA-path'
p642
NsS'symbian-icon2-format'
p643
NsS'tizen-author-key'
p644
NsS'firefoxos-icon-128X128'
p645
NsS'iphone-region'
p646
NsS'uiq3-icon3-mask'
p647
NsS'brew-encoding'
p648
NsS'android-x86'
p649
NsS'nds-initialcode'
p650
NsS'iphone-persistent-wifi'
p651
NsS'psp-snd0'
p652
NsS'roku-icon-focus-hd'
p653
NsS'osx-appid'
p654
NsS'winmobile-install-folder'
p655
NsS'android-external-res'
p656
(lp657
sS'ws8-product-version'
p658
NsS'brew-priviledges'
p659
NsS'iphone-info-plist-override'
p660
NsS'iphone-icon-ipad'
p661
NsS'iphone-skip-icon-generation'
p662
NsS'roku-hidden'
p663
NsS'psp-titlename'
p664
NsS'wp81-product-version'
p665
NsS'symbian-icon1-mask'
p666
NsS'psp-parentallevel'
p667
NsS'iphone-launch-storyboard'
p668
NsS'splashscreen-use-all'
p669
NsS'wp8-author'
p670
NsS'symbian-disable-ecompxl'
p671
NsS'splashscreen-auto-onblack'
p672
NsS'iphone-icon-dir'
p673
NsS'iphone-icon-extra'
p674
NsS'win32-ext-dll'
p675
(lp676
S'c:/marmalade/7.6/extensions/pvrtextool/lib/win32/PVRTexTool.dll'
p677
asS'iphone-development-key'
p678
NsS'winmobile-icon48'
p679
NsS'android-unsigned'
p680
NsS'osx-appstore-category'
p681
NsS'version-revision'
p682
NsS'roku-icon-focus-sd'
p683
NsS'ws81-product-version'
p684
NsS'winmobile-png90'
p685
NsS'iphone-icon-ipad-high-res'
p686
NsS'iphone-disable-ipad'
p687
NsS'ws81-splash-screen-background'
p688
NsS'wp8-ext-capabilities'
p689
(lp690
sS'brew-icon-large'
p691
NsS'symbian-icon1-mask-black'
p692
NsS'ws8-extra-res'
p693
(lp694
sS'iphone-bundle-localisations'
p695
NsS'winmobile-png60'
p696
NsS'blackberry-permissions-access-shared'
p697
NsS'blackberry-author'
p698
NsS'android-icon-xxxhdpi'
p699
NsS'olddeploytoolstyle'
p700
NsS'android_icon_gallery'
p701
NsS'wp81-splash-screen-background'
p702
NsS'winmobile-cab-compress'
p703
NsS'iphone-info-plist'
p704
NsS'ws81-ext-managed-dll'
p705
(lp706
sS'playbook-cskpass'
p707
NsS'win32-icon'
p708
NsS'symbian-key'
p709
NsS'app-icf'
p710
NsS'blackberry-storepass'
p711
NsS'wp8-tile-fliptemplate-back-title'
p712
NsS'brew-compress-loader'
p713
NsS'iphone-testflight'
p714
NsS'win32-pref-windowposy'
p715
NsS'win32-pref-windowposx'
p716
NsS'roku-requires-audiometadata'
p717
NsS'wp8-exclude-low-mem'
p718
NsS'android-min-sdk-version'
p719
NsS'wp8-tile-fliptemplate-title'
p720
NsS'iphone-icon-ipad-search-high-res'
p721
NsS'iphone-link-libdir'
p722
(lp723
sS'wp81-ext-capabilities'
p724
(lp725
sS'blackberry-permissions-read-geolocation'
p726
NsS'ws81-ext-device-capabilities'
p727
(lp728
sS'tizen-signed'
p729
NsS'android-extra-application-manifest'
p730
(lp731
sS'ws8-ext-native-dll'
p732
(lp733
sS'symbian-icon2-mask'
p734
NsS'iphone-launch-extra'
p735
NsS'webos-memory'
p736
NsS'android-keypass'
p737
NsS'name'
p738
NsS'uiq3-icon2-format'
p739
NsS'roku-splash-screen-sd'
p740
NsS'auto-derbh'
p741
NsS'roku-icon-side-sd'
p742
NsS'android-external-assets'
p743
(lp744
sS'nds-publicsavedatasize'
p745
NsS'splashscreen'
p746
S'c:/marmalade/7.6/examples/marmaladeexampleresources/resources/splashscreens'
p747
sS'brew-mif'
p748
NsS'iphone-icon-settings-high-res'
p749
NsS'android-manifest'
p750
NsS'ws81-splash-screen-image620x300'
p751
NsS'wp81-product-name'
p752
NsS's3e-compression'
p753
NsS'tizen-author-password'
p754
NsS'wp8-tile-fliptemplate-back-content'
p755
NsS'blackberry-extra-descriptor'
p756
(lp757
sS'android-java-source-version'
p758
NsS'symbian-icon1'
p759
NsS'symbian-icon2'
p760
NsS'nds-makercode'
p761
NsS'android-extra-styles-file'
p762
NsS'android-ext-target-sdk-version'
p763
(lp764
sS'wp81-publisher-id'
p765
NsS'nds-bannertitle-jp'
p766
NsS'wp81-logo-image44x44'
p767
NsS'osx-sign-for-store'
p768
NsS'symbian7-uid'
p769
NsS'wp8-tile-fliptemplate-large-back-content'
p770
NsS'wp81-phone-publisher-id'
p771
NsS'nds-bannertitle-cn'
p772
NsS'iphone-distribution-key'
p773
NsS'android-icon-gallery'
p774
NsS'blackberry-keystore'
p775
NsS'iphone-nosign'
p776
NsS'caption'
p777
NsS'android-extra-manifest'
p778
(lp779
sS'wp81-ext-sdk-ref'
p780
(lp781
sS'android-icon-xxhdpi'
p782
NsS'version-minor'
p783
NsS'iphone-skip-launch-generation'
p784
NsS'iphone-link-libdirs'
p785
(lp786
sS'iphone-icon-large'
p787
NsS'symbian-keypwd'
p788
NsS'symbian8-uid'
p789
NsS'symbian-cert-key'
p790
NsS'winmobile-ampd-part-number'
p791
NsS'arch'
p792
NsS'nds-romheadertemplate'
p793
NsS'webos-icon'
p794
NsS'wp81-ext-device-capabilities'
p795
(lp796
sS'psp-dlgprotectdocument'
p797
NsS'ws8-splash-screen-background'
p798
NsS'android-icon-mdpi'
p799
NsS'android-sdk-build-tools-version'
p800
NsS'nds-icon'
p801
NsS'ws8-custom-manifest-fill'
p802
NsS'iphone-development-cert'
p803
NsS'and'
p804
NsS'symbian-icon2-mask-black'
p805
NsS'blackberry-phone-icon'
p806
NsS'iphone-enable-4inch-retina'
p807
NsS'ws8-custom-manifest'
p808
NsS'version-major'
p809
NsS'wp8-genre-isgame'
p810
NsS'uiq3-uid'
p811
NsS'iphone-splash-retina-generate'
p812
NsS'tizen-hw-acceleration'
p813
NsS'iphone_bundle_localisations'
p814
NsS'tizen-dist1-key'
p815
NsS'wp81-custom-manifest-fill'
p816
NsS'wp8-custom-manifest'
p817
NsS'nds-bannertitle-ge'
p818
NsS'iphone-sign-for-distribution'
p819
NsS'wp8-tile-fliptemplate-medium-back-image'
p820
NsS'wp8-publisher-id'
p821
NsS'icon'
p822
S'c:/marmalade/7.6/examples/marmaladeexampleresources/resources/icons'
p823
sS'android-target-sdk-version'
p824
NsS'wp8-exclude-wxga'
p825
NsS'wp81-identity-name'
p826
NsS'uiq3-icon2-mask'
p827
NsS'iphone-splashscreen-portrait'
p828
NsS'iphone-icon-high-res'
p829
NsS'ws81-distribution-pfx-password'
p830
NsS'playbook-author'
p831
NsS'android-icon-xhdpi'
p832
NsS'linux-ext-lib'
p833
(lp834
sS'blackberry-permissions-access-internet'
p835
NsS'wp8-exclude-720p'
p836
NsS'lgtv-use-drm'
p837
NsS'symbian-platsecflags'
p838
NsS'ws8-description'
p839
NsS'blackberry-playbook-icon'
p840
NsS'copyright'
p841
NsS'ws8-distribution-pfx-password'
p842
NsS'win32-gles-directory'
p843
NsS'version'
p844
NsS'android-ext-min-sdk-version'
p845
(lp846
sS'iphone-uiviewcontroller-based-status-bar'
p847
NsS'ws81-logo-image150x150'
p848
NsS'osx-signing-identity-app'
p849
NsS'tizen-project-url'
p850
NsS'symbian-icon-svg'
p851
NsS'android-aliasname'
p852
NsS'psp-dlgmanual'
p853
NsS'brew-uid'
p854
NsS'symbian-locationsupport'
p855
NsS'wp81-logo-image50x50'
p856
NsS'ws8-ext-managed-dll'
p857
(lp858
sS'nds-bannertitle-it'
p859
NsS'ws81-custom-manifest-fill'
p860
NsS'ws8-ext-sdk-manifest-part'
p861
(lp862
sS'uiq3-icon1-mask'
p863
NsS'winmobile-icon16'
p864
NsS'ws8-product-name'
p865
NsS'blackberry-cskpass'
p866
NsS'winmobile-start-menu-folder'
p867
NsS'brew-clsid'
p868
NsS'roku-requires-bluetooth'
p869
NsS'iphone-default-development-profile'
p870
NsS'ws8-ext-device-capabilities'
p871
(lp872
sS'blackberry-permissions-use-camera'
p873
NsS'ws81-extra-pri'
p874
(lp875
sS'iphone-prerendered-icon'
p876
NsS'iphone-appid'
p877
NsS'ws8-identity-name'
p878
NsS'tizen-dist2-CA-path'
p879
NsS'android-external-jars'
p880
(lp881
sS'winmobile-icon64'
p882
NsS'blackberry-permissions-post-notification'
p883
NsS'winmobile-setup-dll'
p884
NsS'firefoxos-manifest'
p885
NsS'win8-winrt-extra-res'
p886
(lp887
sS'wp81-ext-sdk-manifest-part'
p888
(lp889
sS'symbian9-uid'
p890
NsS'iphone-icon-ipad-ios7'
p891
NsS'winmobile-trace-file'
p892
NsS'roku-splash-color'
p893
NsS'psp-appversion'
p894
NsS'android-java-target-version'
p895
NsS'ws8-publisher-id'
p896
NsS'android-supports-gl-texture'
p897
(lp898
sS'winmobile-png45'
p899
NsS'wp81-extra-res'
p900
(lp901
sS'android-storepass'
p902
NsS'osx-signing-identity-inst'
p903
NsS'android-custom-activity'
p904
NsS'psp-discversion'
p905
NsS'wp81-ext-managed-dll'
p906
(lp907
sS'psp-copyright'
p908
NsS'embed-icf'
p909
NsS'tizen-manifest'
p910
NsS'osx-icon'
p911
NsS'webos-appinfo'
p912
NsS'psp-dlghealthwarning'
p913
NsS'webos-appid'
p914
NsS'roku-icon-side-hd'
p915
NsS'iphone-icon-ipad-search-high-res-ios7'
p916
NsS'iphone-extra-plist'
p917
(lp918
sS'ws81-ext-sdk-manifest-part'
p919
(lp920
sS'loader_name_prefix'
p921
NsS'iphone-launch-dir'
p922
S'c:/marmalade/7.6/examples/marmaladeexampleresources/resources/splashscreens/ios'
p923
sS'nds-titlename'
p924
NsS'ws81-logo-image50x50'
p925
NsS'wp81-custom-manifest'
p926
NsS'osx-entitlements-plist'
p927
NsS'psp-dlgicon0'
p928
NsS'winmobile-nouninstall'
p929
NsS'psp-discid'
p930
NsS'tizen-dist2-password'
p931
NsS'ws8-ext-sdk-ref'
p932
(lp933
sS'iphone-extra-string'
p934
(lp935
sS'version-string'
p936
NsS'iphone-icon-high-res-ios7'
p937
NsS'ws8-certificate-end-date'
p938
NsS'tizen-so'
p939
(lp940
sS'wp8-tile-fliptemplate-small-image'
p941
NsS'playbook-authorid'
p942
NsS'iphone-signing-identity'
p943
NsS'roku-persist-quota'
p944
NsS'nds-bannertitle-fr'
p945
NsS'ws8-distribution-pfx'
p946
NsS'ws8-publisher-display-name'
p947
NsS'brew-icon-small'
p948
NsS'psp-dlgpic2'
p949
NsS'psp-dlgpic0'
p950
NsS'psp-pic0'
p951
NsS'psp-pic1'
p952
NsS'win32-pref-windowtitle'
p953
NsS'psp-icon0'
p954
NsS'psp-icon1'
p955
NsS'ws81-identity-name'
p956
NsS'winmobile-icon'
p957
NsS'iphone-no-splash'
p958
NsS'iphone-splash'
p959
NsS'iphone-app-fonts'
p960
NsS'wp8-ext-native-dll'
p961
(lp962
sS'wp81-splash-screen-image480x800'
p963
NsS'ws81-distribution-cer'
p964
NsS'iphone-backgroundmode-audio'
p965
NsS'uiq3-icon2'
p966
NsS'uiq3-icon3'
p967
NsS'uiq3-icon1'
p968
NsS'uiq3-icon1-format'
p969
NsS'ws8-logo-image50x50'
p970
NsS'iphone-icon-ipad-search'
p971
NsS'symbian-run-on-install'
p972
NsS'wp81-description'
p973
NsS'ws81-publisher-display-name'
p974
NsS'firefoxos-xulrunner'
p975
NsS'symbian-soundrecordsupport'
p976
NsS'nds-bannertitle-sp'
p977
NsS'psp-producer'
p978
NsS'iphone-apple-wwdr-cert'
p979
NsS'android-icon-nonstandard'
p980
NsS'win32-pref-processtitle'
p981
NsS'nds-bannertitle-hn'
p982
NsS'tizen-dist2-key'
p983
NsS'brew-depends'
p984
NsS'ws81-custom-manifest'
p985
NsS'iphone-allow-launch-rotation'
p986
NsS'iphone-icon-ipad-search-ios7'
p987
NsS'brew-icon-medium'
p988
NsS'iphone-bundle-url-name'
p989
NsS'wp8-tile-fliptemplate-large-front-image'
p990
NsS'tizen-dist2-CA-root-path'
p991
NsS'ws81-description'
p992
NsS'uiq3-icon3-format'
p993
NsS'ws81-logo-image30x30'
p994
NsS'win8-phone-extra-res'
p995
(lp996
sS'iphone-signing-host'
p997
NsS'tizen-icon'
p998
NsS'osx-info-plist'
p999
NsS'symbian-icon1-format'
p1000
NsS'ws81-distribution-pfx'
p1001
NsS'blackberry-authorid'
p1002
NsS'ws81-publisher-id'
p1003
NsS'win8-store-extra-res'
p1004
(lp1005
sS'wp8-description'
p1006
NsS'iphone-link-opts'
p1007
(lp1008
sS'ws81-ext-sdk-ref'
p1009
(lp1010
sS'roku-splash-min-time'
p1011
NsS'wp8-tile-fliptemplate-medium-front-image'
p1012
NsS'iphone-disable-launch-images'
p1013
NsS'android-sdk-platform-version'
p1014
NsS'provider'
p1015
NsS'playbook-keystore'
p1016
NsS'tizen-appid'
p1017
NsS'wp8-extra-res'
p1018
(lp1019
sS'symbian-osexecsupport'
p1020
NsS'android-install-location'
p1021
NsS'nds-privatesavedatasize'
p1022
NsS'iphone-disable-testflight'
p1023
NsS'playbook-storepass'
p1024
NsS'android-icon-ldpi'
p1025
NsS'manufacturer'
p1026
NsS'itunes-artwork'
p1027
NsS'iphone-extra-sections'
p1028
NsS'ws81-product-name'
p1029
NsS'ws81-ext-native-dll'
p1030
(lp1031
sS'ws8-extra-pri'
p1032
(lp1033
sS'wp8-product-id'
p1034
NsS'ws8-logo-image30x30'
p1035
NsS'wp8-ext-managed-dll'
p1036
(lp1037
sS'iphone-splashscreen-landscape'
p1038
NsS'symbian-maxheapsize'
p1039
NsS'android-extra-packages'
p1040
(lp1041
sS'priv-sign-key'
p1042
NsS'networking'
p1043
NsS'android-icon'
p1044
NsS'iphone-icon-settings'
p1045
NsS'wp81-phone-product-id'
p1046
NsS'firefoxos-icon-60X60'
p1047
NsS'iphone-distribution-cert'
p1048
NsS'android_extra_strings'
p1049
NsS'nds-bannertitle-en'
p1050
NsS'blackberry-permissions-record-audio'
p1051
NsS'android-so'
p1052
(lp1053
sS'wp8-higher-mem'
p1054
NsS'wp8-ext-sdk-ref'
p1055
(lp1056
sS'wp8-fast-resume-mode'
p1057
NsS'roku-splash-screen-hd'
p1058
NsS'iphone-bundle-url-schemes'
p1059
NsS'roku-screensaver-private'
p1060
NsS'osx-extra-res'
p1061
(lp1062
sS'ws81-extra-res'
p1063
(lp1064
sS'playbook-icon'
p1065
NsS'uid'
p1066
NsS'pkguid-as-uid'
p1067
NsS'wp81-ext-native-dll'
p1068
(lp1069
sS'tizen-dist1-password'
p1070
NsS'roku-screensaver-title'
p1071
NsS'osx-minimum-osx-version'
p1072
NsS'symbian-cert'
p1073
NsS'iphone-icon'
p1074
NsS'ws81-ext-capabilities'
p1075
(lp1076
sS'ws8-distribution-cer'
p1077
NsS'playbook-access-shared'
p1078
NsS'iphone-icon-ipad-high-res-ios7'
p1079
NsS'iphone-link-libs'
p1080
(lp1081
sS'wp8-exclude-wvga'
p1082
NsS'assets'
p1083
NsS'wp8-tile-fliptemplate-large-back-image'
p1084
NsS'wp8-custom-manifest-fill'
p1085
NsS'pub-sign-key'
p1086
NsS'android-extra-strings'
p1087
NsS'tizen-author-CA-path'
p1088
Nssg356
g599
sbssS'platform'
p1089
S'S3E'
p1090
sg70
S'1.0'
p1091
sS'arcade_platform'
p1092
g4
sS'extensions'
p1093
(dp1094
sS'source_groups_tree'
p1095
(dp1096
S'(libpng)'
p1097
(dp1098
S'h'
p1099
(dp1100
S'c:/marmalade/7.6/modules/third_party/libpng/h/png.h'
p1101
(lp1102
I1
a(dp1103
asS'c:/marmalade/7.6/modules/third_party/libpng/h/pngconf.h'
p1104
(lp1105
I1
ag1103
assS'c:/marmalade/7.6/modules/third_party/libpng/libpng.mkf'
p1106
(lp1107
I1
a(dp1108
assS'(libjpeg)'
p1109
(dp1110
g1099
(dp1111
S'c:/marmalade/7.6/modules/third_party/libjpeg/h/jpeglib.h'
p1112
(lp1113
I1
a(dp1114
asS'c:/marmalade/7.6/modules/third_party/libjpeg/h/transupp.h'
p1115
(lp1116
I1
ag1114
asS'c:/marmalade/7.6/modules/third_party/libjpeg/h/jchuff.h'
p1117
(lp1118
I1
ag1114
asS'c:/marmalade/7.6/modules/third_party/libjpeg/h/jerror.h'
p1119
(lp1120
I1
ag1114
asS'c:/marmalade/7.6/modules/third_party/libjpeg/h/jconfig.h'
p1121
(lp1122
I1
ag1114
asS'c:/marmalade/7.6/modules/third_party/libjpeg/h/jpegint.h'
p1123
(lp1124
I1
ag1114
asS'c:/marmalade/7.6/modules/third_party/libjpeg/h/jinclude.h'
p1125
(lp1126
I1
ag1114
asS'c:/marmalade/7.6/modules/third_party/libjpeg/h/jdhuff.h'
p1127
(lp1128
I1
ag1114
asS'c:/marmalade/7.6/modules/third_party/libjpeg/h/cderror.h'
p1129
(lp1130
I1
ag1114
asS'c:/marmalade/7.6/modules/third_party/libjpeg/h/jversion.h'
p1131
(lp1132
I1
ag1114
asS'c:/marmalade/7.6/modules/third_party/libjpeg/h/cdjpeg.h'
p1133
(lp1134
I1
ag1114
asS'c:/marmalade/7.6/modules/third_party/libjpeg/h/jmemsys.h'
p1135
(lp1136
I1
ag1114
asS'c:/marmalade/7.6/modules/third_party/libjpeg/h/jdct.h'
p1137
(lp1138
I1
ag1114
asS'c:/marmalade/7.6/modules/third_party/libjpeg/h/jmorecfg.h'
p1139
(lp1140
I1
ag1114
assS'c:/marmalade/7.6/modules/third_party/libjpeg/libjpeg.mkf'
p1141
(lp1142
I1
a(dp1143
assS'(tiniconv)'
p1144
(dp1145
S'c:/marmalade/7.6/modules/third_party/tiniconv/source/tiniconv.h'
p1146
(lp1147
I1
a(dp1148
asS'c:/marmalade/7.6/modules/third_party/tiniconv/source/tiniconv_int.h'
p1149
(lp1150
I1
ag1148
asS'c:/marmalade/7.6/modules/third_party/tiniconv/tiniconv.mkf'
p1151
(lp1152
I1
a(dp1153
assS'(SoundEngine)'
p1154
(dp1155
S'c:/marmalade/7.6/examples/gametutorial/cpp/modules/soundengine/h/IwSoundParams.h'
p1156
(lp1157
I1
a(dp1158
asS'c:/marmalade/7.6/examples/gametutorial/cpp/modules/soundengine/source/IwSoundWAV.cpp'
p1159
(lp1160
I1
ag1158
asS'c:/marmalade/7.6/examples/gametutorial/cpp/modules/soundengine/source/IwSoundManager.cpp'
p1161
(lp1162
I1
ag1158
asS'c:/marmalade/7.6/examples/gametutorial/cpp/modules/soundengine/h/IwSoundSpec.h'
p1163
(lp1164
I1
ag1158
asS'c:/marmalade/7.6/examples/gametutorial/cpp/modules/soundengine/h/IwSoundManager.h'
p1165
(lp1166
I1
ag1158
asS'c:/marmalade/7.6/examples/gametutorial/cpp/modules/soundengine/source/IwResHandlerWAV.cpp'
p1167
(lp1168
I1
ag1158
asS'c:/marmalade/7.6/examples/gametutorial/cpp/modules/soundengine/h/IwSoundPCM.h'
p1169
(lp1170
I1
ag1158
asS'c:/marmalade/7.6/examples/gametutorial/cpp/modules/soundengine/source/IwSoundData.cpp'
p1171
(lp1172
I1
ag1158
asS'c:/marmalade/7.6/examples/gametutorial/cpp/modules/soundengine/h/IwSoundADPCM.h'
p1173
(lp1174
I1
ag1158
asS'Docs'
p1175
(dp1176
S'c:/marmalade/7.6/examples/gametutorial/cpp/modules/soundengine/docs/iwsound.config.txt'
p1177
(lp1178
I1
ag1158
assS'c:/marmalade/7.6/examples/gametutorial/cpp/modules/soundengine/h/IwSoundGroup.h'
p1179
(lp1180
I1
ag1158
asS'c:/marmalade/7.6/examples/gametutorial/cpp/modules/soundengine/h/IwSoundWAV.h'
p1181
(lp1182
I1
ag1158
asS'c:/marmalade/7.6/examples/gametutorial/cpp/modules/soundengine/h/IwSound.h'
p1183
(lp1184
I1
ag1158
asS'c:/marmalade/7.6/examples/gametutorial/cpp/modules/soundengine/h/IwResHandlerWAV.h'
p1185
(lp1186
I1
ag1158
asS'c:/marmalade/7.6/examples/gametutorial/cpp/modules/soundengine/source/IwSoundInst.cpp'
p1187
(lp1188
I1
ag1158
asS'c:/marmalade/7.6/examples/gametutorial/cpp/modules/soundengine/source/IwSoundADPCM.cpp'
p1189
(lp1190
I1
ag1158
asS'c:/marmalade/7.6/examples/gametutorial/cpp/modules/soundengine/soundengine.mkf'
p1191
(lp1192
I1
a(dp1193
asS'c:/marmalade/7.6/examples/gametutorial/cpp/modules/soundengine/h/IwSoundData.h'
p1194
(lp1195
I1
ag1158
asS'c:/marmalade/7.6/examples/gametutorial/cpp/modules/soundengine/source/IwSoundGroup.cpp'
p1196
(lp1197
I1
ag1158
asS'c:/marmalade/7.6/examples/gametutorial/cpp/modules/soundengine/h/IwSoundInst.h'
p1198
(lp1199
I1
ag1158
asS'c:/marmalade/7.6/examples/gametutorial/cpp/modules/soundengine/source/IwSoundSpec.cpp'
p1200
(lp1201
I1
ag1158
asS'c:/marmalade/7.6/examples/gametutorial/cpp/modules/soundengine/source/IwSoundParams.cpp'
p1202
(lp1203
I1
ag1158
asS'c:/marmalade/7.6/examples/gametutorial/cpp/modules/soundengine/source/IwSoundPCM.cpp'
p1204
(lp1205
I1
ag1158
assS'(MarmaladeExampleResources)'
p1206
(dp1207
S'c:/marmalade/7.6/examples/marmaladeexampleresources/marmaladeexampleresources.mkf'
p1208
(lp1209
I1
a(dp1210
assS'source'
p1211
(dp1212
S'c:/Marmalade/7.6/examples/GameTutorial/CPP/marm1/source/hero.h'
p1213
(lp1214
I1
a(dp1215
asS'c:/Marmalade/7.6/examples/GameTutorial/CPP/marm1/source/Layer.h'
p1216
(lp1217
I1
ag1215
asS'c:/Marmalade/7.6/examples/GameTutorial/CPP/marm1/source/Level.h'
p1218
(lp1219
I1
ag1215
asS'c:/Marmalade/7.6/examples/GameTutorial/CPP/marm1/source/Enemymanager.h'
p1220
(lp1221
I1
ag1215
asS'c:/Marmalade/7.6/examples/GameTutorial/CPP/marm1/source/input.cpp'
p1222
(lp1223
I1
ag1215
asS'c:/Marmalade/7.6/examples/GameTutorial/CPP/marm1/source/Enemymanager.cpp'
p1224
(lp1225
I1
ag1215
asS'c:/Marmalade/7.6/examples/GameTutorial/CPP/marm1/source/enemy.h'
p1226
(lp1227
I1
ag1215
asS'c:/Marmalade/7.6/examples/GameTutorial/CPP/marm1/source/Layer.cpp'
p1228
(lp1229
I1
ag1215
asS'c:/Marmalade/7.6/examples/GameTutorial/CPP/marm1/source/audio.cpp'
p1230
(lp1231
I1
ag1215
asS'c:/Marmalade/7.6/examples/GameTutorial/CPP/marm1/source/mainMenu.cpp'
p1232
(lp1233
I1
ag1215
asS'c:/Marmalade/7.6/examples/GameTutorial/CPP/marm1/source/main.cpp'
p1234
(lp1235
I1
ag1215
asS'c:/Marmalade/7.6/examples/GameTutorial/CPP/marm1/source/Shark.cpp'
p1236
(lp1237
I1
ag1215
asS'c:/Marmalade/7.6/examples/GameTutorial/CPP/marm1/source/resources.h'
p1238
(lp1239
I1
ag1215
asS'c:/Marmalade/7.6/examples/GameTutorial/CPP/marm1/source/Levelmanager.h'
p1240
(lp1241
I1
ag1215
asS'c:/Marmalade/7.6/examples/GameTutorial/CPP/marm1/source/scene.h'
p1242
(lp1243
I1
ag1215
asS'c:/Marmalade/7.6/examples/GameTutorial/CPP/marm1/source/BackgroundEntity.cpp'
p1244
(lp1245
I1
ag1215
asS'c:/Marmalade/7.6/examples/GameTutorial/CPP/marm1/source/pauseMenu.h'
p1246
(lp1247
I1
ag1215
asS'c:/Marmalade/7.6/examples/GameTutorial/CPP/marm1/source/Shark.h'
p1248
(lp1249
I1
ag1215
asS'c:/Marmalade/7.6/examples/GameTutorial/CPP/marm1/source/scene.cpp'
p1250
(lp1251
I1
ag1215
asS'c:/Marmalade/7.6/examples/GameTutorial/CPP/marm1/source/GameScene.h'
p1252
(lp1253
I1
ag1215
asS'c:/Marmalade/7.6/examples/GameTutorial/CPP/marm1/source/GameScene.cpp'
p1254
(lp1255
I1
ag1215
asS'c:/Marmalade/7.6/examples/GameTutorial/CPP/marm1/source/BackgroundEntity.h'
p1256
(lp1257
I1
ag1215
asS'c:/Marmalade/7.6/examples/GameTutorial/CPP/marm1/source/main.h'
p1258
(lp1259
I1
ag1215
asS'c:/Marmalade/7.6/examples/GameTutorial/CPP/marm1/source/mainMenu.h'
p1260
(lp1261
I1
ag1215
asS'c:/Marmalade/7.6/examples/GameTutorial/CPP/marm1/source/Levelmanager.cpp'
p1262
(lp1263
I1
ag1215
asS'c:/Marmalade/7.6/examples/GameTutorial/CPP/marm1/source/resources.cpp'
p1264
(lp1265
I1
ag1215
asS'c:/Marmalade/7.6/examples/GameTutorial/CPP/marm1/source/pauseMenu.cpp'
p1266
(lp1267
I1
ag1215
asS'c:/Marmalade/7.6/examples/GameTutorial/CPP/marm1/source/audio.h'
p1268
(lp1269
I1
ag1215
asS'c:/Marmalade/7.6/examples/GameTutorial/CPP/marm1/source/enemy.cpp'
p1270
(lp1271
I1
ag1215
asS'c:/Marmalade/7.6/examples/GameTutorial/CPP/marm1/source/hero.cpp'
p1272
(lp1273
I1
ag1215
asS'c:/Marmalade/7.6/examples/GameTutorial/CPP/marm1/source/input.h'
p1274
(lp1275
I1
ag1215
assS'Extensions'
p1276
(dp1277
S'PVRTexTool'
p1278
(dp1279
S'interface'
p1280
(dp1281
S'c:/marmalade/7.6/extensions/pvrtextool/interface/PVRTexTool.defines.txt'
p1282
(lp1283
I1
a(dp1284
asS'c:/marmalade/7.6/extensions/pvrtextool/interface/PVRTexTool_interface.cpp'
p1285
(lp1286
I1
ag1284
assS'c:/marmalade/7.6/extensions/pvrtextool/pvrtextool.mkf'
p1287
(lp1288
I1
a(dp1289
asS'c:/marmalade/7.6/extensions/pvrtextool/h/PVRTexTool.h'
p1290
(lp1291
I1
ag1284
asssS"'Marmalade Studio'"
p1292
(dp1293
S'iw2dscenegraph'
p1294
(dp1295
S'c:/marmalade/7.6/modules/iw2dscenegraph/h/Iw2DSceneGraph.h'
p1296
(lp1297
I1
a(dp1298
asS'c:/marmalade/7.6/modules/iw2dscenegraph/iw2dscenegraph.mkf'
p1299
(lp1300
I1
a(dp1301
asS'c:/marmalade/7.6/modules/iw2dscenegraph/docs/iw2dscenegraph.defines.txt'
p1302
(lp1303
I1
ag1298
asS'c:/marmalade/7.6/modules/iw2dscenegraph/source/Iw2DSceneGraph.cpp'
p1304
(lp1305
I1
ag1298
assS'iwgl'
p1306
(dp1307
S'c:/marmalade/7.6/modules/iwgl/h/IwGL.h'
p1308
(lp1309
I1
a(dp1310
asS'c:/marmalade/7.6/modules/iwgl/iwgl.mkf'
p1311
(lp1312
I1
a(dp1313
asS'c:/marmalade/7.6/modules/iwgl/docs/iwgl.config.txt'
p1314
(lp1315
I1
ag1310
asS'c:/marmalade/7.6/modules/iwgl/h/IwGLExt.h'
p1316
(lp1317
I1
ag1310
assS'iw2d'
p1318
(dp1319
S'c:/marmalade/7.6/modules/iw2d/iw2d.mkf'
p1320
(lp1321
I1
a(dp1322
asS'c:/marmalade/7.6/modules/iw2d/docs/iw2d_public.defines.txt'
p1323
(lp1324
I1
a(dp1325
asS'c:/marmalade/7.6/modules/iw2d/h/Iw2D.h'
p1326
(lp1327
I1
ag1325
asS'c:/marmalade/7.6/modules/iw2d/docs/iw2d.config.txt'
p1328
(lp1329
I1
ag1325
assS'iwgxfont'
p1330
(dp1331
S'c:/marmalade/7.6/modules/iwgxfont/h/IwGxFontPreparedData.h'
p1332
(lp1333
I1
a(dp1334
asS'c:/marmalade/7.6/modules/iwgxfont/h/IwGxFontState.h'
p1335
(lp1336
I1
ag1334
asS'c:/marmalade/7.6/modules/iwgxfont/iwgxfont.mkf'
p1337
(lp1338
I1
a(dp1339
asS'c:/marmalade/7.6/modules/iwgxfont/h/IwGxFontTypes.h'
p1340
(lp1341
I1
ag1334
asS'c:/marmalade/7.6/modules/iwgxfont/h/IwGxFontContainer.h'
p1342
(lp1343
I1
ag1334
asS'c:/marmalade/7.6/modules/iwgxfont/docs/iwgxfont_public.defines.txt'
p1344
(lp1345
I1
ag1334
asS'c:/marmalade/7.6/modules/iwgxfont/h/IwGxFont.h'
p1346
(lp1347
I1
ag1334
asS'c:/marmalade/7.6/modules/iwgxfont/h/IwGxFontGlyph.h'
p1348
(lp1349
I1
ag1334
asS'c:/marmalade/7.6/modules/iwgxfont/docs/iwgxfont.config.txt'
p1350
(lp1351
I1
ag1334
assS'iwgeom'
p1352
(dp1353
S'c:/marmalade/7.6/modules/iwgeom/h/IwGeomSVec3.h'
p1354
(lp1355
I1
a(dp1356
asS'c:/marmalade/7.6/modules/iwgeom/h/IwGeomFPlane.h'
p1357
(lp1358
I1
ag1356
asS'c:/marmalade/7.6/modules/iwgeom/h/IwGeomPlane.h'
p1359
(lp1360
I1
ag1356
asS'c:/marmalade/7.6/modules/iwgeom/h/IwGeomSVec2.h'
p1361
(lp1362
I1
ag1356
asS'c:/marmalade/7.6/modules/iwgeom/h/IwGeomVec3.h'
p1363
(lp1364
I1
ag1356
asS'c:/marmalade/7.6/modules/iwgeom/h/IwGeomMat2D.h'
p1365
(lp1366
I1
ag1356
asS'c:/marmalade/7.6/modules/iwgeom/h/IwGeomVec2.h'
p1367
(lp1368
I1
ag1356
asS'c:/marmalade/7.6/modules/iwgeom/h/IwGeomSqrt.h'
p1369
(lp1370
I1
ag1356
asS'c:/marmalade/7.6/modules/iwgeom/h/IwGeomQuat.h'
p1371
(lp1372
I1
ag1356
asS'c:/marmalade/7.6/modules/iwgeom/h/IwGeomMat.h.tpl'
p1373
(lp1374
I1
ag1356
asS'c:/marmalade/7.6/modules/iwgeom/h/IwGeomVec4.h'
p1375
(lp1376
I1
ag1356
asS'c:/marmalade/7.6/modules/iwgeom/docs/iwgeom.config.txt'
p1377
(lp1378
I1
ag1356
asS'c:/marmalade/7.6/modules/iwgeom/h/IwGeomBBox.h'
p1379
(lp1380
I1
ag1356
asS'c:/marmalade/7.6/modules/iwgeom/h/IwGeomFIntersect.h'
p1381
(lp1382
I1
ag1356
asS'c:/marmalade/7.6/modules/iwgeom/h/IwGeomSVec4.h'
p1383
(lp1384
I1
ag1356
asS'c:/marmalade/7.6/modules/iwgeom/h/IwGeomCore.h'
p1385
(lp1386
I1
ag1356
asS'c:/marmalade/7.6/modules/iwgeom/h/IwGeomMat.h'
p1387
(lp1388
I1
ag1356
asS'c:/marmalade/7.6/modules/iwgeom/h/IwGeomMat2D.h.tpl'
p1389
(lp1390
I1
ag1356
asS'c:/marmalade/7.6/modules/iwgeom/h/IwGeomIntersect.h'
p1391
(lp1392
I1
ag1356
asS'c:/marmalade/7.6/modules/iwgeom/h/IwGeomFQuat.h'
p1393
(lp1394
I1
ag1356
asS'c:/marmalade/7.6/modules/iwgeom/h/IwGeomVec.h'
p1395
(lp1396
I1
ag1356
asS'c:/marmalade/7.6/modules/iwgeom/h/IwGeomFMat.h'
p1397
(lp1398
I1
ag1356
asS'c:/marmalade/7.6/modules/iwgeom/h/IwGeom.h'
p1399
(lp1400
I1
ag1356
asS'c:/marmalade/7.6/modules/iwgeom/h/IwGeomMenu.h'
p1401
(lp1402
I1
ag1356
asS'c:/marmalade/7.6/modules/iwgeom/h/IwGeomFVec4.h'
p1403
(lp1404
I1
ag1356
asS'c:/marmalade/7.6/modules/iwgeom/h/IwGeomFBBox.h'
p1405
(lp1406
I1
ag1356
asS'c:/marmalade/7.6/modules/iwgeom/h/IwGeomFVec2.h'
p1407
(lp1408
I1
ag1356
asS'c:/marmalade/7.6/modules/iwgeom/h/IwGeomFMat2D.h'
p1409
(lp1410
I1
ag1356
asS'c:/marmalade/7.6/modules/iwgeom/h/IwGeomQuat.h.tpl'
p1411
(lp1412
I1
ag1356
asS'c:/marmalade/7.6/modules/iwgeom/h/IwGeomFSphere.h'
p1413
(lp1414
I1
ag1356
asS'c:/marmalade/7.6/modules/iwgeom/h/IwGeomSphere.h'
p1415
(lp1416
I1
ag1356
asS'c:/marmalade/7.6/modules/iwgeom/h/IwGeomFVec3.h'
p1417
(lp1418
I1
ag1356
asS'c:/marmalade/7.6/modules/iwgeom/h/IwGeomSQuat.h'
p1419
(lp1420
I1
ag1356
asS'c:/marmalade/7.6/modules/iwgeom/h/IwGeomVec.h.tpl'
p1421
(lp1422
I1
ag1356
asS'c:/marmalade/7.6/modules/iwgeom/h/IwGeomLegacy.h'
p1423
(lp1424
I1
ag1356
asS'c:/marmalade/7.6/modules/iwgeom/iwgeom.mkf'
p1425
(lp1426
I1
a(dp1427
assS'iwresmanager'
p1428
(dp1429
S'c:/marmalade/7.6/modules/iwresmanager/h/IwResManagerClass.h'
p1430
(lp1431
I1
a(dp1432
asS'c:/marmalade/7.6/modules/iwresmanager/h/IwResHandlerITX.h'
p1433
(lp1434
I1
ag1432
asS'c:/marmalade/7.6/modules/iwresmanager/h/IwResHandler.h'
p1435
(lp1436
I1
ag1432
asS'c:/marmalade/7.6/modules/iwresmanager/h/IwResHandlerGROUP.h'
p1437
(lp1438
I1
ag1432
asS'c:/marmalade/7.6/modules/iwresmanager/docs/iwresmanager.config.txt'
p1439
(lp1440
I1
ag1432
asS'c:/marmalade/7.6/modules/iwresmanager/h/IwResGroup.h'
p1441
(lp1442
I1
ag1432
asS'c:/marmalade/7.6/modules/iwresmanager/iwresmanager.mkf'
p1443
(lp1444
I1
a(dp1445
asS'c:/marmalade/7.6/modules/iwresmanager/h/IwResHandlerImage.h'
p1446
(lp1447
I1
ag1432
asS'c:/marmalade/7.6/modules/iwresmanager/h/IwResSerialise.h'
p1448
(lp1449
I1
ag1432
asS'c:/marmalade/7.6/modules/iwresmanager/h/IwResManager.h'
p1450
(lp1451
I1
ag1432
assS'iwgx'
p1452
(dp1453
S'c:/marmalade/7.6/modules/iwgx/h/IwGxTransformSW.h'
p1454
(lp1455
I1
a(dp1456
asS'c:/marmalade/7.6/modules/iwgx/h/IwGxDebug.h'
p1457
(lp1458
I1
ag1456
asS'c:/marmalade/7.6/modules/iwgx/h/IwMatAnim.h'
p1459
(lp1460
I1
ag1456
asS'c:/marmalade/7.6/modules/iwgx/h/IwFColour.h'
p1461
(lp1462
I1
ag1456
asS'c:/marmalade/7.6/modules/iwgx/h/IwGxFuncTable.h'
p1463
(lp1464
I1
ag1456
asS'c:/marmalade/7.6/modules/iwgx/h/IwClip.h'
p1465
(lp1466
I1
ag1456
asS'c:/marmalade/7.6/modules/iwgx/h/IwClip.inl'
p1467
(lp1468
I1
ag1456
asS'c:/marmalade/7.6/modules/iwgx/h/IwResHandlerMTL.h'
p1469
(lp1470
I1
ag1456
asS'c:/marmalade/7.6/modules/iwgx/h/IwGxError.h'
p1471
(lp1472
I1
ag1456
asS'c:/marmalade/7.6/modules/iwgx/h/IwGxMetrics.h'
p1473
(lp1474
I1
ag1456
asS'c:/marmalade/7.6/modules/iwgx/h/IwTexture.h'
p1475
(lp1476
I1
ag1456
asS'c:/marmalade/7.6/modules/iwgx/h/IwGxSurface.h'
p1477
(lp1478
I1
ag1456
asS'c:/marmalade/7.6/modules/iwgx/docs/iwgx_public.defines.txt'
p1479
(lp1480
I1
ag1456
asS'c:/marmalade/7.6/modules/iwgx/h/IwColour.h'
p1481
(lp1482
I1
ag1456
asS'c:/marmalade/7.6/modules/iwgx/h/IwDebugPrim.h'
p1483
(lp1484
I1
ag1456
asS'c:/marmalade/7.6/modules/iwgx/h/IwGxState.h'
p1485
(lp1486
I1
ag1456
asS'c:/marmalade/7.6/modules/iwgx/docs/iwgx.config.txt'
p1487
(lp1488
I1
ag1456
asS'c:/marmalade/7.6/modules/iwgx/h/IwGx.h'
p1489
(lp1490
I1
ag1456
asS'c:/marmalade/7.6/modules/iwgx/h/IwGxPrint.h'
p1491
(lp1492
I1
ag1456
asS'c:/marmalade/7.6/modules/iwgx/h/IwTPage.h'
p1493
(lp1494
I1
ag1456
asS'c:/marmalade/7.6/modules/iwgx/iwgx.mkf'
p1495
(lp1496
I1
a(dp1497
asS'c:/marmalade/7.6/modules/iwgx/h/IwGxShaderTechnique.h'
p1498
(lp1499
I1
ag1456
asS'c:/marmalade/7.6/modules/iwgx/h/IwGxStream.h'
p1500
(lp1501
I1
ag1456
asS'c:/marmalade/7.6/modules/iwgx/h/IwMaterial.h'
p1502
(lp1503
I1
ag1456
asS'c:/marmalade/7.6/modules/iwgx/h/IwGxTypes.h'
p1504
(lp1505
I1
ag1456
assS'iw2dscenegraphcore'
p1506
(dp1507
S'c:/marmalade/7.6/modules/iw2dscenegraphcore/source/Iw2DSceneGraphCore.cpp'
p1508
(lp1509
I1
a(dp1510
asS'c:/marmalade/7.6/modules/iw2dscenegraphcore/iw2dscenegraphcore.mkf'
p1511
(lp1512
I1
a(dp1513
asS'c:/marmalade/7.6/modules/iw2dscenegraphcore/h/Iw2DSceneGraphCore.h'
p1514
(lp1515
I1
ag1510
assS'iwutil'
p1516
(dp1517
S'c:/marmalade/7.6/modules/iwutil/h/IwMenu.h'
p1518
(lp1519
I1
a(dp1520
asS'c:/marmalade/7.6/modules/iwutil/h/IwFile.h'
p1521
(lp1522
I1
ag1520
asS'c:/marmalade/7.6/modules/iwutil/h/IwOptimiseARM.h'
p1523
(lp1524
I1
ag1520
asS'c:/marmalade/7.6/modules/iwutil/iwutil.mkf'
p1525
(lp1526
I1
a(dp1527
asS'c:/marmalade/7.6/modules/iwutil/h/IwArray.h'
p1528
(lp1529
I1
ag1520
asS'c:/marmalade/7.6/modules/iwutil/h/IwEvent.h'
p1530
(lp1531
I1
ag1520
asS'c:/marmalade/7.6/modules/iwutil/h/IwRandom.h'
p1532
(lp1533
I1
ag1520
asS'c:/marmalade/7.6/modules/iwutil/h/IwMemBucket.h'
p1534
(lp1535
I1
ag1520
asS'c:/marmalade/7.6/modules/iwutil/h/IwOptimiseSize.h'
p1536
(lp1537
I1
ag1520
asS'c:/marmalade/7.6/modules/iwutil/h/IwResource.h'
p1538
(lp1539
I1
ag1520
asS'c:/marmalade/7.6/modules/iwutil/h/IwTextParser.h'
p1540
(lp1541
I1
ag1520
asS'c:/marmalade/7.6/modules/iwutil/h/IwKeymap.h'
p1542
(lp1543
I1
ag1520
asS'c:/marmalade/7.6/modules/iwutil/h/IwClassFactory.h'
p1544
(lp1545
I1
ag1520
asS'c:/marmalade/7.6/modules/iwutil/h/IwPath.h'
p1546
(lp1547
I1
ag1520
asS'c:/marmalade/7.6/modules/iwutil/h/IwUtilInitTerm.h'
p1548
(lp1549
I1
ag1520
asS'c:/marmalade/7.6/modules/iwutil/h/IwVariableBitField.h'
p1550
(lp1551
I1
ag1520
asS'c:/marmalade/7.6/modules/iwutil/h/IwManaged.h'
p1552
(lp1553
I1
ag1520
asS'c:/marmalade/7.6/modules/iwutil/h/IwUTF8.h'
p1554
(lp1555
I1
ag1520
asS'c:/marmalade/7.6/modules/iwutil/h/IwTextParserITX.h'
p1556
(lp1557
I1
ag1520
asS'c:/marmalade/7.6/modules/iwutil/h/IwImage.h'
p1558
(lp1559
I1
ag1520
asS'c:/marmalade/7.6/modules/iwutil/docs/iwutil.config.txt'
p1560
(lp1561
I1
ag1520
asS'c:/marmalade/7.6/modules/iwutil/h/IwUncopyable.h'
p1562
(lp1563
I1
ag1520
asS'c:/marmalade/7.6/modules/iwutil/h/IwAllocator.h'
p1564
(lp1565
I1
ag1520
asS'c:/marmalade/7.6/modules/iwutil/h/IwDivTable.h'
p1566
(lp1567
I1
ag1520
asS'c:/marmalade/7.6/modules/iwutil/h/IwManagedList.h'
p1568
(lp1569
I1
ag1520
asS'c:/marmalade/7.6/modules/iwutil/h/IwFibre.h'
p1570
(lp1571
I1
ag1520
asS'c:/marmalade/7.6/modules/iwutil/h/IwMemBucketHelpers.h'
p1572
(lp1573
I1
ag1520
asS'c:/marmalade/7.6/modules/iwutil/h/IwCopyingPtr.h'
p1574
(lp1575
I1
ag1520
asS'c:/marmalade/7.6/modules/iwutil/h/IwCore.h'
p1576
(lp1577
I1
ag1520
asS'c:/marmalade/7.6/modules/iwutil/h/IwOptimiseThumb.h'
p1578
(lp1579
I1
ag1520
asS'c:/marmalade/7.6/modules/iwutil/h/IwProfileMenu.h'
p1580
(lp1581
I1
ag1520
asS'c:/marmalade/7.6/modules/iwutil/h/IwHashString.h'
p1582
(lp1583
I1
ag1520
asS'c:/marmalade/7.6/modules/iwutil/h/IwMath.h'
p1584
(lp1585
I1
ag1520
asS'c:/marmalade/7.6/modules/iwutil/h/IwString.h'
p1586
(lp1587
I1
ag1520
asS'c:/marmalade/7.6/modules/iwutil/h/IwList.h'
p1588
(lp1589
I1
ag1520
asS'c:/marmalade/7.6/modules/iwutil/h/IwTextParseable.h'
p1590
(lp1591
I1
ag1520
asS'c:/marmalade/7.6/modules/iwutil/h/IwOptimiseSpeed.h'
p1592
(lp1593
I1
ag1520
asS'c:/marmalade/7.6/modules/iwutil/h/IwMemManagerDL.h'
p1594
(lp1595
I1
ag1520
asS'c:/marmalade/7.6/modules/iwutil/h/IwSingleton.h'
p1596
(lp1597
I1
ag1520
asS'c:/marmalade/7.6/modules/iwutil/h/IwUtil.h'
p1598
(lp1599
I1
ag1520
asS'c:/marmalade/7.6/modules/iwutil/h/IwImageHelper.h'
p1600
(lp1601
I1
ag1520
asS'c:/marmalade/7.6/modules/iwutil/h/IwDebug.h'
p1602
(lp1603
I1
ag1520
asS'c:/marmalade/7.6/modules/iwutil/h/IwBuffer.h'
p1604
(lp1605
I1
ag1520
asS'c:/marmalade/7.6/modules/iwutil/h/IwRuntime.h'
p1606
(lp1607
I1
ag1520
asS'c:/marmalade/7.6/modules/iwutil/h/IwChar.h'
p1608
(lp1609
I1
ag1520
asS'c:/marmalade/7.6/modules/iwutil/h/IwAutoFile.h'
p1610
(lp1611
I1
ag1520
asS'c:/marmalade/7.6/modules/iwutil/h/IwSerialise.h'
p1612
(lp1613
I1
ag1520
asS'c:/marmalade/7.6/modules/iwutil/h/IwDivide.h'
p1614
(lp1615
I1
ag1520
asS'c:/marmalade/7.6/modules/iwutil/h/IwTypes.h'
p1616
(lp1617
I1
ag1520
asS'c:/marmalade/7.6/modules/iwutil/h/IwMemory.h'
p1618
(lp1619
I1
ag1520
asssS'(zlib)'
p1620
(dp1621
g1099
(dp1622
S'c:/marmalade/7.6/modules/third_party/zlib/h/zlib.h'
p1623
(lp1624
I1
a(dp1625
asS'c:/marmalade/7.6/modules/third_party/zlib/h/zconf.h'
p1626
(lp1627
I1
ag1625
assS'c:/marmalade/7.6/modules/third_party/zlib/zlib.mkf'
p1628
(lp1629
I1
a(dp1630
assS'(iwtween)'
p1631
(dp1632
S'c:/marmalade/7.6/modules/iwtween/iwtween.mkf'
p1633
(lp1634
I1
a(dp1635
asS'c:/marmalade/7.6/modules/iwtween/source/IwTween.cpp'
p1636
(lp1637
I1
a(dp1638
asS'c:/marmalade/7.6/modules/iwtween/h/IwTween.h'
p1639
(lp1640
I1
ag1638
assS'(s3e-default)'
p1641
(dp1642
S'c:/marmalade/7.6/s3e/s3e-default.mkf'
p1643
(lp1644
I1
a(dp1645
asssS'files'
p1646
(dp1647
S'IwGxFontPreparedData.h'
p1648
g330
(cmkb_main
File
p1649
g332
Ntp1650
Rp1651
(dp1652
S'flags'
p1653
g1334
sS'group'
p1654
(lp1655
S"'Marmalade Studio'"
p1656
ag1330
asg356
g1332
sbsS'iterator'
p1657
g330
(g1649
g332
Ntp1658
Rp1659
(dp1660
g1653
(dp1661
sg1654
(lp1662
S"'Marmalade System (S3E)'"
p1663
aS'stdc headers'
p1664
aS'c++'
p1665
asg356
S'c:/marmalade/7.6/s3e/h/std/c++/iterator'
p1666
sbsS'IwGL.h'
p1667
g330
(g1649
g332
Ntp1668
Rp1669
(dp1670
g1653
g1310
sg1654
(lp1671
S"'Marmalade Studio'"
p1672
ag1306
asg356
g1308
sbsS's3e.h'
p1673
g330
(g1649
g332
Ntp1674
Rp1675
(dp1676
g1653
g1661
sg1654
(lp1677
g1663
asg356
S'c:/marmalade/7.6/s3e/h/s3e.h'
p1678
sbsS'errno.h'
p1679
g330
(g1649
g332
Ntp1680
Rp1681
(dp1682
g1653
g1661
sg1654
(lp1683
g1663
aS'stdc headers'
p1684
asg356
S'c:/marmalade/7.6/s3e/h/std/errno.h'
p1685
sbsS'IwSingleton.h'
p1686
g330
(g1649
g332
Ntp1687
Rp1688
(dp1689
g1653
g1520
sg1654
(lp1690
S"'Marmalade Studio'"
p1691
ag1516
asg356
g1596
sbsS'dlfcn.h'
p1692
g330
(g1649
g332
Ntp1693
Rp1694
(dp1695
g1653
g1661
sg1654
g1683
sg356
S'c:/marmalade/7.6/s3e/h/std/dlfcn.h'
p1696
sbsS'IwSoundWAV.cpp'
p1697
g330
(g1649
g332
Ntp1698
Rp1699
(dp1700
g1653
g1158
sg1654
(lp1701
g1154
asg356
g1159
sbsS'sched.h'
p1702
g330
(g1649
g332
Ntp1703
Rp1704
(dp1705
g1653
g1661
sg1654
g1683
sg356
S'c:/marmalade/7.6/s3e/h/std/sched.h'
p1706
sbsS'IwSoundPCM.h'
p1707
g330
(g1649
g332
Ntp1708
Rp1709
(dp1710
g1653
g1158
sg1654
g1701
sg356
g1169
sbsS'IwGeomFMat2D.h'
p1711
g330
(g1649
g332
Ntp1712
Rp1713
(dp1714
g1653
g1356
sg1654
(lp1715
S"'Marmalade Studio'"
p1716
ag1352
asg356
g1409
sbsS'cassert'
p1717
g330
(g1649
g332
Ntp1718
Rp1719
(dp1720
g1653
g1661
sg1654
g1662
sg356
S'c:/marmalade/7.6/s3e/h/std/c++/cassert'
p1721
sbsS'grp.h'
p1722
g330
(g1649
g332
Ntp1723
Rp1724
(dp1725
g1653
g1661
sg1654
g1683
sg356
S'c:/marmalade/7.6/s3e/h/std/grp.h'
p1726
sbsS'list'
p1727
g330
(g1649
g332
Ntp1728
Rp1729
(dp1730
g1653
g1661
sg1654
g1662
sg356
S'c:/marmalade/7.6/s3e/h/std/c++/list'
p1731
sbsS'IwSoundSpec.cpp'
p1732
g330
(g1649
g332
Ntp1733
Rp1734
(dp1735
g1653
g1158
sg1654
g1701
sg356
g1200
sbsS'IwGeomMat.h.tpl'
p1736
g330
(g1649
g332
Ntp1737
Rp1738
(dp1739
g1653
g1356
sg1654
g1715
sg356
g1373
sbsS'istream'
p1740
g330
(g1649
g332
Ntp1741
Rp1742
(dp1743
g1653
g1661
sg1654
g1662
sg356
S'c:/marmalade/7.6/s3e/h/std/c++/istream'
p1744
sbsS'jpeglib.h'
p1745
g330
(g1649
g332
Ntp1746
Rp1747
(dp1748
g1653
g1114
sg1654
(lp1749
g1109
ag1099
asg356
g1112
sbsS'iw2d_public.defines.txt'
p1750
g330
(g1649
g332
Ntp1751
Rp1752
(dp1753
g1653
g1325
sg1654
(lp1754
S"'Marmalade Studio'"
p1755
ag1318
asg356
g1323
sbsS'iostream.h'
p1756
g330
(g1649
g332
Ntp1757
Rp1758
(dp1759
g1653
g1661
sg1654
g1662
sg356
S'c:/marmalade/7.6/s3e/h/std/c++/iostream.h'
p1760
sbsS'IwSoundADPCM.h'
p1761
g330
(g1649
g332
Ntp1762
Rp1763
(dp1764
g1653
g1158
sg1654
g1701
sg356
g1173
sbsS'string'
p1765
g330
(g1649
g332
Ntp1766
Rp1767
(dp1768
g1653
g1661
sg1654
g1662
sg356
S'c:/marmalade/7.6/s3e/h/std/c++/string'
p1769
sbsS'IwMemory.h'
p1770
g330
(g1649
g332
Ntp1771
Rp1772
(dp1773
g1653
g1520
sg1654
g1690
sg356
g1618
sbsS'IwGeomPlane.h'
p1774
g330
(g1649
g332
Ntp1775
Rp1776
(dp1777
g1653
g1356
sg1654
g1715
sg356
g1359
sbsS'iw2d.config.txt'
p1778
g330
(g1649
g332
Ntp1779
Rp1780
(dp1781
g1653
g1325
sg1654
g1754
sg356
g1328
sbsS'iomanip'
p1782
g330
(g1649
g332
Ntp1783
Rp1784
(dp1785
g1653
g1661
sg1654
g1662
sg356
S'c:/marmalade/7.6/s3e/h/std/c++/iomanip'
p1786
sbsS'iwgeom.mkf'
p1787
g330
(g1649
g332
Ntp1788
Rp1789
(dp1790
g1653
g1427
sg1654
g1715
sg356
g1425
sbsS'IwGxError.h'
p1791
g330
(g1649
g332
Ntp1792
Rp1793
(dp1794
g1653
g1456
sg1654
(lp1795
S"'Marmalade Studio'"
p1796
ag1452
asg356
g1471
sbsS'IwGeom.h'
p1797
g330
(g1649
g332
Ntp1798
Rp1799
(dp1800
g1653
g1356
sg1654
g1715
sg356
g1399
sbsS'scene.cpp'
p1801
g330
(g1649
g332
Ntp1802
Rp1803
(dp1804
g1653
g1215
sg1654
(lp1805
g1211
asg356
g1250
sbsS'IwGeomVec4.h'
p1806
g330
(g1649
g332
Ntp1807
Rp1808
(dp1809
g1653
g1356
sg1654
g1715
sg356
g1375
sbsS'dir.h'
p1810
g330
(g1649
g332
Ntp1811
Rp1812
(dp1813
g1653
g1661
sg1654
(lp1814
g1663
aS'stdc headers'
p1815
aS'sys'
p1816
asg356
S'c:/marmalade/7.6/s3e/h/std/sys/dir.h'
p1817
sbsS'locale.h'
p1818
g330
(g1649
g332
Ntp1819
Rp1820
(dp1821
g1653
g1661
sg1654
g1683
sg356
S'c:/marmalade/7.6/s3e/h/std/locale.h'
p1822
sbsS'vector'
p1823
g330
(g1649
g332
Ntp1824
Rp1825
(dp1826
g1653
g1661
sg1654
g1662
sg356
S'c:/marmalade/7.6/s3e/h/std/c++/vector'
p1827
sbsS'IwManaged.h'
p1828
g330
(g1649
g332
Ntp1829
Rp1830
(dp1831
g1653
g1520
sg1654
g1690
sg356
g1552
sbsS's3eCompass.h'
p1832
g330
(g1649
g332
Ntp1833
Rp1834
(dp1835
g1653
g1661
sg1654
g1677
sg356
S'c:/marmalade/7.6/s3e/h/s3eCompass.h'
p1836
sbsS'cderror.h'
p1837
g330
(g1649
g332
Ntp1838
Rp1839
(dp1840
g1653
g1114
sg1654
g1749
sg356
g1129
sbsS'climits'
p1841
g330
(g1649
g332
Ntp1842
Rp1843
(dp1844
g1653
g1661
sg1654
g1662
sg356
S'c:/marmalade/7.6/s3e/h/std/c++/climits'
p1845
sbsS's3eVibra.h'
p1846
g330
(g1649
g332
Ntp1847
Rp1848
(dp1849
g1653
g1661
sg1654
g1677
sg356
S'c:/marmalade/7.6/s3e/h/s3eVibra.h'
p1850
sbsS'jversion.h'
p1851
g330
(g1649
g332
Ntp1852
Rp1853
(dp1854
g1653
g1114
sg1654
g1749
sg356
g1131
sbsS'fnmatch.h'
p1855
g330
(g1649
g332
Ntp1856
Rp1857
(dp1858
g1653
g1661
sg1654
g1683
sg356
S'c:/marmalade/7.6/s3e/h/std/fnmatch.h'
p1859
sbsS'IwGxState.h'
p1860
g330
(g1649
g332
Ntp1861
Rp1862
(dp1863
g1653
g1456
sg1654
g1795
sg356
g1485
sbsS'rope'
p1864
g330
(g1649
g332
Ntp1865
Rp1866
(dp1867
g1653
g1661
sg1654
g1662
sg356
S'c:/marmalade/7.6/s3e/h/std/c++/rope'
p1868
sbsS's3eAudio.h'
p1869
g330
(g1649
g332
Ntp1870
Rp1871
(dp1872
g1653
g1661
sg1654
g1677
sg356
S'c:/marmalade/7.6/s3e/h/s3eAudio.h'
p1873
sbsS's3eSurface.h'
p1874
g330
(g1649
g332
Ntp1875
Rp1876
(dp1877
g1653
g1661
sg1654
g1677
sg356
S'c:/marmalade/7.6/s3e/h/s3eSurface.h'
p1878
sbsS'new'
p1879
g330
(g1649
g332
Ntp1880
Rp1881
(dp1882
g1653
g1661
sg1654
g1662
sg356
S'c:/marmalade/7.6/s3e/h/std/c++/new'
p1883
sbsS's3eWindow.h'
p1884
g330
(g1649
g332
Ntp1885
Rp1886
(dp1887
g1653
g1661
sg1654
(lp1888
g1663
aS'Extensions'
p1889
asg356
S'c:/marmalade/7.6/s3e/h/ext/s3eWindow.h'
p1890
sbsS'IwBuffer.h'
p1891
g330
(g1649
g332
Ntp1892
Rp1893
(dp1894
g1653
g1520
sg1654
g1690
sg356
g1604
sbsS'stdio_streambuf'
p1895
g330
(g1649
g332
Ntp1896
Rp1897
(dp1898
g1653
g1661
sg1654
g1662
sg356
S'c:/marmalade/7.6/s3e/h/std/c++/stdio_streambuf'
p1899
sbsS'IwGeomQuat.h.tpl'
p1900
g330
(g1649
g332
Ntp1901
Rp1902
(dp1903
g1653
g1356
sg1654
g1715
sg356
g1411
sbsS's3eOSExec.h'
p1904
g330
(g1649
g332
Ntp1905
Rp1906
(dp1907
g1653
g1661
sg1654
g1888
sg356
S'c:/marmalade/7.6/s3e/h/ext/s3eOSExec.h'
p1908
sbsS'IwGxTransformSW.h'
p1909
g330
(g1649
g332
Ntp1910
Rp1911
(dp1912
g1653
g1456
sg1654
g1795
sg356
g1454
sbsS'unistd.h'
p1913
g330
(g1649
g332
Ntp1914
Rp1915
(dp1916
g1653
g1661
sg1654
g1683
sg356
S'c:/marmalade/7.6/s3e/h/std/unistd.h'
p1917
sbsS'iwgxfont.config.txt'
p1918
g330
(g1649
g332
Ntp1919
Rp1920
(dp1921
g1653
g1334
sg1654
g1655
sg356
g1350
sbsS'gl2platform.h'
p1922
g330
(g1649
g332
Ntp1923
Rp1924
(dp1925
g1653
g1661
sg1654
(lp1926
g1663
aS'GL'
p1927
aS'GLES 2.0'
p1928
asg356
S'c:/marmalade/7.6/s3e/h/GLES2/gl2platform.h'
p1929
sbsS'IwResManagerClass.h'
p1930
g330
(g1649
g332
Ntp1931
Rp1932
(dp1933
g1653
g1432
sg1654
(lp1934
g1292
ag1428
asg356
g1430
sbsS'queue'
p1935
g330
(g1649
g332
Ntp1936
Rp1937
(dp1938
g1653
g1661
sg1654
g1662
sg356
S'c:/marmalade/7.6/s3e/h/std/c++/queue'
p1939
sbsS'time_1.h'
p1940
g330
(g1649
g332
Ntp1941
Rp1942
(dp1943
g1653
g1661
sg1654
g1814
sg356
S'c:/marmalade/7.6/s3e/h/std/sys/time.h'
p1944
sbsS'Iw2D.h'
p1945
g330
(g1649
g332
Ntp1946
Rp1947
(dp1948
g1653
g1325
sg1654
g1754
sg356
g1326
sbsS'IwGeomVec2.h'
p1949
g330
(g1649
g332
Ntp1950
Rp1951
(dp1952
g1653
g1356
sg1654
g1715
sg356
g1367
sbsS'sendfile.h'
p1953
g330
(g1649
g332
Ntp1954
Rp1955
(dp1956
g1653
g1661
sg1654
g1814
sg356
S'c:/marmalade/7.6/s3e/h/std/sys/sendfile.h'
p1957
sbsS'malloc.h'
p1958
g330
(g1649
g332
Ntp1959
Rp1960
(dp1961
g1653
g1661
sg1654
g1683
sg356
S'c:/marmalade/7.6/s3e/h/std/malloc.h'
p1962
sbsS'stdarg.h'
p1963
g330
(g1649
g332
Ntp1964
Rp1965
(dp1966
g1653
g1661
sg1654
g1683
sg356
S'c:/marmalade/7.6/s3e/h/std/stdarg.h'
p1967
sbsS'IwGeomCore.h'
p1968
g330
(g1649
g332
Ntp1969
Rp1970
(dp1971
g1653
g1356
sg1654
g1715
sg356
g1385
sbsS'Iw2DSceneGraph.h'
p1972
g330
(g1649
g332
Ntp1973
Rp1974
(dp1975
g1653
g1298
sg1654
(lp1976
S"'Marmalade Studio'"
p1977
ag1294
asg356
g1296
sbsS'endian.h'
p1978
g330
(g1649
g332
Ntp1979
Rp1980
(dp1981
g1653
g1661
sg1654
g1683
sg356
S'c:/marmalade/7.6/s3e/h/std/endian.h'
p1982
sbsS'gl3ext.h'
p1983
g330
(g1649
g332
Ntp1984
Rp1985
(dp1986
g1653
g1661
sg1654
(lp1987
g1663
aS'GL'
p1988
aS'GLES 3.0'
p1989
asg356
S'c:/marmalade/7.6/s3e/h/GLES3/gl3ext.h'
p1990
sbsS'glob.h'
p1991
g330
(g1649
g332
Ntp1992
Rp1993
(dp1994
g1653
g1661
sg1654
g1683
sg356
S'c:/marmalade/7.6/s3e/h/std/glob.h'
p1995
sbsS'fstream'
p1996
g330
(g1649
g332
Ntp1997
Rp1998
(dp1999
g1653
g1661
sg1654
g1662
sg356
S'c:/marmalade/7.6/s3e/h/std/c++/fstream'
p2000
sbsS's3eCamera.h'
p2001
g330
(g1649
g332
Ntp2002
Rp2003
(dp2004
g1653
g1661
sg1654
g1677
sg356
S'c:/marmalade/7.6/s3e/h/s3eCamera.h'
p2005
sbsS'jconfig.h'
p2006
g330
(g1649
g332
Ntp2007
Rp2008
(dp2009
g1653
g1114
sg1654
g1749
sg356
g1121
sbsS'memory'
p2010
g330
(g1649
g332
Ntp2011
Rp2012
(dp2013
g1653
g1661
sg1654
g1662
sg356
S'c:/marmalade/7.6/s3e/h/std/c++/memory'
p2014
sbsS'egl.h'
p2015
g330
(g1649
g332
Ntp2016
Rp2017
(dp2018
g1653
g1661
sg1654
(lp2019
g1663
aS'GL'
p2020
aS'EGL'
p2021
asg356
S'c:/marmalade/7.6/s3e/h/EGL/egl.h'
p2022
sbsS'egl_1.h'
p2023
g330
(g1649
g332
Ntp2024
Rp2025
(dp2026
g1653
g1661
sg1654
(lp2027
g1663
aS'GL'
p2028
aS'GLES 1.x'
p2029
asg356
S'c:/marmalade/7.6/s3e/h/GLES/egl.h'
p2030
sbsS'IwMemManagerDL.h'
p2031
g330
(g1649
g332
Ntp2032
Rp2033
(dp2034
g1653
g1520
sg1654
g1690
sg356
g1594
sbsS'deque'
p2035
g330
(g1649
g332
Ntp2036
Rp2037
(dp2038
g1653
g1661
sg1654
g1662
sg356
S'c:/marmalade/7.6/s3e/h/std/c++/deque'
p2039
sbsS'IwString.h'
p2040
g330
(g1649
g332
Ntp2041
Rp2042
(dp2043
g1653
g1520
sg1654
g1690
sg356
g1586
sbsS'GameScene.h'
p2044
g330
(g1649
g332
Ntp2045
Rp2046
(dp2047
g1653
g1215
sg1654
g1805
sg356
g1252
sbsS'cwchar'
p2048
g330
(g1649
g332
Ntp2049
Rp2050
(dp2051
g1653
g1661
sg1654
g1662
sg356
S'c:/marmalade/7.6/s3e/h/std/c++/cwchar'
p2052
sbsS'iwutil.mkf'
p2053
g330
(g1649
g332
Ntp2054
Rp2055
(dp2056
g1653
g1527
sg1654
g1690
sg356
g1525
sbsS'csignal'
p2057
g330
(g1649
g332
Ntp2058
Rp2059
(dp2060
g1653
g1661
sg1654
g1662
sg356
S'c:/marmalade/7.6/s3e/h/std/c++/csignal'
p2061
sbsS'pthread_types.h'
p2062
g330
(g1649
g332
Ntp2063
Rp2064
(dp2065
g1653
g1661
sg1654
g1683
sg356
S'c:/marmalade/7.6/s3e/h/std/pthread_types.h'
p2066
sbsS'pthread_alloc'
p2067
g330
(g1649
g332
Ntp2068
Rp2069
(dp2070
g1653
g1661
sg1654
g1662
sg356
S'c:/marmalade/7.6/s3e/h/std/c++/pthread_alloc'
p2071
sbsS'getopt.h'
p2072
g330
(g1649
g332
Ntp2073
Rp2074
(dp2075
g1653
g1661
sg1654
g1683
sg356
S'c:/marmalade/7.6/s3e/h/std/getopt.h'
p2076
sbsS'IwOptimiseARM.h'
p2077
g330
(g1649
g332
Ntp2078
Rp2079
(dp2080
g1653
g1520
sg1654
g1690
sg356
g1523
sbsS'times.h'
p2081
g330
(g1649
g332
Ntp2082
Rp2083
(dp2084
g1653
g1661
sg1654
g1814
sg356
S'c:/marmalade/7.6/s3e/h/std/sys/times.h'
p2085
sbsS'IwGeomFSphere.h'
p2086
g330
(g1649
g332
Ntp2087
Rp2088
(dp2089
g1653
g1356
sg1654
g1715
sg356
g1413
sbsS'functional'
p2090
g330
(g1649
g332
Ntp2091
Rp2092
(dp2093
g1653
g1661
sg1654
g1662
sg356
S'c:/marmalade/7.6/s3e/h/std/c++/functional'
p2094
sbsS'IwTypes.h'
p2095
g330
(g1649
g332
Ntp2096
Rp2097
(dp2098
g1653
g1520
sg1654
g1690
sg356
g1616
sbsS'IwGxMetrics.h'
p2099
g330
(g1649
g332
Ntp2100
Rp2101
(dp2102
g1653
g1456
sg1654
g1795
sg356
g1473
sbsS'audio.cpp'
p2103
g330
(g1649
g332
Ntp2104
Rp2105
(dp2106
g1653
g1215
sg1654
g1805
sg356
g1230
sbsS's3eCompression.h'
p2107
g330
(g1649
g332
Ntp2108
Rp2109
(dp2110
g1653
g1661
sg1654
g1677
sg356
S'c:/marmalade/7.6/s3e/h/s3eCompression.h'
p2111
sbsS'langinfo.h'
p2112
g330
(g1649
g332
Ntp2113
Rp2114
(dp2115
g1653
g1661
sg1654
g1683
sg356
S'c:/marmalade/7.6/s3e/h/std/langinfo.h'
p2116
sbsS's3edebugHeap.h'
p2117
g330
(g1649
g332
Ntp2118
Rp2119
(dp2120
g1653
g1661
sg1654
g1888
sg356
S'c:/marmalade/7.6/s3e/h/ext/s3edebugHeap.h'
p2121
sbsS'AirplayVersion.h'
p2122
g330
(g1649
g332
Ntp2123
Rp2124
(dp2125
g1653
g1661
sg1654
g1677
sg356
S'c:/marmalade/7.6/s3e/h/AirplayVersion.h'
p2126
sbsS'gl2extimg.h'
p2127
g330
(g1649
g332
Ntp2128
Rp2129
(dp2130
g1653
g1661
sg1654
g1926
sg356
S'c:/marmalade/7.6/s3e/h/GLES2/gl2extimg.h'
p2131
sbsS'IwGeomSqrt.h'
p2132
g330
(g1649
g332
Ntp2133
Rp2134
(dp2135
g1653
g1356
sg1654
g1715
sg356
g1369
sbsS'tiniconv_int.h'
p2136
g330
(g1649
g332
Ntp2137
Rp2138
(dp2139
g1653
g1148
sg1654
(lp2140
g1144
asg356
g1149
sbsS'syslog.h'
p2141
g330
(g1649
g332
Ntp2142
Rp2143
(dp2144
g1653
g1661
sg1654
g1683
sg356
S'c:/marmalade/7.6/s3e/h/std/syslog.h'
p2145
sbsS'IwGxFontTypes.h'
p2146
g330
(g1649
g332
Ntp2147
Rp2148
(dp2149
g1653
g1334
sg1654
g1655
sg356
g1340
sbsS'IwGeomFIntersect.h'
p2150
g330
(g1649
g332
Ntp2151
Rp2152
(dp2153
g1653
g1356
sg1654
g1715
sg356
g1381
sbsS'hash_map'
p2154
g330
(g1649
g332
Ntp2155
Rp2156
(dp2157
g1653
g1661
sg1654
g1662
sg356
S'c:/marmalade/7.6/s3e/h/std/c++/hash_map'
p2158
sbsS's3e.mkf'
p2159
g330
(g1649
g332
Ntp2160
Rp2161
(dp2162
g1653
(dp2163
sg1654
g1677
sg356
S'c:/marmalade/7.6/s3e/s3e.mkf'
p2164
sbsS'IwGeomMat2D.h.tpl'
p2165
g330
(g1649
g332
Ntp2166
Rp2167
(dp2168
g1653
g1356
sg1654
g1715
sg356
g1389
sbsS's3eOSReadString.h'
p2169
g330
(g1649
g332
Ntp2170
Rp2171
(dp2172
g1653
g1661
sg1654
g1888
sg356
S'c:/marmalade/7.6/s3e/h/ext/s3eOSReadString.h'
p2173
sbsS'IwSound.h'
p2174
g330
(g1649
g332
Ntp2175
Rp2176
(dp2177
g1653
g1158
sg1654
g1701
sg356
g1183
sbsS'map'
p2178
g330
(g1649
g332
Ntp2179
Rp2180
(dp2181
g1653
g1661
sg1654
g1662
sg356
S'c:/marmalade/7.6/s3e/h/std/c++/map'
p2182
sbsS'iwtween.mkf'
p2183
g330
(g1649
g332
Ntp2184
Rp2185
(dp2186
g1653
g1635
sg1654
(lp2187
g1631
asg356
g1633
sbsS'IwOptimiseSpeed.h'
p2188
g330
(g1649
g332
Ntp2189
Rp2190
(dp2191
g1653
g1520
sg1654
g1690
sg356
g1592
sbsS'ostream'
p2192
g330
(g1649
g332
Ntp2193
Rp2194
(dp2195
g1653
g1661
sg1654
g1662
sg356
S'c:/marmalade/7.6/s3e/h/std/c++/ostream'
p2196
sbsS'msl_string.h'
p2197
g330
(g1649
g332
Ntp2198
Rp2199
(dp2200
g1653
g1661
sg1654
g1662
sg356
S'c:/marmalade/7.6/s3e/h/std/c++/msl_string.h'
p2201
sbsS'select.h'
p2202
g330
(g1649
g332
Ntp2203
Rp2204
(dp2205
g1653
g1661
sg1654
g1814
sg356
S'c:/marmalade/7.6/s3e/h/std/sys/select.h'
p2206
sbsS'hero.cpp'
p2207
g330
(g1649
g332
Ntp2208
Rp2209
(dp2210
g1653
g1215
sg1654
g1805
sg356
g1272
sbsS'zlib.mkf'
p2211
g330
(g1649
g332
Ntp2212
Rp2213
(dp2214
g1653
g1630
sg1654
(lp2215
g1620
asg356
g1628
sbsS'signal.h'
p2216
g330
(g1649
g332
Ntp2217
Rp2218
(dp2219
g1653
g1661
sg1654
g1683
sg356
S'c:/marmalade/7.6/s3e/h/std/signal.h'
p2220
sbsS'sigcontext.h'
p2221
g330
(g1649
g332
Ntp2222
Rp2223
(dp2224
g1653
g1661
sg1654
g1683
sg356
S'c:/marmalade/7.6/s3e/h/std/sigcontext.h'
p2225
sbsS'libpng.mkf'
p2226
g330
(g1649
g332
Ntp2227
Rp2228
(dp2229
g1653
g1108
sg1654
(lp2230
g1097
asg356
g1106
sbsS's3eClipboard.h'
p2231
g330
(g1649
g332
Ntp2232
Rp2233
(dp2234
g1653
g1661
sg1654
g1677
sg356
S'c:/marmalade/7.6/s3e/h/s3eClipboard.h'
p2235
sbsS'IwGxFuncTable.h'
p2236
g330
(g1649
g332
Ntp2237
Rp2238
(dp2239
g1653
g1456
sg1654
g1795
sg356
g1463
sbsS'IwResHandlerGROUP.h'
p2240
g330
(g1649
g332
Ntp2241
Rp2242
(dp2243
g1653
g1432
sg1654
g1934
sg356
g1437
sbsS's3eDebug.h'
p2244
g330
(g1649
g332
Ntp2245
Rp2246
(dp2247
g1653
g1661
sg1654
g1677
sg356
S'c:/marmalade/7.6/s3e/h/s3eDebug.h'
p2248
sbsS'socket.h'
p2249
g330
(g1649
g332
Ntp2250
Rp2251
(dp2252
g1653
g1661
sg1654
g1814
sg356
S'c:/marmalade/7.6/s3e/h/std/sys/socket.h'
p2253
sbsS'glext.h'
p2254
g330
(g1649
g332
Ntp2255
Rp2256
(dp2257
g1653
g1661
sg1654
g2027
sg356
S'c:/marmalade/7.6/s3e/h/GLES/glext.h'
p2258
sbsS'typeinfo.h'
p2259
g330
(g1649
g332
Ntp2260
Rp2261
(dp2262
g1653
g1661
sg1654
g1662
sg356
S'c:/marmalade/7.6/s3e/h/std/c++/typeinfo.h'
p2263
sbsS'typeinfo'
p2264
g330
(g1649
g332
Ntp2265
Rp2266
(dp2267
g1653
g1661
sg1654
g1662
sg356
S'c:/marmalade/7.6/s3e/h/std/c++/typeinfo'
p2268
sbsS'iwsound.config.txt'
p2269
g330
(g1649
g332
Ntp2270
Rp2271
(dp2272
g1653
g1158
sg1654
(lp2273
g1154
ag1175
asg356
g1177
sbsS'fstream.h'
p2274
g330
(g1649
g332
Ntp2275
Rp2276
(dp2277
g1653
g1661
sg1654
g1662
sg356
S'c:/marmalade/7.6/s3e/h/std/c++/fstream.h'
p2278
sbsS'IwGeomMat.h'
p2279
g330
(g1649
g332
Ntp2280
Rp2281
(dp2282
g1653
g1356
sg1654
g1715
sg356
g1387
sbsS's3ePointer.h'
p2283
g330
(g1649
g332
Ntp2284
Rp2285
(dp2286
g1653
g1661
sg1654
g1677
sg356
S'c:/marmalade/7.6/s3e/h/s3ePointer.h'
p2287
sbsS'IwMemBucket.h'
p2288
g330
(g1649
g332
Ntp2289
Rp2290
(dp2291
g1653
g1520
sg1654
g1690
sg356
g1534
sbsS'PVRTexTool.h'
p2292
g330
(g1649
g332
Ntp2293
Rp2294
(dp2295
g1653
g1284
sg1654
(lp2296
g1276
ag1278
asg356
g1290
sbsS's3eGL.h'
p2297
g330
(g1649
g332
Ntp2298
Rp2299
(dp2300
g1653
g1661
sg1654
g1677
sg356
S'c:/marmalade/7.6/s3e/h/s3eGL.h'
p2301
sbsS'IwGeomFVec2.h'
p2302
g330
(g1649
g332
Ntp2303
Rp2304
(dp2305
g1653
g1356
sg1654
g1715
sg356
g1407
sbsS'IwGeomSVec4.h'
p2306
g330
(g1649
g332
Ntp2307
Rp2308
(dp2309
g1653
g1356
sg1654
g1715
sg356
g1383
sbsS'BackgroundEntity.cpp'
p2310
g330
(g1649
g332
Ntp2311
Rp2312
(dp2313
g1653
g1215
sg1654
g1805
sg356
g1244
sbsS'poll.h'
p2314
g330
(g1649
g332
Ntp2315
Rp2316
(dp2317
g1653
g1661
sg1654
g1683
sg356
S'c:/marmalade/7.6/s3e/h/std/poll.h'
p2318
sbsS'IwMatAnim.h'
p2319
g330
(g1649
g332
Ntp2320
Rp2321
(dp2322
g1653
g1456
sg1654
g1795
sg356
g1459
sbsS'IwGeomFVec4.h'
p2323
g330
(g1649
g332
Ntp2324
Rp2325
(dp2326
g1653
g1356
sg1654
g1715
sg356
g1403
sbsS'IwGx.h'
p2327
g330
(g1649
g332
Ntp2328
Rp2329
(dp2330
g1653
g1456
sg1654
g1795
sg356
g1489
sbsS'valarray'
p2331
g330
(g1649
g332
Ntp2332
Rp2333
(dp2334
g1653
g1661
sg1654
g1662
sg356
S'c:/marmalade/7.6/s3e/h/std/c++/valarray'
p2335
sbsS'iosfwd'
p2336
g330
(g1649
g332
Ntp2337
Rp2338
(dp2339
g1653
g1661
sg1654
g1662
sg356
S'c:/marmalade/7.6/s3e/h/std/c++/iosfwd'
p2340
sbsS'gl2.h'
p2341
g330
(g1649
g332
Ntp2342
Rp2343
(dp2344
g1653
g1661
sg1654
g1926
sg356
S'c:/marmalade/7.6/s3e/h/GLES2/gl2.h'
p2345
sbsS'jpegint.h'
p2346
g330
(g1649
g332
Ntp2347
Rp2348
(dp2349
g1653
g1114
sg1654
g1749
sg356
g1123
sbsS'stdiostream.h'
p2350
g330
(g1649
g332
Ntp2351
Rp2352
(dp2353
g1653
g1661
sg1654
g1662
sg356
S'c:/marmalade/7.6/s3e/h/std/c++/stdiostream.h'
p2354
sbsS'mem.h'
p2355
g330
(g1649
g332
Ntp2356
Rp2357
(dp2358
g1653
g1661
sg1654
g1662
sg356
S'c:/marmalade/7.6/s3e/h/std/c++/mem.h'
p2359
sbsS'jerror.h'
p2360
g330
(g1649
g332
Ntp2361
Rp2362
(dp2363
g1653
g1114
sg1654
g1749
sg356
g1119
sbsS'zconf.h'
p2364
g330
(g1649
g332
Ntp2365
Rp2366
(dp2367
g1653
g1625
sg1654
(lp2368
g1620
ag1099
asg356
g1626
sbsS's3e.config.txt'
p2369
g330
(g1649
g332
Ntp2370
Rp2371
(dp2372
g1653
g1661
sg1654
g1677
sg356
S'c:/marmalade/7.6/s3e/s3e.config.txt'
p2373
sbsS'numeric'
p2374
g330
(g1649
g332
Ntp2375
Rp2376
(dp2377
g1653
g1661
sg1654
g1662
sg356
S'c:/marmalade/7.6/s3e/h/std/c++/numeric'
p2378
sbsS'utime.h'
p2379
g330
(g1649
g332
Ntp2380
Rp2381
(dp2382
g1653
g1661
sg1654
g1683
sg356
S'c:/marmalade/7.6/s3e/h/std/utime.h'
p2383
sbsS'jdhuff.h'
p2384
g330
(g1649
g332
Ntp2385
Rp2386
(dp2387
g1653
g1114
sg1654
g1749
sg356
g1127
sbsS'IwResHandlerWAV.cpp'
p2388
g330
(g1649
g332
Ntp2389
Rp2390
(dp2391
g1653
g1158
sg1654
g1701
sg356
g1167
sbsS'un.h'
p2392
g330
(g1649
g332
Ntp2393
Rp2394
(dp2395
g1653
g1661
sg1654
g1814
sg356
S'c:/marmalade/7.6/s3e/h/std/sys/un.h'
p2396
sbsS'IwImage.h'
p2397
g330
(g1649
g332
Ntp2398
Rp2399
(dp2400
g1653
g1520
sg1654
g1690
sg356
g1558
sbsS's3eImagePicker.h'
p2401
g330
(g1649
g332
Ntp2402
Rp2403
(dp2404
g1653
g1661
sg1654
g1888
sg356
S'c:/marmalade/7.6/s3e/h/ext/s3eImagePicker.h'
p2405
sbsS'stdlib.h'
p2406
g330
(g1649
g332
Ntp2407
Rp2408
(dp2409
g1653
g1661
sg1654
g1683
sg356
S'c:/marmalade/7.6/s3e/h/std/stdlib.h'
p2410
sbsS'IwCopyingPtr.h'
p2411
g330
(g1649
g332
Ntp2412
Rp2413
(dp2414
g1653
g1520
sg1654
g1690
sg356
g1574
sbsS'iostream'
p2415
g330
(g1649
g332
Ntp2416
Rp2417
(dp2418
g1653
g1661
sg1654
g1662
sg356
S'c:/marmalade/7.6/s3e/h/std/c++/iostream'
p2419
sbsS'png.h'
p2420
g330
(g1649
g332
Ntp2421
Rp2422
(dp2423
g1653
g1103
sg1654
(lp2424
g1097
ag1099
asg356
g1101
sbsS'stddef.h'
p2425
g330
(g1649
g332
Ntp2426
Rp2427
(dp2428
g1653
g1661
sg1654
g1683
sg356
S'c:/marmalade/7.6/s3e/h/std/stddef.h'
p2429
sbsS'Layer.cpp'
p2430
g330
(g1649
g332
Ntp2431
Rp2432
(dp2433
g1653
g1215
sg1654
g1805
sg356
g1228
sbsS'setjmp_win32.h'
p2434
g330
(g1649
g332
Ntp2435
Rp2436
(dp2437
g1653
g1661
sg1654
g1683
sg356
S'c:/marmalade/7.6/s3e/h/std/setjmp_win32.h'
p2438
sbsS'pauseMenu.h'
p2439
g330
(g1649
g332
Ntp2440
Rp2441
(dp2442
g1653
g1215
sg1654
g1805
sg356
g1246
sbsS'Layer.h'
p2443
g330
(g1649
g332
Ntp2444
Rp2445
(dp2446
g1653
g1215
sg1654
g1805
sg356
g1216
sbsS'IwGxPrint.h'
p2447
g330
(g1649
g332
Ntp2448
Rp2449
(dp2450
g1653
g1456
sg1654
g1795
sg356
g1491
sbsS'iwgx_public.defines.txt'
p2451
g330
(g1649
g332
Ntp2452
Rp2453
(dp2454
g1653
g1456
sg1654
g1795
sg356
g1479
sbsS'streambuf.h'
p2455
g330
(g1649
g332
Ntp2456
Rp2457
(dp2458
g1653
g1661
sg1654
g1662
sg356
S'c:/marmalade/7.6/s3e/h/std/c++/streambuf.h'
p2459
sbsS'resources.cpp'
p2460
g330
(g1649
g332
Ntp2461
Rp2462
(dp2463
g1653
g1215
sg1654
g1805
sg356
g1264
sbsS'IwGeomFPlane.h'
p2464
g330
(g1649
g332
Ntp2465
Rp2466
(dp2467
g1653
g1356
sg1654
g1715
sg356
g1357
sbsS'wchar.h'
p2468
g330
(g1649
g332
Ntp2469
Rp2470
(dp2471
g1653
g1661
sg1654
g1683
sg356
S'c:/marmalade/7.6/s3e/h/std/wchar.h'
p2472
sbsS's3eCameraCapture.h'
p2473
g330
(g1649
g332
Ntp2474
Rp2475
(dp2476
g1653
g1661
sg1654
g1888
sg356
S'c:/marmalade/7.6/s3e/h/ext/s3eCameraCapture.h'
p2477
sbsS'eglext.h'
p2478
g330
(g1649
g332
Ntp2479
Rp2480
(dp2481
g1653
g1661
sg1654
g2019
sg356
S'c:/marmalade/7.6/s3e/h/EGL/eglext.h'
p2482
sbsS'IwResHandlerImage.h'
p2483
g330
(g1649
g332
Ntp2484
Rp2485
(dp2486
g1653
g1432
sg1654
g1934
sg356
g1446
sbsS'strstream.h'
p2487
g330
(g1649
g332
Ntp2488
Rp2489
(dp2490
g1653
g1661
sg1654
g1662
sg356
S'c:/marmalade/7.6/s3e/h/std/c++/strstream.h'
p2491
sbsS'tiniconv.h'
p2492
g330
(g1649
g332
Ntp2493
Rp2494
(dp2495
g1653
g1148
sg1654
g2140
sg356
g1146
sbsS'IwGLExt.h'
p2496
g330
(g1649
g332
Ntp2497
Rp2498
(dp2499
g1653
g1310
sg1654
g1671
sg356
g1316
sbsS'app.icf'
p2500
g330
(g1649
g332
Ntp2501
Rp2502
(dp2503
g1653
(dp2504
sg1654
g4
sg356
S'c:/Marmalade/7.6/examples/GameTutorial/CPP/marm1/data/app.icf'
p2505
sbsS'IwClassFactory.h'
p2506
g330
(g1649
g332
Ntp2507
Rp2508
(dp2509
g1653
g1520
sg1654
g1690
sg356
g1544
sbsS'file.h'
p2510
g330
(g1649
g332
Ntp2511
Rp2512
(dp2513
g1653
g1661
sg1654
g1814
sg356
S'c:/marmalade/7.6/s3e/h/std/sys/file.h'
p2514
sbsS'cstring'
p2515
g330
(g1649
g332
Ntp2516
Rp2517
(dp2518
g1653
g1661
sg1654
g1662
sg356
S'c:/marmalade/7.6/s3e/h/std/c++/cstring'
p2519
sbsS'IwSoundInst.cpp'
p2520
g330
(g1649
g332
Ntp2521
Rp2522
(dp2523
g1653
g1158
sg1654
g1701
sg356
g1187
sbsS'iwutil.config.txt'
p2524
g330
(g1649
g332
Ntp2525
Rp2526
(dp2527
g1653
g1520
sg1654
g1690
sg356
g1560
sbsS's3eSMS.h'
p2528
g330
(g1649
g332
Ntp2529
Rp2530
(dp2531
g1653
g1661
sg1654
g1888
sg356
S'c:/marmalade/7.6/s3e/h/ext/s3eSMS.h'
p2532
sbsS'limits.h'
p2533
g330
(g1649
g332
Ntp2534
Rp2535
(dp2536
g1653
g1661
sg1654
g1683
sg356
S'c:/marmalade/7.6/s3e/h/std/limits.h'
p2537
sbsS'scene.h'
p2538
g330
(g1649
g332
Ntp2539
Rp2540
(dp2541
g1653
g1215
sg1654
g1805
sg356
g1242
sbsS'IwMaterial.h'
p2542
g330
(g1649
g332
Ntp2543
Rp2544
(dp2545
g1653
g1456
sg1654
g1795
sg356
g1502
sbsS'PVRTexTool_interface.cpp'
p2546
g330
(g1649
g332
Ntp2547
Rp2548
(dp2549
g1653
g1284
sg1654
(lp2550
g1276
ag1278
ag1280
asg356
g1285
sbsS'IwGxSurface.h'
p2551
g330
(g1649
g332
Ntp2552
Rp2553
(dp2554
g1653
g1456
sg1654
g1795
sg356
g1477
sbsS's3eSocket.h'
p2555
g330
(g1649
g332
Ntp2556
Rp2557
(dp2558
g1653
g1661
sg1654
g1677
sg356
S'c:/marmalade/7.6/s3e/h/s3eSocket.h'
p2559
sbsS'IwAutoFile.h'
p2560
g330
(g1649
g332
Ntp2561
Rp2562
(dp2563
g1653
g1520
sg1654
g1690
sg356
g1610
sbsS'ipc.h'
p2564
g330
(g1649
g332
Ntp2565
Rp2566
(dp2567
g1653
g1661
sg1654
g1814
sg356
S'c:/marmalade/7.6/s3e/h/std/sys/ipc.h'
p2568
sbsS'poll_1.h'
p2569
g330
(g1649
g332
Ntp2570
Rp2571
(dp2572
g1653
g1661
sg1654
g1814
sg356
S'c:/marmalade/7.6/s3e/h/std/sys/poll.h'
p2573
sbsS's3eThread.h'
p2574
g330
(g1649
g332
Ntp2575
Rp2576
(dp2577
g1653
g1661
sg1654
g1677
sg356
S'c:/marmalade/7.6/s3e/h/s3eThread.h'
p2578
sbsS'ucontext.h'
p2579
g330
(g1649
g332
Ntp2580
Rp2581
(dp2582
g1653
g1661
sg1654
g1683
sg356
S'c:/marmalade/7.6/s3e/h/std/ucontext.h'
p2583
sbsS'time.h'
p2584
g330
(g1649
g332
Ntp2585
Rp2586
(dp2587
g1653
g1661
sg1654
g1683
sg356
S'c:/marmalade/7.6/s3e/h/std/time.h'
p2588
sbsS'jchuff.h'
p2589
g330
(g1649
g332
Ntp2590
Rp2591
(dp2592
g1653
g1114
sg1654
g1749
sg356
g1117
sbsS'IwSoundPCM.cpp'
p2593
g330
(g1649
g332
Ntp2594
Rp2595
(dp2596
g1653
g1158
sg1654
g1701
sg356
g1204
sbsS's3eSoundRecord.h'
p2597
g330
(g1649
g332
Ntp2598
Rp2599
(dp2600
g1653
g1661
sg1654
g1677
sg356
S'c:/marmalade/7.6/s3e/h/s3eSoundRecord.h'
p2601
sbsS'IwFibre.h'
p2602
g330
(g1649
g332
Ntp2603
Rp2604
(dp2605
g1653
g1520
sg1654
g1690
sg356
g1570
sbsS's3eVersion.h'
p2606
g330
(g1649
g332
Ntp2607
Rp2608
(dp2609
g1653
g1661
sg1654
g1677
sg356
S'c:/marmalade/7.6/s3e/h/s3eVersion.h'
p2610
sbsS'input.cpp'
p2611
g330
(g1649
g332
Ntp2612
Rp2613
(dp2614
g1653
g1215
sg1654
g1805
sg356
g1222
sbsS'IwSoundGroup.h'
p2615
g330
(g1649
g332
Ntp2616
Rp2617
(dp2618
g1653
g1158
sg1654
g1701
sg356
g1179
sbsS'IwSoundWAV.h'
p2619
g330
(g1649
g332
Ntp2620
Rp2621
(dp2622
g1653
g1158
sg1654
g1701
sg356
g1181
sbsS'IwGxFontGlyph.h'
p2623
g330
(g1649
g332
Ntp2624
Rp2625
(dp2626
g1653
g1334
sg1654
g1655
sg356
g1348
sbsS's3eTypes.h'
p2627
g330
(g1649
g332
Ntp2628
Rp2629
(dp2630
g1653
g1661
sg1654
g1677
sg356
S'c:/marmalade/7.6/s3e/h/s3eTypes.h'
p2631
sbsS'IwSoundSpec.h'
p2632
g330
(g1649
g332
Ntp2633
Rp2634
(dp2635
g1653
g1158
sg1654
g1701
sg356
g1163
sbsS'signal_2.h'
p2636
g330
(g1649
g332
Ntp2637
Rp2638
(dp2639
g1653
g1661
sg1654
g1662
sg356
S'c:/marmalade/7.6/s3e/h/std/c++/signal.h'
p2640
sbsS'termios.h'
p2641
g330
(g1649
g332
Ntp2642
Rp2643
(dp2644
g1653
g1661
sg1654
g1683
sg356
S'c:/marmalade/7.6/s3e/h/std/termios.h'
p2645
sbsS'iw2dscenegraph.mkf'
p2646
g330
(g1649
g332
Ntp2647
Rp2648
(dp2649
g1653
g1301
sg1654
g1976
sg356
g1299
sbsS'slist'
p2650
g330
(g1649
g332
Ntp2651
Rp2652
(dp2653
g1653
g1661
sg1654
g1662
sg356
S'c:/marmalade/7.6/s3e/h/std/c++/slist'
p2654
sbsS'cstdlib'
p2655
g330
(g1649
g332
Ntp2656
Rp2657
(dp2658
g1653
g1661
sg1654
g1662
sg356
S'c:/marmalade/7.6/s3e/h/std/c++/cstdlib'
p2659
sbsS's3eLocation.h'
p2660
g330
(g1649
g332
Ntp2661
Rp2662
(dp2663
g1653
g1661
sg1654
g1677
sg356
S'c:/marmalade/7.6/s3e/h/s3eLocation.h'
p2664
sbsS'IwMemBucketHelpers.h'
p2665
g330
(g1649
g332
Ntp2666
Rp2667
(dp2668
g1653
g1520
sg1654
g1690
sg356
g1572
sbsS's3eHash.h'
p2669
g330
(g1649
g332
Ntp2670
Rp2671
(dp2672
g1653
g1661
sg1654
g1677
sg356
S'c:/marmalade/7.6/s3e/h/s3eHash.h'
p2673
sbsS'IwSoundGroup.cpp'
p2674
g330
(g1649
g332
Ntp2675
Rp2676
(dp2677
g1653
g1158
sg1654
g1701
sg356
g1196
sbsS'Enemymanager.h'
p2678
g330
(g1649
g332
Ntp2679
Rp2680
(dp2681
g1653
g1215
sg1654
g1805
sg356
g1220
sbsS'IwGeomFMat.h'
p2682
g330
(g1649
g332
Ntp2683
Rp2684
(dp2685
g1653
g1356
sg1654
g1715
sg356
g1397
sbsS'type_traits.h'
p2686
g330
(g1649
g332
Ntp2687
Rp2688
(dp2689
g1653
g1661
sg1654
g1662
sg356
S'c:/marmalade/7.6/s3e/h/std/c++/type_traits.h'
p2690
sbsS's3eAtomic.h'
p2691
g330
(g1649
g332
Ntp2692
Rp2693
(dp2694
g1653
g1661
sg1654
g1677
sg356
S'c:/marmalade/7.6/s3e/h/s3eAtomic.h'
p2695
sbsS'IwMenu.h'
p2696
g330
(g1649
g332
Ntp2697
Rp2698
(dp2699
g1653
g1520
sg1654
g1690
sg356
g1518
sbsS'IwResHandlerITX.h'
p2700
g330
(g1649
g332
Ntp2701
Rp2702
(dp2703
g1653
g1432
sg1654
g1934
sg356
g1433
sbsS'IwSoundData.h'
p2704
g330
(g1649
g332
Ntp2705
Rp2706
(dp2707
g1653
g1158
sg1654
g1701
sg356
g1194
sbsS'IwArray.h'
p2708
g330
(g1649
g332
Ntp2709
Rp2710
(dp2711
g1653
g1520
sg1654
g1690
sg356
g1528
sbsS'IwUTF8.h'
p2712
g330
(g1649
g332
Ntp2713
Rp2714
(dp2715
g1653
g1520
sg1654
g1690
sg356
g1554
sbsS'math_rvct.h'
p2716
g330
(g1649
g332
Ntp2717
Rp2718
(dp2719
g1653
g1661
sg1654
g1683
sg356
S'c:/marmalade/7.6/s3e/h/std/math_rvct.h'
p2720
sbsS'IwUtil.h'
p2721
g330
(g1649
g332
Ntp2722
Rp2723
(dp2724
g1653
g1520
sg1654
g1690
sg356
g1598
sbsS'IwFColour.h'
p2725
g330
(g1649
g332
Ntp2726
Rp2727
(dp2728
g1653
g1456
sg1654
g1795
sg356
g1461
sbsS'wctype.h'
p2729
g330
(g1649
g332
Ntp2730
Rp2731
(dp2732
g1653
g1661
sg1654
g1683
sg356
S'c:/marmalade/7.6/s3e/h/std/wctype.h'
p2733
sbsS'mainMenu.h'
p2734
g330
(g1649
g332
Ntp2735
Rp2736
(dp2737
g1653
g1215
sg1654
g1805
sg356
g1260
sbsS'cstddef'
p2738
g330
(g1649
g332
Ntp2739
Rp2740
(dp2741
g1653
g1661
sg1654
g1662
sg356
S'c:/marmalade/7.6/s3e/h/std/c++/cstddef'
p2742
sbsS'assert.h'
p2743
g330
(g1649
g332
Ntp2744
Rp2745
(dp2746
g1653
g1661
sg1654
g1683
sg356
S'c:/marmalade/7.6/s3e/h/std/assert.h'
p2747
sbsS'mman.h'
p2748
g330
(g1649
g332
Ntp2749
Rp2750
(dp2751
g1653
g1661
sg1654
g1814
sg356
S'c:/marmalade/7.6/s3e/h/std/sys/mman.h'
p2752
sbsS'IwRandom.h'
p2753
g330
(g1649
g332
Ntp2754
Rp2755
(dp2756
g1653
g1520
sg1654
g1690
sg356
g1532
sbsS'libgen.h'
p2757
g330
(g1649
g332
Ntp2758
Rp2759
(dp2760
g1653
g1661
sg1654
g1683
sg356
S'c:/marmalade/7.6/s3e/h/std/libgen.h'
p2761
sbsS'utsname.h'
p2762
g330
(g1649
g332
Ntp2763
Rp2764
(dp2765
g1653
g1661
sg1654
g1814
sg356
S'c:/marmalade/7.6/s3e/h/std/sys/utsname.h'
p2766
sbsS'wait.h'
p2767
g330
(g1649
g332
Ntp2768
Rp2769
(dp2770
g1653
g1661
sg1654
g1814
sg356
S'c:/marmalade/7.6/s3e/h/std/sys/wait.h'
p2771
sbsS'param.h'
p2772
g330
(g1649
g332
Ntp2773
Rp2774
(dp2775
g1653
g1661
sg1654
g1814
sg356
S'c:/marmalade/7.6/s3e/h/std/sys/param.h'
p2776
sbsS'IwDivide.h'
p2777
g330
(g1649
g332
Ntp2778
Rp2779
(dp2780
g1653
g1520
sg1654
g1690
sg356
g1614
sbsS'Iw2DSceneGraphCore.cpp'
p2781
g330
(g1649
g332
Ntp2782
Rp2783
(dp2784
g1653
g1510
sg1654
(lp2785
S"'Marmalade Studio'"
p2786
ag1506
asg356
g1508
sbsS'IwResManager.h'
p2787
g330
(g1649
g332
Ntp2788
Rp2789
(dp2790
g1653
g1432
sg1654
g1934
sg356
g1450
sbsS'IwSoundManager.h'
p2791
g330
(g1649
g332
Ntp2792
Rp2793
(dp2794
g1653
g1158
sg1654
g1701
sg356
g1165
sbsS'cwctype'
p2795
g330
(g1649
g332
Ntp2796
Rp2797
(dp2798
g1653
g1661
sg1654
g1662
sg356
S'c:/marmalade/7.6/s3e/h/std/c++/cwctype'
p2799
sbsS'set'
p2800
g330
(g1649
g332
Ntp2801
Rp2802
(dp2803
g1653
g1661
sg1654
g1662
sg356
S'c:/marmalade/7.6/s3e/h/std/c++/set'
p2804
sbsS'IwGeomSQuat.h'
p2805
g330
(g1649
g332
Ntp2806
Rp2807
(dp2808
g1653
g1356
sg1654
g1715
sg356
g1419
sbsS'locale'
p2809
g330
(g1649
g332
Ntp2810
Rp2811
(dp2812
g1653
g1661
sg1654
g1662
sg356
S'c:/marmalade/7.6/s3e/h/std/c++/locale'
p2813
sbsS'cstdio'
p2814
g330
(g1649
g332
Ntp2815
Rp2816
(dp2817
g1653
g1661
sg1654
g1662
sg356
S'c:/marmalade/7.6/s3e/h/std/c++/cstdio'
p2818
sbsS'cdjpeg.h'
p2819
g330
(g1649
g332
Ntp2820
Rp2821
(dp2822
g1653
g1114
sg1654
g1749
sg356
g1133
sbsS'audio.h'
p2823
g330
(g1649
g332
Ntp2824
Rp2825
(dp2826
g1653
g1215
sg1654
g1805
sg356
g1268
sbsS'IwList.h'
p2827
g330
(g1649
g332
Ntp2828
Rp2829
(dp2830
g1653
g1520
sg1654
g1690
sg356
g1588
sbsS'pauseMenu.cpp'
p2831
g330
(g1649
g332
Ntp2832
Rp2833
(dp2834
g1653
g1215
sg1654
g1805
sg356
g1266
sbsS'inttypes.h'
p2835
g330
(g1649
g332
Ntp2836
Rp2837
(dp2838
g1653
g1661
sg1654
g1683
sg356
S'c:/marmalade/7.6/s3e/h/std/inttypes.h'
p2839
sbsS'dirent.h'
p2840
g330
(g1649
g332
Ntp2841
Rp2842
(dp2843
g1653
g1661
sg1654
g1683
sg356
S'c:/marmalade/7.6/s3e/h/std/dirent.h'
p2844
sbsS'IwGeomVec3.h'
p2845
g330
(g1649
g332
Ntp2846
Rp2847
(dp2848
g1653
g1356
sg1654
g1715
sg356
g1363
sbsS'transupp.h'
p2849
g330
(g1649
g332
Ntp2850
Rp2851
(dp2852
g1653
g1114
sg1654
g1749
sg356
g1115
sbsS'IwMath.h'
p2853
g330
(g1649
g332
Ntp2854
Rp2855
(dp2856
g1653
g1520
sg1654
g1690
sg356
g1584
sbsS'IwGeomQuat.h'
p2857
g330
(g1649
g332
Ntp2858
Rp2859
(dp2860
g1653
g1356
sg1654
g1715
sg356
g1371
sbsS'glplatform.h'
p2861
g330
(g1649
g332
Ntp2862
Rp2863
(dp2864
g1653
g1661
sg1654
g2027
sg356
S'c:/marmalade/7.6/s3e/h/GLES/glplatform.h'
p2865
sbsS's3e-default.mkf'
p2866
g330
(g1649
g332
Ntp2867
Rp2868
(dp2869
g1653
g1645
sg1654
(lp2870
g1641
asg356
g1643
sbsS'iwgl.config.txt'
p2871
g330
(g1649
g332
Ntp2872
Rp2873
(dp2874
g1653
g1310
sg1654
g1671
sg356
g1314
sbsS'bitset'
p2875
g330
(g1649
g332
Ntp2876
Rp2877
(dp2878
g1653
g1661
sg1654
g1662
sg356
S'c:/marmalade/7.6/s3e/h/std/c++/bitset'
p2879
sbsS'alloca.h'
p2880
g330
(g1649
g332
Ntp2881
Rp2882
(dp2883
g1653
g1661
sg1654
g1683
sg356
S'c:/marmalade/7.6/s3e/h/std/alloca.h'
p2884
sbsS'IwResHandler.h'
p2885
g330
(g1649
g332
Ntp2886
Rp2887
(dp2888
g1653
g1432
sg1654
g1934
sg356
g1435
sbsS'IwResHandlerMTL.h'
p2889
g330
(g1649
g332
Ntp2890
Rp2891
(dp2892
g1653
g1456
sg1654
g1795
sg356
g1469
sbsS'IwRuntime.h'
p2893
g330
(g1649
g332
Ntp2894
Rp2895
(dp2896
g1653
g1520
sg1654
g1690
sg356
g1606
sbsS'enemy.cpp'
p2897
g330
(g1649
g332
Ntp2898
Rp2899
(dp2900
g1653
g1215
sg1654
g1805
sg356
g1270
sbsS'limits'
p2901
g330
(g1649
g332
Ntp2902
Rp2903
(dp2904
g1653
g1661
sg1654
g1662
sg356
S'c:/marmalade/7.6/s3e/h/std/c++/limits'
p2905
sbsS'IwGeomBBox.h'
p2906
g330
(g1649
g332
Ntp2907
Rp2908
(dp2909
g1653
g1356
sg1654
g1715
sg356
g1379
sbsS's3eContacts.h'
p2910
g330
(g1649
g332
Ntp2911
Rp2912
(dp2913
g1653
g1661
sg1654
g1677
sg356
S'c:/marmalade/7.6/s3e/h/s3eContacts.h'
p2914
sbsS's3eLicense.h'
p2915
g330
(g1649
g332
Ntp2916
Rp2917
(dp2918
g1653
g1661
sg1654
g1677
sg356
S'c:/marmalade/7.6/s3e/h/s3eLicense.h'
p2919
sbsS'iwgx.config.txt'
p2920
g330
(g1649
g332
Ntp2921
Rp2922
(dp2923
g1653
g1456
sg1654
g1795
sg356
g1487
sbsS'IwTextParser.h'
p2924
g330
(g1649
g332
Ntp2925
Rp2926
(dp2927
g1653
g1520
sg1654
g1690
sg356
g1540
sbsS's3eTimer.h'
p2928
g330
(g1649
g332
Ntp2929
Rp2930
(dp2931
g1653
g1661
sg1654
g1677
sg356
S'c:/marmalade/7.6/s3e/h/s3eTimer.h'
p2932
sbsS'IwGeomVec.h'
p2933
g330
(g1649
g332
Ntp2934
Rp2935
(dp2936
g1653
g1356
sg1654
g1715
sg356
g1395
sbsS'IwSerialise.h'
p2937
g330
(g1649
g332
Ntp2938
Rp2939
(dp2940
g1653
g1520
sg1654
g1690
sg356
g1612
sbsS'cstdarg'
p2941
g330
(g1649
g332
Ntp2942
Rp2943
(dp2944
g1653
g1661
sg1654
g1662
sg356
S'c:/marmalade/7.6/s3e/h/std/c++/cstdarg'
p2945
sbsS'gl2ext.h'
p2946
g330
(g1649
g332
Ntp2947
Rp2948
(dp2949
g1653
g1661
sg1654
g1926
sg356
S'c:/marmalade/7.6/s3e/h/GLES2/gl2ext.h'
p2950
sbsS'BackgroundEntity.h'
p2951
g330
(g1649
g332
Ntp2952
Rp2953
(dp2954
g1653
g1215
sg1654
g1805
sg356
g1256
sbsS'IwChar.h'
p2955
g330
(g1649
g332
Ntp2956
Rp2957
(dp2958
g1653
g1520
sg1654
g1690
sg356
g1608
sbsS's3eSound.h'
p2959
g330
(g1649
g332
Ntp2960
Rp2961
(dp2962
g1653
g1661
sg1654
g1677
sg356
S'c:/marmalade/7.6/s3e/h/s3eSound.h'
p2963
sbsS's3eIOSBackgroundAudio.h'
p2964
g330
(g1649
g332
Ntp2965
Rp2966
(dp2967
g1653
g1661
sg1654
g1888
sg356
S'c:/marmalade/7.6/s3e/h/ext/s3eIOSBackgroundAudio.h'
p2968
sbsS'exception.h'
p2969
g330
(g1649
g332
Ntp2970
Rp2971
(dp2972
g1653
g1661
sg1654
g1662
sg356
S'c:/marmalade/7.6/s3e/h/std/c++/exception.h'
p2973
sbsS'iwgeom.config.txt'
p2974
g330
(g1649
g332
Ntp2975
Rp2976
(dp2977
g1653
g1356
sg1654
g1715
sg356
g1377
sbsS'Shark.h'
p2978
g330
(g1649
g332
Ntp2979
Rp2980
(dp2981
g1653
g1215
sg1654
g1805
sg356
g1248
sbsS'iwgx.mkf'
p2982
g330
(g1649
g332
Ntp2983
Rp2984
(dp2985
g1653
g1497
sg1654
g1795
sg356
g1495
sbsS'gl.h'
p2986
g330
(g1649
g332
Ntp2987
Rp2988
(dp2989
g1653
g1661
sg1654
g2027
sg356
S'c:/marmalade/7.6/s3e/h/GLES/gl.h'
p2990
sbsS'zlib.h'
p2991
g330
(g1649
g332
Ntp2992
Rp2993
(dp2994
g1653
g1625
sg1654
g2368
sg356
g1623
sbsS'temp_defines_release.h'
p2995
g330
(g1649
g332
Ntp2996
Rp2997
(dp2998
g1653
(lp2999
sg1654
(lp3000
S"'generated files'"
p3001
asg356
S'c:/Marmalade/7.6/examples/GameTutorial/CPP/marm1/build_stage4_vc12/temp_defines_release.h'
p3002
sbsS'iwgl.mkf'
p3003
g330
(g1649
g332
Ntp3004
Rp3005
(dp3006
g1653
g1313
sg1654
g1671
sg356
g1311
sbsS'IwColour.h'
p3007
g330
(g1649
g332
Ntp3008
Rp3009
(dp3010
g1653
g1456
sg1654
g1795
sg356
g1481
sbsS's3eLibrary.h'
p3011
g330
(g1649
g332
Ntp3012
Rp3013
(dp3014
g1653
g1661
sg1654
g1888
sg356
S'c:/marmalade/7.6/s3e/h/ext/s3eLibrary.h'
p3015
sbsS'types.h'
p3016
g330
(g1649
g332
Ntp3017
Rp3018
(dp3019
g1653
g1661
sg1654
g1814
sg356
S'c:/marmalade/7.6/s3e/h/std/sys/types.h'
p3020
sbsS'ifaddrs.h'
p3021
g330
(g1649
g332
Ntp3022
Rp3023
(dp3024
g1653
g1661
sg1654
g1683
sg356
S'c:/marmalade/7.6/s3e/h/std/ifaddrs.h'
p3025
sbsS'strstream'
p3026
g330
(g1649
g332
Ntp3027
Rp3028
(dp3029
g1653
g1661
sg1654
g1662
sg356
S'c:/marmalade/7.6/s3e/h/std/c++/strstream'
p3030
sbsS'IwTween.cpp'
p3031
g330
(g1649
g332
Ntp3032
Rp3033
(dp3034
g1653
g1638
sg1654
g2187
sg356
g1636
sbsS'exception'
p3035
g330
(g1649
g332
Ntp3036
Rp3037
(dp3038
g1653
g1661
sg1654
g1662
sg356
S'c:/marmalade/7.6/s3e/h/std/c++/exception'
p3039
sbsS'Enemymanager.cpp'
p3040
g330
(g1649
g332
Ntp3041
Rp3042
(dp3043
g1653
g1215
sg1654
g1805
sg356
g1224
sbsS'rlocks.h'
p3044
g330
(g1649
g332
Ntp3045
Rp3046
(dp3047
g1653
g1661
sg1654
g1662
sg356
S'c:/marmalade/7.6/s3e/h/std/c++/rlocks.h'
p3048
sbsS'ioctl.h'
p3049
g330
(g1649
g332
Ntp3050
Rp3051
(dp3052
g1653
g1661
sg1654
g1814
sg356
S'c:/marmalade/7.6/s3e/h/std/sys/ioctl.h'
p3053
sbsS'sem.h'
p3054
g330
(g1649
g332
Ntp3055
Rp3056
(dp3057
g1653
g1661
sg1654
g1814
sg356
S'c:/marmalade/7.6/s3e/h/std/sys/sem.h'
p3058
sbsS'jinclude.h'
p3059
g330
(g1649
g332
Ntp3060
Rp3061
(dp3062
g1653
g1114
sg1654
g1749
sg356
g1125
sbsS'IwEvent.h'
p3063
g330
(g1649
g332
Ntp3064
Rp3065
(dp3066
g1653
g1520
sg1654
g1690
sg356
g1530
sbsS'IwOptimiseSize.h'
p3067
g330
(g1649
g332
Ntp3068
Rp3069
(dp3070
g1653
g1520
sg1654
g1690
sg356
g1536
sbsS'iwgxfont_public.defines.txt'
p3071
g330
(g1649
g332
Ntp3072
Rp3073
(dp3074
g1653
g1334
sg1654
g1655
sg356
g1344
sbsS'iconv.h'
p3075
g330
(g1649
g332
Ntp3076
Rp3077
(dp3078
g1653
g1661
sg1654
g1683
sg356
S'c:/marmalade/7.6/s3e/h/std/iconv.h'
p3079
sbsS's3eDevice.h'
p3080
g330
(g1649
g332
Ntp3081
Rp3082
(dp3083
g1653
g1661
sg1654
g1677
sg356
S'c:/marmalade/7.6/s3e/h/s3eDevice.h'
p3084
sbsS'IwGeomSphere.h'
p3085
g330
(g1649
g332
Ntp3086
Rp3087
(dp3088
g1653
g1356
sg1654
g1715
sg356
g1415
sbsS'tiniconv.mkf'
p3089
g330
(g1649
g332
Ntp3090
Rp3091
(dp3092
g1653
g1153
sg1654
g2140
sg356
g1151
sbsS'iw2dscenegraph.defines.txt'
p3093
g330
(g1649
g332
Ntp3094
Rp3095
(dp3096
g1653
g1298
sg1654
g1976
sg356
g1302
sbsS'jdct.h'
p3097
g330
(g1649
g332
Ntp3098
Rp3099
(dp3100
g1653
g1114
sg1654
g1749
sg356
g1137
sbsS'cctype'
p3101
g330
(g1649
g332
Ntp3102
Rp3103
(dp3104
g1653
g1661
sg1654
g1662
sg356
S'c:/marmalade/7.6/s3e/h/std/c++/cctype'
p3105
sbsS'IwSoundADPCM.cpp'
p3106
g330
(g1649
g332
Ntp3107
Rp3108
(dp3109
g1653
g1158
sg1654
g1701
sg356
g1189
sbsS's3eConfig.h'
p3110
g330
(g1649
g332
Ntp3111
Rp3112
(dp3113
g1653
g1661
sg1654
g1677
sg356
S'c:/marmalade/7.6/s3e/h/s3eConfig.h'
p3114
sbsS'IwHashString.h'
p3115
g330
(g1649
g332
Ntp3116
Rp3117
(dp3118
g1653
g1520
sg1654
g1690
sg356
g1582
sbsS'stat.h'
p3119
g330
(g1649
g332
Ntp3120
Rp3121
(dp3122
g1653
g1661
sg1654
g1814
sg356
S'c:/marmalade/7.6/s3e/h/std/sys/stat.h'
p3123
sbsS'byteswap.h'
p3124
g330
(g1649
g332
Ntp3125
Rp3126
(dp3127
g1653
g1661
sg1654
g1683
sg356
S'c:/marmalade/7.6/s3e/h/std/byteswap.h'
p3128
sbsS'iwresmanager.mkf'
p3129
g330
(g1649
g332
Ntp3130
Rp3131
(dp3132
g1653
g1445
sg1654
g1934
sg356
g1443
sbsS'IwUtilInitTerm.h'
p3133
g330
(g1649
g332
Ntp3134
Rp3135
(dp3136
g1653
g1520
sg1654
g1690
sg356
g1548
sbsS'pthread_1.h'
p3137
g330
(g1649
g332
Ntp3138
Rp3139
(dp3140
g1653
g1661
sg1654
g1662
sg356
S'c:/marmalade/7.6/s3e/h/std/c++/pthread.h'
p3141
sbsS'iw2d.mkf'
p3142
g330
(g1649
g332
Ntp3143
Rp3144
(dp3145
g1653
g1322
sg1654
g1754
sg356
g1320
sbsS'complex'
p3146
g330
(g1649
g332
Ntp3147
Rp3148
(dp3149
g1653
g1661
sg1654
g1662
sg356
S'c:/marmalade/7.6/s3e/h/std/c++/complex'
p3150
sbsS'algorithm'
p3151
g330
(g1649
g332
Ntp3152
Rp3153
(dp3154
g1653
g1661
sg1654
g1662
sg356
S'c:/marmalade/7.6/s3e/h/std/c++/algorithm'
p3155
sbsS's3e.icf'
p3156
g330
(g1649
g332
Ntp3157
Rp3158
(dp3159
g1653
g1661
sg1654
g1677
sg356
S'c:/marmalade/7.6/s3e/s3e.icf'
p3160
sbsS'resources.h'
p3161
g330
(g1649
g332
Ntp3162
Rp3163
(dp3164
g1653
g1215
sg1654
g1805
sg356
g1238
sbsS'IwGxFontState.h'
p3165
g330
(g1649
g332
Ntp3166
Rp3167
(dp3168
g1653
g1334
sg1654
g1655
sg356
g1335
sbsS'marmaladeexampleresources.mkf'
p3169
g330
(g1649
g332
Ntp3170
Rp3171
(dp3172
g1653
g1210
sg1654
(lp3173
g1206
asg356
g1208
sbsS'stdio.h'
p3174
g330
(g1649
g332
Ntp3175
Rp3176
(dp3177
g1653
g1661
sg1654
g1683
sg356
S'c:/marmalade/7.6/s3e/h/std/stdio.h'
p3178
sbsS'jmemsys.h'
p3179
g330
(g1649
g332
Ntp3180
Rp3181
(dp3182
g1653
g1114
sg1654
g1749
sg356
g1135
sbsS'ios'
p3183
g330
(g1649
g332
Ntp3184
Rp3185
(dp3186
g1653
g1661
sg1654
g1662
sg356
S'c:/marmalade/7.6/s3e/h/std/c++/ios'
p3187
sbsS'IwTween.h'
p3188
g330
(g1649
g332
Ntp3189
Rp3190
(dp3191
g1653
g1638
sg1654
g2187
sg356
g1639
sbsS'PVRTexTool.defines.txt'
p3192
g330
(g1649
g332
Ntp3193
Rp3194
(dp3195
g1653
g1284
sg1654
g2550
sg356
g1282
sbsS'stack'
p3196
g330
(g1649
g332
Ntp3197
Rp3198
(dp3199
g1653
g1661
sg1654
g1662
sg356
S'c:/marmalade/7.6/s3e/h/std/c++/stack'
p3200
sbsS'IwSoundParams.h'
p3201
g330
(g1649
g332
Ntp3202
Rp3203
(dp3204
g1653
g1158
sg1654
g1701
sg356
g1156
sbsS'new.h'
p3205
g330
(g1649
g332
Ntp3206
Rp3207
(dp3208
g1653
g1661
sg1654
g1662
sg356
S'c:/marmalade/7.6/s3e/h/std/c++/new.h'
p3209
sbsS's3eEMail.h'
p3210
g330
(g1649
g332
Ntp3211
Rp3212
(dp3213
g1653
g1661
sg1654
g1888
sg356
S'c:/marmalade/7.6/s3e/h/ext/s3eEMail.h'
p3214
sbsS's3eVideo.h'
p3215
g330
(g1649
g332
Ntp3216
Rp3217
(dp3218
g1653
g1661
sg1654
g1677
sg356
S'c:/marmalade/7.6/s3e/h/s3eVideo.h'
p3219
sbsS'pngconf.h'
p3220
g330
(g1649
g332
Ntp3221
Rp3222
(dp3223
g1653
g1103
sg1654
g2424
sg356
g1104
sbsS'pwd.h'
p3224
g330
(g1649
g332
Ntp3225
Rp3226
(dp3227
g1653
g1661
sg1654
g1683
sg356
S'c:/marmalade/7.6/s3e/h/std/pwd.h'
p3228
sbsS'IwOptimiseThumb.h'
p3229
g330
(g1649
g332
Ntp3230
Rp3231
(dp3232
g1653
g1520
sg1654
g1690
sg356
g1578
sbsS'gl3.h'
p3233
g330
(g1649
g332
Ntp3234
Rp3235
(dp3236
g1653
g1661
sg1654
g1987
sg356
S'c:/marmalade/7.6/s3e/h/GLES3/gl3.h'
p3237
sbsS'IwClip.h'
p3238
g330
(g1649
g332
Ntp3239
Rp3240
(dp3241
g1653
g1456
sg1654
g1795
sg356
g1465
sbsS'IwSoundInst.h'
p3242
g330
(g1649
g332
Ntp3243
Rp3244
(dp3245
g1653
g1158
sg1654
g1701
sg356
g1198
sbsS'iwresmanager.config.txt'
p3246
g330
(g1649
g332
Ntp3247
Rp3248
(dp3249
g1653
g1432
sg1654
g1934
sg356
g1439
sbsS'IwGxShaderTechnique.h'
p3250
g330
(g1649
g332
Ntp3251
Rp3252
(dp3253
g1653
g1456
sg1654
g1795
sg356
g1498
sbsS'IwCore.h'
p3254
g330
(g1649
g332
Ntp3255
Rp3256
(dp3257
g1653
g1520
sg1654
g1690
sg356
g1576
sbsS'cfloat'
p3258
g330
(g1649
g332
Ntp3259
Rp3260
(dp3261
g1653
g1661
sg1654
g1662
sg356
S'c:/marmalade/7.6/s3e/h/std/c++/cfloat'
p3262
sbsS'IwGeomMat2D.h'
p3263
g330
(g1649
g332
Ntp3264
Rp3265
(dp3266
g1653
g1356
sg1654
g1715
sg356
g1365
sbsS'IwAllocator.h'
p3267
g330
(g1649
g332
Ntp3268
Rp3269
(dp3270
g1653
g1520
sg1654
g1690
sg356
g1564
sbsS'Levelmanager.cpp'
p3271
g330
(g1649
g332
Ntp3272
Rp3273
(dp3274
g1653
g1215
sg1654
g1805
sg356
g1262
sbsS'IwPath.h'
p3275
g330
(g1649
g332
Ntp3276
Rp3277
(dp3278
g1653
g1520
sg1654
g1690
sg356
g1546
sbsS'iwgxfont.mkf'
p3279
g330
(g1649
g332
Ntp3280
Rp3281
(dp3282
g1653
g1339
sg1654
g1655
sg356
g1337
sbsS'IwTexture.h'
p3283
g330
(g1649
g332
Ntp3284
Rp3285
(dp3286
g1653
g1456
sg1654
g1795
sg356
g1475
sbsS'IwGeomVec.h.tpl'
p3287
g330
(g1649
g332
Ntp3288
Rp3289
(dp3290
g1653
g1356
sg1654
g1715
sg356
g1421
sbsS's3eAccelerometer.h'
p3291
g330
(g1649
g332
Ntp3292
Rp3293
(dp3294
g1653
g1661
sg1654
g1677
sg356
S'c:/marmalade/7.6/s3e/h/s3eAccelerometer.h'
p3295
sbsS'setjmp.h'
p3296
g330
(g1649
g332
Ntp3297
Rp3298
(dp3299
g1653
g1661
sg1654
g1683
sg356
S'c:/marmalade/7.6/s3e/h/std/setjmp.h'
p3300
sbsS'IwSoundParams.cpp'
p3301
g330
(g1649
g332
Ntp3302
Rp3303
(dp3304
g1653
g1158
sg1654
g1701
sg356
g1202
sbsS'IwFile.h'
p3305
g330
(g1649
g332
Ntp3306
Rp3307
(dp3308
g1653
g1520
sg1654
g1690
sg356
g1521
sbsS'IwTextParseable.h'
p3309
g330
(g1649
g332
Ntp3310
Rp3311
(dp3312
g1653
g1520
sg1654
g1690
sg356
g1590
sbsS'istream.h'
p3313
g330
(g1649
g332
Ntp3314
Rp3315
(dp3316
g1653
g1661
sg1654
g1662
sg356
S'c:/marmalade/7.6/s3e/h/std/c++/istream.h'
p3317
sbsS'Level.h'
p3318
g330
(g1649
g332
Ntp3319
Rp3320
(dp3321
g1653
g1215
sg1654
g1805
sg356
g1218
sbsS'stdint.h'
p3322
g330
(g1649
g332
Ntp3323
Rp3324
(dp3325
g1653
g1661
sg1654
g1683
sg356
S'c:/marmalade/7.6/s3e/h/std/stdint.h'
p3326
sbsS'semaphore.h'
p3327
g330
(g1649
g332
Ntp3328
Rp3329
(dp3330
g1653
g1661
sg1654
g1683
sg356
S'c:/marmalade/7.6/s3e/h/std/semaphore.h'
p3331
sbsS'ctime'
p3332
g330
(g1649
g332
Ntp3333
Rp3334
(dp3335
g1653
g1661
sg1654
g1662
sg356
S'c:/marmalade/7.6/s3e/h/std/c++/ctime'
p3336
sbsS'sstream'
p3337
g330
(g1649
g332
Ntp3338
Rp3339
(dp3340
g1653
g1661
sg1654
g1662
sg356
S'c:/marmalade/7.6/s3e/h/std/c++/sstream'
p3341
sbsS'IwGeomFBBox.h'
p3342
g330
(g1649
g332
Ntp3343
Rp3344
(dp3345
g1653
g1356
sg1654
g1715
sg356
g1405
sbsS'IwDebugPrim.h'
p3346
g330
(g1649
g332
Ntp3347
Rp3348
(dp3349
g1653
g1456
sg1654
g1795
sg356
g1483
sbsS'GameScene.cpp'
p3350
g330
(g1649
g332
Ntp3351
Rp3352
(dp3353
g1653
g1215
sg1654
g1805
sg356
g1254
sbsS'IwGxFontContainer.h'
p3354
g330
(g1649
g332
Ntp3355
Rp3356
(dp3357
g1653
g1334
sg1654
g1655
sg356
g1342
sbsS'IwGeomSVec3.h'
p3358
g330
(g1649
g332
Ntp3359
Rp3360
(dp3361
g1653
g1356
sg1654
g1715
sg356
g1354
sbsS'hero.h'
p3362
g330
(g1649
g332
Ntp3363
Rp3364
(dp3365
g1653
g1215
sg1654
g1805
sg356
g1213
sbsS'iw2dscenegraphcore.mkf'
p3366
g330
(g1649
g332
Ntp3367
Rp3368
(dp3369
g1653
g1513
sg1654
g2785
sg356
g1511
sbsS's3eExt.h'
p3370
g330
(g1649
g332
Ntp3371
Rp3372
(dp3373
g1653
g1661
sg1654
g1677
sg356
S'c:/marmalade/7.6/s3e/h/s3eExt.h'
p3374
sbsS'IwGeomFVec3.h'
p3375
g330
(g1649
g332
Ntp3376
Rp3377
(dp3378
g1653
g1356
sg1654
g1715
sg356
g1417
sbsS'streambuf'
p3379
g330
(g1649
g332
Ntp3380
Rp3381
(dp3382
g1653
g1661
sg1654
g1662
sg356
S'c:/marmalade/7.6/s3e/h/std/c++/streambuf'
p3383
sbsS's3eMetrics.h'
p3384
g330
(g1649
g332
Ntp3385
Rp3386
(dp3387
g1653
g1661
sg1654
g1888
sg356
S'c:/marmalade/7.6/s3e/h/ext/s3eMetrics.h'
p3388
sbsS'Shark.cpp'
p3389
g330
(g1649
g332
Ntp3390
Rp3391
(dp3392
g1653
g1215
sg1654
g1805
sg356
g1236
sbsS'IwGxFont.h'
p3393
g330
(g1649
g332
Ntp3394
Rp3395
(dp3396
g1653
g1334
sg1654
g1655
sg356
g1346
sbsS's3eSecureStorage.h'
p3397
g330
(g1649
g332
Ntp3398
Rp3399
(dp3400
g1653
g1661
sg1654
g1677
sg356
S'c:/marmalade/7.6/s3e/h/s3eSecureStorage.h'
p3401
sbsS'string.h'
p3402
g330
(g1649
g332
Ntp3403
Rp3404
(dp3405
g1653
g1661
sg1654
g1683
sg356
S'c:/marmalade/7.6/s3e/h/std/string.h'
p3406
sbsS'IwResource.h'
p3407
g330
(g1649
g332
Ntp3408
Rp3409
(dp3410
g1653
g1520
sg1654
g1690
sg356
g1538
sbsS'IwGeomSVec2.h'
p3411
g330
(g1649
g332
Ntp3412
Rp3413
(dp3414
g1653
g1356
sg1654
g1715
sg356
g1361
sbsS'libjpeg.mkf'
p3415
g330
(g1649
g332
Ntp3416
Rp3417
(dp3418
g1653
g1143
sg1654
(lp3419
g1109
asg356
g1141
sbsS'IwGxDebug.h'
p3420
g330
(g1649
g332
Ntp3421
Rp3422
(dp3423
g1653
g1456
sg1654
g1795
sg356
g1457
sbsS'float.h'
p3424
g330
(g1649
g332
Ntp3425
Rp3426
(dp3427
g1653
g1661
sg1654
g1683
sg356
S'c:/marmalade/7.6/s3e/h/std/float.h'
p3428
sbsS'iomanip.h'
p3429
g330
(g1649
g332
Ntp3430
Rp3431
(dp3432
g1653
g1661
sg1654
g1662
sg356
S'c:/marmalade/7.6/s3e/h/std/c++/iomanip.h'
p3433
sbsS'enemy.h'
p3434
g330
(g1649
g332
Ntp3435
Rp3436
(dp3437
g1653
g1215
sg1654
g1805
sg356
g1226
sbsS'IwKeymap.h'
p3438
g330
(g1649
g332
Ntp3439
Rp3440
(dp3441
g1653
g1520
sg1654
g1690
sg356
g1542
sbsS'IwDebug.h'
p3442
g330
(g1649
g332
Ntp3443
Rp3444
(dp3445
g1653
g1520
sg1654
g1690
sg356
g1602
sbsS'IwVariableBitField.h'
p3446
g330
(g1649
g332
Ntp3447
Rp3448
(dp3449
g1653
g1520
sg1654
g1690
sg356
g1550
sbsS'IwGeomMenu.h'
p3450
g330
(g1649
g332
Ntp3451
Rp3452
(dp3453
g1653
g1356
sg1654
g1715
sg356
g1401
sbsS'IwDivTable.h'
p3454
g330
(g1649
g332
Ntp3455
Rp3456
(dp3457
g1653
g1520
sg1654
g1690
sg356
g1566
sbsS'ctype.h'
p3458
g330
(g1649
g332
Ntp3459
Rp3460
(dp3461
g1653
g1661
sg1654
g1683
sg356
S'c:/marmalade/7.6/s3e/h/std/ctype.h'
p3462
sbsS'mainMenu.cpp'
p3463
g330
(g1649
g332
Ntp3464
Rp3465
(dp3466
g1653
g1215
sg1654
g1805
sg356
g1232
sbsS'IwResGroup.h'
p3467
g330
(g1649
g332
Ntp3468
Rp3469
(dp3470
g1653
g1432
sg1654
g1934
sg356
g1441
sbsS'signal_1.h'
p3471
g330
(g1649
g332
Ntp3472
Rp3473
(dp3474
g1653
g1661
sg1654
g1814
sg356
S'c:/marmalade/7.6/s3e/h/std/sys/signal.h'
p3475
sbsS'IwSoundData.cpp'
p3476
g330
(g1649
g332
Ntp3477
Rp3478
(dp3479
g1653
g1158
sg1654
g1701
sg356
g1171
sbsS'main.cpp'
p3480
g330
(g1649
g332
Ntp3481
Rp3482
(dp3483
g1653
g1215
sg1654
g1805
sg356
g1234
sbsS'shm.h'
p3484
g330
(g1649
g332
Ntp3485
Rp3486
(dp3487
g1653
g1661
sg1654
g1814
sg356
S'c:/marmalade/7.6/s3e/h/std/sys/shm.h'
p3488
sbsS'IwManagedList.h'
p3489
g330
(g1649
g332
Ntp3490
Rp3491
(dp3492
g1653
g1520
sg1654
g1690
sg356
g1568
sbsS'prctl.h'
p3493
g330
(g1649
g332
Ntp3494
Rp3495
(dp3496
g1653
g1661
sg1654
g1814
sg356
S'c:/marmalade/7.6/s3e/h/std/sys/prctl.h'
p3497
sbsS'IwGxStream.h'
p3498
g330
(g1649
g332
Ntp3499
Rp3500
(dp3501
g1653
g1456
sg1654
g1795
sg356
g1500
sbsS'temp_defines_debug.h'
p3502
g330
(g1649
g332
Ntp3503
Rp3504
(dp3505
g1653
(lp3506
sg1654
(lp3507
g3001
asg356
S'c:/Marmalade/7.6/examples/GameTutorial/CPP/marm1/build_stage4_vc12/temp_defines_debug.h'
p3508
sbsS'utility'
p3509
g330
(g1649
g332
Ntp3510
Rp3511
(dp3512
g1653
g1661
sg1654
g1662
sg356
S'c:/marmalade/7.6/s3e/h/std/c++/utility'
p3513
sbsS'input.h'
p3514
g330
(g1649
g332
Ntp3515
Rp3516
(dp3517
g1653
g1215
sg1654
g1805
sg356
g1274
sbsS'Levelmanager.h'
p3518
g330
(g1649
g332
Ntp3519
Rp3520
(dp3521
g1653
g1215
sg1654
g1805
sg356
g1240
sbsS'IwGeomLegacy.h'
p3522
g330
(g1649
g332
Ntp3523
Rp3524
(dp3525
g1653
g1356
sg1654
g1715
sg356
g1423
sbsS'IwTPage.h'
p3526
g330
(g1649
g332
Ntp3527
Rp3528
(dp3529
g1653
g1456
sg1654
g1795
sg356
g1493
sbsS'IwResSerialise.h'
p3530
g330
(g1649
g332
Ntp3531
Rp3532
(dp3533
g1653
g1432
sg1654
g1934
sg356
g1448
sbsS's3eCrypto.h'
p3534
g330
(g1649
g332
Ntp3535
Rp3536
(dp3537
g1653
g1661
sg1654
g1677
sg356
S'c:/marmalade/7.6/s3e/h/s3eCrypto.h'
p3538
sbsS's3eKeyboard.h'
p3539
g330
(g1649
g332
Ntp3540
Rp3541
(dp3542
g1653
g1661
sg1654
g1677
sg356
S'c:/marmalade/7.6/s3e/h/s3eKeyboard.h'
p3543
sbsS'fcntl.h'
p3544
g330
(g1649
g332
Ntp3545
Rp3546
(dp3547
g1653
g1661
sg1654
g1683
sg356
S'c:/marmalade/7.6/s3e/h/std/fcntl.h'
p3548
sbsS'Iw2DSceneGraphCore.h'
p3549
g330
(g1649
g332
Ntp3550
Rp3551
(dp3552
g1653
g1510
sg1654
g2785
sg356
g1514
sbsS'memory.h'
p3553
g330
(g1649
g332
Ntp3554
Rp3555
(dp3556
g1653
g1661
sg1654
g1683
sg356
S'c:/marmalade/7.6/s3e/h/std/memory.h'
p3557
sbsS'pthread.h'
p3558
g330
(g1649
g332
Ntp3559
Rp3560
(dp3561
g1653
g1661
sg1654
g1683
sg356
S'c:/marmalade/7.6/s3e/h/std/pthread.h'
p3562
sbsS'IwGeomIntersect.h'
p3563
g330
(g1649
g332
Ntp3564
Rp3565
(dp3566
g1653
g1356
sg1654
g1715
sg356
g1391
sbsS'IwTextParserITX.h'
p3567
g330
(g1649
g332
Ntp3568
Rp3569
(dp3570
g1653
g1520
sg1654
g1690
sg356
g1556
sbsS'IwClip.inl'
p3571
g330
(g1649
g332
Ntp3572
Rp3573
(dp3574
g1653
g1456
sg1654
g1795
sg356
g1467
sbsS'Iw2DSceneGraph.cpp'
p3575
g330
(g1649
g332
Ntp3576
Rp3577
(dp3578
g1653
g1298
sg1654
g1976
sg356
g1304
sbsS'ostream.h'
p3579
g330
(g1649
g332
Ntp3580
Rp3581
(dp3582
g1653
g1661
sg1654
g1662
sg356
S'c:/marmalade/7.6/s3e/h/std/c++/ostream.h'
p3583
sbsS'stl_user_config.h'
p3584
g330
(g1649
g332
Ntp3585
Rp3586
(dp3587
g1653
g1661
sg1654
g1662
sg356
S'c:/marmalade/7.6/s3e/h/std/c++/stl_user_config.h'
p3588
sbsS'IwProfileMenu.h'
p3589
g330
(g1649
g332
Ntp3590
Rp3591
(dp3592
g1653
g1520
sg1654
g1690
sg356
g1580
sbsS'MarmaladeVersion.h'
p3593
g330
(g1649
g332
Ntp3594
Rp3595
(dp3596
g1653
g1661
sg1654
g1677
sg356
S'c:/marmalade/7.6/s3e/h/MarmaladeVersion.h'
p3597
sbsS'IwResHandlerWAV.h'
p3598
g330
(g1649
g332
Ntp3599
Rp3600
(dp3601
g1653
g1158
sg1654
g1701
sg356
g1185
sbsS'gl3platform.h'
p3602
g330
(g1649
g332
Ntp3603
Rp3604
(dp3605
g1653
g1661
sg1654
g1987
sg356
S'c:/marmalade/7.6/s3e/h/GLES3/gl3platform.h'
p3606
sbsS'ios.h'
p3607
g330
(g1649
g332
Ntp3608
Rp3609
(dp3610
g1653
g1661
sg1654
g1662
sg356
S'c:/marmalade/7.6/s3e/h/std/c++/ios.h'
p3611
sbsS'IwImageHelper.h'
p3612
g330
(g1649
g332
Ntp3613
Rp3614
(dp3615
g1653
g1520
sg1654
g1690
sg356
g1600
sbsS'hash_set'
p3616
g330
(g1649
g332
Ntp3617
Rp3618
(dp3619
g1653
g1661
sg1654
g1662
sg356
S'c:/marmalade/7.6/s3e/h/std/c++/hash_set'
p3620
sbsS'IwGeomFQuat.h'
p3621
g330
(g1649
g332
Ntp3622
Rp3623
(dp3624
g1653
g1356
sg1654
g1715
sg356
g1393
sbsS'jmorecfg.h'
p3625
g330
(g1649
g332
Ntp3626
Rp3627
(dp3628
g1653
g1114
sg1654
g1749
sg356
g1139
sbsS'eglplatform.h'
p3629
g330
(g1649
g332
Ntp3630
Rp3631
(dp3632
g1653
g1661
sg1654
g2019
sg356
S'c:/marmalade/7.6/s3e/h/EGL/eglplatform.h'
p3633
sbsS'cmath'
p3634
g330
(g1649
g332
Ntp3635
Rp3636
(dp3637
g1653
g1661
sg1654
g1662
sg356
S'c:/marmalade/7.6/s3e/h/std/c++/cmath'
p3638
sbsS'math_gcc.h'
p3639
g330
(g1649
g332
Ntp3640
Rp3641
(dp3642
g1653
g1661
sg1654
g1683
sg356
S'c:/marmalade/7.6/s3e/h/std/math_gcc.h'
p3643
sbsS's3eMemory.h'
p3644
g330
(g1649
g332
Ntp3645
Rp3646
(dp3647
g1653
g1661
sg1654
g1677
sg356
S'c:/marmalade/7.6/s3e/h/s3eMemory.h'
p3648
sbsS'strings.h'
p3649
g330
(g1649
g332
Ntp3650
Rp3651
(dp3652
g1653
g1661
sg1654
g1683
sg356
S'c:/marmalade/7.6/s3e/h/std/strings.h'
p3653
sbsS's3eFile.h'
p3654
g330
(g1649
g332
Ntp3655
Rp3656
(dp3657
g1653
g1661
sg1654
g1677
sg356
S'c:/marmalade/7.6/s3e/h/s3eFile.h'
p3658
sbsS'IwGxTypes.h'
p3659
g330
(g1649
g332
Ntp3660
Rp3661
(dp3662
g1653
g1456
sg1654
g1795
sg356
g1504
sbsS'cerrno'
p3663
g330
(g1649
g332
Ntp3664
Rp3665
(dp3666
g1653
g1661
sg1654
g1662
sg356
S'c:/marmalade/7.6/s3e/h/std/c++/cerrno'
p3667
sbsS'IwSoundManager.cpp'
p3668
g330
(g1649
g332
Ntp3669
Rp3670
(dp3671
g1653
g1158
sg1654
g1701
sg356
g1161
sbsS'main.h'
p3672
g330
(g1649
g332
Ntp3673
Rp3674
(dp3675
g1653
g1215
sg1654
g1805
sg356
g1258
sbsS'soundengine.mkf'
p3676
g330
(g1649
g332
Ntp3677
Rp3678
(dp3679
g1653
g1193
sg1654
g1701
sg356
g1191
sbsS'resource.h'
p3680
g330
(g1649
g332
Ntp3681
Rp3682
(dp3683
g1653
g1661
sg1654
g1814
sg356
S'c:/marmalade/7.6/s3e/h/std/sys/resource.h'
p3684
sbsS'clocale'
p3685
g330
(g1649
g332
Ntp3686
Rp3687
(dp3688
g1653
g1661
sg1654
g1662
sg356
S'c:/marmalade/7.6/s3e/h/std/c++/clocale'
p3689
sbsS'pvrtextool.mkf'
p3690
g330
(g1649
g332
Ntp3691
Rp3692
(dp3693
g1653
g1289
sg1654
g2296
sg356
g1287
sbsS'csetjmp'
p3694
g330
(g1649
g332
Ntp3695
Rp3696
(dp3697
g1653
g1661
sg1654
g1662
sg356
S'c:/marmalade/7.6/s3e/h/std/c++/csetjmp'
p3698
sbsS'netdb.h'
p3699
g330
(g1649
g332
Ntp3700
Rp3701
(dp3702
g1653
g1661
sg1654
g1683
sg356
S'c:/marmalade/7.6/s3e/h/std/netdb.h'
p3703
sbsS's3eAndroidJNI.h'
p3704
g330
(g1649
g332
Ntp3705
Rp3706
(dp3707
g1653
g1661
sg1654
g1888
sg356
S'c:/marmalade/7.6/s3e/h/ext/s3eAndroidJNI.h'
p3708
sbsS'stdexcept'
p3709
g330
(g1649
g332
Ntp3710
Rp3711
(dp3712
g1653
g1661
sg1654
g1662
sg356
S'c:/marmalade/7.6/s3e/h/std/c++/stdexcept'
p3713
sbsS'math.h'
p3714
g330
(g1649
g332
Ntp3715
Rp3716
(dp3717
g1653
g1661
sg1654
g1683
sg356
S'c:/marmalade/7.6/s3e/h/std/math.h'
p3718
sbsS'stdbool.h'
p3719
g330
(g1649
g332
Ntp3720
Rp3721
(dp3722
g1653
g1661
sg1654
g1683
sg356
S'c:/marmalade/7.6/s3e/h/std/stdbool.h'
p3723
sbsS'uio.h'
p3724
g330
(g1649
g332
Ntp3725
Rp3726
(dp3727
g1653
g1661
sg1654
g1814
sg356
S'c:/marmalade/7.6/s3e/h/std/sys/uio.h'
p3728
sbsS'IwUncopyable.h'
p3729
g330
(g1649
g332
Ntp3730
Rp3731
(dp3732
g1653
g1520
sg1654
g1690
sg356
g1562
sbssS'juice_build_type'
p3733
g4
sS'tests'
p3734
(lp3735
sS'project_name'
p3736
g338
sS'root_file'
p3737
g135
sS'current_root'
p3738
S'c:/Marmalade/7.6/examples/GameTutorial/CPP/marm1'
p3739
sS'dependencies'
p3740
(lp3741
sS'include_paths'
p3742
(lp3743
S'c:/marmalade/7.6/modules/iw2d/h'
p3744
aS'c:/marmalade/7.6/modules/iwgx/h'
p3745
aS'c:/marmalade/7.6/modules/iwgl/h'
p3746
aS'c:/marmalade/7.6/modules/iwutil/h'
p3747
aS'c:/marmalade/7.6/modules/third_party/libjpeg/h'
p3748
aS'c:/marmalade/7.6/modules/third_party/zlib/h'
p3749
aS'c:/marmalade/7.6/modules/third_party/libpng/h'
p3750
aS'c:/marmalade/7.6/modules/iwgeom/h'
p3751
aS'c:/marmalade/7.6/modules/iwresmanager/h'
p3752
aS'c:/marmalade/7.6/extensions/pvrtextool/h'
p3753
aS'c:/marmalade/7.6/modules/iwgxfont/h'
p3754
aS'c:/marmalade/7.6/modules/third_party/tiniconv/source'
p3755
aS'c:/marmalade/7.6/modules/iw2dscenegraph/h'
p3756
aS'c:/marmalade/7.6/modules/iw2dscenegraphcore/h'
p3757
aS'c:/marmalade/7.6/modules/iwtween/h'
p3758
aS'c:/marmalade/7.6/examples/gametutorial/cpp/modules/soundengine/h'
p3759
aS'c:/marmalade/7.6/examples/gametutorial/cpp/modules/soundengine/source'
p3760
aS'c:/marmalade/7.6/s3e/h'
p3761
aS'c:/marmalade/7.6/s3e/h/ext'
p3762
aS'c:/marmalade/7.6/s3e/h/std'
p3763
aS'c:/marmalade/7.6/s3e/h/std/c++'
p3764
aS'c:/marmalade/7.6/s3e/h/ext_legacy'
p3765
aS'c:/marmalade/7.6/s3e/h/legacy'
p3766
asS'weak_frameworks'
p3767
(lp3768
sS'extprojects'
p3769
(dp3770
sg605
(dp3771
g599
(lp3772
(S'c:/Marmalade/7.6/examples/GameTutorial/CPP/marm1/data/audio'
p3773
S'audio'
p3774
I0
tp3775
a(S'c:/Marmalade/7.6/examples/GameTutorial/CPP/marm1/data/textures'
p3776
S'textures'
p3777
I0
tp3778
a(S'c:/Marmalade/7.6/examples/GameTutorial/CPP/marm1/data/fonts'
p3779
S'fonts'
p3780
I0
tp3781
a(S'c:/Marmalade/7.6/examples/GameTutorial/CPP/marm1/data-ram/data-gles1,c:/Marmalade/7.6/examples/GameTutorial/CPP/marm1/data'
p3782
S'.'
p3783
I0
tp3784
assS'macro_types'
p3785
(dp3786
g534
I1
sg535
I0
sg536
I0
sg537
I0
sg539
I0
sg540
I0
sg541
I0
sg542
I0
sg543
I0
sg545
I0
sg546
I0
sg547
I0
sg548
I0
sg549
I0
sg551
I0
sg553
I0
sg554
I0
sg555
I0
sg556
I0
sg557
I0
sg558
I0
sg559
I0
sg560
I0
sg561
I1
sg562
I0
sg563
I0
sg564
I0
sg565
I0
sg566
I01
sg567
I1
sg568
I0
sg569
I0
sg570
I0
sg571
I0
sg572
I0
sg573
I0
sg574
I0
ssS'commands'
p3787
(lp3788
sg607
(g1090
S'VC12'
p3789
S'X86ARMAARCH64'
p3790
tp3791
sS'build_libs'
p3792
(dp3793
sg609
g0
sS'frameworks'
p3794
(lp3795
sS'environ'
p3796
(dp3797
sS'target_name_debug'
p3798
g338
sS'builders'
p3799
(dp3800
g599
(dp3801
S'.S'
p3802
(dp3803
S'gcc_aarch64'
p3804
(lp3805
S'.obj'
p3806
aS'echo AARCH64 Assembling(GCC) ${SOURCE}...'
p3807
aS'c:/marmalade/7.6/s3e\\gcc\\win32\\aarch64\\bin\\aarch64-none-elf-gcc -c -o ${TARGET} ${SOURCE}'
p3808
asS'rvct'
p3809
(lp3810
g3806
aS'echo ARM Assembling(RVCT) ${SOURCE}...'
p3811
aS'c:/marmalade/7.6/s3e\\rvct\\bin\\armasm -o ${TARGET} ${SOURCE}'
p3812
asg452
(lp3813
g3806
aS'echo ARM Assembling(GCC) ${SOURCE}...'
p3814
aS'c:/marmalade/7.6/s3e\\gcc\\win32\\arm\\bin\\arm-none-eabi-gcc -c -o ${TARGET} ${SOURCE}'
p3815
asS'ppu'
p3816
(lp3817
S'.a'
p3818
aS'echo PPU Assembling(SNC) ${SOURCE}...'
p3819
aS'c:/marmalade/7.6/s3e\\rvct\\bin\\armasm -o ${TARGET} ${SOURCE}'
p3820
assS'.s'
p3821
g3803
sS'.vp'
p3822
(lp3823
NaS'"C:/Marmalade/7.6/s3e/python/python.exe" "c:/marmalade/7.6/modules/iwgx/tools/compile_shaders.py" ${SOURCE}'
p3824
asssS'extproject_names'
p3825
(lp3826
sbtp3827
.