((dp0
S'arm_dbg_args'
p1
S'-via:"c:\\Marmalade\\7.5\\examples\\GameTutorial\\CPP\\Stage4\\build_stage4_vc12\\Stage4_vc12_arm_debug.via" -qemu'
p2
sS'game-icf'
p3
S''
p4
sS'dist'
p5
NsS'csproj'
p6
g4
sS'module_path_append'
p7
NsS'global_path'
p8
S'c:\\marmalade\\7.5\\examples\\gametutorial\\cpp'
p9
sS'system_path'
p10
S'c:\\marmalade\\7.5\\s3e\\makefile_builder'
p11
sS'android_x86_dbg_args'
p12
S'../../tools/DeployTool/DeployTool.exe --dir "c:\\Marmalade\\7.5\\examples\\GameTutorial\\CPP\\Stage4\\build_stage4_vc12"'
p13
sS'aarch64-arch-mod'
p14
g4
sS'no-emit'
p15
NsS'arm-float-abi'
p16
g4
sS'arm_rel_rtsm_args'
p17
S'-via:"c:\\Marmalade\\7.5\\examples\\GameTutorial\\CPP\\Stage4\\build_stage4_vc12\\Stage4_vc12_arm_release.via" -qemu'
p18
sS'amd64'
p19
NsS'line-width'
p20
I80
sS'gcc_dbg_args'
p21
S'-via:"c:\\Marmalade\\7.5\\examples\\GameTutorial\\CPP\\Stage4\\build_stage4_vc12\\Stage4_vc12_gcc_debug.via" -qemu'
p22
sS'android-x86'
p23
NsS'x86_dbg_exe'
p24
S'c:/marmalade/7.5/s3e\\win32\\s3e_simulator_debug.exe'
p25
sS'disable-runtime-checks'
p26
NsS'release'
p27
NsS'no-make'
p28
NsS'xcode-x86-build-settings'
p29
g4
sS'optimise-size'
p30
NsS'fat'
p31
NsS'output-name-debug'
p32
g4
sS'arm-fpu'
p33
g4
sS'proj_name'
p34
S'Stage4_vc12'
p35
sS'rvct-version'
p36
S'none'
p37
sS'compiler'
p38
g4
sS'execute'
p39
NsS'compile-static'
p40
NsS'msvc-project'
p41
I01
sS'buildenv'
p42
S'VC12'
p43
sS'quick'
p44
NsS'module_path'
p45
(lp46
S'c:/Marmalade/7.5/examples/GameTutorial/CPP/modules'
p47
asS'mkf_default'
p48
S's3e-default.mkf'
p49
sS'use-release-std-libs'
p50
NsS'using_perforce'
p51
I00
sS'tizen-x86'
p52
NsS'mips-s3e'
p53
NsS's3e-api-lib-name'
p54
S's3e_api_iwgl'
p55
sS'ios-no-pic'
p56
NsS'shared-arm-lib'
p57
NsS'arm-cpu'
p58
g4
sS'compile-thumb'
p59
NsS'no-ide'
p60
NsS'msvc-version'
p61
S'6.0'
p62
sS'arm'
p63
NsS'builddir'
p64
g4
sS'compile-debug-as-release'
p65
I0
sS'arm-arch'
p66
g4
sS'brief'
p67
NsS'dll'
p68
NsS'buildenv-toolset'
p69
g4
sS'version'
p70
NsS'aarch64-arch'
p71
g4
sS'ccache'
p72
I0
sS'offline'
p73
NsS'ios-version'
p74
g4
sS'hub_data'
p75
g4
sS'fake_vc_call'
p76
I01
sS'jobs'
p77
I0
sS'linkflags'
p78
NsS'gcc_aarch64_dbg_args'
p79
g13
sS'debug'
p80
NsS'xcode-build-order'
p81
g4
sS'gcc_aarch64_rel_rtsm_args'
p82
S'-via:"c:\\Marmalade\\7.5\\examples\\GameTutorial\\CPP\\Stage4\\build_stage4_vc12\\Stage4_vc12_gcc_aarch64_release.via" -qemu'
p83
sS'gcc_rel_rtsm_args'
p84
S'-via:"c:\\Marmalade\\7.5\\examples\\GameTutorial\\CPP\\Stage4\\build_stage4_vc12\\Stage4_vc12_gcc_release.via" -qemu'
p85
sS'done_defaults'
p86
I1
sS'path'
p87
NsS's3e-data-dir'
p88
S'c:/Marmalade/7.5/examples/GameTutorial/CPP/Stage4\\data'
p89
sS'enable-exceptions'
p90
NsS'osx-dll'
p91
NsS'extension'
p92
g4
sS'no-vc6'
p93
NsS'aarch64'
p94
NsS'win32-console'
p95
NsS'dist-format'
p96
g4
sS's3e-force-arch'
p97
NsS'dump_defines'
p98
NsS'use-shared-std-libs'
p99
NsS'gcc-version'
p100
g4
sS'x86_dbg_args'
p101
S'-via:"c:\\Marmalade\\7.5\\examples\\GameTutorial\\CPP\\Stage4\\build_stage4_vc12\\Stage4_vc12_debug.via"'
p102
sS'tizen_x86_dbg_args'
p103
g13
sS'arm-debugger'
p104
g4
sS'use_temp_extension'
p105
NsS'verbose'
p106
I0
sS'log'
p107
NsS'no-strip'
p108
NsS'rebuild'
p109
NsS'mips_dbg_args'
p110
g13
sS'win32-simulator-dll'
p111
NsS'strict'
p112
NsS'xcode-aarch64-build-settings'
p113
g4
sS'enable-global-path'
p114
NsS'gcc_aarch64_rel_args'
p115
g13
sS'cflags'
p116
NsS'dist-dir'
p117
g4
sS'xcode-arm-build-settings'
p118
g4
sS'jflags'
p119
NsS'csprojSDKRefs'
p120
g4
sS'tizen_x86_rel_exe'
p121
S'c:\\marmalade\\7.5\\s3e\\makefile_builder\\tool_launcher.exe'
p122
sS'test-assets'
p123
S'Default'
p124
sS'distcc'
p125
NsS'external-compiler'
p126
NsS'no-distcc'
p127
NsS'preinclude'
p128
NsS'using_sdk'
p129
I01
sS'nologo'
p130
NsS'warn-level'
p131
I2
sS'mips_dbg_exe'
p132
g122
sS'mkb_in'
p133
S'c:/Marmalade/7.5/examples/GameTutorial/CPP/Stage4/Stage4.mkb'
p134
sS'tizen_x86_dbg_exe'
p135
g122
sS'arm_dbg_exe'
p136
S'c:/marmalade/7.5/s3e\\bin\\armdebug.exe'
p137
sS'mdev-first'
p138
NsS'csprojDLLRef'
p139
NsS'tizen_x86_rel_args'
p140
g13
sS'android_x86_dbg_exe'
p141
g122
sS'test-config'
p142
g4
sS'list-targets'
p143
NsS'arm_rel_exe'
p144
g122
sS'arm_rel_args'
p145
g13
sS'makedeps'
p146
NsS'android_x86_rel_exe'
p147
g122
sS'default-buildenv'
p148
S'vc12'
p149
sS'x86_rel_exe'
p150
g25
sS'preprocess-java'
p151
NsS'mips_rel_args'
p152
g13
sS'defines'
p153
NsS'lib'
p154
NsS'non-interactive'
p155
NsS'global_argv'
p156
(lp157
S'C:\\Marmalade\\7.5\\s3e\\makefile_builder\\mkb.py'
p158
aS'c:/Marmalade/7.5/examples/GameTutorial/CPP/Stage4/Stage4.mkb'
p159
aS'--buildenv=VC12'
p160
aS'--test-assets'
p161
ag124
aS'--fake-vc-call'
p162
aS'--default-buildenv=vc12'
p163
aS'--msvc-project'
p164
asS'make'
p165
NsS'optimise-speed'
p166
NsS'internal'
p167
NsS'enable-stdinc'
p168
NsS'deploy-only'
p169
NsS'x86'
p170
NsS'deploy'
p171
g4
sS'x86_run_exe'
p172
S'c:/marmalade/7.5/s3e\\win32\\s3e_console.exe'
p173
sS'cxxflags'
p174
NsS'x86_rel_args'
p175
S'-via:"c:\\Marmalade\\7.5\\examples\\GameTutorial\\CPP\\Stage4\\build_stage4_vc12\\Stage4_vc12_release.via"'
p176
sS'gcc_rel_args'
p177
g13
sS'mips'
p178
NsS'xcode-build-settings'
p179
g4
sS'incredibuild'
p180
NsS'strict-compile'
p181
NsS'use-auto-subdirs'
p182
NsS'mips_rel_exe'
p183
g122
sS'android_x86_rel_args'
p184
g13
sS'app-icf'
p185
g4
sS'deployargs'
p186
NsS'iosnativedebug'
p187
NsS'use_prebuilt'
p188
NsS'mkf_in'
p189
(lp190
S'c:\\marmalade\\7.5\\s3e\\s3e-default.mkf'
p191
aS'c:\\marmalade\\7.5\\modules\\iw2d\\iw2d.mkf'
p192
aS'c:\\marmalade\\7.5\\modules\\iwgx\\iwgx.mkf'
p193
aS'c:\\marmalade\\7.5\\modules\\iwgl\\iwgl.mkf'
p194
aS'c:\\marmalade\\7.5\\modules\\iwutil\\iwutil.mkf'
p195
aS'c:\\marmalade\\7.5\\modules\\third_party\\libjpeg\\libjpeg.mkf'
p196
aS'c:\\marmalade\\7.5\\modules\\third_party\\libpng\\libpng.mkf'
p197
aS'c:\\marmalade\\7.5\\modules\\third_party\\zlib\\zlib.mkf'
p198
aS'c:\\marmalade\\7.5\\modules\\iwgeom\\iwgeom.mkf'
p199
aS'c:\\marmalade\\7.5\\modules\\iwresmanager\\iwresmanager.mkf'
p200
aS'c:\\marmalade\\7.5\\extensions\\pvrtextool\\pvrtextool.mkf'
p201
aS'c:\\marmalade\\7.5\\modules\\iwgxfont\\iwgxfont.mkf'
p202
aS'c:\\marmalade\\7.5\\modules\\third_party\\tiniconv\\tiniconv.mkf'
p203
aS'c:\\marmalade\\7.5\\modules\\iw2dscenegraph\\iw2dscenegraph.mkf'
p204
aS'c:\\marmalade\\7.5\\modules\\iw2dscenegraphcore\\iw2dscenegraphcore.mkf'
p205
aS'c:\\marmalade\\7.5\\modules\\iwtween\\iwtween.mkf'
p206
aS'c:\\marmalade\\7.5\\examples\\gametutorial\\cpp\\modules\\soundengine\\soundengine.mkf'
p207
aS'c:\\marmalade\\7.5\\examples\\marmaladeexampleresources\\marmaladeexampleresources.mkf'
p208
asS'strict-mkb'
p209
NsS'executeargs'
p210
NsS'clean'
p211
NsS'no-asm'
p212
NsS'output-name'
p213
g4
sS'no-modules'
p214
NsS'find_define'
p215
g4
s(dp216
S'c:\\marmalade\\7.5\\s3e\\makefile_builder\\templates\\vc7_suo.pyc'
p217
F1424160376.0
sS'c:\\marmalade\\7.5\\s3e\\makefile_builder\\templates\\ws81_vcxproj.pyc'
p218
F1424160380.0
sS'c:\\marmalade\\7.5\\s3e\\makefile_builder\\plugins\\s3e_ws8.pyc'
p219
F1424160376.0
sS'c:\\marmalade\\7.5\\s3e\\makefile_builder\\templates'
p220
F1424630747.758857
sS'c:\\marmalade\\7.5\\s3e\\makefile_builder\\templates\\qmake.py'
p221
F1424159312.0
sS'c:\\marmalade\\7.5\\s3e\\makefile_builder\\templates\\vc10_user.pyc'
p222
F1424160378.0
sS'c:\\marmalade\\7.5\\s3e\\makefile_builder\\plugins'
p223
F1424631019.086376
sS'c:\\marmalade\\7.5\\s3e\\makefile_builder\\mkb_main.pyc'
p224
F1424160376.0
sS'c:\\marmalade\\7.5\\s3e\\makefile_builder\\templates\\mips_linker_script'
p225
F1424159312.0
sS'c:\\marmalade\\7.5\\s3e\\makefile_builder\\plugins\\XcodeEmitter.py'
p226
F1424159310.0
sS'c:\\marmalade\\7.5\\s3e\\makefile_builder\\mkb.py'
p227
F1424159310.0
sS'c:\\marmalade\\7.5\\s3e\\makefile_builder\\templates\\ws81_ext_sln.pyc'
p228
F1424160380.0
sS'c:\\marmalade\\7.5\\s3e\\makefile_builder\\templates\\win32_dsp.pyc'
p229
F1424160376.0
sS'c:\\marmalade\\7.5\\s3e\\makefile_builder\\templates\\ws8_csproj.pyc'
p230
F1424160380.0
sS'c:\\marmalade\\7.5\\s3e\\makefile_builder\\deployment.pyc'
p231
F1424160376.0
sS'c:\\marmalade\\7.5\\s3e\\makefile_builder\\plugins\\win32_vc6.pyc'
p232
F1424160376.0
sS'c:\\marmalade\\7.5\\s3e\\makefile_builder\\plugins\\osx_xcode.pyc'
p233
F1424160376.0
sS'c:\\marmalade\\7.5\\s3e\\makefile_builder\\plugins\\null.pyc'
p234
F1424160376.0
sS'c:\\marmalade\\7.5\\s3e\\makefile_builder\\templates\\wp81_csproj.pyc'
p235
F1424160380.0
sS'c:\\marmalade\\7.5\\s3e\\makefile_builder\\templates\\qmake_user.py'
p236
F1424159312.0
sS'c:\\marmalade\\7.5\\s3e\\makefile_builder\\templates\\vc6_opt.pyc'
p237
F1424160376.0
sS'c:\\marmalade\\7.5\\s3e\\makefile_builder\\plugins\\vc7_utils.pyc'
p238
F1424160376.0
sS'c:\\marmalade\\7.5\\s3e\\makefile_builder\\templates\\wp81_vcxproj.pyc'
p239
F1424160380.0
sS'c:\\marmalade\\7.5\\s3e\\makefile_builder\\templates\\win32_vcxproj.pyc'
p240
F1424160378.0
sS'c:\\marmalade\\7.5\\s3e\\makefile_builder\\templates\\ws8_ext_sln.pyc'
p241
F1424160380.0
sS'c:\\marmalade\\7.5\\s3e\\makefile_builder\\templates\\ws8_ext_csproj.pyc'
p242
F1424160380.0
sS'c:\\marmalade\\7.5\\s3e\\makefile_builder\\templates\\wp8_ext_csproj.pyc'
p243
F1424160378.0
sS'c:\\marmalade\\7.5\\s3e\\makefile_builder\\plugins\\s3e_wp8.pyc'
p244
F1424160376.0
sS'c:\\marmalade\\7.5\\s3e\\makefile_builder\\templates\\ws81_csproj.pyc'
p245
F1424160380.0
sS'c:\\marmalade\\7.5\\s3e\\makefile_builder\\docs\\deprecated.options.txt'
p246
F1424159310.0
sS'c:\\marmalade\\7.5\\s3e\\makefile_builder\\plugins\\s3e_make.pyc'
p247
F1424160376.0
sS'c:\\marmalade\\7.5\\s3e\\makefile_builder\\templates\\win8_ext_csproj.pyc'
p248
F1424160378.0
sS'c:\\marmalade\\7.5\\s3e\\makefile_builder\\mkb_parser.pyc'
p249
F1424160376.0
sS'c:\\marmalade\\7.5\\s3e\\makefile_builder\\plugins\\s3e_web.pyc'
p250
F1424160376.0
sS'c:\\marmalade\\7.5\\s3e\\makefile_builder\\docs\\mkb.defines.txt'
p251
F1424159310.0
sS'c:\\marmalade\\7.5\\s3e\\makefile_builder\\plugins\\osx_scons.pyc'
p252
F1424160376.0
sS'c:\\marmalade\\7.5\\s3e\\makefile_builder\\plugins\\ws81_ws81.pyc'
p253
F1424160376.0
sS'c:\\marmalade\\7.5\\s3e\\makefile_builder\\plugins\\s3e_qmake.py'
p254
F1424159312.0
sS'c:\\marmalade\\7.5\\s3e\\makefile_builder\\templates\\win8_csproj.pyc'
p255
F1424160378.0
sS'c:\\marmalade\\7.5\\s3e\\makefile_builder\\plugins\\s3e_vc6.pyc'
p256
F1424160376.0
sS'c:\\marmalade\\7.5\\s3e\\makefile_builder\\plugins\\wp81_wp81.pyc'
p257
F1424160376.0
sS'c:\\marmalade\\7.5\\s3e\\makefile_builder\\templates\\wp81_csproj_user.pyc'
p258
F1424160380.0
sS'c:\\marmalade\\7.5\\s3e\\makefile_builder\\templates\\win32_dsw.pyc'
p259
F1424160376.0
sS'c:\\marmalade\\7.5\\s3e\\makefile_builder\\templates\\xcode4.xcscheme'
p260
F1424159312.0
sS'c:\\marmalade\\7.5\\s3e\\makefile_builder\\templates\\template.opt'
p261
F1424159312.0
sS'c:\\marmalade\\7.5\\s3e\\makefile_builder\\templates\\template.suo'
p262
F1424159312.0
sS'c:\\marmalade\\7.5\\s3e\\makefile_builder\\templates\\linker_script'
p263
F1424159312.0
sS'c:\\marmalade\\7.5\\s3e\\makefile_builder\\templates\\gdb_start.txt'
p264
F1424159312.0
sS'c:\\marmalade\\7.5\\s3e\\makefile_builder\\mkb_launcher.exe'
p265
F1424159548.0
sS'c:\\marmalade\\7.5\\s3e\\makefile_builder\\templates\\scons.pyc'
p266
F1424160376.0
sS'c:\\marmalade\\7.5\\s3e\\makefile_builder\\docs\\parse_options.pyc'
p267
F1424160380.0
sS'c:\\marmalade\\7.5\\s3e\\makefile_builder\\templates\\xcode4_arm.xcscheme'
p268
F1424159312.0
sS'c:\\marmalade\\7.5\\s3e\\makefile_builder\\plugins\\VisualStudioEmitter.pyc'
p269
F1424160376.0
sS'c:\\marmalade\\7.5\\s3e\\makefile_builder\\plugins\\s3e_xcode.pyc'
p270
F1424631019.087376
sS'c:\\marmalade\\7.5\\s3e\\makefile_builder\\plugins\\Emitter.pyc'
p271
F1424160376.0
sS'c:\\marmalade\\7.5\\s3e\\makefile_builder\\templates\\ws8_sln.pyc'
p272
F1424160380.0
sS'c:\\marmalade\\7.5\\s3e\\makefile_builder\\tool_launcher.exe'
p273
F1424159548.0
sS'c:\\marmalade\\7.5\\s3e\\makefile_builder\\templates\\wp8_sln.pyc'
p274
F1424160378.0
sS'c:\\marmalade\\7.5\\s3e\\makefile_builder\\mkb_upstream.pyc'
p275
F1424160376.0
sS'c:\\marmalade\\7.5\\s3e\\makefile_builder\\templates\\ws81_csproj_user.pyc'
p276
F1424160380.0
sS'c:\\marmalade\\7.5\\s3e\\makefile_builder\\templates\\win32_sln.pyc'
p277
F1424160376.0
sS'c:\\marmalade\\7.5\\s3e\\makefile_builder\\templates\\xcode4_DeployTool.xcscheme'
p278
F1424159312.0
sS'c:\\marmalade\\7.5\\s3e\\makefile_builder\\plugins\\deploy.pyc'
p279
F1424160376.0
sS'c:\\marmalade\\7.5\\s3e\\makefile_builder\\plugins\\s3e_win8.pyc'
p280
F1424160376.0
sS'c:\\marmalade\\7.5\\s3e\\makefile_builder\\plugins\\iphone.pyc'
p281
F1424160376.0
sS'c:\\marmalade\\7.5\\s3e\\makefile_builder\\plugins\\Win8Emitter.pyc'
p282
F1424160376.0
sS'c:\\marmalade\\7.5\\s3e\\makefile_builder\\plugins\\s3e_qmake.pyc'
p283
F1424631018.9523683
sS'c:\\marmalade\\7.5\\s3e\\makefile_builder\\docs'
p284
F1424630747.7758577
sS'c:\\marmalade\\7.5\\s3e\\makefile_builder\\mkb_globals.pyc'
p285
F1424160376.0
sS'c:\\marmalade\\7.5\\s3e\\makefile_builder\\plugins\\win8_utils.pyc'
p286
F1424160376.0
sS'c:\\marmalade\\7.5\\s3e\\makefile_builder\\plugins\\xcode4_schememanagement.py'
p287
F1424159312.0
sS'c:\\marmalade\\7.5\\s3e\\makefile_builder\\templates\\wp81_ext_sln.pyc'
p288
F1424160380.0
sS'c:\\marmalade\\7.5\\s3e\\makefile_builder\\templates\\make.py'
p289
F1424159312.0
sS'c:\\marmalade\\7.5\\s3e\\makefile_builder\\templates\\ws81_ext_csproj.pyc'
p290
F1424160380.0
sS'c:\\marmalade\\7.5\\s3e\\makefile_builder\\plugins\\s3e_xcode.py'
p291
F1424159312.0
sS'c:\\marmalade\\7.5\\s3e\\makefile_builder\\plugins\\XcodeEmitter.pyc'
p292
F1424631018.8013597
sS'c:\\marmalade\\7.5\\s3e\\makefile_builder\\docs\\deployment_options.txt'
p293
F1424159310.0
sS'c:\\marmalade\\7.5\\s3e\\makefile_builder\\templates\\win8_sln.pyc'
p294
F1424160378.0
sS'c:\\marmalade\\7.5\\s3e\\makefile_builder\\plugins\\java.pyc'
p295
F1424160376.0
sS'c:\\marmalade\\7.5\\s3e\\makefile_builder\\plugins\\xcode4_schememanagement.pyc'
p296
F1424631018.80836
sS'c:\\marmalade\\7.5\\s3e\\makefile_builder\\plugins\\SConsEmitter.pyc'
p297
F1424160376.0
sS'c:\\marmalade\\7.5\\s3e\\makefile_builder\\templates\\win32_vcproj.pyc'
p298
F1424160378.0
sS'c:\\marmalade\\7.5\\s3e\\makefile_builder\\plugins\\wp8_wp8.pyc'
p299
F1424160376.0
sS'c:\\marmalade\\7.5\\s3e\\makefile_builder\\templates\\MainWindow.xib'
p300
F1424159312.0
sS'c:\\marmalade\\7.5\\s3e\\makefile_builder\\mkb_util.pyc'
p301
F1424160376.0
sS'c:\\marmalade\\7.5\\s3e\\makefile_builder\\templates\\vc8_user.pyc'
p302
F1424160378.0
sS'c:\\marmalade\\7.5\\s3e\\makefile_builder\\templates\\Info.plist'
p303
F1424159312.0
sS'c:\\marmalade\\7.5\\s3e\\makefile_builder\\templates\\wp8_csproj_user.pyc'
p304
F1424160378.0
sS'c:\\marmalade\\7.5\\s3e\\makefile_builder\\docs\\deprecated.defines.txt'
p305
F1424159310.0
sS'c:\\marmalade\\7.5\\s3e\\makefile_builder\\templates\\ws8_csproj_user.pyc'
p306
F1424160380.0
sS'c:\\marmalade\\7.5\\s3e\\makefile_builder\\plugins\\S3EEmitter.pyc'
p307
F1424160376.0
sS'c:\\marmalade\\7.5\\s3e\\makefile_builder\\templates\\rvct_linker_script'
p308
F1424159312.0
sS'c:\\marmalade\\7.5\\s3e\\makefile_builder\\templates\\xcode_pbxuser.py'
p309
F1424159312.0
sS'c:\\marmalade\\7.5\\s3e\\makefile_builder\\docs\\options.txt'
p310
F1424159310.0
sS'c:\\marmalade\\7.5\\s3e\\makefile_builder\\templates\\wp81_sln.pyc'
p311
F1424160380.0
sS'c:\\marmalade\\7.5\\s3e\\makefile_builder\\templates\\ws81_sln.pyc'
p312
F1424160380.0
sS'c:\\marmalade\\7.5\\s3e\\makefile_builder\\plugins\\vc6_utils.pyc'
p313
F1424160376.0
sS'c:\\marmalade\\7.5\\s3e\\makefile_builder\\templates\\wp81_ext_csproj.pyc'
p314
F1424160380.0
sS'c:\\marmalade\\7.5\\s3e\\makefile_builder\\plugins\\s3e_wp81.pyc'
p315
F1424160376.0
sS'c:\\marmalade\\7.5\\s3e\\makefile_builder\\templates\\aarch64_linker_script'
p316
F1424159312.0
sS'c:\\marmalade\\7.5\\s3e\\makefile_builder\\templates\\ws8_vcxproj.pyc'
p317
F1424160380.0
sS'c:\\marmalade\\7.5\\s3e\\makefile_builder\\plugins\\MakeEmitter.pyc'
p318
F1424160376.0
sS'c:\\marmalade\\7.5\\s3e\\makefile_builder\\templates\\win32_vcxproj_filters.pyc'
p319
F1424160378.0
sS'c:\\marmalade\\7.5\\s3e\\makefile_builder\\templates\\xcode.py'
p320
F1424159312.0
sS'c:\\marmalade\\7.5\\s3e\\makefile_builder\\plugins\\s3e_ws81.pyc'
p321
F1424160376.0
sS'c:\\marmalade\\7.5\\s3e\\makefile_builder\\plugins\\linux_scons.pyc'
p322
F1424160376.0
sS'c:\\marmalade\\7.5\\s3e\\makefile_builder\\templates\\win8_vcxproj.pyc'
p323
F1424160378.0
sS'c:\\marmalade\\7.5\\s3e\\makefile_builder\\plugins\\s3e_scons.pyc'
p324
F1424160376.0
sS'c:\\marmalade\\7.5\\s3e\\makefile_builder\\templates\\wp8_csproj.pyc'
p325
F1424160378.0
sS'c:\\marmalade\\7.5\\s3e\\makefile_builder\\templates\\win8_csproj_user.pyc'
p326
F1424160378.0
sS'c:\\marmalade\\7.5\\s3e\\makefile_builder\\plugins\\ws8_ws8.pyc'
p327
F1424160376.0
sS'c:\\marmalade\\7.5\\s3e\\makefile_builder\\templates\\wp8_vcxproj.pyc'
p328
F1424160378.0
sS'c:\\marmalade\\7.5\\s3e\\makefile_builder\\mkb_option.pyc'
p329
F1424160376.0
sccopy_reg
_reconstructor
p330
(cmkb_main
MkbFile
p331
c__builtin__
object
p332
Ntp333
Rp334
(dp335
g5
(lp336
sS'target_name'
p337
S'Stage4'
p338
sS'current_file'
p339
g134
sS'package_path'
p340
(lp341
sS'post_build'
p342
(lp343
(lp344
S'c:/marmalade/7.5/s3e/tools'
p345
aS'C:\\Marmalade\\7.5\\s3e\\python\\python.exe .\\process_map.py "$(TargetPath)"'
p346
aa(S'c:\\marmalade\\7.5\\s3e\\bin'
p347
S'"s3e_plink" -l "$(TargetPath)" '
p348
g170
tp349
asS'librarys'
p350
(lp351
g330
(cmkb_main
Library
p352
g332
Ntp353
Rp354
(dp355
S'name'
p356
S'vc6_compat.lib'
p357
sS'expand_name'
p358
I00
sS'include_spec_rvct_objs'
p359
(lp360
sS'include_all_objs'
p361
I00
sS'share_arm'
p362
I00
sS'arch'
p363
S'x86'
p364
sS'nodebug'
p365
I00
sg38
Nsbag330
(g352
g332
Ntp366
Rp367
(dp368
g356
S'iw2d'
p369
sg358
I01
sg359
(lp370
sg361
Nsg362
Nsg363
Nsg365
I00
sg38
Nsbag330
(g352
g332
Ntp371
Rp372
(dp373
g356
S'ATI_Compress_MT_VC7.lib'
p374
sg358
I00
sg359
g370
sg361
Nsg362
Nsg363
S'x86'
p375
sg365
I00
sg38
Nsbag330
(g352
g332
Ntp376
Rp377
(dp378
g356
S'iwgx'
p379
sg358
I01
sg359
g370
sg361
Nsg362
Nsg363
Nsg365
I00
sg38
Nsbag330
(g352
g332
Ntp380
Rp381
(dp382
g356
S'iwgl'
p383
sg358
I01
sg359
g370
sg361
Nsg362
Nsg363
Nsg365
I00
sg38
Nsbag330
(g352
g332
Ntp384
Rp385
(dp386
g356
S'iwutil'
p387
sg358
I01
sg359
g370
sg361
Nsg362
Nsg363
Nsg365
I00
sg38
Nsbag330
(g352
g332
Ntp388
Rp389
(dp390
g356
S'jpeg'
p391
sg358
I01
sg359
g370
sg361
Nsg362
Nsg363
Nsg365
I00
sg38
Nsbag330
(g352
g332
Ntp392
Rp393
(dp394
g356
S'z'
p395
sg358
I01
sg359
g370
sg361
Nsg362
Nsg363
Nsg365
I00
sg38
Nsbag330
(g352
g332
Ntp396
Rp397
(dp398
g356
S'png'
p399
sg358
I01
sg359
g370
sg361
Nsg362
Nsg363
Nsg365
I00
sg38
Nsbag330
(g352
g332
Ntp400
Rp401
(dp402
g356
S'iwgeom'
p403
sg358
I01
sg359
g370
sg361
Nsg362
Nsg363
Nsg365
I00
sg38
Nsbag330
(g352
g332
Ntp404
Rp405
(dp406
g356
S'iwresmanager'
p407
sg358
I01
sg359
g370
sg361
Nsg362
Nsg363
Nsg365
I00
sg38
Nsbag330
(g352
g332
Ntp408
Rp409
(dp410
g356
S'iwgxfont'
p411
sg358
I01
sg359
g370
sg361
Nsg362
Nsg363
Nsg365
I00
sg38
Nsbag330
(g352
g332
Ntp412
Rp413
(dp414
g356
S'tiniconv'
p415
sg358
I01
sg359
g370
sg361
Nsg362
Nsg363
Nsg365
I00
sg38
Nsbag330
(g352
g332
Ntp416
Rp417
(dp418
g356
S's3e_cpp'
p419
sg358
I01
sg359
g360
sg361
I00
sg362
I00
sg363
Nsg365
I00
sg38
Nsbag330
(g352
g332
Ntp420
Rp421
(dp422
g356
S's3e'
p423
sg358
I01
sg359
(lp424
S'iwcrt.o'
p425
asg361
I00
sg362
I00
sg363
Nsg365
I00
sg38
Nsbag330
(g352
g332
Ntp426
Rp427
(dp428
g356
g55
sg358
I01
sg359
g360
sg361
I00
sg362
I00
sg363
S'x86'
p429
sg365
I01
sg38
Nsbag330
(g352
g332
Ntp430
Rp431
(dp432
g356
g55
sg358
I01
sg359
g360
sg361
I00
sg362
I00
sg363
S'!x86'
p433
sg365
I01
sg38
Nsbag330
(g352
g332
Ntp434
Rp435
(dp436
g356
S'stdc++'
p437
sg358
I00
sg359
g360
sg361
I00
sg362
I00
sg363
S'mips'
p438
sg365
I00
sg38
Nsbag330
(g352
g332
Ntp439
Rp440
(dp441
g356
S'c'
p442
sg358
I00
sg359
g360
sg361
I00
sg362
I00
sg363
S'mips'
p443
sg365
I00
sg38
Nsbag330
(g352
g332
Ntp444
Rp445
(dp446
g356
S'm'
p447
sg358
I00
sg359
g360
sg361
I00
sg362
I00
sg363
S'mips'
p448
sg365
I00
sg38
Nsbag330
(g352
g332
Ntp449
Rp450
(dp451
g356
S'gcc'
p452
sg358
I00
sg359
g360
sg361
I00
sg362
I00
sg363
S'mips'
p453
sg365
I00
sg38
Nsbag330
(g352
g332
Ntp454
Rp455
(dp456
g356
S'stdc++'
p457
sg358
I00
sg359
g360
sg361
I00
sg362
I00
sg363
S'gcc_x86_android'
p458
sg365
I00
sg38
Nsbag330
(g352
g332
Ntp459
Rp460
(dp461
g356
g442
sg358
I00
sg359
g360
sg361
I00
sg362
I00
sg363
S'gcc_x86_android'
p462
sg365
I00
sg38
Nsbag330
(g352
g332
Ntp463
Rp464
(dp465
g356
g447
sg358
I00
sg359
g360
sg361
I00
sg362
I00
sg363
S'gcc_x86_android'
p466
sg365
I00
sg38
Nsbag330
(g352
g332
Ntp467
Rp468
(dp469
g356
g452
sg358
I00
sg359
g360
sg361
I00
sg362
I00
sg363
S'gcc_x86_android'
p470
sg365
I00
sg38
NsbasS'library_paths'
p471
(lp472
g330
(cmkb_main
LibraryPath
p473
g332
Ntp474
Rp475
(dp476
S'expand_path'
p477
I01
sg356
S'c:/marmalade/7.5/modules/iw2d'
p478
sbag330
(g473
g332
Ntp479
Rp480
(dp481
g477
I00
sg356
S'c:/marmalade/7.5/modules/iwgx/atitools'
p482
sbag330
(g473
g332
Ntp483
Rp484
(dp485
g477
I01
sg356
S'c:/marmalade/7.5/modules/iwgx'
p486
sbag330
(g473
g332
Ntp487
Rp488
(dp489
g477
I01
sg356
S'c:/marmalade/7.5/modules/iwgl'
p490
sbag330
(g473
g332
Ntp491
Rp492
(dp493
g477
I01
sg356
S'c:/marmalade/7.5/modules/iwutil'
p494
sbag330
(g473
g332
Ntp495
Rp496
(dp497
g477
I01
sg356
S'c:/marmalade/7.5/modules/third_party/libjpeg'
p498
sbag330
(g473
g332
Ntp499
Rp500
(dp501
g477
I01
sg356
S'c:/marmalade/7.5/modules/third_party/zlib'
p502
sbag330
(g473
g332
Ntp503
Rp504
(dp505
g477
I01
sg356
S'c:/marmalade/7.5/modules/third_party/libpng'
p506
sbag330
(g473
g332
Ntp507
Rp508
(dp509
g477
I01
sg356
S'c:/marmalade/7.5/modules/iwgeom'
p510
sbag330
(g473
g332
Ntp511
Rp512
(dp513
g477
I01
sg356
S'c:/marmalade/7.5/modules/iwresmanager'
p514
sbag330
(g473
g332
Ntp515
Rp516
(dp517
g477
I01
sg356
S'c:/marmalade/7.5/modules/iwgxfont'
p518
sbag330
(g473
g332
Ntp519
Rp520
(dp521
g477
I01
sg356
S'c:/marmalade/7.5/modules/third_party/tiniconv'
p522
sbag330
(g473
g332
Ntp523
Rp524
(dp525
g477
I01
sg356
S'c:/marmalade/7.5/s3e'
p526
sbasS'macros'
p527
(dp528
S'IW_USE_CALLSTACK'
p529
NsS'IW_MKF_IWGEOM'
p530
NsS'I3D_PLATFORM_S3E'
p531
NsS'IW_TRACE_CHANNEL_PVRTEXTOOL_VERBOSE'
p532
S'2'
p533
sS'IW_MKF_LIBJPEG'
p534
NsS'I3D_OS_S3E'
p535
NsS'IW_MKF_PVRTEXTOOL'
p536
NsS'IW_MKF_TINICONV'
p537
NsS'IW_APP_VERSION'
p538
S'"1.0"'
p539
sS'__S3E__'
p540
NsS'IW_MKF_IWRESMANAGER'
p541
NsS'IW_MKF_IWUTIL'
p542
NsS'IW_PLATFORM_S3E'
p543
NsS'IW_ASSERTION_CHANNEL_2D'
p544
S'1'
p545
sS'IW_APP_NAME'
p546
S'"Stage4"'
p547
sS'IW_MKF_MARMALADEEXAMPLERESOURCES'
p548
NsS'IW_MKF_IWGXFONT'
p549
NsS'IW_MKF_IWTWEEN'
p550
NsS'IW_MKF_ZLIB'
p551
NsS'IW_MKF_S3E_DEFAULT'
p552
NsS'IW_MKF_IWGX'
p553
NsS'IW_MKF_IW2DSCENEGRAPH'
p554
NsS'IW_MKF_SOUNDENGINE'
p555
NsS'IW_USE_ASSERTIONS'
p556
NsS'_CRT_SECURE_NO_DEPRECATE'
p557
NsS'IW_MKF_IWGL'
p558
NsS'IW_MKF_LIBPNG'
p559
NsS'IW_TRACE_CHANNEL_IW_2DSCENEGRAPH'
p560
g545
sS'IW_DEBUG'
p561
NsS'IW_USE_TRACING'
p562
NsS'IW_ASSERTION_CHANNEL_IW_2DSCENEGRAPH'
p563
g545
sS'IW_TRACE_CHANNEL_PVRTEXTOOL'
p564
g545
sS'IW_SDK'
p565
NsS'S3E_INCLUDE_LEGACY'
p566
NsS'IW_MKF_IW2DSCENEGRAPHCORE'
p567
NsS'IW_MKF_IW2D'
p568
NsS'IW_ASSERTION_CHANNEL_PVRTEXTOOL'
p569
g545
ssS'done_warnings'
p570
(dp571
sS'subprojects'
p572
(dp573
g193
S'iwgx'
p574
sg202
S'iwgxfont'
p575
sg191
S's3e-default.mkf'
p576
sg205
S'../iw2dscenegraphcore'
p577
sg198
S'zlib'
p578
sg200
S'iwresmanager'
p579
sg203
S'tiniconv'
p580
sg196
S'libjpeg'
p581
sg192
S'iw2d'
p582
sg208
S'../../../MarmaladeExampleResources'
p583
sg195
S'iwutil'
p584
sg206
S'iwtween'
p585
sg197
S'libpng'
p586
sg204
S'iw2dscenegraph'
p587
sg207
S'SoundEngine'
p588
sg194
S'iwgl'
p589
sg199
S'iwgeom'
p590
sg201
S'PVRTexTool'
p591
ssS'deployments'
p592
(dp593
S'Default'
p594
g330
(cdeployment
Deployment
p595
g332
Ntp596
Rp597
(dp598
S'got_version'
p599
I0
sS'assets'
p600
g594
sS'mkb'
p601
g334
sS'target'
p602
Nsg363
(lp603
sS'options'
p604
(dp605
S'iphone-link-lib'
p606
(lp607
sS'game-icf'
p608
NsS'android-tm'
p609
NsS'winmobile-icon32'
p610
NsS'ws8-logo-image150x150'
p611
NsS'wp81-logo-image150x150'
p612
NsS'android-keystore'
p613
NsS'osx-ext-dll'
p614
(lp615
S'c:/marmalade/7.5/extensions/pvrtextool/lib/osx/libPVRTexTool.dylib'
p616
asS'iphone-provisioning-profile'
p617
NsS'ws8-splash-screen-image620x300'
p618
NsS'wp81-extra-pri'
p619
(lp620
sS'ws8-ext-capabilities'
p621
(lp622
sS'android-icon-hdpi'
p623
NsS'iphone-ipad-only'
p624
NsS'iphone-splash-full-orient'
p625
NsS'wp8-tile-fliptemplate-supports-large'
p626
NsS'iphone-show-status-bar'
p627
NsS'roku-requires-mkv'
p628
NsS'long-caption'
p629
NsS'android-pkgname'
p630
NsS'wp81-publisher-display-name'
p631
NsS'blackberry-permissions-read-device-identifying-information'
p632
NsS'ws81-certificate-end-date'
p633
NsS'psp-dlgcontentid'
p634
NsS'iphone-minimum-ios-version'
p635
NsS'target-folder'
p636
NsS'tizen-dist1-CA-path'
p637
NsS'symbian-icon2-format'
p638
NsS'tizen-author-key'
p639
NsS'firefoxos-icon-128X128'
p640
NsS'iphone-region'
p641
NsS'uiq3-icon3-mask'
p642
NsS'brew-encoding'
p643
NsS'android-x86'
p644
NsS'nds-initialcode'
p645
NsS'iphone-persistent-wifi'
p646
NsS'psp-snd0'
p647
NsS'roku-icon-focus-hd'
p648
NsS'osx-appid'
p649
NsS'winmobile-install-folder'
p650
NsS'android-external-res'
p651
(lp652
sS'ws8-product-version'
p653
NsS'brew-priviledges'
p654
NsS'iphone-info-plist-override'
p655
NsS'iphone-icon-ipad'
p656
NsS'iphone-skip-icon-generation'
p657
NsS'roku-hidden'
p658
NsS'psp-titlename'
p659
NsS'wp81-product-version'
p660
NsS'symbian-icon1-mask'
p661
NsS'psp-parentallevel'
p662
NsS'iphone-launch-storyboard'
p663
NsS'splashscreen-use-all'
p664
NsS'wp8-author'
p665
NsS'symbian-disable-ecompxl'
p666
NsS'splashscreen-auto-onblack'
p667
NsS'iphone-icon-dir'
p668
NsS'iphone-icon-extra'
p669
NsS'win32-ext-dll'
p670
(lp671
S'c:/marmalade/7.5/extensions/pvrtextool/lib/win32/PVRTexTool.dll'
p672
asS'iphone-development-key'
p673
NsS'winmobile-icon48'
p674
NsS'android-unsigned'
p675
NsS'osx-appstore-category'
p676
NsS'version-revision'
p677
NsS'roku-icon-focus-sd'
p678
NsS'ws81-product-version'
p679
NsS'winmobile-png90'
p680
NsS'iphone-icon-ipad-high-res'
p681
NsS'iphone-disable-ipad'
p682
NsS'ws81-splash-screen-background'
p683
NsS'wp8-ext-capabilities'
p684
(lp685
sS'brew-icon-large'
p686
NsS'symbian-icon1-mask-black'
p687
NsS'ws8-extra-res'
p688
(lp689
sS'iphone-bundle-localisations'
p690
NsS'winmobile-png60'
p691
NsS'blackberry-permissions-access-shared'
p692
NsS'blackberry-author'
p693
NsS'android-icon-xxxhdpi'
p694
NsS'olddeploytoolstyle'
p695
NsS'android_icon_gallery'
p696
NsS'wp81-splash-screen-background'
p697
NsS'winmobile-cab-compress'
p698
NsS'iphone-info-plist'
p699
NsS'ws81-ext-managed-dll'
p700
(lp701
sS'playbook-cskpass'
p702
NsS'win32-icon'
p703
NsS'symbian-key'
p704
NsS'app-icf'
p705
NsS'blackberry-storepass'
p706
NsS'wp8-tile-fliptemplate-back-title'
p707
NsS'brew-compress-loader'
p708
NsS'iphone-testflight'
p709
NsS'win32-pref-windowposy'
p710
NsS'win32-pref-windowposx'
p711
NsS'roku-requires-audiometadata'
p712
NsS'wp8-exclude-low-mem'
p713
NsS'iphone-icon-ipad-search-high-res'
p714
NsS'iphone-link-libdir'
p715
(lp716
sS'wp81-ext-capabilities'
p717
(lp718
sS'blackberry-permissions-read-geolocation'
p719
NsS'ws81-ext-device-capabilities'
p720
(lp721
sS'tizen-signed'
p722
NsS'android-extra-application-manifest'
p723
(lp724
sS'ws8-ext-native-dll'
p725
(lp726
sS'symbian-icon2-mask'
p727
NsS'iphone-launch-extra'
p728
NsS'webos-memory'
p729
NsS'android-keypass'
p730
NsS'name'
p731
NsS'uiq3-icon2-format'
p732
NsS'roku-splash-screen-sd'
p733
NsS'auto-derbh'
p734
NsS'roku-icon-side-sd'
p735
NsS'android-external-assets'
p736
(lp737
sS'nds-publicsavedatasize'
p738
NsS'splashscreen'
p739
S'c:/marmalade/7.5/examples/marmaladeexampleresources/resources/splashscreens'
p740
sS'brew-mif'
p741
NsS'iphone-icon-settings-high-res'
p742
NsS'android-manifest'
p743
NsS'ws81-splash-screen-image620x300'
p744
NsS'wp81-product-name'
p745
NsS's3e-compression'
p746
NsS'tizen-author-password'
p747
NsS'wp8-tile-fliptemplate-back-content'
p748
NsS'blackberry-extra-descriptor'
p749
(lp750
sS'symbian-icon1'
p751
NsS'symbian-icon2'
p752
NsS'nds-makercode'
p753
NsS'android-extra-styles-file'
p754
NsS'wp81-publisher-id'
p755
NsS'nds-bannertitle-jp'
p756
NsS'wp81-logo-image44x44'
p757
NsS'osx-sign-for-store'
p758
NsS'symbian7-uid'
p759
NsS'wp8-tile-fliptemplate-large-back-content'
p760
NsS'wp81-phone-publisher-id'
p761
NsS'nds-bannertitle-cn'
p762
NsS'iphone-distribution-key'
p763
NsS'android-icon-gallery'
p764
NsS'blackberry-keystore'
p765
NsS'iphone-nosign'
p766
NsS'caption'
p767
NsS'android-extra-manifest'
p768
(lp769
sS'wp81-ext-sdk-ref'
p770
(lp771
sS'android-icon-xxhdpi'
p772
NsS'version-minor'
p773
NsS'iphone-skip-launch-generation'
p774
NsS'iphone-link-libdirs'
p775
(lp776
sS'iphone-icon-large'
p777
NsS'symbian-keypwd'
p778
NsS'symbian8-uid'
p779
NsS'symbian-cert-key'
p780
NsS'winmobile-ampd-part-number'
p781
NsS'arch'
p782
NsS'nds-romheadertemplate'
p783
NsS'webos-icon'
p784
NsS'wp81-ext-device-capabilities'
p785
(lp786
sS'psp-dlgprotectdocument'
p787
NsS'ws8-splash-screen-background'
p788
NsS'android-icon-mdpi'
p789
NsS'nds-icon'
p790
NsS'ws8-custom-manifest-fill'
p791
NsS'iphone-development-cert'
p792
NsS'and'
p793
NsS'symbian-icon2-mask-black'
p794
NsS'blackberry-phone-icon'
p795
NsS'iphone-enable-4inch-retina'
p796
NsS'ws8-custom-manifest'
p797
NsS'version-major'
p798
NsS'wp8-genre-isgame'
p799
NsS'uiq3-uid'
p800
NsS'iphone-splash-retina-generate'
p801
NsS'tizen-hw-acceleration'
p802
NsS'iphone_bundle_localisations'
p803
NsS'tizen-dist1-key'
p804
NsS'wp81-custom-manifest-fill'
p805
NsS'wp8-custom-manifest'
p806
NsS'nds-bannertitle-ge'
p807
NsS'iphone-sign-for-distribution'
p808
NsS'wp8-tile-fliptemplate-medium-back-image'
p809
NsS'wp8-publisher-id'
p810
NsS'icon'
p811
S'c:/marmalade/7.5/examples/marmaladeexampleresources/resources/icons'
p812
sS'wp8-exclude-wxga'
p813
NsS'wp81-identity-name'
p814
NsS'uiq3-icon2-mask'
p815
NsS'iphone-splashscreen-portrait'
p816
NsS'iphone-icon-high-res'
p817
NsS'ws81-distribution-pfx-password'
p818
NsS'playbook-author'
p819
NsS'android-icon-xhdpi'
p820
NsS'linux-ext-lib'
p821
(lp822
sS'blackberry-permissions-access-internet'
p823
NsS'wp8-exclude-720p'
p824
NsS'lgtv-use-drm'
p825
NsS'symbian-platsecflags'
p826
NsS'ws8-description'
p827
NsS'blackberry-playbook-icon'
p828
NsS'copyright'
p829
NsS'ws8-distribution-pfx-password'
p830
NsS'win32-gles-directory'
p831
NsS'version'
p832
NsS'iphone-uiviewcontroller-based-status-bar'
p833
NsS'ws81-logo-image150x150'
p834
NsS'osx-signing-identity-app'
p835
NsS'tizen-project-url'
p836
NsS'symbian-icon-svg'
p837
NsS'android-aliasname'
p838
NsS'psp-dlgmanual'
p839
NsS'brew-uid'
p840
NsS'symbian-locationsupport'
p841
NsS'wp81-logo-image50x50'
p842
NsS'ws8-ext-managed-dll'
p843
(lp844
sS'nds-bannertitle-it'
p845
NsS'ws81-custom-manifest-fill'
p846
NsS'ws8-ext-sdk-manifest-part'
p847
(lp848
sS'uiq3-icon1-mask'
p849
NsS'winmobile-icon16'
p850
NsS'ws8-product-name'
p851
NsS'blackberry-cskpass'
p852
NsS'winmobile-start-menu-folder'
p853
NsS'brew-clsid'
p854
NsS'roku-requires-bluetooth'
p855
NsS'iphone-default-development-profile'
p856
NsS'ws8-ext-device-capabilities'
p857
(lp858
sS'blackberry-permissions-use-camera'
p859
NsS'ws81-extra-pri'
p860
(lp861
sS'iphone-prerendered-icon'
p862
NsS'iphone-appid'
p863
NsS'ws8-identity-name'
p864
NsS'tizen-dist2-CA-path'
p865
NsS'android-external-jars'
p866
(lp867
sS'winmobile-icon64'
p868
NsS'blackberry-permissions-post-notification'
p869
NsS'winmobile-setup-dll'
p870
NsS'firefoxos-manifest'
p871
NsS'win8-winrt-extra-res'
p872
(lp873
sS'wp81-ext-sdk-manifest-part'
p874
(lp875
sS'symbian9-uid'
p876
NsS'iphone-icon-ipad-ios7'
p877
NsS'winmobile-trace-file'
p878
NsS'roku-splash-color'
p879
NsS'psp-appversion'
p880
NsS'ws8-publisher-id'
p881
NsS'android-supports-gl-texture'
p882
(lp883
sS'winmobile-png45'
p884
NsS'wp81-extra-res'
p885
(lp886
sS'android-storepass'
p887
NsS'osx-signing-identity-inst'
p888
NsS'android-custom-activity'
p889
NsS'psp-discversion'
p890
NsS'wp81-ext-managed-dll'
p891
(lp892
sS'psp-copyright'
p893
NsS'embed-icf'
p894
NsS'tizen-manifest'
p895
NsS'osx-icon'
p896
NsS'webos-appinfo'
p897
NsS'psp-dlghealthwarning'
p898
NsS'webos-appid'
p899
NsS'roku-icon-side-hd'
p900
NsS'iphone-icon-ipad-search-high-res-ios7'
p901
NsS'iphone-extra-plist'
p902
(lp903
sS'ws81-ext-sdk-manifest-part'
p904
(lp905
sS'loader_name_prefix'
p906
NsS'iphone-launch-dir'
p907
NsS'nds-titlename'
p908
NsS'ws81-logo-image50x50'
p909
NsS'wp81-custom-manifest'
p910
NsS'osx-entitlements-plist'
p911
NsS'psp-dlgicon0'
p912
NsS'winmobile-nouninstall'
p913
NsS'psp-discid'
p914
NsS'tizen-dist2-password'
p915
NsS'ws8-ext-sdk-ref'
p916
(lp917
sS'iphone-extra-string'
p918
(lp919
sS'version-string'
p920
NsS'iphone-icon-high-res-ios7'
p921
NsS'blackberry-permissions-record-audio'
p922
NsS'ws8-certificate-end-date'
p923
NsS'tizen-so'
p924
(lp925
sS'wp8-tile-fliptemplate-small-image'
p926
NsS'playbook-authorid'
p927
NsS'iphone-signing-identity'
p928
NsS'roku-persist-quota'
p929
NsS'nds-bannertitle-fr'
p930
NsS'ws8-distribution-pfx'
p931
NsS'ws8-publisher-display-name'
p932
NsS'brew-icon-small'
p933
NsS'psp-dlgpic2'
p934
NsS'psp-dlgpic0'
p935
NsS'psp-pic0'
p936
NsS'psp-pic1'
p937
NsS'win32-pref-windowtitle'
p938
NsS'psp-icon0'
p939
NsS'psp-icon1'
p940
NsS'ws81-identity-name'
p941
NsS'winmobile-icon'
p942
NsS'iphone-no-splash'
p943
NsS'iphone-splash'
p944
NsS'iphone-app-fonts'
p945
NsS'wp8-ext-native-dll'
p946
(lp947
sS'wp81-splash-screen-image480x800'
p948
NsS'ws81-distribution-cer'
p949
NsS'iphone-backgroundmode-audio'
p950
NsS'uiq3-icon2'
p951
NsS'uiq3-icon3'
p952
NsS'uiq3-icon1'
p953
NsS'uiq3-icon1-format'
p954
NsS'ws8-logo-image50x50'
p955
NsS'iphone-icon-ipad-search'
p956
NsS'symbian-run-on-install'
p957
NsS'wp81-description'
p958
NsS'ws81-publisher-display-name'
p959
NsS'firefoxos-xulrunner'
p960
NsS'symbian-soundrecordsupport'
p961
NsS'nds-bannertitle-sp'
p962
NsS'psp-producer'
p963
NsS'iphone-apple-wwdr-cert'
p964
NsS'android-icon-nonstandard'
p965
NsS'win32-pref-processtitle'
p966
NsS'nds-bannertitle-hn'
p967
NsS'tizen-dist2-key'
p968
NsS'brew-depends'
p969
NsS'ws81-custom-manifest'
p970
NsS'iphone-allow-launch-rotation'
p971
NsS'iphone-icon-ipad-search-ios7'
p972
NsS'brew-icon-medium'
p973
NsS'iphone-bundle-url-name'
p974
NsS'wp8-tile-fliptemplate-large-front-image'
p975
NsS'tizen-dist2-CA-root-path'
p976
NsS'ws81-description'
p977
NsS'uiq3-icon3-format'
p978
NsS'ws81-logo-image30x30'
p979
NsS'win8-phone-extra-res'
p980
(lp981
sS'iphone-signing-host'
p982
NsS'tizen-icon'
p983
NsS'osx-info-plist'
p984
NsS'symbian-icon1-format'
p985
NsS'ws81-distribution-pfx'
p986
NsS'blackberry-authorid'
p987
NsS'ws81-publisher-id'
p988
NsS'win8-store-extra-res'
p989
(lp990
sS'wp8-description'
p991
NsS'iphone-link-opts'
p992
(lp993
sS'ws81-ext-sdk-ref'
p994
(lp995
sS'roku-splash-min-time'
p996
NsS'wp8-tile-fliptemplate-medium-front-image'
p997
NsS'iphone-disable-launch-images'
p998
NsS'provider'
p999
NsS'playbook-keystore'
p1000
NsS'tizen-appid'
p1001
NsS'wp8-extra-res'
p1002
(lp1003
sS'symbian-osexecsupport'
p1004
NsS'android-install-location'
p1005
NsS'nds-privatesavedatasize'
p1006
NsS'iphone-disable-testflight'
p1007
NsS'playbook-storepass'
p1008
NsS'android-icon-ldpi'
p1009
NsS'manufacturer'
p1010
NsS'itunes-artwork'
p1011
NsS'iphone-extra-sections'
p1012
NsS'ws81-product-name'
p1013
NsS'ws81-ext-native-dll'
p1014
(lp1015
sS'ws8-extra-pri'
p1016
(lp1017
sS'wp8-product-id'
p1018
NsS'ws8-logo-image30x30'
p1019
NsS'wp8-ext-managed-dll'
p1020
(lp1021
sS'iphone-splashscreen-landscape'
p1022
NsS'symbian-maxheapsize'
p1023
NsS'android-extra-packages'
p1024
(lp1025
sS'priv-sign-key'
p1026
NsS'networking'
p1027
NsS'android-icon'
p1028
NsS'iphone-icon-settings'
p1029
NsS'wp81-phone-product-id'
p1030
NsS'firefoxos-icon-60X60'
p1031
NsS'iphone-distribution-cert'
p1032
NsS'android_extra_strings'
p1033
NsS'nds-bannertitle-en'
p1034
NsS'wp8-tile-fliptemplate-title'
p1035
NsS'android-so'
p1036
(lp1037
sS'wp8-higher-mem'
p1038
NsS'wp8-ext-sdk-ref'
p1039
(lp1040
sS'wp8-fast-resume-mode'
p1041
NsS'roku-splash-screen-hd'
p1042
NsS'iphone-bundle-url-schemes'
p1043
NsS'roku-screensaver-private'
p1044
NsS'osx-extra-res'
p1045
(lp1046
sS'ws81-extra-res'
p1047
(lp1048
sS'playbook-icon'
p1049
NsS'uid'
p1050
NsS'pkguid-as-uid'
p1051
NsS'wp81-ext-native-dll'
p1052
(lp1053
sS'tizen-dist1-password'
p1054
NsS'roku-screensaver-title'
p1055
NsS'osx-minimum-osx-version'
p1056
NsS'symbian-cert'
p1057
NsS'iphone-icon'
p1058
NsS'ws81-ext-capabilities'
p1059
(lp1060
sS'ws8-distribution-cer'
p1061
NsS'playbook-access-shared'
p1062
NsS'iphone-icon-ipad-high-res-ios7'
p1063
NsS'iphone-link-libs'
p1064
(lp1065
sS'wp8-exclude-wvga'
p1066
NsS'assets'
p1067
NsS'wp8-tile-fliptemplate-large-back-image'
p1068
NsS'wp8-custom-manifest-fill'
p1069
NsS'pub-sign-key'
p1070
NsS'android-extra-strings'
p1071
NsS'tizen-author-CA-path'
p1072
Nssg356
g594
sbssS'platform'
p1073
S'S3E'
p1074
sg70
S'1.0'
p1075
sS'arcade_platform'
p1076
g4
sS'extensions'
p1077
(dp1078
sS'source_groups_tree'
p1079
(dp1080
S'(libpng)'
p1081
(dp1082
S'h'
p1083
(dp1084
S'c:/marmalade/7.5/modules/third_party/libpng/h/png.h'
p1085
(lp1086
I1
a(dp1087
asS'c:/marmalade/7.5/modules/third_party/libpng/h/pngconf.h'
p1088
(lp1089
I1
ag1087
assS'c:/marmalade/7.5/modules/third_party/libpng/libpng.mkf'
p1090
(lp1091
I1
a(dp1092
assS'(libjpeg)'
p1093
(dp1094
S'c:/marmalade/7.5/modules/third_party/libjpeg/libjpeg.mkf'
p1095
(lp1096
I1
a(dp1097
asg1083
(dp1098
S'c:/marmalade/7.5/modules/third_party/libjpeg/h/jerror.h'
p1099
(lp1100
I1
a(dp1101
asS'c:/marmalade/7.5/modules/third_party/libjpeg/h/jdhuff.h'
p1102
(lp1103
I1
ag1101
asS'c:/marmalade/7.5/modules/third_party/libjpeg/h/cderror.h'
p1104
(lp1105
I1
ag1101
asS'c:/marmalade/7.5/modules/third_party/libjpeg/h/transupp.h'
p1106
(lp1107
I1
ag1101
asS'c:/marmalade/7.5/modules/third_party/libjpeg/h/jinclude.h'
p1108
(lp1109
I1
ag1101
asS'c:/marmalade/7.5/modules/third_party/libjpeg/h/jmorecfg.h'
p1110
(lp1111
I1
ag1101
asS'c:/marmalade/7.5/modules/third_party/libjpeg/h/jdct.h'
p1112
(lp1113
I1
ag1101
asS'c:/marmalade/7.5/modules/third_party/libjpeg/h/jmemsys.h'
p1114
(lp1115
I1
ag1101
asS'c:/marmalade/7.5/modules/third_party/libjpeg/h/jpegint.h'
p1116
(lp1117
I1
ag1101
asS'c:/marmalade/7.5/modules/third_party/libjpeg/h/jchuff.h'
p1118
(lp1119
I1
ag1101
asS'c:/marmalade/7.5/modules/third_party/libjpeg/h/cdjpeg.h'
p1120
(lp1121
I1
ag1101
asS'c:/marmalade/7.5/modules/third_party/libjpeg/h/jversion.h'
p1122
(lp1123
I1
ag1101
asS'c:/marmalade/7.5/modules/third_party/libjpeg/h/jconfig.h'
p1124
(lp1125
I1
ag1101
asS'c:/marmalade/7.5/modules/third_party/libjpeg/h/jpeglib.h'
p1126
(lp1127
I1
ag1101
asssS'(tiniconv)'
p1128
(dp1129
S'c:/marmalade/7.5/modules/third_party/tiniconv/tiniconv.mkf'
p1130
(lp1131
I1
a(dp1132
asS'c:/marmalade/7.5/modules/third_party/tiniconv/source/tiniconv_int.h'
p1133
(lp1134
I1
a(dp1135
asS'c:/marmalade/7.5/modules/third_party/tiniconv/source/tiniconv.h'
p1136
(lp1137
I1
ag1135
assS'(SoundEngine)'
p1138
(dp1139
S'c:/marmalade/7.5/examples/gametutorial/cpp/modules/soundengine/source/IwSoundGroup.cpp'
p1140
(lp1141
I1
a(dp1142
asS'c:/marmalade/7.5/examples/gametutorial/cpp/modules/soundengine/h/IwSoundADPCM.h'
p1143
(lp1144
I1
ag1142
asS'c:/marmalade/7.5/examples/gametutorial/cpp/modules/soundengine/source/IwResHandlerWAV.cpp'
p1145
(lp1146
I1
ag1142
asS'c:/marmalade/7.5/examples/gametutorial/cpp/modules/soundengine/h/IwResHandlerWAV.h'
p1147
(lp1148
I1
ag1142
asS'Docs'
p1149
(dp1150
S'c:/marmalade/7.5/examples/gametutorial/cpp/modules/soundengine/docs/iwsound.config.txt'
p1151
(lp1152
I1
ag1142
assS'c:/marmalade/7.5/examples/gametutorial/cpp/modules/soundengine/h/IwSoundInst.h'
p1153
(lp1154
I1
ag1142
asS'c:/marmalade/7.5/examples/gametutorial/cpp/modules/soundengine/source/IwSoundManager.cpp'
p1155
(lp1156
I1
ag1142
asS'c:/marmalade/7.5/examples/gametutorial/cpp/modules/soundengine/h/IwSoundSpec.h'
p1157
(lp1158
I1
ag1142
asS'c:/marmalade/7.5/examples/gametutorial/cpp/modules/soundengine/source/IwSoundParams.cpp'
p1159
(lp1160
I1
ag1142
asS'c:/marmalade/7.5/examples/gametutorial/cpp/modules/soundengine/h/IwSoundManager.h'
p1161
(lp1162
I1
ag1142
asS'c:/marmalade/7.5/examples/gametutorial/cpp/modules/soundengine/source/IwSoundPCM.cpp'
p1163
(lp1164
I1
ag1142
asS'c:/marmalade/7.5/examples/gametutorial/cpp/modules/soundengine/source/IwSoundWAV.cpp'
p1165
(lp1166
I1
ag1142
asS'c:/marmalade/7.5/examples/gametutorial/cpp/modules/soundengine/source/IwSoundInst.cpp'
p1167
(lp1168
I1
ag1142
asS'c:/marmalade/7.5/examples/gametutorial/cpp/modules/soundengine/h/IwSoundWAV.h'
p1169
(lp1170
I1
ag1142
asS'c:/marmalade/7.5/examples/gametutorial/cpp/modules/soundengine/source/IwSoundSpec.cpp'
p1171
(lp1172
I1
ag1142
asS'c:/marmalade/7.5/examples/gametutorial/cpp/modules/soundengine/h/IwSoundParams.h'
p1173
(lp1174
I1
ag1142
asS'c:/marmalade/7.5/examples/gametutorial/cpp/modules/soundengine/source/IwSoundADPCM.cpp'
p1175
(lp1176
I1
ag1142
asS'c:/marmalade/7.5/examples/gametutorial/cpp/modules/soundengine/h/IwSound.h'
p1177
(lp1178
I1
ag1142
asS'c:/marmalade/7.5/examples/gametutorial/cpp/modules/soundengine/source/IwSoundData.cpp'
p1179
(lp1180
I1
ag1142
asS'c:/marmalade/7.5/examples/gametutorial/cpp/modules/soundengine/h/IwSoundData.h'
p1181
(lp1182
I1
ag1142
asS'c:/marmalade/7.5/examples/gametutorial/cpp/modules/soundengine/h/IwSoundPCM.h'
p1183
(lp1184
I1
ag1142
asS'c:/marmalade/7.5/examples/gametutorial/cpp/modules/soundengine/soundengine.mkf'
p1185
(lp1186
I1
a(dp1187
asS'c:/marmalade/7.5/examples/gametutorial/cpp/modules/soundengine/h/IwSoundGroup.h'
p1188
(lp1189
I1
ag1142
assS'(MarmaladeExampleResources)'
p1190
(dp1191
S'c:/marmalade/7.5/examples/marmaladeexampleresources/marmaladeexampleresources.mkf'
p1192
(lp1193
I1
a(dp1194
assS'source'
p1195
(dp1196
S'c:/Marmalade/7.5/examples/GameTutorial/CPP/Stage4/source/main.cpp'
p1197
(lp1198
I1
a(dp1199
asS'c:/Marmalade/7.5/examples/GameTutorial/CPP/Stage4/source/pauseMenu.cpp'
p1200
(lp1201
I1
ag1199
asS'c:/Marmalade/7.5/examples/GameTutorial/CPP/Stage4/source/input.h'
p1202
(lp1203
I1
ag1199
asS'c:/Marmalade/7.5/examples/GameTutorial/CPP/Stage4/source/scene.h'
p1204
(lp1205
I1
ag1199
asS'c:/Marmalade/7.5/examples/GameTutorial/CPP/Stage4/source/scene.cpp'
p1206
(lp1207
I1
ag1199
asS'c:/Marmalade/7.5/examples/GameTutorial/CPP/Stage4/source/resources.h'
p1208
(lp1209
I1
ag1199
asS'c:/Marmalade/7.5/examples/GameTutorial/CPP/Stage4/source/main.h'
p1210
(lp1211
I1
ag1199
asS'c:/Marmalade/7.5/examples/GameTutorial/CPP/Stage4/source/pauseMenu.h'
p1212
(lp1213
I1
ag1199
asS'c:/Marmalade/7.5/examples/GameTutorial/CPP/Stage4/source/game.h'
p1214
(lp1215
I1
ag1199
asS'c:/Marmalade/7.5/examples/GameTutorial/CPP/Stage4/source/audio.h'
p1216
(lp1217
I1
ag1199
asS'c:/Marmalade/7.5/examples/GameTutorial/CPP/Stage4/source/audio.cpp'
p1218
(lp1219
I1
ag1199
asS'c:/Marmalade/7.5/examples/GameTutorial/CPP/Stage4/source/input.cpp'
p1220
(lp1221
I1
ag1199
asS'c:/Marmalade/7.5/examples/GameTutorial/CPP/Stage4/source/resources.cpp'
p1222
(lp1223
I1
ag1199
asS'c:/Marmalade/7.5/examples/GameTutorial/CPP/Stage4/source/mainMenu.cpp'
p1224
(lp1225
I1
ag1199
asS'c:/Marmalade/7.5/examples/GameTutorial/CPP/Stage4/source/game.cpp'
p1226
(lp1227
I1
ag1199
asS'c:/Marmalade/7.5/examples/GameTutorial/CPP/Stage4/source/mainMenu.h'
p1228
(lp1229
I1
ag1199
assS'Extensions'
p1230
(dp1231
S'PVRTexTool'
p1232
(dp1233
S'interface'
p1234
(dp1235
S'c:/marmalade/7.5/extensions/pvrtextool/interface/PVRTexTool.defines.txt'
p1236
(lp1237
I1
a(dp1238
asS'c:/marmalade/7.5/extensions/pvrtextool/interface/PVRTexTool_interface.cpp'
p1239
(lp1240
I1
ag1238
assS'c:/marmalade/7.5/extensions/pvrtextool/h/PVRTexTool.h'
p1241
(lp1242
I1
ag1238
asS'c:/marmalade/7.5/extensions/pvrtextool/pvrtextool.mkf'
p1243
(lp1244
I1
a(dp1245
asssS"'Marmalade Studio'"
p1246
(dp1247
S'iw2dscenegraph'
p1248
(dp1249
S'c:/marmalade/7.5/modules/iw2dscenegraph/source/Iw2DSceneGraph.cpp'
p1250
(lp1251
I1
a(dp1252
asS'c:/marmalade/7.5/modules/iw2dscenegraph/docs/iw2dscenegraph.defines.txt'
p1253
(lp1254
I1
ag1252
asS'c:/marmalade/7.5/modules/iw2dscenegraph/h/Iw2DSceneGraph.h'
p1255
(lp1256
I1
ag1252
asS'c:/marmalade/7.5/modules/iw2dscenegraph/iw2dscenegraph.mkf'
p1257
(lp1258
I1
a(dp1259
assS'iwgl'
p1260
(dp1261
S'c:/marmalade/7.5/modules/iwgl/iwgl.mkf'
p1262
(lp1263
I1
a(dp1264
asS'c:/marmalade/7.5/modules/iwgl/h/IwGL.h'
p1265
(lp1266
I1
a(dp1267
asS'c:/marmalade/7.5/modules/iwgl/docs/iwgl.config.txt'
p1268
(lp1269
I1
ag1267
asS'c:/marmalade/7.5/modules/iwgl/h/IwGLExt.h'
p1270
(lp1271
I1
ag1267
assS'iw2d'
p1272
(dp1273
S'c:/marmalade/7.5/modules/iw2d/docs/iw2d_public.defines.txt'
p1274
(lp1275
I1
a(dp1276
asS'c:/marmalade/7.5/modules/iw2d/docs/iw2d.config.txt'
p1277
(lp1278
I1
ag1276
asS'c:/marmalade/7.5/modules/iw2d/h/Iw2D.h'
p1279
(lp1280
I1
ag1276
asS'c:/marmalade/7.5/modules/iw2d/iw2d.mkf'
p1281
(lp1282
I1
a(dp1283
assS'iwgxfont'
p1284
(dp1285
S'c:/marmalade/7.5/modules/iwgxfont/h/IwGxFontGlyph.h'
p1286
(lp1287
I1
a(dp1288
asS'c:/marmalade/7.5/modules/iwgxfont/h/IwGxFontTypes.h'
p1289
(lp1290
I1
ag1288
asS'c:/marmalade/7.5/modules/iwgxfont/docs/iwgxfont.config.txt'
p1291
(lp1292
I1
ag1288
asS'c:/marmalade/7.5/modules/iwgxfont/h/IwGxFontState.h'
p1293
(lp1294
I1
ag1288
asS'c:/marmalade/7.5/modules/iwgxfont/h/IwGxFontContainer.h'
p1295
(lp1296
I1
ag1288
asS'c:/marmalade/7.5/modules/iwgxfont/iwgxfont.mkf'
p1297
(lp1298
I1
a(dp1299
asS'c:/marmalade/7.5/modules/iwgxfont/h/IwGxFontPreparedData.h'
p1300
(lp1301
I1
ag1288
asS'c:/marmalade/7.5/modules/iwgxfont/h/IwGxFont.h'
p1302
(lp1303
I1
ag1288
asS'c:/marmalade/7.5/modules/iwgxfont/docs/iwgxfont_public.defines.txt'
p1304
(lp1305
I1
ag1288
assS'iwgeom'
p1306
(dp1307
S'c:/marmalade/7.5/modules/iwgeom/h/IwGeomSVec2.h'
p1308
(lp1309
I1
a(dp1310
asS'c:/marmalade/7.5/modules/iwgeom/h/IwGeomSphere.h'
p1311
(lp1312
I1
ag1310
asS'c:/marmalade/7.5/modules/iwgeom/h/IwGeomSVec3.h'
p1313
(lp1314
I1
ag1310
asS'c:/marmalade/7.5/modules/iwgeom/iwgeom.mkf'
p1315
(lp1316
I1
a(dp1317
asS'c:/marmalade/7.5/modules/iwgeom/h/IwGeomSqrt.h'
p1318
(lp1319
I1
ag1310
asS'c:/marmalade/7.5/modules/iwgeom/h/IwGeomFQuat.h'
p1320
(lp1321
I1
ag1310
asS'c:/marmalade/7.5/modules/iwgeom/h/IwGeomQuat.h.tpl'
p1322
(lp1323
I1
ag1310
asS'c:/marmalade/7.5/modules/iwgeom/h/IwGeomVec2.h'
p1324
(lp1325
I1
ag1310
asS'c:/marmalade/7.5/modules/iwgeom/h/IwGeomMat.h'
p1326
(lp1327
I1
ag1310
asS'c:/marmalade/7.5/modules/iwgeom/h/IwGeomVec3.h'
p1328
(lp1329
I1
ag1310
asS'c:/marmalade/7.5/modules/iwgeom/h/IwGeomLegacy.h'
p1330
(lp1331
I1
ag1310
asS'c:/marmalade/7.5/modules/iwgeom/h/IwGeom.h'
p1332
(lp1333
I1
ag1310
asS'c:/marmalade/7.5/modules/iwgeom/h/IwGeomSQuat.h'
p1334
(lp1335
I1
ag1310
asS'c:/marmalade/7.5/modules/iwgeom/h/IwGeomFBBox.h'
p1336
(lp1337
I1
ag1310
asS'c:/marmalade/7.5/modules/iwgeom/h/IwGeomFMat.h'
p1338
(lp1339
I1
ag1310
asS'c:/marmalade/7.5/modules/iwgeom/h/IwGeomPlane.h'
p1340
(lp1341
I1
ag1310
asS'c:/marmalade/7.5/modules/iwgeom/h/IwGeomMat2D.h'
p1342
(lp1343
I1
ag1310
asS'c:/marmalade/7.5/modules/iwgeom/h/IwGeomFVec2.h'
p1344
(lp1345
I1
ag1310
asS'c:/marmalade/7.5/modules/iwgeom/h/IwGeomSVec4.h'
p1346
(lp1347
I1
ag1310
asS'c:/marmalade/7.5/modules/iwgeom/h/IwGeomVec4.h'
p1348
(lp1349
I1
ag1310
asS'c:/marmalade/7.5/modules/iwgeom/h/IwGeomCore.h'
p1350
(lp1351
I1
ag1310
asS'c:/marmalade/7.5/modules/iwgeom/h/IwGeomVec.h.tpl'
p1352
(lp1353
I1
ag1310
asS'c:/marmalade/7.5/modules/iwgeom/h/IwGeomVec.h'
p1354
(lp1355
I1
ag1310
asS'c:/marmalade/7.5/modules/iwgeom/h/IwGeomIntersect.h'
p1356
(lp1357
I1
ag1310
asS'c:/marmalade/7.5/modules/iwgeom/h/IwGeomFVec4.h'
p1358
(lp1359
I1
ag1310
asS'c:/marmalade/7.5/modules/iwgeom/h/IwGeomMat.h.tpl'
p1360
(lp1361
I1
ag1310
asS'c:/marmalade/7.5/modules/iwgeom/h/IwGeomMat2D.h.tpl'
p1362
(lp1363
I1
ag1310
asS'c:/marmalade/7.5/modules/iwgeom/h/IwGeomFMat2D.h'
p1364
(lp1365
I1
ag1310
asS'c:/marmalade/7.5/modules/iwgeom/h/IwGeomMenu.h'
p1366
(lp1367
I1
ag1310
asS'c:/marmalade/7.5/modules/iwgeom/h/IwGeomBBox.h'
p1368
(lp1369
I1
ag1310
asS'c:/marmalade/7.5/modules/iwgeom/h/IwGeomFSphere.h'
p1370
(lp1371
I1
ag1310
asS'c:/marmalade/7.5/modules/iwgeom/h/IwGeomFVec3.h'
p1372
(lp1373
I1
ag1310
asS'c:/marmalade/7.5/modules/iwgeom/h/IwGeomFPlane.h'
p1374
(lp1375
I1
ag1310
asS'c:/marmalade/7.5/modules/iwgeom/docs/iwgeom.config.txt'
p1376
(lp1377
I1
ag1310
asS'c:/marmalade/7.5/modules/iwgeom/h/IwGeomQuat.h'
p1378
(lp1379
I1
ag1310
asS'c:/marmalade/7.5/modules/iwgeom/h/IwGeomFIntersect.h'
p1380
(lp1381
I1
ag1310
assS'iwresmanager'
p1382
(dp1383
S'c:/marmalade/7.5/modules/iwresmanager/h/IwResHandlerITX.h'
p1384
(lp1385
I1
a(dp1386
asS'c:/marmalade/7.5/modules/iwresmanager/h/IwResSerialise.h'
p1387
(lp1388
I1
ag1386
asS'c:/marmalade/7.5/modules/iwresmanager/h/IwResManagerClass.h'
p1389
(lp1390
I1
ag1386
asS'c:/marmalade/7.5/modules/iwresmanager/h/IwResHandlerGROUP.h'
p1391
(lp1392
I1
ag1386
asS'c:/marmalade/7.5/modules/iwresmanager/h/IwResManager.h'
p1393
(lp1394
I1
ag1386
asS'c:/marmalade/7.5/modules/iwresmanager/iwresmanager.mkf'
p1395
(lp1396
I1
a(dp1397
asS'c:/marmalade/7.5/modules/iwresmanager/docs/iwresmanager.config.txt'
p1398
(lp1399
I1
ag1386
asS'c:/marmalade/7.5/modules/iwresmanager/h/IwResGroup.h'
p1400
(lp1401
I1
ag1386
asS'c:/marmalade/7.5/modules/iwresmanager/h/IwResHandler.h'
p1402
(lp1403
I1
ag1386
asS'c:/marmalade/7.5/modules/iwresmanager/h/IwResHandlerImage.h'
p1404
(lp1405
I1
ag1386
assS'iwgx'
p1406
(dp1407
S'c:/marmalade/7.5/modules/iwgx/h/IwDebugPrim.h'
p1408
(lp1409
I1
a(dp1410
asS'c:/marmalade/7.5/modules/iwgx/h/IwMatAnim.h'
p1411
(lp1412
I1
ag1410
asS'c:/marmalade/7.5/modules/iwgx/h/IwTexture.h'
p1413
(lp1414
I1
ag1410
asS'c:/marmalade/7.5/modules/iwgx/h/IwGxFuncTable.h'
p1415
(lp1416
I1
ag1410
asS'c:/marmalade/7.5/modules/iwgx/h/IwResHandlerMTL.h'
p1417
(lp1418
I1
ag1410
asS'c:/marmalade/7.5/modules/iwgx/h/IwGxPrint.h'
p1419
(lp1420
I1
ag1410
asS'c:/marmalade/7.5/modules/iwgx/h/IwGxStream.h'
p1421
(lp1422
I1
ag1410
asS'c:/marmalade/7.5/modules/iwgx/h/IwClip.h'
p1423
(lp1424
I1
ag1410
asS'c:/marmalade/7.5/modules/iwgx/h/IwGxSurface.h'
p1425
(lp1426
I1
ag1410
asS'c:/marmalade/7.5/modules/iwgx/h/IwGxError.h'
p1427
(lp1428
I1
ag1410
asS'c:/marmalade/7.5/modules/iwgx/h/IwGx.h'
p1429
(lp1430
I1
ag1410
asS'c:/marmalade/7.5/modules/iwgx/docs/iwgx_public.defines.txt'
p1431
(lp1432
I1
ag1410
asS'c:/marmalade/7.5/modules/iwgx/h/IwGxDebug.h'
p1433
(lp1434
I1
ag1410
asS'c:/marmalade/7.5/modules/iwgx/h/IwGxShaderTechnique.h'
p1435
(lp1436
I1
ag1410
asS'c:/marmalade/7.5/modules/iwgx/h/IwGxTransformSW.h'
p1437
(lp1438
I1
ag1410
asS'c:/marmalade/7.5/modules/iwgx/h/IwMaterial.h'
p1439
(lp1440
I1
ag1410
asS'c:/marmalade/7.5/modules/iwgx/h/IwGxMetrics.h'
p1441
(lp1442
I1
ag1410
asS'c:/marmalade/7.5/modules/iwgx/h/IwClip.inl'
p1443
(lp1444
I1
ag1410
asS'c:/marmalade/7.5/modules/iwgx/h/IwFColour.h'
p1445
(lp1446
I1
ag1410
asS'c:/marmalade/7.5/modules/iwgx/h/IwGxTypes.h'
p1447
(lp1448
I1
ag1410
asS'c:/marmalade/7.5/modules/iwgx/iwgx.mkf'
p1449
(lp1450
I1
a(dp1451
asS'c:/marmalade/7.5/modules/iwgx/docs/iwgx.config.txt'
p1452
(lp1453
I1
ag1410
asS'c:/marmalade/7.5/modules/iwgx/h/IwColour.h'
p1454
(lp1455
I1
ag1410
asS'c:/marmalade/7.5/modules/iwgx/h/IwGxState.h'
p1456
(lp1457
I1
ag1410
asS'c:/marmalade/7.5/modules/iwgx/h/IwTPage.h'
p1458
(lp1459
I1
ag1410
assS'iw2dscenegraphcore'
p1460
(dp1461
S'c:/marmalade/7.5/modules/iw2dscenegraphcore/iw2dscenegraphcore.mkf'
p1462
(lp1463
I1
a(dp1464
asS'c:/marmalade/7.5/modules/iw2dscenegraphcore/h/Iw2DSceneGraphCore.h'
p1465
(lp1466
I1
a(dp1467
asS'c:/marmalade/7.5/modules/iw2dscenegraphcore/source/Iw2DSceneGraphCore.cpp'
p1468
(lp1469
I1
ag1467
assS'iwutil'
p1470
(dp1471
S'c:/marmalade/7.5/modules/iwutil/h/IwSingleton.h'
p1472
(lp1473
I1
a(dp1474
asS'c:/marmalade/7.5/modules/iwutil/h/IwMath.h'
p1475
(lp1476
I1
ag1474
asS'c:/marmalade/7.5/modules/iwutil/h/IwBuffer.h'
p1477
(lp1478
I1
ag1474
asS'c:/marmalade/7.5/modules/iwutil/h/IwCore.h'
p1479
(lp1480
I1
ag1474
asS'c:/marmalade/7.5/modules/iwutil/h/IwDivide.h'
p1481
(lp1482
I1
ag1474
asS'c:/marmalade/7.5/modules/iwutil/h/IwMemory.h'
p1483
(lp1484
I1
ag1474
asS'c:/marmalade/7.5/modules/iwutil/h/IwImageHelper.h'
p1485
(lp1486
I1
ag1474
asS'c:/marmalade/7.5/modules/iwutil/h/IwManagedList.h'
p1487
(lp1488
I1
ag1474
asS'c:/marmalade/7.5/modules/iwutil/h/IwProfileMenu.h'
p1489
(lp1490
I1
ag1474
asS'c:/marmalade/7.5/modules/iwutil/h/IwClassFactory.h'
p1491
(lp1492
I1
ag1474
asS'c:/marmalade/7.5/modules/iwutil/h/IwDivTable.h'
p1493
(lp1494
I1
ag1474
asS'c:/marmalade/7.5/modules/iwutil/h/IwManaged.h'
p1495
(lp1496
I1
ag1474
asS'c:/marmalade/7.5/modules/iwutil/h/IwTextParseable.h'
p1497
(lp1498
I1
ag1474
asS'c:/marmalade/7.5/modules/iwutil/h/IwChar.h'
p1499
(lp1500
I1
ag1474
asS'c:/marmalade/7.5/modules/iwutil/h/IwRandom.h'
p1501
(lp1502
I1
ag1474
asS'c:/marmalade/7.5/modules/iwutil/h/IwDebug.h'
p1503
(lp1504
I1
ag1474
asS'c:/marmalade/7.5/modules/iwutil/h/IwUTF8.h'
p1505
(lp1506
I1
ag1474
asS'c:/marmalade/7.5/modules/iwutil/docs/iwutil.config.txt'
p1507
(lp1508
I1
ag1474
asS'c:/marmalade/7.5/modules/iwutil/h/IwAllocator.h'
p1509
(lp1510
I1
ag1474
asS'c:/marmalade/7.5/modules/iwutil/h/IwMemBucketHelpers.h'
p1511
(lp1512
I1
ag1474
asS'c:/marmalade/7.5/modules/iwutil/h/IwTextParserITX.h'
p1513
(lp1514
I1
ag1474
asS'c:/marmalade/7.5/modules/iwutil/h/IwKeymap.h'
p1515
(lp1516
I1
ag1474
asS'c:/marmalade/7.5/modules/iwutil/h/IwImage.h'
p1517
(lp1518
I1
ag1474
asS'c:/marmalade/7.5/modules/iwutil/h/IwOptimiseARM.h'
p1519
(lp1520
I1
ag1474
asS'c:/marmalade/7.5/modules/iwutil/h/IwMemBucket.h'
p1521
(lp1522
I1
ag1474
asS'c:/marmalade/7.5/modules/iwutil/h/IwOptimiseSize.h'
p1523
(lp1524
I1
ag1474
asS'c:/marmalade/7.5/modules/iwutil/h/IwRuntime.h'
p1525
(lp1526
I1
ag1474
asS'c:/marmalade/7.5/modules/iwutil/h/IwMemManagerDL.h'
p1527
(lp1528
I1
ag1474
asS'c:/marmalade/7.5/modules/iwutil/h/IwPath.h'
p1529
(lp1530
I1
ag1474
asS'c:/marmalade/7.5/modules/iwutil/h/IwOptimiseSpeed.h'
p1531
(lp1532
I1
ag1474
asS'c:/marmalade/7.5/modules/iwutil/h/IwList.h'
p1533
(lp1534
I1
ag1474
asS'c:/marmalade/7.5/modules/iwutil/h/IwAutoFile.h'
p1535
(lp1536
I1
ag1474
asS'c:/marmalade/7.5/modules/iwutil/h/IwVariableBitField.h'
p1537
(lp1538
I1
ag1474
asS'c:/marmalade/7.5/modules/iwutil/h/IwHashString.h'
p1539
(lp1540
I1
ag1474
asS'c:/marmalade/7.5/modules/iwutil/h/IwOptimiseThumb.h'
p1541
(lp1542
I1
ag1474
asS'c:/marmalade/7.5/modules/iwutil/iwutil.mkf'
p1543
(lp1544
I1
a(dp1545
asS'c:/marmalade/7.5/modules/iwutil/h/IwUtil.h'
p1546
(lp1547
I1
ag1474
asS'c:/marmalade/7.5/modules/iwutil/h/IwString.h'
p1548
(lp1549
I1
ag1474
asS'c:/marmalade/7.5/modules/iwutil/h/IwFile.h'
p1550
(lp1551
I1
ag1474
asS'c:/marmalade/7.5/modules/iwutil/h/IwUncopyable.h'
p1552
(lp1553
I1
ag1474
asS'c:/marmalade/7.5/modules/iwutil/h/IwTextParser.h'
p1554
(lp1555
I1
ag1474
asS'c:/marmalade/7.5/modules/iwutil/h/IwCopyingPtr.h'
p1556
(lp1557
I1
ag1474
asS'c:/marmalade/7.5/modules/iwutil/h/IwEvent.h'
p1558
(lp1559
I1
ag1474
asS'c:/marmalade/7.5/modules/iwutil/h/IwFibre.h'
p1560
(lp1561
I1
ag1474
asS'c:/marmalade/7.5/modules/iwutil/h/IwArray.h'
p1562
(lp1563
I1
ag1474
asS'c:/marmalade/7.5/modules/iwutil/h/IwMenu.h'
p1564
(lp1565
I1
ag1474
asS'c:/marmalade/7.5/modules/iwutil/h/IwTypes.h'
p1566
(lp1567
I1
ag1474
asS'c:/marmalade/7.5/modules/iwutil/h/IwUtilInitTerm.h'
p1568
(lp1569
I1
ag1474
asS'c:/marmalade/7.5/modules/iwutil/h/IwResource.h'
p1570
(lp1571
I1
ag1474
asS'c:/marmalade/7.5/modules/iwutil/h/IwSerialise.h'
p1572
(lp1573
I1
ag1474
asssS'(zlib)'
p1574
(dp1575
g1083
(dp1576
S'c:/marmalade/7.5/modules/third_party/zlib/h/zconf.h'
p1577
(lp1578
I1
a(dp1579
asS'c:/marmalade/7.5/modules/third_party/zlib/h/zlib.h'
p1580
(lp1581
I1
ag1579
assS'c:/marmalade/7.5/modules/third_party/zlib/zlib.mkf'
p1582
(lp1583
I1
a(dp1584
assS'(iwtween)'
p1585
(dp1586
S'c:/marmalade/7.5/modules/iwtween/h/IwTween.h'
p1587
(lp1588
I1
a(dp1589
asS'c:/marmalade/7.5/modules/iwtween/source/IwTween.cpp'
p1590
(lp1591
I1
ag1589
asS'c:/marmalade/7.5/modules/iwtween/iwtween.mkf'
p1592
(lp1593
I1
a(dp1594
assS'(s3e-default)'
p1595
(dp1596
S'c:/marmalade/7.5/s3e/s3e-default.mkf'
p1597
(lp1598
I1
a(dp1599
asssS'files'
p1600
(dp1601
S'IwGxFontPreparedData.h'
p1602
g330
(cmkb_main
File
p1603
g332
Ntp1604
Rp1605
(dp1606
S'flags'
p1607
g1288
sS'group'
p1608
(lp1609
S"'Marmalade Studio'"
p1610
ag1284
asg356
g1300
sbsS'iterator'
p1611
g330
(g1603
g332
Ntp1612
Rp1613
(dp1614
g1607
(dp1615
sg1608
(lp1616
S"'Marmalade System (S3E)'"
p1617
aS'stdc headers'
p1618
aS'c++'
p1619
asg356
S'c:/marmalade/7.5/s3e/h/std/c++/iterator'
p1620
sbsS'IwGL.h'
p1621
g330
(g1603
g332
Ntp1622
Rp1623
(dp1624
g1607
g1267
sg1608
(lp1625
S"'Marmalade Studio'"
p1626
ag1260
asg356
g1265
sbsS's3e.h'
p1627
g330
(g1603
g332
Ntp1628
Rp1629
(dp1630
g1607
g1615
sg1608
(lp1631
g1617
asg356
S'c:/marmalade/7.5/s3e/h/s3e.h'
p1632
sbsS'errno.h'
p1633
g330
(g1603
g332
Ntp1634
Rp1635
(dp1636
g1607
g1615
sg1608
(lp1637
g1617
aS'stdc headers'
p1638
asg356
S'c:/marmalade/7.5/s3e/h/std/errno.h'
p1639
sbsS'IwSingleton.h'
p1640
g330
(g1603
g332
Ntp1641
Rp1642
(dp1643
g1607
g1474
sg1608
(lp1644
S"'Marmalade Studio'"
p1645
ag1470
asg356
g1472
sbsS'dlfcn.h'
p1646
g330
(g1603
g332
Ntp1647
Rp1648
(dp1649
g1607
g1615
sg1608
g1637
sg356
S'c:/marmalade/7.5/s3e/h/std/dlfcn.h'
p1650
sbsS'IwSoundWAV.cpp'
p1651
g330
(g1603
g332
Ntp1652
Rp1653
(dp1654
g1607
g1142
sg1608
(lp1655
g1138
asg356
g1165
sbsS'sched.h'
p1656
g330
(g1603
g332
Ntp1657
Rp1658
(dp1659
g1607
g1615
sg1608
g1637
sg356
S'c:/marmalade/7.5/s3e/h/std/sched.h'
p1660
sbsS'IwSoundPCM.h'
p1661
g330
(g1603
g332
Ntp1662
Rp1663
(dp1664
g1607
g1142
sg1608
g1655
sg356
g1183
sbsS'IwGeomFMat2D.h'
p1665
g330
(g1603
g332
Ntp1666
Rp1667
(dp1668
g1607
g1310
sg1608
(lp1669
S"'Marmalade Studio'"
p1670
ag1306
asg356
g1364
sbsS'cassert'
p1671
g330
(g1603
g332
Ntp1672
Rp1673
(dp1674
g1607
g1615
sg1608
g1616
sg356
S'c:/marmalade/7.5/s3e/h/std/c++/cassert'
p1675
sbsS'grp.h'
p1676
g330
(g1603
g332
Ntp1677
Rp1678
(dp1679
g1607
g1615
sg1608
g1637
sg356
S'c:/marmalade/7.5/s3e/h/std/grp.h'
p1680
sbsS'list'
p1681
g330
(g1603
g332
Ntp1682
Rp1683
(dp1684
g1607
g1615
sg1608
g1616
sg356
S'c:/marmalade/7.5/s3e/h/std/c++/list'
p1685
sbsS'IwSoundSpec.cpp'
p1686
g330
(g1603
g332
Ntp1687
Rp1688
(dp1689
g1607
g1142
sg1608
g1655
sg356
g1171
sbsS'IwGeomMat.h.tpl'
p1690
g330
(g1603
g332
Ntp1691
Rp1692
(dp1693
g1607
g1310
sg1608
g1669
sg356
g1360
sbsS'istream'
p1694
g330
(g1603
g332
Ntp1695
Rp1696
(dp1697
g1607
g1615
sg1608
g1616
sg356
S'c:/marmalade/7.5/s3e/h/std/c++/istream'
p1698
sbsS'jpeglib.h'
p1699
g330
(g1603
g332
Ntp1700
Rp1701
(dp1702
g1607
g1101
sg1608
(lp1703
g1093
ag1083
asg356
g1126
sbsS'iw2d_public.defines.txt'
p1704
g330
(g1603
g332
Ntp1705
Rp1706
(dp1707
g1607
g1276
sg1608
(lp1708
S"'Marmalade Studio'"
p1709
ag1272
asg356
g1274
sbsS'iostream.h'
p1710
g330
(g1603
g332
Ntp1711
Rp1712
(dp1713
g1607
g1615
sg1608
g1616
sg356
S'c:/marmalade/7.5/s3e/h/std/c++/iostream.h'
p1714
sbsS'IwSoundADPCM.h'
p1715
g330
(g1603
g332
Ntp1716
Rp1717
(dp1718
g1607
g1142
sg1608
g1655
sg356
g1143
sbsS'string'
p1719
g330
(g1603
g332
Ntp1720
Rp1721
(dp1722
g1607
g1615
sg1608
g1616
sg356
S'c:/marmalade/7.5/s3e/h/std/c++/string'
p1723
sbsS'IwMemory.h'
p1724
g330
(g1603
g332
Ntp1725
Rp1726
(dp1727
g1607
g1474
sg1608
g1644
sg356
g1483
sbsS'IwGeomPlane.h'
p1728
g330
(g1603
g332
Ntp1729
Rp1730
(dp1731
g1607
g1310
sg1608
g1669
sg356
g1340
sbsS'iw2d.config.txt'
p1732
g330
(g1603
g332
Ntp1733
Rp1734
(dp1735
g1607
g1276
sg1608
g1708
sg356
g1277
sbsS'iomanip'
p1736
g330
(g1603
g332
Ntp1737
Rp1738
(dp1739
g1607
g1615
sg1608
g1616
sg356
S'c:/marmalade/7.5/s3e/h/std/c++/iomanip'
p1740
sbsS'iwgeom.mkf'
p1741
g330
(g1603
g332
Ntp1742
Rp1743
(dp1744
g1607
g1317
sg1608
g1669
sg356
g1315
sbsS'IwGxError.h'
p1745
g330
(g1603
g332
Ntp1746
Rp1747
(dp1748
g1607
g1410
sg1608
(lp1749
S"'Marmalade Studio'"
p1750
ag1406
asg356
g1427
sbsS'IwGeom.h'
p1751
g330
(g1603
g332
Ntp1752
Rp1753
(dp1754
g1607
g1310
sg1608
g1669
sg356
g1332
sbsS'scene.cpp'
p1755
g330
(g1603
g332
Ntp1756
Rp1757
(dp1758
g1607
g1199
sg1608
(lp1759
g1195
asg356
g1206
sbsS'IwGeomVec4.h'
p1760
g330
(g1603
g332
Ntp1761
Rp1762
(dp1763
g1607
g1310
sg1608
g1669
sg356
g1348
sbsS'dir.h'
p1764
g330
(g1603
g332
Ntp1765
Rp1766
(dp1767
g1607
g1615
sg1608
(lp1768
g1617
aS'stdc headers'
p1769
aS'sys'
p1770
asg356
S'c:/marmalade/7.5/s3e/h/std/sys/dir.h'
p1771
sbsS'locale.h'
p1772
g330
(g1603
g332
Ntp1773
Rp1774
(dp1775
g1607
g1615
sg1608
g1637
sg356
S'c:/marmalade/7.5/s3e/h/std/locale.h'
p1776
sbsS'vector'
p1777
g330
(g1603
g332
Ntp1778
Rp1779
(dp1780
g1607
g1615
sg1608
g1616
sg356
S'c:/marmalade/7.5/s3e/h/std/c++/vector'
p1781
sbsS'IwManaged.h'
p1782
g330
(g1603
g332
Ntp1783
Rp1784
(dp1785
g1607
g1474
sg1608
g1644
sg356
g1495
sbsS's3eCompass.h'
p1786
g330
(g1603
g332
Ntp1787
Rp1788
(dp1789
g1607
g1615
sg1608
g1631
sg356
S'c:/marmalade/7.5/s3e/h/s3eCompass.h'
p1790
sbsS'cderror.h'
p1791
g330
(g1603
g332
Ntp1792
Rp1793
(dp1794
g1607
g1101
sg1608
g1703
sg356
g1104
sbsS'climits'
p1795
g330
(g1603
g332
Ntp1796
Rp1797
(dp1798
g1607
g1615
sg1608
g1616
sg356
S'c:/marmalade/7.5/s3e/h/std/c++/climits'
p1799
sbsS'ipc.h'
p1800
g330
(g1603
g332
Ntp1801
Rp1802
(dp1803
g1607
g1615
sg1608
g1768
sg356
S'c:/marmalade/7.5/s3e/h/std/sys/ipc.h'
p1804
sbsS'jversion.h'
p1805
g330
(g1603
g332
Ntp1806
Rp1807
(dp1808
g1607
g1101
sg1608
g1703
sg356
g1122
sbsS'fnmatch.h'
p1809
g330
(g1603
g332
Ntp1810
Rp1811
(dp1812
g1607
g1615
sg1608
g1637
sg356
S'c:/marmalade/7.5/s3e/h/std/fnmatch.h'
p1813
sbsS'IwGxState.h'
p1814
g330
(g1603
g332
Ntp1815
Rp1816
(dp1817
g1607
g1410
sg1608
g1749
sg356
g1456
sbsS'rope'
p1818
g330
(g1603
g332
Ntp1819
Rp1820
(dp1821
g1607
g1615
sg1608
g1616
sg356
S'c:/marmalade/7.5/s3e/h/std/c++/rope'
p1822
sbsS's3eAudio.h'
p1823
g330
(g1603
g332
Ntp1824
Rp1825
(dp1826
g1607
g1615
sg1608
g1631
sg356
S'c:/marmalade/7.5/s3e/h/s3eAudio.h'
p1827
sbsS's3eSurface.h'
p1828
g330
(g1603
g332
Ntp1829
Rp1830
(dp1831
g1607
g1615
sg1608
g1631
sg356
S'c:/marmalade/7.5/s3e/h/s3eSurface.h'
p1832
sbsS'new'
p1833
g330
(g1603
g332
Ntp1834
Rp1835
(dp1836
g1607
g1615
sg1608
g1616
sg356
S'c:/marmalade/7.5/s3e/h/std/c++/new'
p1837
sbsS's3eWindow.h'
p1838
g330
(g1603
g332
Ntp1839
Rp1840
(dp1841
g1607
g1615
sg1608
(lp1842
g1617
aS'Extensions'
p1843
asg356
S'c:/marmalade/7.5/s3e/h/ext/s3eWindow.h'
p1844
sbsS'IwBuffer.h'
p1845
g330
(g1603
g332
Ntp1846
Rp1847
(dp1848
g1607
g1474
sg1608
g1644
sg356
g1477
sbsS'stdio_streambuf'
p1849
g330
(g1603
g332
Ntp1850
Rp1851
(dp1852
g1607
g1615
sg1608
g1616
sg356
S'c:/marmalade/7.5/s3e/h/std/c++/stdio_streambuf'
p1853
sbsS'IwGeomQuat.h.tpl'
p1854
g330
(g1603
g332
Ntp1855
Rp1856
(dp1857
g1607
g1310
sg1608
g1669
sg356
g1322
sbsS's3eOSExec.h'
p1858
g330
(g1603
g332
Ntp1859
Rp1860
(dp1861
g1607
g1615
sg1608
g1842
sg356
S'c:/marmalade/7.5/s3e/h/ext/s3eOSExec.h'
p1862
sbsS'IwGxTransformSW.h'
p1863
g330
(g1603
g332
Ntp1864
Rp1865
(dp1866
g1607
g1410
sg1608
g1749
sg356
g1437
sbsS'IwGxMetrics.h'
p1867
g330
(g1603
g332
Ntp1868
Rp1869
(dp1870
g1607
g1410
sg1608
g1749
sg356
g1441
sbsS'iwgxfont.config.txt'
p1871
g330
(g1603
g332
Ntp1872
Rp1873
(dp1874
g1607
g1288
sg1608
g1609
sg356
g1291
sbsS'gl2platform.h'
p1875
g330
(g1603
g332
Ntp1876
Rp1877
(dp1878
g1607
g1615
sg1608
(lp1879
g1617
aS'GL'
p1880
aS'GLES 2.0'
p1881
asg356
S'c:/marmalade/7.5/s3e/h/GLES2/gl2platform.h'
p1882
sbsS'IwResManagerClass.h'
p1883
g330
(g1603
g332
Ntp1884
Rp1885
(dp1886
g1607
g1386
sg1608
(lp1887
g1246
ag1382
asg356
g1389
sbsS'queue'
p1888
g330
(g1603
g332
Ntp1889
Rp1890
(dp1891
g1607
g1615
sg1608
g1616
sg356
S'c:/marmalade/7.5/s3e/h/std/c++/queue'
p1892
sbsS'time_1.h'
p1893
g330
(g1603
g332
Ntp1894
Rp1895
(dp1896
g1607
g1615
sg1608
g1768
sg356
S'c:/marmalade/7.5/s3e/h/std/sys/time.h'
p1897
sbsS'Iw2D.h'
p1898
g330
(g1603
g332
Ntp1899
Rp1900
(dp1901
g1607
g1276
sg1608
g1708
sg356
g1279
sbsS'IwGeomVec2.h'
p1902
g330
(g1603
g332
Ntp1903
Rp1904
(dp1905
g1607
g1310
sg1608
g1669
sg356
g1324
sbsS'sendfile.h'
p1906
g330
(g1603
g332
Ntp1907
Rp1908
(dp1909
g1607
g1615
sg1608
g1768
sg356
S'c:/marmalade/7.5/s3e/h/std/sys/sendfile.h'
p1910
sbsS'malloc.h'
p1911
g330
(g1603
g332
Ntp1912
Rp1913
(dp1914
g1607
g1615
sg1608
g1637
sg356
S'c:/marmalade/7.5/s3e/h/std/malloc.h'
p1915
sbsS'stdarg.h'
p1916
g330
(g1603
g332
Ntp1917
Rp1918
(dp1919
g1607
g1615
sg1608
g1637
sg356
S'c:/marmalade/7.5/s3e/h/std/stdarg.h'
p1920
sbsS'IwGeomCore.h'
p1921
g330
(g1603
g332
Ntp1922
Rp1923
(dp1924
g1607
g1310
sg1608
g1669
sg356
g1350
sbsS'Iw2DSceneGraph.h'
p1925
g330
(g1603
g332
Ntp1926
Rp1927
(dp1928
g1607
g1252
sg1608
(lp1929
S"'Marmalade Studio'"
p1930
ag1248
asg356
g1255
sbsS'endian.h'
p1931
g330
(g1603
g332
Ntp1932
Rp1933
(dp1934
g1607
g1615
sg1608
g1637
sg356
S'c:/marmalade/7.5/s3e/h/std/endian.h'
p1935
sbsS'gl3ext.h'
p1936
g330
(g1603
g332
Ntp1937
Rp1938
(dp1939
g1607
g1615
sg1608
(lp1940
g1617
aS'GL'
p1941
aS'GLES 3.0'
p1942
asg356
S'c:/marmalade/7.5/s3e/h/GLES3/gl3ext.h'
p1943
sbsS'glob.h'
p1944
g330
(g1603
g332
Ntp1945
Rp1946
(dp1947
g1607
g1615
sg1608
g1637
sg356
S'c:/marmalade/7.5/s3e/h/std/glob.h'
p1948
sbsS'fstream'
p1949
g330
(g1603
g332
Ntp1950
Rp1951
(dp1952
g1607
g1615
sg1608
g1616
sg356
S'c:/marmalade/7.5/s3e/h/std/c++/fstream'
p1953
sbsS's3eCamera.h'
p1954
g330
(g1603
g332
Ntp1955
Rp1956
(dp1957
g1607
g1615
sg1608
g1631
sg356
S'c:/marmalade/7.5/s3e/h/s3eCamera.h'
p1958
sbsS'jconfig.h'
p1959
g330
(g1603
g332
Ntp1960
Rp1961
(dp1962
g1607
g1101
sg1608
g1703
sg356
g1124
sbsS'memory'
p1963
g330
(g1603
g332
Ntp1964
Rp1965
(dp1966
g1607
g1615
sg1608
g1616
sg356
S'c:/marmalade/7.5/s3e/h/std/c++/memory'
p1967
sbsS'egl.h'
p1968
g330
(g1603
g332
Ntp1969
Rp1970
(dp1971
g1607
g1615
sg1608
(lp1972
g1617
aS'GL'
p1973
aS'EGL'
p1974
asg356
S'c:/marmalade/7.5/s3e/h/EGL/egl.h'
p1975
sbsS'egl_1.h'
p1976
g330
(g1603
g332
Ntp1977
Rp1978
(dp1979
g1607
g1615
sg1608
(lp1980
g1617
aS'GL'
p1981
aS'GLES 1.x'
p1982
asg356
S'c:/marmalade/7.5/s3e/h/GLES/egl.h'
p1983
sbsS'IwMemManagerDL.h'
p1984
g330
(g1603
g332
Ntp1985
Rp1986
(dp1987
g1607
g1474
sg1608
g1644
sg356
g1527
sbsS'deque'
p1988
g330
(g1603
g332
Ntp1989
Rp1990
(dp1991
g1607
g1615
sg1608
g1616
sg356
S'c:/marmalade/7.5/s3e/h/std/c++/deque'
p1992
sbsS'IwString.h'
p1993
g330
(g1603
g332
Ntp1994
Rp1995
(dp1996
g1607
g1474
sg1608
g1644
sg356
g1548
sbsS'cwchar'
p1997
g330
(g1603
g332
Ntp1998
Rp1999
(dp2000
g1607
g1615
sg1608
g1616
sg356
S'c:/marmalade/7.5/s3e/h/std/c++/cwchar'
p2001
sbsS'iwutil.mkf'
p2002
g330
(g1603
g332
Ntp2003
Rp2004
(dp2005
g1607
g1545
sg1608
g1644
sg356
g1543
sbsS'csignal'
p2006
g330
(g1603
g332
Ntp2007
Rp2008
(dp2009
g1607
g1615
sg1608
g1616
sg356
S'c:/marmalade/7.5/s3e/h/std/c++/csignal'
p2010
sbsS'float.h'
p2011
g330
(g1603
g332
Ntp2012
Rp2013
(dp2014
g1607
g1615
sg1608
g1637
sg356
S'c:/marmalade/7.5/s3e/h/std/float.h'
p2015
sbsS'pthread_alloc'
p2016
g330
(g1603
g332
Ntp2017
Rp2018
(dp2019
g1607
g1615
sg1608
g1616
sg356
S'c:/marmalade/7.5/s3e/h/std/c++/pthread_alloc'
p2020
sbsS'getopt.h'
p2021
g330
(g1603
g332
Ntp2022
Rp2023
(dp2024
g1607
g1615
sg1608
g1637
sg356
S'c:/marmalade/7.5/s3e/h/std/getopt.h'
p2025
sbsS'IwOptimiseARM.h'
p2026
g330
(g1603
g332
Ntp2027
Rp2028
(dp2029
g1607
g1474
sg1608
g1644
sg356
g1519
sbsS'times.h'
p2030
g330
(g1603
g332
Ntp2031
Rp2032
(dp2033
g1607
g1615
sg1608
g1768
sg356
S'c:/marmalade/7.5/s3e/h/std/sys/times.h'
p2034
sbsS'IwGeomFSphere.h'
p2035
g330
(g1603
g332
Ntp2036
Rp2037
(dp2038
g1607
g1310
sg1608
g1669
sg356
g1370
sbsS'game.h'
p2039
g330
(g1603
g332
Ntp2040
Rp2041
(dp2042
g1607
g1199
sg1608
g1759
sg356
g1214
sbsS'functional'
p2043
g330
(g1603
g332
Ntp2044
Rp2045
(dp2046
g1607
g1615
sg1608
g1616
sg356
S'c:/marmalade/7.5/s3e/h/std/c++/functional'
p2047
sbsS'IwTypes.h'
p2048
g330
(g1603
g332
Ntp2049
Rp2050
(dp2051
g1607
g1474
sg1608
g1644
sg356
g1566
sbsS'unistd.h'
p2052
g330
(g1603
g332
Ntp2053
Rp2054
(dp2055
g1607
g1615
sg1608
g1637
sg356
S'c:/marmalade/7.5/s3e/h/std/unistd.h'
p2056
sbsS'audio.cpp'
p2057
g330
(g1603
g332
Ntp2058
Rp2059
(dp2060
g1607
g1199
sg1608
g1759
sg356
g1218
sbsS's3eCompression.h'
p2061
g330
(g1603
g332
Ntp2062
Rp2063
(dp2064
g1607
g1615
sg1608
g1631
sg356
S'c:/marmalade/7.5/s3e/h/s3eCompression.h'
p2065
sbsS'langinfo.h'
p2066
g330
(g1603
g332
Ntp2067
Rp2068
(dp2069
g1607
g1615
sg1608
g1637
sg356
S'c:/marmalade/7.5/s3e/h/std/langinfo.h'
p2070
sbsS's3edebugHeap.h'
p2071
g330
(g1603
g332
Ntp2072
Rp2073
(dp2074
g1607
g1615
sg1608
g1842
sg356
S'c:/marmalade/7.5/s3e/h/ext/s3edebugHeap.h'
p2075
sbsS'AirplayVersion.h'
p2076
g330
(g1603
g332
Ntp2077
Rp2078
(dp2079
g1607
g1615
sg1608
g1631
sg356
S'c:/marmalade/7.5/s3e/h/AirplayVersion.h'
p2080
sbsS'gl2extimg.h'
p2081
g330
(g1603
g332
Ntp2082
Rp2083
(dp2084
g1607
g1615
sg1608
g1879
sg356
S'c:/marmalade/7.5/s3e/h/GLES2/gl2extimg.h'
p2085
sbsS'IwGeomSqrt.h'
p2086
g330
(g1603
g332
Ntp2087
Rp2088
(dp2089
g1607
g1310
sg1608
g1669
sg356
g1318
sbsS'tiniconv_int.h'
p2090
g330
(g1603
g332
Ntp2091
Rp2092
(dp2093
g1607
g1135
sg1608
(lp2094
g1128
asg356
g1133
sbsS'syslog.h'
p2095
g330
(g1603
g332
Ntp2096
Rp2097
(dp2098
g1607
g1615
sg1608
g1637
sg356
S'c:/marmalade/7.5/s3e/h/std/syslog.h'
p2099
sbsS'IwGxFontTypes.h'
p2100
g330
(g1603
g332
Ntp2101
Rp2102
(dp2103
g1607
g1288
sg1608
g1609
sg356
g1289
sbsS'IwGeomFIntersect.h'
p2104
g330
(g1603
g332
Ntp2105
Rp2106
(dp2107
g1607
g1310
sg1608
g1669
sg356
g1380
sbsS'hash_map'
p2108
g330
(g1603
g332
Ntp2109
Rp2110
(dp2111
g1607
g1615
sg1608
g1616
sg356
S'c:/marmalade/7.5/s3e/h/std/c++/hash_map'
p2112
sbsS's3e.mkf'
p2113
g330
(g1603
g332
Ntp2114
Rp2115
(dp2116
g1607
(dp2117
sg1608
g1631
sg356
S'c:/marmalade/7.5/s3e/s3e.mkf'
p2118
sbsS'IwGeomMat2D.h.tpl'
p2119
g330
(g1603
g332
Ntp2120
Rp2121
(dp2122
g1607
g1310
sg1608
g1669
sg356
g1362
sbsS's3eOSReadString.h'
p2123
g330
(g1603
g332
Ntp2124
Rp2125
(dp2126
g1607
g1615
sg1608
g1842
sg356
S'c:/marmalade/7.5/s3e/h/ext/s3eOSReadString.h'
p2127
sbsS'IwSound.h'
p2128
g330
(g1603
g332
Ntp2129
Rp2130
(dp2131
g1607
g1142
sg1608
g1655
sg356
g1177
sbsS'map'
p2132
g330
(g1603
g332
Ntp2133
Rp2134
(dp2135
g1607
g1615
sg1608
g1616
sg356
S'c:/marmalade/7.5/s3e/h/std/c++/map'
p2136
sbsS'iwtween.mkf'
p2137
g330
(g1603
g332
Ntp2138
Rp2139
(dp2140
g1607
g1594
sg1608
(lp2141
g1585
asg356
g1592
sbsS'IwOptimiseSpeed.h'
p2142
g330
(g1603
g332
Ntp2143
Rp2144
(dp2145
g1607
g1474
sg1608
g1644
sg356
g1531
sbsS'ostream'
p2146
g330
(g1603
g332
Ntp2147
Rp2148
(dp2149
g1607
g1615
sg1608
g1616
sg356
S'c:/marmalade/7.5/s3e/h/std/c++/ostream'
p2150
sbsS'msl_string.h'
p2151
g330
(g1603
g332
Ntp2152
Rp2153
(dp2154
g1607
g1615
sg1608
g1616
sg356
S'c:/marmalade/7.5/s3e/h/std/c++/msl_string.h'
p2155
sbsS'select.h'
p2156
g330
(g1603
g332
Ntp2157
Rp2158
(dp2159
g1607
g1615
sg1608
g1768
sg356
S'c:/marmalade/7.5/s3e/h/std/sys/select.h'
p2160
sbsS'zlib.mkf'
p2161
g330
(g1603
g332
Ntp2162
Rp2163
(dp2164
g1607
g1584
sg1608
(lp2165
g1574
asg356
g1582
sbsS'signal.h'
p2166
g330
(g1603
g332
Ntp2167
Rp2168
(dp2169
g1607
g1615
sg1608
g1637
sg356
S'c:/marmalade/7.5/s3e/h/std/signal.h'
p2170
sbsS'sigcontext.h'
p2171
g330
(g1603
g332
Ntp2172
Rp2173
(dp2174
g1607
g1615
sg1608
g1637
sg356
S'c:/marmalade/7.5/s3e/h/std/sigcontext.h'
p2175
sbsS'libpng.mkf'
p2176
g330
(g1603
g332
Ntp2177
Rp2178
(dp2179
g1607
g1092
sg1608
(lp2180
g1081
asg356
g1090
sbsS's3eClipboard.h'
p2181
g330
(g1603
g332
Ntp2182
Rp2183
(dp2184
g1607
g1615
sg1608
g1631
sg356
S'c:/marmalade/7.5/s3e/h/s3eClipboard.h'
p2185
sbsS'IwGxFuncTable.h'
p2186
g330
(g1603
g332
Ntp2187
Rp2188
(dp2189
g1607
g1410
sg1608
g1749
sg356
g1415
sbsS'IwResHandlerGROUP.h'
p2190
g330
(g1603
g332
Ntp2191
Rp2192
(dp2193
g1607
g1386
sg1608
g1887
sg356
g1391
sbsS's3eDebug.h'
p2194
g330
(g1603
g332
Ntp2195
Rp2196
(dp2197
g1607
g1615
sg1608
g1631
sg356
S'c:/marmalade/7.5/s3e/h/s3eDebug.h'
p2198
sbsS'socket.h'
p2199
g330
(g1603
g332
Ntp2200
Rp2201
(dp2202
g1607
g1615
sg1608
g1768
sg356
S'c:/marmalade/7.5/s3e/h/std/sys/socket.h'
p2203
sbsS'glext.h'
p2204
g330
(g1603
g332
Ntp2205
Rp2206
(dp2207
g1607
g1615
sg1608
g1980
sg356
S'c:/marmalade/7.5/s3e/h/GLES/glext.h'
p2208
sbsS'typeinfo.h'
p2209
g330
(g1603
g332
Ntp2210
Rp2211
(dp2212
g1607
g1615
sg1608
g1616
sg356
S'c:/marmalade/7.5/s3e/h/std/c++/typeinfo.h'
p2213
sbsS'typeinfo'
p2214
g330
(g1603
g332
Ntp2215
Rp2216
(dp2217
g1607
g1615
sg1608
g1616
sg356
S'c:/marmalade/7.5/s3e/h/std/c++/typeinfo'
p2218
sbsS'iwsound.config.txt'
p2219
g330
(g1603
g332
Ntp2220
Rp2221
(dp2222
g1607
g1142
sg1608
(lp2223
g1138
ag1149
asg356
g1151
sbsS'fstream.h'
p2224
g330
(g1603
g332
Ntp2225
Rp2226
(dp2227
g1607
g1615
sg1608
g1616
sg356
S'c:/marmalade/7.5/s3e/h/std/c++/fstream.h'
p2228
sbsS'IwGeomMat.h'
p2229
g330
(g1603
g332
Ntp2230
Rp2231
(dp2232
g1607
g1310
sg1608
g1669
sg356
g1326
sbsS's3ePointer.h'
p2233
g330
(g1603
g332
Ntp2234
Rp2235
(dp2236
g1607
g1615
sg1608
g1631
sg356
S'c:/marmalade/7.5/s3e/h/s3ePointer.h'
p2237
sbsS'IwMemBucket.h'
p2238
g330
(g1603
g332
Ntp2239
Rp2240
(dp2241
g1607
g1474
sg1608
g1644
sg356
g1521
sbsS'PVRTexTool.h'
p2242
g330
(g1603
g332
Ntp2243
Rp2244
(dp2245
g1607
g1238
sg1608
(lp2246
g1230
ag1232
asg356
g1241
sbsS's3eGL.h'
p2247
g330
(g1603
g332
Ntp2248
Rp2249
(dp2250
g1607
g1615
sg1608
g1631
sg356
S'c:/marmalade/7.5/s3e/h/s3eGL.h'
p2251
sbsS'IwGeomFVec2.h'
p2252
g330
(g1603
g332
Ntp2253
Rp2254
(dp2255
g1607
g1310
sg1608
g1669
sg356
g1344
sbsS'IwGeomSVec4.h'
p2256
g330
(g1603
g332
Ntp2257
Rp2258
(dp2259
g1607
g1310
sg1608
g1669
sg356
g1346
sbsS'poll.h'
p2260
g330
(g1603
g332
Ntp2261
Rp2262
(dp2263
g1607
g1615
sg1608
g1637
sg356
S'c:/marmalade/7.5/s3e/h/std/poll.h'
p2264
sbsS'IwMatAnim.h'
p2265
g330
(g1603
g332
Ntp2266
Rp2267
(dp2268
g1607
g1410
sg1608
g1749
sg356
g1411
sbsS'IwGeomFVec4.h'
p2269
g330
(g1603
g332
Ntp2270
Rp2271
(dp2272
g1607
g1310
sg1608
g1669
sg356
g1358
sbsS'IwGx.h'
p2273
g330
(g1603
g332
Ntp2274
Rp2275
(dp2276
g1607
g1410
sg1608
g1749
sg356
g1429
sbsS'valarray'
p2277
g330
(g1603
g332
Ntp2278
Rp2279
(dp2280
g1607
g1615
sg1608
g1616
sg356
S'c:/marmalade/7.5/s3e/h/std/c++/valarray'
p2281
sbsS'iosfwd'
p2282
g330
(g1603
g332
Ntp2283
Rp2284
(dp2285
g1607
g1615
sg1608
g1616
sg356
S'c:/marmalade/7.5/s3e/h/std/c++/iosfwd'
p2286
sbsS'gl2.h'
p2287
g330
(g1603
g332
Ntp2288
Rp2289
(dp2290
g1607
g1615
sg1608
g1879
sg356
S'c:/marmalade/7.5/s3e/h/GLES2/gl2.h'
p2291
sbsS'jpegint.h'
p2292
g330
(g1603
g332
Ntp2293
Rp2294
(dp2295
g1607
g1101
sg1608
g1703
sg356
g1116
sbsS'stdiostream.h'
p2296
g330
(g1603
g332
Ntp2297
Rp2298
(dp2299
g1607
g1615
sg1608
g1616
sg356
S'c:/marmalade/7.5/s3e/h/std/c++/stdiostream.h'
p2300
sbsS'mem.h'
p2301
g330
(g1603
g332
Ntp2302
Rp2303
(dp2304
g1607
g1615
sg1608
g1616
sg356
S'c:/marmalade/7.5/s3e/h/std/c++/mem.h'
p2305
sbsS'jerror.h'
p2306
g330
(g1603
g332
Ntp2307
Rp2308
(dp2309
g1607
g1101
sg1608
g1703
sg356
g1099
sbsS'zconf.h'
p2310
g330
(g1603
g332
Ntp2311
Rp2312
(dp2313
g1607
g1579
sg1608
(lp2314
g1574
ag1083
asg356
g1577
sbsS's3e.config.txt'
p2315
g330
(g1603
g332
Ntp2316
Rp2317
(dp2318
g1607
g1615
sg1608
g1631
sg356
S'c:/marmalade/7.5/s3e/s3e.config.txt'
p2319
sbsS'numeric'
p2320
g330
(g1603
g332
Ntp2321
Rp2322
(dp2323
g1607
g1615
sg1608
g1616
sg356
S'c:/marmalade/7.5/s3e/h/std/c++/numeric'
p2324
sbsS'utime.h'
p2325
g330
(g1603
g332
Ntp2326
Rp2327
(dp2328
g1607
g1615
sg1608
g1637
sg356
S'c:/marmalade/7.5/s3e/h/std/utime.h'
p2329
sbsS'jdhuff.h'
p2330
g330
(g1603
g332
Ntp2331
Rp2332
(dp2333
g1607
g1101
sg1608
g1703
sg356
g1102
sbsS'IwResHandlerWAV.cpp'
p2334
g330
(g1603
g332
Ntp2335
Rp2336
(dp2337
g1607
g1142
sg1608
g1655
sg356
g1145
sbsS'un.h'
p2338
g330
(g1603
g332
Ntp2339
Rp2340
(dp2341
g1607
g1615
sg1608
g1768
sg356
S'c:/marmalade/7.5/s3e/h/std/sys/un.h'
p2342
sbsS'IwImage.h'
p2343
g330
(g1603
g332
Ntp2344
Rp2345
(dp2346
g1607
g1474
sg1608
g1644
sg356
g1517
sbsS's3eImagePicker.h'
p2347
g330
(g1603
g332
Ntp2348
Rp2349
(dp2350
g1607
g1615
sg1608
g1842
sg356
S'c:/marmalade/7.5/s3e/h/ext/s3eImagePicker.h'
p2351
sbsS'stdlib.h'
p2352
g330
(g1603
g332
Ntp2353
Rp2354
(dp2355
g1607
g1615
sg1608
g1637
sg356
S'c:/marmalade/7.5/s3e/h/std/stdlib.h'
p2356
sbsS'IwCopyingPtr.h'
p2357
g330
(g1603
g332
Ntp2358
Rp2359
(dp2360
g1607
g1474
sg1608
g1644
sg356
g1556
sbsS'iostream'
p2361
g330
(g1603
g332
Ntp2362
Rp2363
(dp2364
g1607
g1615
sg1608
g1616
sg356
S'c:/marmalade/7.5/s3e/h/std/c++/iostream'
p2365
sbsS'png.h'
p2366
g330
(g1603
g332
Ntp2367
Rp2368
(dp2369
g1607
g1087
sg1608
(lp2370
g1081
ag1083
asg356
g1085
sbsS'stddef.h'
p2371
g330
(g1603
g332
Ntp2372
Rp2373
(dp2374
g1607
g1615
sg1608
g1637
sg356
S'c:/marmalade/7.5/s3e/h/std/stddef.h'
p2375
sbsS'setjmp_win32.h'
p2376
g330
(g1603
g332
Ntp2377
Rp2378
(dp2379
g1607
g1615
sg1608
g1637
sg356
S'c:/marmalade/7.5/s3e/h/std/setjmp_win32.h'
p2380
sbsS'pauseMenu.h'
p2381
g330
(g1603
g332
Ntp2382
Rp2383
(dp2384
g1607
g1199
sg1608
g1759
sg356
g1212
sbsS'IwGxPrint.h'
p2385
g330
(g1603
g332
Ntp2386
Rp2387
(dp2388
g1607
g1410
sg1608
g1749
sg356
g1419
sbsS'iwgx_public.defines.txt'
p2389
g330
(g1603
g332
Ntp2390
Rp2391
(dp2392
g1607
g1410
sg1608
g1749
sg356
g1431
sbsS'streambuf.h'
p2393
g330
(g1603
g332
Ntp2394
Rp2395
(dp2396
g1607
g1615
sg1608
g1616
sg356
S'c:/marmalade/7.5/s3e/h/std/c++/streambuf.h'
p2397
sbsS'resources.cpp'
p2398
g330
(g1603
g332
Ntp2399
Rp2400
(dp2401
g1607
g1199
sg1608
g1759
sg356
g1222
sbsS'IwGeomFPlane.h'
p2402
g330
(g1603
g332
Ntp2403
Rp2404
(dp2405
g1607
g1310
sg1608
g1669
sg356
g1374
sbsS'wchar.h'
p2406
g330
(g1603
g332
Ntp2407
Rp2408
(dp2409
g1607
g1615
sg1608
g1637
sg356
S'c:/marmalade/7.5/s3e/h/std/wchar.h'
p2410
sbsS's3eCameraCapture.h'
p2411
g330
(g1603
g332
Ntp2412
Rp2413
(dp2414
g1607
g1615
sg1608
g1842
sg356
S'c:/marmalade/7.5/s3e/h/ext/s3eCameraCapture.h'
p2415
sbsS'eglext.h'
p2416
g330
(g1603
g332
Ntp2417
Rp2418
(dp2419
g1607
g1615
sg1608
g1972
sg356
S'c:/marmalade/7.5/s3e/h/EGL/eglext.h'
p2420
sbsS'IwResHandlerImage.h'
p2421
g330
(g1603
g332
Ntp2422
Rp2423
(dp2424
g1607
g1386
sg1608
g1887
sg356
g1404
sbsS'strstream.h'
p2425
g330
(g1603
g332
Ntp2426
Rp2427
(dp2428
g1607
g1615
sg1608
g1616
sg356
S'c:/marmalade/7.5/s3e/h/std/c++/strstream.h'
p2429
sbsS'tiniconv.h'
p2430
g330
(g1603
g332
Ntp2431
Rp2432
(dp2433
g1607
g1135
sg1608
g2094
sg356
g1136
sbsS'IwGLExt.h'
p2434
g330
(g1603
g332
Ntp2435
Rp2436
(dp2437
g1607
g1267
sg1608
g1625
sg356
g1270
sbsS'app.icf'
p2438
g330
(g1603
g332
Ntp2439
Rp2440
(dp2441
g1607
(dp2442
sg1608
g4
sg356
S'c:/Marmalade/7.5/examples/GameTutorial/CPP/Stage4/data/app.icf'
p2443
sbsS'IwClassFactory.h'
p2444
g330
(g1603
g332
Ntp2445
Rp2446
(dp2447
g1607
g1474
sg1608
g1644
sg356
g1491
sbsS'file.h'
p2448
g330
(g1603
g332
Ntp2449
Rp2450
(dp2451
g1607
g1615
sg1608
g1768
sg356
S'c:/marmalade/7.5/s3e/h/std/sys/file.h'
p2452
sbsS'cstring'
p2453
g330
(g1603
g332
Ntp2454
Rp2455
(dp2456
g1607
g1615
sg1608
g1616
sg356
S'c:/marmalade/7.5/s3e/h/std/c++/cstring'
p2457
sbsS'IwSoundInst.cpp'
p2458
g330
(g1603
g332
Ntp2459
Rp2460
(dp2461
g1607
g1142
sg1608
g1655
sg356
g1167
sbsS'iwutil.config.txt'
p2462
g330
(g1603
g332
Ntp2463
Rp2464
(dp2465
g1607
g1474
sg1608
g1644
sg356
g1507
sbsS's3eSMS.h'
p2466
g330
(g1603
g332
Ntp2467
Rp2468
(dp2469
g1607
g1615
sg1608
g1842
sg356
S'c:/marmalade/7.5/s3e/h/ext/s3eSMS.h'
p2470
sbsS'limits.h'
p2471
g330
(g1603
g332
Ntp2472
Rp2473
(dp2474
g1607
g1615
sg1608
g1637
sg356
S'c:/marmalade/7.5/s3e/h/std/limits.h'
p2475
sbsS'scene.h'
p2476
g330
(g1603
g332
Ntp2477
Rp2478
(dp2479
g1607
g1199
sg1608
g1759
sg356
g1204
sbsS'IwMaterial.h'
p2480
g330
(g1603
g332
Ntp2481
Rp2482
(dp2483
g1607
g1410
sg1608
g1749
sg356
g1439
sbsS'PVRTexTool_interface.cpp'
p2484
g330
(g1603
g332
Ntp2485
Rp2486
(dp2487
g1607
g1238
sg1608
(lp2488
g1230
ag1232
ag1234
asg356
g1239
sbsS'IwGxSurface.h'
p2489
g330
(g1603
g332
Ntp2490
Rp2491
(dp2492
g1607
g1410
sg1608
g1749
sg356
g1425
sbsS's3eSocket.h'
p2493
g330
(g1603
g332
Ntp2494
Rp2495
(dp2496
g1607
g1615
sg1608
g1631
sg356
S'c:/marmalade/7.5/s3e/h/s3eSocket.h'
p2497
sbsS'IwAutoFile.h'
p2498
g330
(g1603
g332
Ntp2499
Rp2500
(dp2501
g1607
g1474
sg1608
g1644
sg356
g1535
sbsS's3eVibra.h'
p2502
g330
(g1603
g332
Ntp2503
Rp2504
(dp2505
g1607
g1615
sg1608
g1631
sg356
S'c:/marmalade/7.5/s3e/h/s3eVibra.h'
p2506
sbsS'poll_1.h'
p2507
g330
(g1603
g332
Ntp2508
Rp2509
(dp2510
g1607
g1615
sg1608
g1768
sg356
S'c:/marmalade/7.5/s3e/h/std/sys/poll.h'
p2511
sbsS's3eThread.h'
p2512
g330
(g1603
g332
Ntp2513
Rp2514
(dp2515
g1607
g1615
sg1608
g1631
sg356
S'c:/marmalade/7.5/s3e/h/s3eThread.h'
p2516
sbsS'ucontext.h'
p2517
g330
(g1603
g332
Ntp2518
Rp2519
(dp2520
g1607
g1615
sg1608
g1637
sg356
S'c:/marmalade/7.5/s3e/h/std/ucontext.h'
p2521
sbsS'time.h'
p2522
g330
(g1603
g332
Ntp2523
Rp2524
(dp2525
g1607
g1615
sg1608
g1637
sg356
S'c:/marmalade/7.5/s3e/h/std/time.h'
p2526
sbsS'jchuff.h'
p2527
g330
(g1603
g332
Ntp2528
Rp2529
(dp2530
g1607
g1101
sg1608
g1703
sg356
g1118
sbsS'IwSoundPCM.cpp'
p2531
g330
(g1603
g332
Ntp2532
Rp2533
(dp2534
g1607
g1142
sg1608
g1655
sg356
g1163
sbsS's3eSoundRecord.h'
p2535
g330
(g1603
g332
Ntp2536
Rp2537
(dp2538
g1607
g1615
sg1608
g1631
sg356
S'c:/marmalade/7.5/s3e/h/s3eSoundRecord.h'
p2539
sbsS'IwFibre.h'
p2540
g330
(g1603
g332
Ntp2541
Rp2542
(dp2543
g1607
g1474
sg1608
g1644
sg356
g1560
sbsS's3eVersion.h'
p2544
g330
(g1603
g332
Ntp2545
Rp2546
(dp2547
g1607
g1615
sg1608
g1631
sg356
S'c:/marmalade/7.5/s3e/h/s3eVersion.h'
p2548
sbsS'input.cpp'
p2549
g330
(g1603
g332
Ntp2550
Rp2551
(dp2552
g1607
g1199
sg1608
g1759
sg356
g1220
sbsS'IwSoundGroup.h'
p2553
g330
(g1603
g332
Ntp2554
Rp2555
(dp2556
g1607
g1142
sg1608
g1655
sg356
g1188
sbsS'IwSoundWAV.h'
p2557
g330
(g1603
g332
Ntp2558
Rp2559
(dp2560
g1607
g1142
sg1608
g1655
sg356
g1169
sbsS'IwGxFontGlyph.h'
p2561
g330
(g1603
g332
Ntp2562
Rp2563
(dp2564
g1607
g1288
sg1608
g1609
sg356
g1286
sbsS's3eTypes.h'
p2565
g330
(g1603
g332
Ntp2566
Rp2567
(dp2568
g1607
g1615
sg1608
g1631
sg356
S'c:/marmalade/7.5/s3e/h/s3eTypes.h'
p2569
sbsS'IwSoundSpec.h'
p2570
g330
(g1603
g332
Ntp2571
Rp2572
(dp2573
g1607
g1142
sg1608
g1655
sg356
g1157
sbsS'signal_2.h'
p2574
g330
(g1603
g332
Ntp2575
Rp2576
(dp2577
g1607
g1615
sg1608
g1616
sg356
S'c:/marmalade/7.5/s3e/h/std/c++/signal.h'
p2578
sbsS'termios.h'
p2579
g330
(g1603
g332
Ntp2580
Rp2581
(dp2582
g1607
g1615
sg1608
g1637
sg356
S'c:/marmalade/7.5/s3e/h/std/termios.h'
p2583
sbsS'iw2dscenegraph.mkf'
p2584
g330
(g1603
g332
Ntp2585
Rp2586
(dp2587
g1607
g1259
sg1608
g1929
sg356
g1257
sbsS'slist'
p2588
g330
(g1603
g332
Ntp2589
Rp2590
(dp2591
g1607
g1615
sg1608
g1616
sg356
S'c:/marmalade/7.5/s3e/h/std/c++/slist'
p2592
sbsS'cstdlib'
p2593
g330
(g1603
g332
Ntp2594
Rp2595
(dp2596
g1607
g1615
sg1608
g1616
sg356
S'c:/marmalade/7.5/s3e/h/std/c++/cstdlib'
p2597
sbsS's3eLocation.h'
p2598
g330
(g1603
g332
Ntp2599
Rp2600
(dp2601
g1607
g1615
sg1608
g1631
sg356
S'c:/marmalade/7.5/s3e/h/s3eLocation.h'
p2602
sbsS'IwMemBucketHelpers.h'
p2603
g330
(g1603
g332
Ntp2604
Rp2605
(dp2606
g1607
g1474
sg1608
g1644
sg356
g1511
sbsS's3eHash.h'
p2607
g330
(g1603
g332
Ntp2608
Rp2609
(dp2610
g1607
g1615
sg1608
g1631
sg356
S'c:/marmalade/7.5/s3e/h/s3eHash.h'
p2611
sbsS'IwSoundGroup.cpp'
p2612
g330
(g1603
g332
Ntp2613
Rp2614
(dp2615
g1607
g1142
sg1608
g1655
sg356
g1140
sbsS'IwGeomFMat.h'
p2616
g330
(g1603
g332
Ntp2617
Rp2618
(dp2619
g1607
g1310
sg1608
g1669
sg356
g1338
sbsS'type_traits.h'
p2620
g330
(g1603
g332
Ntp2621
Rp2622
(dp2623
g1607
g1615
sg1608
g1616
sg356
S'c:/marmalade/7.5/s3e/h/std/c++/type_traits.h'
p2624
sbsS's3eAtomic.h'
p2625
g330
(g1603
g332
Ntp2626
Rp2627
(dp2628
g1607
g1615
sg1608
g1631
sg356
S'c:/marmalade/7.5/s3e/h/s3eAtomic.h'
p2629
sbsS'IwMenu.h'
p2630
g330
(g1603
g332
Ntp2631
Rp2632
(dp2633
g1607
g1474
sg1608
g1644
sg356
g1564
sbsS'IwResHandlerITX.h'
p2634
g330
(g1603
g332
Ntp2635
Rp2636
(dp2637
g1607
g1386
sg1608
g1887
sg356
g1384
sbsS'IwSoundData.h'
p2638
g330
(g1603
g332
Ntp2639
Rp2640
(dp2641
g1607
g1142
sg1608
g1655
sg356
g1181
sbsS'IwArray.h'
p2642
g330
(g1603
g332
Ntp2643
Rp2644
(dp2645
g1607
g1474
sg1608
g1644
sg356
g1562
sbsS'IwUTF8.h'
p2646
g330
(g1603
g332
Ntp2647
Rp2648
(dp2649
g1607
g1474
sg1608
g1644
sg356
g1505
sbsS'math_rvct.h'
p2650
g330
(g1603
g332
Ntp2651
Rp2652
(dp2653
g1607
g1615
sg1608
g1637
sg356
S'c:/marmalade/7.5/s3e/h/std/math_rvct.h'
p2654
sbsS'IwUtil.h'
p2655
g330
(g1603
g332
Ntp2656
Rp2657
(dp2658
g1607
g1474
sg1608
g1644
sg356
g1546
sbsS'IwFColour.h'
p2659
g330
(g1603
g332
Ntp2660
Rp2661
(dp2662
g1607
g1410
sg1608
g1749
sg356
g1445
sbsS'wctype.h'
p2663
g330
(g1603
g332
Ntp2664
Rp2665
(dp2666
g1607
g1615
sg1608
g1637
sg356
S'c:/marmalade/7.5/s3e/h/std/wctype.h'
p2667
sbsS'mainMenu.h'
p2668
g330
(g1603
g332
Ntp2669
Rp2670
(dp2671
g1607
g1199
sg1608
g1759
sg356
g1228
sbsS'cstddef'
p2672
g330
(g1603
g332
Ntp2673
Rp2674
(dp2675
g1607
g1615
sg1608
g1616
sg356
S'c:/marmalade/7.5/s3e/h/std/c++/cstddef'
p2676
sbsS'assert.h'
p2677
g330
(g1603
g332
Ntp2678
Rp2679
(dp2680
g1607
g1615
sg1608
g1637
sg356
S'c:/marmalade/7.5/s3e/h/std/assert.h'
p2681
sbsS'mman.h'
p2682
g330
(g1603
g332
Ntp2683
Rp2684
(dp2685
g1607
g1615
sg1608
g1768
sg356
S'c:/marmalade/7.5/s3e/h/std/sys/mman.h'
p2686
sbsS'IwRandom.h'
p2687
g330
(g1603
g332
Ntp2688
Rp2689
(dp2690
g1607
g1474
sg1608
g1644
sg356
g1501
sbsS'libgen.h'
p2691
g330
(g1603
g332
Ntp2692
Rp2693
(dp2694
g1607
g1615
sg1608
g1637
sg356
S'c:/marmalade/7.5/s3e/h/std/libgen.h'
p2695
sbsS'utsname.h'
p2696
g330
(g1603
g332
Ntp2697
Rp2698
(dp2699
g1607
g1615
sg1608
g1768
sg356
S'c:/marmalade/7.5/s3e/h/std/sys/utsname.h'
p2700
sbsS'wait.h'
p2701
g330
(g1603
g332
Ntp2702
Rp2703
(dp2704
g1607
g1615
sg1608
g1768
sg356
S'c:/marmalade/7.5/s3e/h/std/sys/wait.h'
p2705
sbsS'param.h'
p2706
g330
(g1603
g332
Ntp2707
Rp2708
(dp2709
g1607
g1615
sg1608
g1768
sg356
S'c:/marmalade/7.5/s3e/h/std/sys/param.h'
p2710
sbsS'IwDivide.h'
p2711
g330
(g1603
g332
Ntp2712
Rp2713
(dp2714
g1607
g1474
sg1608
g1644
sg356
g1481
sbsS'Iw2DSceneGraphCore.cpp'
p2715
g330
(g1603
g332
Ntp2716
Rp2717
(dp2718
g1607
g1467
sg1608
(lp2719
S"'Marmalade Studio'"
p2720
ag1460
asg356
g1468
sbsS'IwResManager.h'
p2721
g330
(g1603
g332
Ntp2722
Rp2723
(dp2724
g1607
g1386
sg1608
g1887
sg356
g1393
sbsS'IwSoundManager.h'
p2725
g330
(g1603
g332
Ntp2726
Rp2727
(dp2728
g1607
g1142
sg1608
g1655
sg356
g1161
sbsS'cwctype'
p2729
g330
(g1603
g332
Ntp2730
Rp2731
(dp2732
g1607
g1615
sg1608
g1616
sg356
S'c:/marmalade/7.5/s3e/h/std/c++/cwctype'
p2733
sbsS'set'
p2734
g330
(g1603
g332
Ntp2735
Rp2736
(dp2737
g1607
g1615
sg1608
g1616
sg356
S'c:/marmalade/7.5/s3e/h/std/c++/set'
p2738
sbsS'IwGeomSQuat.h'
p2739
g330
(g1603
g332
Ntp2740
Rp2741
(dp2742
g1607
g1310
sg1608
g1669
sg356
g1334
sbsS'locale'
p2743
g330
(g1603
g332
Ntp2744
Rp2745
(dp2746
g1607
g1615
sg1608
g1616
sg356
S'c:/marmalade/7.5/s3e/h/std/c++/locale'
p2747
sbsS'cstdio'
p2748
g330
(g1603
g332
Ntp2749
Rp2750
(dp2751
g1607
g1615
sg1608
g1616
sg356
S'c:/marmalade/7.5/s3e/h/std/c++/cstdio'
p2752
sbsS'cdjpeg.h'
p2753
g330
(g1603
g332
Ntp2754
Rp2755
(dp2756
g1607
g1101
sg1608
g1703
sg356
g1120
sbsS'audio.h'
p2757
g330
(g1603
g332
Ntp2758
Rp2759
(dp2760
g1607
g1199
sg1608
g1759
sg356
g1216
sbsS'IwList.h'
p2761
g330
(g1603
g332
Ntp2762
Rp2763
(dp2764
g1607
g1474
sg1608
g1644
sg356
g1533
sbsS'pauseMenu.cpp'
p2765
g330
(g1603
g332
Ntp2766
Rp2767
(dp2768
g1607
g1199
sg1608
g1759
sg356
g1200
sbsS'inttypes.h'
p2769
g330
(g1603
g332
Ntp2770
Rp2771
(dp2772
g1607
g1615
sg1608
g1637
sg356
S'c:/marmalade/7.5/s3e/h/std/inttypes.h'
p2773
sbsS'dirent.h'
p2774
g330
(g1603
g332
Ntp2775
Rp2776
(dp2777
g1607
g1615
sg1608
g1637
sg356
S'c:/marmalade/7.5/s3e/h/std/dirent.h'
p2778
sbsS'IwGeomVec3.h'
p2779
g330
(g1603
g332
Ntp2780
Rp2781
(dp2782
g1607
g1310
sg1608
g1669
sg356
g1328
sbsS'transupp.h'
p2783
g330
(g1603
g332
Ntp2784
Rp2785
(dp2786
g1607
g1101
sg1608
g1703
sg356
g1106
sbsS'IwMath.h'
p2787
g330
(g1603
g332
Ntp2788
Rp2789
(dp2790
g1607
g1474
sg1608
g1644
sg356
g1475
sbsS'IwGeomQuat.h'
p2791
g330
(g1603
g332
Ntp2792
Rp2793
(dp2794
g1607
g1310
sg1608
g1669
sg356
g1378
sbsS'glplatform.h'
p2795
g330
(g1603
g332
Ntp2796
Rp2797
(dp2798
g1607
g1615
sg1608
g1980
sg356
S'c:/marmalade/7.5/s3e/h/GLES/glplatform.h'
p2799
sbsS's3e-default.mkf'
p2800
g330
(g1603
g332
Ntp2801
Rp2802
(dp2803
g1607
g1599
sg1608
(lp2804
g1595
asg356
g1597
sbsS'iwgl.config.txt'
p2805
g330
(g1603
g332
Ntp2806
Rp2807
(dp2808
g1607
g1267
sg1608
g1625
sg356
g1268
sbsS'bitset'
p2809
g330
(g1603
g332
Ntp2810
Rp2811
(dp2812
g1607
g1615
sg1608
g1616
sg356
S'c:/marmalade/7.5/s3e/h/std/c++/bitset'
p2813
sbsS'alloca.h'
p2814
g330
(g1603
g332
Ntp2815
Rp2816
(dp2817
g1607
g1615
sg1608
g1637
sg356
S'c:/marmalade/7.5/s3e/h/std/alloca.h'
p2818
sbsS'IwResHandler.h'
p2819
g330
(g1603
g332
Ntp2820
Rp2821
(dp2822
g1607
g1386
sg1608
g1887
sg356
g1402
sbsS'IwResHandlerMTL.h'
p2823
g330
(g1603
g332
Ntp2824
Rp2825
(dp2826
g1607
g1410
sg1608
g1749
sg356
g1417
sbsS'IwRuntime.h'
p2827
g330
(g1603
g332
Ntp2828
Rp2829
(dp2830
g1607
g1474
sg1608
g1644
sg356
g1525
sbsS'limits'
p2831
g330
(g1603
g332
Ntp2832
Rp2833
(dp2834
g1607
g1615
sg1608
g1616
sg356
S'c:/marmalade/7.5/s3e/h/std/c++/limits'
p2835
sbsS'IwGeomBBox.h'
p2836
g330
(g1603
g332
Ntp2837
Rp2838
(dp2839
g1607
g1310
sg1608
g1669
sg356
g1368
sbsS's3eContacts.h'
p2840
g330
(g1603
g332
Ntp2841
Rp2842
(dp2843
g1607
g1615
sg1608
g1631
sg356
S'c:/marmalade/7.5/s3e/h/s3eContacts.h'
p2844
sbsS's3eLicense.h'
p2845
g330
(g1603
g332
Ntp2846
Rp2847
(dp2848
g1607
g1615
sg1608
g1631
sg356
S'c:/marmalade/7.5/s3e/h/s3eLicense.h'
p2849
sbsS'iwgx.config.txt'
p2850
g330
(g1603
g332
Ntp2851
Rp2852
(dp2853
g1607
g1410
sg1608
g1749
sg356
g1452
sbsS'IwTextParser.h'
p2854
g330
(g1603
g332
Ntp2855
Rp2856
(dp2857
g1607
g1474
sg1608
g1644
sg356
g1554
sbsS's3eTimer.h'
p2858
g330
(g1603
g332
Ntp2859
Rp2860
(dp2861
g1607
g1615
sg1608
g1631
sg356
S'c:/marmalade/7.5/s3e/h/s3eTimer.h'
p2862
sbsS'IwGeomVec.h'
p2863
g330
(g1603
g332
Ntp2864
Rp2865
(dp2866
g1607
g1310
sg1608
g1669
sg356
g1354
sbsS'IwSerialise.h'
p2867
g330
(g1603
g332
Ntp2868
Rp2869
(dp2870
g1607
g1474
sg1608
g1644
sg356
g1572
sbsS'cstdarg'
p2871
g330
(g1603
g332
Ntp2872
Rp2873
(dp2874
g1607
g1615
sg1608
g1616
sg356
S'c:/marmalade/7.5/s3e/h/std/c++/cstdarg'
p2875
sbsS'gl2ext.h'
p2876
g330
(g1603
g332
Ntp2877
Rp2878
(dp2879
g1607
g1615
sg1608
g1879
sg356
S'c:/marmalade/7.5/s3e/h/GLES2/gl2ext.h'
p2880
sbsS'IwChar.h'
p2881
g330
(g1603
g332
Ntp2882
Rp2883
(dp2884
g1607
g1474
sg1608
g1644
sg356
g1499
sbsS's3eSound.h'
p2885
g330
(g1603
g332
Ntp2886
Rp2887
(dp2888
g1607
g1615
sg1608
g1631
sg356
S'c:/marmalade/7.5/s3e/h/s3eSound.h'
p2889
sbsS'IwVariableBitField.h'
p2890
g330
(g1603
g332
Ntp2891
Rp2892
(dp2893
g1607
g1474
sg1608
g1644
sg356
g1537
sbsS'exception.h'
p2894
g330
(g1603
g332
Ntp2895
Rp2896
(dp2897
g1607
g1615
sg1608
g1616
sg356
S'c:/marmalade/7.5/s3e/h/std/c++/exception.h'
p2898
sbsS'iwgeom.config.txt'
p2899
g330
(g1603
g332
Ntp2900
Rp2901
(dp2902
g1607
g1310
sg1608
g1669
sg356
g1376
sbsS'iwgx.mkf'
p2903
g330
(g1603
g332
Ntp2904
Rp2905
(dp2906
g1607
g1451
sg1608
g1749
sg356
g1449
sbsS'gl.h'
p2907
g330
(g1603
g332
Ntp2908
Rp2909
(dp2910
g1607
g1615
sg1608
g1980
sg356
S'c:/marmalade/7.5/s3e/h/GLES/gl.h'
p2911
sbsS'zlib.h'
p2912
g330
(g1603
g332
Ntp2913
Rp2914
(dp2915
g1607
g1579
sg1608
g2314
sg356
g1580
sbsS'temp_defines_release.h'
p2916
g330
(g1603
g332
Ntp2917
Rp2918
(dp2919
g1607
(lp2920
sg1608
(lp2921
S"'generated files'"
p2922
asg356
S'c:/Marmalade/7.5/examples/GameTutorial/CPP/Stage4/build_stage4_vc12/temp_defines_release.h'
p2923
sbsS'iwgl.mkf'
p2924
g330
(g1603
g332
Ntp2925
Rp2926
(dp2927
g1607
g1264
sg1608
g1625
sg356
g1262
sbsS'IwColour.h'
p2928
g330
(g1603
g332
Ntp2929
Rp2930
(dp2931
g1607
g1410
sg1608
g1749
sg356
g1454
sbsS's3eLibrary.h'
p2932
g330
(g1603
g332
Ntp2933
Rp2934
(dp2935
g1607
g1615
sg1608
g1842
sg356
S'c:/marmalade/7.5/s3e/h/ext/s3eLibrary.h'
p2936
sbsS'types.h'
p2937
g330
(g1603
g332
Ntp2938
Rp2939
(dp2940
g1607
g1615
sg1608
g1768
sg356
S'c:/marmalade/7.5/s3e/h/std/sys/types.h'
p2941
sbsS'ifaddrs.h'
p2942
g330
(g1603
g332
Ntp2943
Rp2944
(dp2945
g1607
g1615
sg1608
g1637
sg356
S'c:/marmalade/7.5/s3e/h/std/ifaddrs.h'
p2946
sbsS'strstream'
p2947
g330
(g1603
g332
Ntp2948
Rp2949
(dp2950
g1607
g1615
sg1608
g1616
sg356
S'c:/marmalade/7.5/s3e/h/std/c++/strstream'
p2951
sbsS'IwTween.cpp'
p2952
g330
(g1603
g332
Ntp2953
Rp2954
(dp2955
g1607
g1589
sg1608
g2141
sg356
g1590
sbsS'exception'
p2956
g330
(g1603
g332
Ntp2957
Rp2958
(dp2959
g1607
g1615
sg1608
g1616
sg356
S'c:/marmalade/7.5/s3e/h/std/c++/exception'
p2960
sbsS'rlocks.h'
p2961
g330
(g1603
g332
Ntp2962
Rp2963
(dp2964
g1607
g1615
sg1608
g1616
sg356
S'c:/marmalade/7.5/s3e/h/std/c++/rlocks.h'
p2965
sbsS'ioctl.h'
p2966
g330
(g1603
g332
Ntp2967
Rp2968
(dp2969
g1607
g1615
sg1608
g1768
sg356
S'c:/marmalade/7.5/s3e/h/std/sys/ioctl.h'
p2970
sbsS'sem.h'
p2971
g330
(g1603
g332
Ntp2972
Rp2973
(dp2974
g1607
g1615
sg1608
g1768
sg356
S'c:/marmalade/7.5/s3e/h/std/sys/sem.h'
p2975
sbsS'jinclude.h'
p2976
g330
(g1603
g332
Ntp2977
Rp2978
(dp2979
g1607
g1101
sg1608
g1703
sg356
g1108
sbsS'IwEvent.h'
p2980
g330
(g1603
g332
Ntp2981
Rp2982
(dp2983
g1607
g1474
sg1608
g1644
sg356
g1558
sbsS'IwOptimiseSize.h'
p2984
g330
(g1603
g332
Ntp2985
Rp2986
(dp2987
g1607
g1474
sg1608
g1644
sg356
g1523
sbsS'iwgxfont_public.defines.txt'
p2988
g330
(g1603
g332
Ntp2989
Rp2990
(dp2991
g1607
g1288
sg1608
g1609
sg356
g1304
sbsS'iconv.h'
p2992
g330
(g1603
g332
Ntp2993
Rp2994
(dp2995
g1607
g1615
sg1608
g1637
sg356
S'c:/marmalade/7.5/s3e/h/std/iconv.h'
p2996
sbsS's3eDevice.h'
p2997
g330
(g1603
g332
Ntp2998
Rp2999
(dp3000
g1607
g1615
sg1608
g1631
sg356
S'c:/marmalade/7.5/s3e/h/s3eDevice.h'
p3001
sbsS'IwGeomSphere.h'
p3002
g330
(g1603
g332
Ntp3003
Rp3004
(dp3005
g1607
g1310
sg1608
g1669
sg356
g1311
sbsS'tiniconv.mkf'
p3006
g330
(g1603
g332
Ntp3007
Rp3008
(dp3009
g1607
g1132
sg1608
g2094
sg356
g1130
sbsS'iw2dscenegraph.defines.txt'
p3010
g330
(g1603
g332
Ntp3011
Rp3012
(dp3013
g1607
g1252
sg1608
g1929
sg356
g1253
sbsS'jdct.h'
p3014
g330
(g1603
g332
Ntp3015
Rp3016
(dp3017
g1607
g1101
sg1608
g1703
sg356
g1112
sbsS'cctype'
p3018
g330
(g1603
g332
Ntp3019
Rp3020
(dp3021
g1607
g1615
sg1608
g1616
sg356
S'c:/marmalade/7.5/s3e/h/std/c++/cctype'
p3022
sbsS'IwSoundADPCM.cpp'
p3023
g330
(g1603
g332
Ntp3024
Rp3025
(dp3026
g1607
g1142
sg1608
g1655
sg356
g1175
sbsS's3eConfig.h'
p3027
g330
(g1603
g332
Ntp3028
Rp3029
(dp3030
g1607
g1615
sg1608
g1631
sg356
S'c:/marmalade/7.5/s3e/h/s3eConfig.h'
p3031
sbsS'IwHashString.h'
p3032
g330
(g1603
g332
Ntp3033
Rp3034
(dp3035
g1607
g1474
sg1608
g1644
sg356
g1539
sbsS'stat.h'
p3036
g330
(g1603
g332
Ntp3037
Rp3038
(dp3039
g1607
g1615
sg1608
g1768
sg356
S'c:/marmalade/7.5/s3e/h/std/sys/stat.h'
p3040
sbsS'byteswap.h'
p3041
g330
(g1603
g332
Ntp3042
Rp3043
(dp3044
g1607
g1615
sg1608
g1637
sg356
S'c:/marmalade/7.5/s3e/h/std/byteswap.h'
p3045
sbsS'iwresmanager.mkf'
p3046
g330
(g1603
g332
Ntp3047
Rp3048
(dp3049
g1607
g1397
sg1608
g1887
sg356
g1395
sbsS'IwUtilInitTerm.h'
p3050
g330
(g1603
g332
Ntp3051
Rp3052
(dp3053
g1607
g1474
sg1608
g1644
sg356
g1568
sbsS'pthread_1.h'
p3054
g330
(g1603
g332
Ntp3055
Rp3056
(dp3057
g1607
g1615
sg1608
g1616
sg356
S'c:/marmalade/7.5/s3e/h/std/c++/pthread.h'
p3058
sbsS'iw2d.mkf'
p3059
g330
(g1603
g332
Ntp3060
Rp3061
(dp3062
g1607
g1283
sg1608
g1708
sg356
g1281
sbsS'complex'
p3063
g330
(g1603
g332
Ntp3064
Rp3065
(dp3066
g1607
g1615
sg1608
g1616
sg356
S'c:/marmalade/7.5/s3e/h/std/c++/complex'
p3067
sbsS'game.cpp'
p3068
g330
(g1603
g332
Ntp3069
Rp3070
(dp3071
g1607
g1199
sg1608
g1759
sg356
g1226
sbsS'algorithm'
p3072
g330
(g1603
g332
Ntp3073
Rp3074
(dp3075
g1607
g1615
sg1608
g1616
sg356
S'c:/marmalade/7.5/s3e/h/std/c++/algorithm'
p3076
sbsS's3e.icf'
p3077
g330
(g1603
g332
Ntp3078
Rp3079
(dp3080
g1607
g1615
sg1608
g1631
sg356
S'c:/marmalade/7.5/s3e/s3e.icf'
p3081
sbsS'resources.h'
p3082
g330
(g1603
g332
Ntp3083
Rp3084
(dp3085
g1607
g1199
sg1608
g1759
sg356
g1208
sbsS'IwGxFontState.h'
p3086
g330
(g1603
g332
Ntp3087
Rp3088
(dp3089
g1607
g1288
sg1608
g1609
sg356
g1293
sbsS'marmaladeexampleresources.mkf'
p3090
g330
(g1603
g332
Ntp3091
Rp3092
(dp3093
g1607
g1194
sg1608
(lp3094
g1190
asg356
g1192
sbsS'stdio.h'
p3095
g330
(g1603
g332
Ntp3096
Rp3097
(dp3098
g1607
g1615
sg1608
g1637
sg356
S'c:/marmalade/7.5/s3e/h/std/stdio.h'
p3099
sbsS'jmemsys.h'
p3100
g330
(g1603
g332
Ntp3101
Rp3102
(dp3103
g1607
g1101
sg1608
g1703
sg356
g1114
sbsS'ios'
p3104
g330
(g1603
g332
Ntp3105
Rp3106
(dp3107
g1607
g1615
sg1608
g1616
sg356
S'c:/marmalade/7.5/s3e/h/std/c++/ios'
p3108
sbsS'IwTween.h'
p3109
g330
(g1603
g332
Ntp3110
Rp3111
(dp3112
g1607
g1589
sg1608
g2141
sg356
g1587
sbsS'PVRTexTool.defines.txt'
p3113
g330
(g1603
g332
Ntp3114
Rp3115
(dp3116
g1607
g1238
sg1608
g2488
sg356
g1236
sbsS'stack'
p3117
g330
(g1603
g332
Ntp3118
Rp3119
(dp3120
g1607
g1615
sg1608
g1616
sg356
S'c:/marmalade/7.5/s3e/h/std/c++/stack'
p3121
sbsS'IwSoundParams.h'
p3122
g330
(g1603
g332
Ntp3123
Rp3124
(dp3125
g1607
g1142
sg1608
g1655
sg356
g1173
sbsS'new.h'
p3126
g330
(g1603
g332
Ntp3127
Rp3128
(dp3129
g1607
g1615
sg1608
g1616
sg356
S'c:/marmalade/7.5/s3e/h/std/c++/new.h'
p3130
sbsS's3eEMail.h'
p3131
g330
(g1603
g332
Ntp3132
Rp3133
(dp3134
g1607
g1615
sg1608
g1842
sg356
S'c:/marmalade/7.5/s3e/h/ext/s3eEMail.h'
p3135
sbsS's3eVideo.h'
p3136
g330
(g1603
g332
Ntp3137
Rp3138
(dp3139
g1607
g1615
sg1608
g1631
sg356
S'c:/marmalade/7.5/s3e/h/s3eVideo.h'
p3140
sbsS'pngconf.h'
p3141
g330
(g1603
g332
Ntp3142
Rp3143
(dp3144
g1607
g1087
sg1608
g2370
sg356
g1088
sbsS'pwd.h'
p3145
g330
(g1603
g332
Ntp3146
Rp3147
(dp3148
g1607
g1615
sg1608
g1637
sg356
S'c:/marmalade/7.5/s3e/h/std/pwd.h'
p3149
sbsS'IwOptimiseThumb.h'
p3150
g330
(g1603
g332
Ntp3151
Rp3152
(dp3153
g1607
g1474
sg1608
g1644
sg356
g1541
sbsS'gl3.h'
p3154
g330
(g1603
g332
Ntp3155
Rp3156
(dp3157
g1607
g1615
sg1608
g1940
sg356
S'c:/marmalade/7.5/s3e/h/GLES3/gl3.h'
p3158
sbsS'IwClip.h'
p3159
g330
(g1603
g332
Ntp3160
Rp3161
(dp3162
g1607
g1410
sg1608
g1749
sg356
g1423
sbsS'IwSoundInst.h'
p3163
g330
(g1603
g332
Ntp3164
Rp3165
(dp3166
g1607
g1142
sg1608
g1655
sg356
g1153
sbsS'iwresmanager.config.txt'
p3167
g330
(g1603
g332
Ntp3168
Rp3169
(dp3170
g1607
g1386
sg1608
g1887
sg356
g1398
sbsS'IwGxShaderTechnique.h'
p3171
g330
(g1603
g332
Ntp3172
Rp3173
(dp3174
g1607
g1410
sg1608
g1749
sg356
g1435
sbsS'IwCore.h'
p3175
g330
(g1603
g332
Ntp3176
Rp3177
(dp3178
g1607
g1474
sg1608
g1644
sg356
g1479
sbsS'cfloat'
p3179
g330
(g1603
g332
Ntp3180
Rp3181
(dp3182
g1607
g1615
sg1608
g1616
sg356
S'c:/marmalade/7.5/s3e/h/std/c++/cfloat'
p3183
sbsS'IwGeomMat2D.h'
p3184
g330
(g1603
g332
Ntp3185
Rp3186
(dp3187
g1607
g1310
sg1608
g1669
sg356
g1342
sbsS'IwAllocator.h'
p3188
g330
(g1603
g332
Ntp3189
Rp3190
(dp3191
g1607
g1474
sg1608
g1644
sg356
g1509
sbsS'IwPath.h'
p3192
g330
(g1603
g332
Ntp3193
Rp3194
(dp3195
g1607
g1474
sg1608
g1644
sg356
g1529
sbsS'iwgxfont.mkf'
p3196
g330
(g1603
g332
Ntp3197
Rp3198
(dp3199
g1607
g1299
sg1608
g1609
sg356
g1297
sbsS'IwTexture.h'
p3200
g330
(g1603
g332
Ntp3201
Rp3202
(dp3203
g1607
g1410
sg1608
g1749
sg356
g1413
sbsS'IwGeomVec.h.tpl'
p3204
g330
(g1603
g332
Ntp3205
Rp3206
(dp3207
g1607
g1310
sg1608
g1669
sg356
g1352
sbsS's3eAccelerometer.h'
p3208
g330
(g1603
g332
Ntp3209
Rp3210
(dp3211
g1607
g1615
sg1608
g1631
sg356
S'c:/marmalade/7.5/s3e/h/s3eAccelerometer.h'
p3212
sbsS'setjmp.h'
p3213
g330
(g1603
g332
Ntp3214
Rp3215
(dp3216
g1607
g1615
sg1608
g1637
sg356
S'c:/marmalade/7.5/s3e/h/std/setjmp.h'
p3217
sbsS'IwSoundParams.cpp'
p3218
g330
(g1603
g332
Ntp3219
Rp3220
(dp3221
g1607
g1142
sg1608
g1655
sg356
g1159
sbsS'IwFile.h'
p3222
g330
(g1603
g332
Ntp3223
Rp3224
(dp3225
g1607
g1474
sg1608
g1644
sg356
g1550
sbsS'IwTextParseable.h'
p3226
g330
(g1603
g332
Ntp3227
Rp3228
(dp3229
g1607
g1474
sg1608
g1644
sg356
g1497
sbsS'istream.h'
p3230
g330
(g1603
g332
Ntp3231
Rp3232
(dp3233
g1607
g1615
sg1608
g1616
sg356
S'c:/marmalade/7.5/s3e/h/std/c++/istream.h'
p3234
sbsS'stdint.h'
p3235
g330
(g1603
g332
Ntp3236
Rp3237
(dp3238
g1607
g1615
sg1608
g1637
sg356
S'c:/marmalade/7.5/s3e/h/std/stdint.h'
p3239
sbsS'semaphore.h'
p3240
g330
(g1603
g332
Ntp3241
Rp3242
(dp3243
g1607
g1615
sg1608
g1637
sg356
S'c:/marmalade/7.5/s3e/h/std/semaphore.h'
p3244
sbsS'ctime'
p3245
g330
(g1603
g332
Ntp3246
Rp3247
(dp3248
g1607
g1615
sg1608
g1616
sg356
S'c:/marmalade/7.5/s3e/h/std/c++/ctime'
p3249
sbsS'sstream'
p3250
g330
(g1603
g332
Ntp3251
Rp3252
(dp3253
g1607
g1615
sg1608
g1616
sg356
S'c:/marmalade/7.5/s3e/h/std/c++/sstream'
p3254
sbsS'IwGeomFBBox.h'
p3255
g330
(g1603
g332
Ntp3256
Rp3257
(dp3258
g1607
g1310
sg1608
g1669
sg356
g1336
sbsS'IwDebugPrim.h'
p3259
g330
(g1603
g332
Ntp3260
Rp3261
(dp3262
g1607
g1410
sg1608
g1749
sg356
g1408
sbsS'IwGxFontContainer.h'
p3263
g330
(g1603
g332
Ntp3264
Rp3265
(dp3266
g1607
g1288
sg1608
g1609
sg356
g1295
sbsS'IwGeomSVec3.h'
p3267
g330
(g1603
g332
Ntp3268
Rp3269
(dp3270
g1607
g1310
sg1608
g1669
sg356
g1313
sbsS'iw2dscenegraphcore.mkf'
p3271
g330
(g1603
g332
Ntp3272
Rp3273
(dp3274
g1607
g1464
sg1608
g2719
sg356
g1462
sbsS's3eExt.h'
p3275
g330
(g1603
g332
Ntp3276
Rp3277
(dp3278
g1607
g1615
sg1608
g1631
sg356
S'c:/marmalade/7.5/s3e/h/s3eExt.h'
p3279
sbsS'IwGeomFVec3.h'
p3280
g330
(g1603
g332
Ntp3281
Rp3282
(dp3283
g1607
g1310
sg1608
g1669
sg356
g1372
sbsS'streambuf'
p3284
g330
(g1603
g332
Ntp3285
Rp3286
(dp3287
g1607
g1615
sg1608
g1616
sg356
S'c:/marmalade/7.5/s3e/h/std/c++/streambuf'
p3288
sbsS's3eMetrics.h'
p3289
g330
(g1603
g332
Ntp3290
Rp3291
(dp3292
g1607
g1615
sg1608
g1842
sg356
S'c:/marmalade/7.5/s3e/h/ext/s3eMetrics.h'
p3293
sbsS'IwGxFont.h'
p3294
g330
(g1603
g332
Ntp3295
Rp3296
(dp3297
g1607
g1288
sg1608
g1609
sg356
g1302
sbsS's3eSecureStorage.h'
p3298
g330
(g1603
g332
Ntp3299
Rp3300
(dp3301
g1607
g1615
sg1608
g1631
sg356
S'c:/marmalade/7.5/s3e/h/s3eSecureStorage.h'
p3302
sbsS'string.h'
p3303
g330
(g1603
g332
Ntp3304
Rp3305
(dp3306
g1607
g1615
sg1608
g1637
sg356
S'c:/marmalade/7.5/s3e/h/std/string.h'
p3307
sbsS'IwResource.h'
p3308
g330
(g1603
g332
Ntp3309
Rp3310
(dp3311
g1607
g1474
sg1608
g1644
sg356
g1570
sbsS'IwGeomSVec2.h'
p3312
g330
(g1603
g332
Ntp3313
Rp3314
(dp3315
g1607
g1310
sg1608
g1669
sg356
g1308
sbsS'libjpeg.mkf'
p3316
g330
(g1603
g332
Ntp3317
Rp3318
(dp3319
g1607
g1097
sg1608
(lp3320
g1093
asg356
g1095
sbsS'IwGxDebug.h'
p3321
g330
(g1603
g332
Ntp3322
Rp3323
(dp3324
g1607
g1410
sg1608
g1749
sg356
g1433
sbsS'pthread_types.h'
p3325
g330
(g1603
g332
Ntp3326
Rp3327
(dp3328
g1607
g1615
sg1608
g1637
sg356
S'c:/marmalade/7.5/s3e/h/std/pthread_types.h'
p3329
sbsS'iomanip.h'
p3330
g330
(g1603
g332
Ntp3331
Rp3332
(dp3333
g1607
g1615
sg1608
g1616
sg356
S'c:/marmalade/7.5/s3e/h/std/c++/iomanip.h'
p3334
sbsS'IwKeymap.h'
p3335
g330
(g1603
g332
Ntp3336
Rp3337
(dp3338
g1607
g1474
sg1608
g1644
sg356
g1515
sbsS'IwDebug.h'
p3339
g330
(g1603
g332
Ntp3340
Rp3341
(dp3342
g1607
g1474
sg1608
g1644
sg356
g1503
sbsS's3eIOSBackgroundAudio.h'
p3343
g330
(g1603
g332
Ntp3344
Rp3345
(dp3346
g1607
g1615
sg1608
g1842
sg356
S'c:/marmalade/7.5/s3e/h/ext/s3eIOSBackgroundAudio.h'
p3347
sbsS'IwGeomMenu.h'
p3348
g330
(g1603
g332
Ntp3349
Rp3350
(dp3351
g1607
g1310
sg1608
g1669
sg356
g1366
sbsS'IwDivTable.h'
p3352
g330
(g1603
g332
Ntp3353
Rp3354
(dp3355
g1607
g1474
sg1608
g1644
sg356
g1493
sbsS'ctype.h'
p3356
g330
(g1603
g332
Ntp3357
Rp3358
(dp3359
g1607
g1615
sg1608
g1637
sg356
S'c:/marmalade/7.5/s3e/h/std/ctype.h'
p3360
sbsS'mainMenu.cpp'
p3361
g330
(g1603
g332
Ntp3362
Rp3363
(dp3364
g1607
g1199
sg1608
g1759
sg356
g1224
sbsS'IwResGroup.h'
p3365
g330
(g1603
g332
Ntp3366
Rp3367
(dp3368
g1607
g1386
sg1608
g1887
sg356
g1400
sbsS'signal_1.h'
p3369
g330
(g1603
g332
Ntp3370
Rp3371
(dp3372
g1607
g1615
sg1608
g1768
sg356
S'c:/marmalade/7.5/s3e/h/std/sys/signal.h'
p3373
sbsS'IwSoundData.cpp'
p3374
g330
(g1603
g332
Ntp3375
Rp3376
(dp3377
g1607
g1142
sg1608
g1655
sg356
g1179
sbsS'main.cpp'
p3378
g330
(g1603
g332
Ntp3379
Rp3380
(dp3381
g1607
g1199
sg1608
g1759
sg356
g1197
sbsS'shm.h'
p3382
g330
(g1603
g332
Ntp3383
Rp3384
(dp3385
g1607
g1615
sg1608
g1768
sg356
S'c:/marmalade/7.5/s3e/h/std/sys/shm.h'
p3386
sbsS'IwManagedList.h'
p3387
g330
(g1603
g332
Ntp3388
Rp3389
(dp3390
g1607
g1474
sg1608
g1644
sg356
g1487
sbsS'prctl.h'
p3391
g330
(g1603
g332
Ntp3392
Rp3393
(dp3394
g1607
g1615
sg1608
g1768
sg356
S'c:/marmalade/7.5/s3e/h/std/sys/prctl.h'
p3395
sbsS'IwGxStream.h'
p3396
g330
(g1603
g332
Ntp3397
Rp3398
(dp3399
g1607
g1410
sg1608
g1749
sg356
g1421
sbsS'temp_defines_debug.h'
p3400
g330
(g1603
g332
Ntp3401
Rp3402
(dp3403
g1607
(lp3404
sg1608
(lp3405
g2922
asg356
S'c:/Marmalade/7.5/examples/GameTutorial/CPP/Stage4/build_stage4_vc12/temp_defines_debug.h'
p3406
sbsS'utility'
p3407
g330
(g1603
g332
Ntp3408
Rp3409
(dp3410
g1607
g1615
sg1608
g1616
sg356
S'c:/marmalade/7.5/s3e/h/std/c++/utility'
p3411
sbsS'input.h'
p3412
g330
(g1603
g332
Ntp3413
Rp3414
(dp3415
g1607
g1199
sg1608
g1759
sg356
g1202
sbsS'IwGeomLegacy.h'
p3416
g330
(g1603
g332
Ntp3417
Rp3418
(dp3419
g1607
g1310
sg1608
g1669
sg356
g1330
sbsS'IwTPage.h'
p3420
g330
(g1603
g332
Ntp3421
Rp3422
(dp3423
g1607
g1410
sg1608
g1749
sg356
g1458
sbsS'IwResSerialise.h'
p3424
g330
(g1603
g332
Ntp3425
Rp3426
(dp3427
g1607
g1386
sg1608
g1887
sg356
g1387
sbsS's3eCrypto.h'
p3428
g330
(g1603
g332
Ntp3429
Rp3430
(dp3431
g1607
g1615
sg1608
g1631
sg356
S'c:/marmalade/7.5/s3e/h/s3eCrypto.h'
p3432
sbsS's3eKeyboard.h'
p3433
g330
(g1603
g332
Ntp3434
Rp3435
(dp3436
g1607
g1615
sg1608
g1631
sg356
S'c:/marmalade/7.5/s3e/h/s3eKeyboard.h'
p3437
sbsS'fcntl.h'
p3438
g330
(g1603
g332
Ntp3439
Rp3440
(dp3441
g1607
g1615
sg1608
g1637
sg356
S'c:/marmalade/7.5/s3e/h/std/fcntl.h'
p3442
sbsS'Iw2DSceneGraphCore.h'
p3443
g330
(g1603
g332
Ntp3444
Rp3445
(dp3446
g1607
g1467
sg1608
g2719
sg356
g1465
sbsS'memory.h'
p3447
g330
(g1603
g332
Ntp3448
Rp3449
(dp3450
g1607
g1615
sg1608
g1637
sg356
S'c:/marmalade/7.5/s3e/h/std/memory.h'
p3451
sbsS'pthread.h'
p3452
g330
(g1603
g332
Ntp3453
Rp3454
(dp3455
g1607
g1615
sg1608
g1637
sg356
S'c:/marmalade/7.5/s3e/h/std/pthread.h'
p3456
sbsS'IwGeomIntersect.h'
p3457
g330
(g1603
g332
Ntp3458
Rp3459
(dp3460
g1607
g1310
sg1608
g1669
sg356
g1356
sbsS'IwTextParserITX.h'
p3461
g330
(g1603
g332
Ntp3462
Rp3463
(dp3464
g1607
g1474
sg1608
g1644
sg356
g1513
sbsS'IwClip.inl'
p3465
g330
(g1603
g332
Ntp3466
Rp3467
(dp3468
g1607
g1410
sg1608
g1749
sg356
g1443
sbsS'Iw2DSceneGraph.cpp'
p3469
g330
(g1603
g332
Ntp3470
Rp3471
(dp3472
g1607
g1252
sg1608
g1929
sg356
g1250
sbsS'ostream.h'
p3473
g330
(g1603
g332
Ntp3474
Rp3475
(dp3476
g1607
g1615
sg1608
g1616
sg356
S'c:/marmalade/7.5/s3e/h/std/c++/ostream.h'
p3477
sbsS'stl_user_config.h'
p3478
g330
(g1603
g332
Ntp3479
Rp3480
(dp3481
g1607
g1615
sg1608
g1616
sg356
S'c:/marmalade/7.5/s3e/h/std/c++/stl_user_config.h'
p3482
sbsS'IwProfileMenu.h'
p3483
g330
(g1603
g332
Ntp3484
Rp3485
(dp3486
g1607
g1474
sg1608
g1644
sg356
g1489
sbsS'MarmaladeVersion.h'
p3487
g330
(g1603
g332
Ntp3488
Rp3489
(dp3490
g1607
g1615
sg1608
g1631
sg356
S'c:/marmalade/7.5/s3e/h/MarmaladeVersion.h'
p3491
sbsS'IwResHandlerWAV.h'
p3492
g330
(g1603
g332
Ntp3493
Rp3494
(dp3495
g1607
g1142
sg1608
g1655
sg356
g1147
sbsS'gl3platform.h'
p3496
g330
(g1603
g332
Ntp3497
Rp3498
(dp3499
g1607
g1615
sg1608
g1940
sg356
S'c:/marmalade/7.5/s3e/h/GLES3/gl3platform.h'
p3500
sbsS'ios.h'
p3501
g330
(g1603
g332
Ntp3502
Rp3503
(dp3504
g1607
g1615
sg1608
g1616
sg356
S'c:/marmalade/7.5/s3e/h/std/c++/ios.h'
p3505
sbsS'IwImageHelper.h'
p3506
g330
(g1603
g332
Ntp3507
Rp3508
(dp3509
g1607
g1474
sg1608
g1644
sg356
g1485
sbsS'hash_set'
p3510
g330
(g1603
g332
Ntp3511
Rp3512
(dp3513
g1607
g1615
sg1608
g1616
sg356
S'c:/marmalade/7.5/s3e/h/std/c++/hash_set'
p3514
sbsS'IwGeomFQuat.h'
p3515
g330
(g1603
g332
Ntp3516
Rp3517
(dp3518
g1607
g1310
sg1608
g1669
sg356
g1320
sbsS'jmorecfg.h'
p3519
g330
(g1603
g332
Ntp3520
Rp3521
(dp3522
g1607
g1101
sg1608
g1703
sg356
g1110
sbsS'eglplatform.h'
p3523
g330
(g1603
g332
Ntp3524
Rp3525
(dp3526
g1607
g1615
sg1608
g1972
sg356
S'c:/marmalade/7.5/s3e/h/EGL/eglplatform.h'
p3527
sbsS'cmath'
p3528
g330
(g1603
g332
Ntp3529
Rp3530
(dp3531
g1607
g1615
sg1608
g1616
sg356
S'c:/marmalade/7.5/s3e/h/std/c++/cmath'
p3532
sbsS'math_gcc.h'
p3533
g330
(g1603
g332
Ntp3534
Rp3535
(dp3536
g1607
g1615
sg1608
g1637
sg356
S'c:/marmalade/7.5/s3e/h/std/math_gcc.h'
p3537
sbsS's3eMemory.h'
p3538
g330
(g1603
g332
Ntp3539
Rp3540
(dp3541
g1607
g1615
sg1608
g1631
sg356
S'c:/marmalade/7.5/s3e/h/s3eMemory.h'
p3542
sbsS'strings.h'
p3543
g330
(g1603
g332
Ntp3544
Rp3545
(dp3546
g1607
g1615
sg1608
g1637
sg356
S'c:/marmalade/7.5/s3e/h/std/strings.h'
p3547
sbsS's3eFile.h'
p3548
g330
(g1603
g332
Ntp3549
Rp3550
(dp3551
g1607
g1615
sg1608
g1631
sg356
S'c:/marmalade/7.5/s3e/h/s3eFile.h'
p3552
sbsS'IwGxTypes.h'
p3553
g330
(g1603
g332
Ntp3554
Rp3555
(dp3556
g1607
g1410
sg1608
g1749
sg356
g1447
sbsS'cerrno'
p3557
g330
(g1603
g332
Ntp3558
Rp3559
(dp3560
g1607
g1615
sg1608
g1616
sg356
S'c:/marmalade/7.5/s3e/h/std/c++/cerrno'
p3561
sbsS'IwSoundManager.cpp'
p3562
g330
(g1603
g332
Ntp3563
Rp3564
(dp3565
g1607
g1142
sg1608
g1655
sg356
g1155
sbsS'main.h'
p3566
g330
(g1603
g332
Ntp3567
Rp3568
(dp3569
g1607
g1199
sg1608
g1759
sg356
g1210
sbsS'soundengine.mkf'
p3570
g330
(g1603
g332
Ntp3571
Rp3572
(dp3573
g1607
g1187
sg1608
g1655
sg356
g1185
sbsS'resource.h'
p3574
g330
(g1603
g332
Ntp3575
Rp3576
(dp3577
g1607
g1615
sg1608
g1768
sg356
S'c:/marmalade/7.5/s3e/h/std/sys/resource.h'
p3578
sbsS'clocale'
p3579
g330
(g1603
g332
Ntp3580
Rp3581
(dp3582
g1607
g1615
sg1608
g1616
sg356
S'c:/marmalade/7.5/s3e/h/std/c++/clocale'
p3583
sbsS'pvrtextool.mkf'
p3584
g330
(g1603
g332
Ntp3585
Rp3586
(dp3587
g1607
g1245
sg1608
g2246
sg356
g1243
sbsS'csetjmp'
p3588
g330
(g1603
g332
Ntp3589
Rp3590
(dp3591
g1607
g1615
sg1608
g1616
sg356
S'c:/marmalade/7.5/s3e/h/std/c++/csetjmp'
p3592
sbsS'netdb.h'
p3593
g330
(g1603
g332
Ntp3594
Rp3595
(dp3596
g1607
g1615
sg1608
g1637
sg356
S'c:/marmalade/7.5/s3e/h/std/netdb.h'
p3597
sbsS's3eAndroidJNI.h'
p3598
g330
(g1603
g332
Ntp3599
Rp3600
(dp3601
g1607
g1615
sg1608
g1842
sg356
S'c:/marmalade/7.5/s3e/h/ext/s3eAndroidJNI.h'
p3602
sbsS'stdexcept'
p3603
g330
(g1603
g332
Ntp3604
Rp3605
(dp3606
g1607
g1615
sg1608
g1616
sg356
S'c:/marmalade/7.5/s3e/h/std/c++/stdexcept'
p3607
sbsS'math.h'
p3608
g330
(g1603
g332
Ntp3609
Rp3610
(dp3611
g1607
g1615
sg1608
g1637
sg356
S'c:/marmalade/7.5/s3e/h/std/math.h'
p3612
sbsS'stdbool.h'
p3613
g330
(g1603
g332
Ntp3614
Rp3615
(dp3616
g1607
g1615
sg1608
g1637
sg356
S'c:/marmalade/7.5/s3e/h/std/stdbool.h'
p3617
sbsS'uio.h'
p3618
g330
(g1603
g332
Ntp3619
Rp3620
(dp3621
g1607
g1615
sg1608
g1768
sg356
S'c:/marmalade/7.5/s3e/h/std/sys/uio.h'
p3622
sbsS'IwUncopyable.h'
p3623
g330
(g1603
g332
Ntp3624
Rp3625
(dp3626
g1607
g1474
sg1608
g1644
sg356
g1552
sbssS'juice_build_type'
p3627
g4
sS'tests'
p3628
(lp3629
sS'project_name'
p3630
g338
sS'root_file'
p3631
g134
sS'current_root'
p3632
S'c:/Marmalade/7.5/examples/GameTutorial/CPP/Stage4'
p3633
sS'dependencies'
p3634
(lp3635
sS'include_paths'
p3636
(lp3637
S'c:/marmalade/7.5/modules/iw2d/h'
p3638
aS'c:/marmalade/7.5/modules/iwgx/h'
p3639
aS'c:/marmalade/7.5/modules/iwgl/h'
p3640
aS'c:/marmalade/7.5/modules/iwutil/h'
p3641
aS'c:/marmalade/7.5/modules/third_party/libjpeg/h'
p3642
aS'c:/marmalade/7.5/modules/third_party/zlib/h'
p3643
aS'c:/marmalade/7.5/modules/third_party/libpng/h'
p3644
aS'c:/marmalade/7.5/modules/iwgeom/h'
p3645
aS'c:/marmalade/7.5/modules/iwresmanager/h'
p3646
aS'c:/marmalade/7.5/extensions/pvrtextool/h'
p3647
aS'c:/marmalade/7.5/modules/iwgxfont/h'
p3648
aS'c:/marmalade/7.5/modules/third_party/tiniconv/source'
p3649
aS'c:/marmalade/7.5/modules/iw2dscenegraph/h'
p3650
aS'c:/marmalade/7.5/modules/iw2dscenegraphcore/h'
p3651
aS'c:/marmalade/7.5/modules/iwtween/h'
p3652
aS'c:/marmalade/7.5/examples/gametutorial/cpp/modules/soundengine/h'
p3653
aS'c:/marmalade/7.5/examples/gametutorial/cpp/modules/soundengine/source'
p3654
aS'c:/marmalade/7.5/s3e/h'
p3655
aS'c:/marmalade/7.5/s3e/h/ext'
p3656
aS'c:/marmalade/7.5/s3e/h/std'
p3657
aS'c:/marmalade/7.5/s3e/h/std/c++'
p3658
aS'c:/marmalade/7.5/s3e/h/ext_legacy'
p3659
aS'c:/marmalade/7.5/s3e/h/legacy'
p3660
asS'weak_frameworks'
p3661
(lp3662
sS'extprojects'
p3663
(dp3664
sg600
(dp3665
g594
(lp3666
(S'c:/Marmalade/7.5/examples/GameTutorial/CPP/Stage4/data/audio'
p3667
S'audio'
p3668
I0
tp3669
a(S'c:/Marmalade/7.5/examples/GameTutorial/CPP/Stage4/data/textures'
p3670
S'textures'
p3671
I0
tp3672
a(S'c:/Marmalade/7.5/examples/GameTutorial/CPP/Stage4/data/fonts'
p3673
S'fonts'
p3674
I0
tp3675
a(S'c:/Marmalade/7.5/examples/GameTutorial/CPP/Stage4/data-ram/data-gles1,c:/Marmalade/7.5/examples/GameTutorial/CPP/Stage4/data'
p3676
S'.'
p3677
I0
tp3678
assS'macro_types'
p3679
(dp3680
g529
I1
sg530
I0
sg531
I0
sg532
I0
sg534
I0
sg535
I0
sg536
I0
sg537
I0
sg538
I0
sg540
I0
sg541
I0
sg542
I0
sg543
I0
sg544
I0
sg546
I0
sg548
I0
sg549
I0
sg550
I0
sg551
I0
sg552
I0
sg553
I0
sg554
I0
sg555
I0
sg556
I1
sg557
I0
sg558
I0
sg559
I0
sg560
I0
sg561
I01
sg562
I1
sg563
I0
sg564
I0
sg565
I0
sg566
I0
sg567
I0
sg568
I0
sg569
I0
ssS'commands'
p3681
(lp3682
sg602
(g1074
S'VC12'
p3683
S'X86ARMAARCH64'
p3684
tp3685
sS'build_libs'
p3686
(dp3687
sg604
g0
sS'frameworks'
p3688
(lp3689
sS'environ'
p3690
(dp3691
sS'target_name_debug'
p3692
g338
sS'builders'
p3693
(dp3694
g594
(dp3695
S'.S'
p3696
(dp3697
S'gcc_aarch64'
p3698
(lp3699
S'.obj'
p3700
aS'echo AARCH64 Assembling(GCC) ${SOURCE}...'
p3701
aS'c:/marmalade/7.5/s3e\\gcc\\win32\\aarch64\\bin\\aarch64-none-elf-gcc -c -o ${TARGET} ${SOURCE}'
p3702
asS'rvct'
p3703
(lp3704
g3700
aS'echo ARM Assembling(RVCT) ${SOURCE}...'
p3705
aS'c:/marmalade/7.5/s3e\\rvct\\bin\\armasm -o ${TARGET} ${SOURCE}'
p3706
asg452
(lp3707
g3700
aS'echo ARM Assembling(GCC) ${SOURCE}...'
p3708
aS'c:/marmalade/7.5/s3e\\gcc\\win32\\arm\\bin\\arm-none-eabi-gcc -c -o ${TARGET} ${SOURCE}'
p3709
asS'ppu'
p3710
(lp3711
S'.a'
p3712
aS'echo PPU Assembling(SNC) ${SOURCE}...'
p3713
aS'c:/marmalade/7.5/s3e\\rvct\\bin\\armasm -o ${TARGET} ${SOURCE}'
p3714
assS'.s'
p3715
g3697
sS'.vp'
p3716
(lp3717
NaS'"C:/Marmalade/7.5/s3e/python/python.exe" "c:/marmalade/7.5/modules/iwgx/tools/compile_shaders.py" ${SOURCE}'
p3718
asssS'extproject_names'
p3719
(lp3720
sbtp3721
.